ARM GAS  C:\Users\minis\AppData\Local\Temp\cc4dDDks.s 			page 1


   1              		.cpu cortex-m7
   2              		.arch armv7e-m
   3              		.fpu fpv4-sp-d16
   4              		.eabi_attribute 27, 1
   5              		.eabi_attribute 28, 1
   6              		.eabi_attribute 20, 1
   7              		.eabi_attribute 21, 1
   8              		.eabi_attribute 23, 3
   9              		.eabi_attribute 24, 1
  10              		.eabi_attribute 25, 1
  11              		.eabi_attribute 26, 1
  12              		.eabi_attribute 30, 1
  13              		.eabi_attribute 34, 1
  14              		.eabi_attribute 18, 4
  15              		.file	"main.c"
  16              		.text
  17              	.Ltext0:
  18              		.cfi_sections	.debug_frame
  19              		.file 1 "../../CM4/Core/Src/main.c"
  20              		.section	.text.MX_GPIO_Init,"ax",%progbits
  21              		.align	1
  22              		.syntax unified
  23              		.thumb
  24              		.thumb_func
  26              	MX_GPIO_Init:
  27              	.LFB139:
   1:../../CM4/Core/Src/main.c **** /**
   2:../../CM4/Core/Src/main.c ****  ******************************************************************************
   3:../../CM4/Core/Src/main.c ****  * @file           : main_debug.c
   4:../../CM4/Core/Src/main.c ****  * @brief          : JSN-SR04T ultrasonic sensor demo
   5:../../CM4/Core/Src/main.c ****  *
   6:../../CM4/Core/Src/main.c ****  * Sequence:
   7:../../CM4/Core/Src/main.c ****  *   PHASE 1 (5s): TRIG toggles 500ms on/500ms off  → probe PD1 with multimeter
   8:../../CM4/Core/Src/main.c ****  *   PHASE 2 (5s): raw ECHO read → GREEN=HIGH, RED=LOW
   9:../../CM4/Core/Src/main.c ****  *   PHASE 3 (5s): full trigger+echo attempt → GREEN=echo received, RED=timeout
  10:../../CM4/Core/Src/main.c ****  *   PHASE 4:      loop showing distance via blinks (if phase 3 worked)
  11:../../CM4/Core/Src/main.c ****  ******************************************************************************
  12:../../CM4/Core/Src/main.c ****  */
  13:../../CM4/Core/Src/main.c **** 
  14:../../CM4/Core/Src/main.c **** #include "main.h"
  15:../../CM4/Core/Src/main.c **** #include "shared_data.h"
  16:../../CM4/Core/Src/main.c **** #include <stdio.h> // Indispensabile per la funzione printf
  17:../../CM4/Core/Src/main.c **** 
  18:../../CM4/Core/Src/main.c **** TIM_HandleTypeDef htim2;
  19:../../CM4/Core/Src/main.c **** /* Assicurati che la variabile UART globale generata da CubeMX sia visibile */
  20:../../CM4/Core/Src/main.c **** /* Sostituisci huart1 con l'handle della UART che hai scelto (es. huart3) */
  21:../../CM4/Core/Src/main.c **** UART_HandleTypeDef huart4;
  22:../../CM4/Core/Src/main.c **** 
  23:../../CM4/Core/Src/main.c **** #define TIMER_TARGET_HZ 1000000U
  24:../../CM4/Core/Src/main.c **** #define TRIG_RESET_TIME_US 2U
  25:../../CM4/Core/Src/main.c **** #define TRIG_PULSE_TIME_US 10U
  26:../../CM4/Core/Src/main.c **** #define ECHO_WAIT_TIMEOUT_US 30000U
  27:../../CM4/Core/Src/main.c **** #define ECHO_PULSE_TIMEOUT_US 26000U
  28:../../CM4/Core/Src/main.c **** 
  29:../../CM4/Core/Src/main.c **** #define BUSY(n)                                                                \
  30:../../CM4/Core/Src/main.c ****   do {                                                                         \
  31:../../CM4/Core/Src/main.c ****     for (volatile int _i = 0; _i < (n); _i++)                                  \
ARM GAS  C:\Users\minis\AppData\Local\Temp\cc4dDDks.s 			page 2


  32:../../CM4/Core/Src/main.c ****       ;                                                                        \
  33:../../CM4/Core/Src/main.c ****   } while (0)
  34:../../CM4/Core/Src/main.c **** 
  35:../../CM4/Core/Src/main.c **** #define LED_GREEN_ON() (GPIOB->BSRR = (1U << 0))
  36:../../CM4/Core/Src/main.c **** #define LED_GREEN_OFF() (GPIOB->BSRR = (1U << 16))
  37:../../CM4/Core/Src/main.c **** #define LED_RED_ON() (GPIOB->BSRR = (1U << 14))
  38:../../CM4/Core/Src/main.c **** #define LED_RED_OFF() (GPIOB->BSRR = (1U << 30))
  39:../../CM4/Core/Src/main.c **** #define LED_ALL_OFF()                                                          \
  40:../../CM4/Core/Src/main.c ****   do {                                                                         \
  41:../../CM4/Core/Src/main.c ****     LED_GREEN_OFF();                                                           \
  42:../../CM4/Core/Src/main.c ****     LED_RED_OFF();                                                             \
  43:../../CM4/Core/Src/main.c ****   } while (0)
  44:../../CM4/Core/Src/main.c **** 
  45:../../CM4/Core/Src/main.c **** static void SystemClock_Config(void);
  46:../../CM4/Core/Src/main.c **** static void MX_GPIO_Init(void);
  47:../../CM4/Core/Src/main.c **** static void MX_TIM2_Init(void);
  48:../../CM4/Core/Src/main.c **** static void MX_UART4_Init(void);
  49:../../CM4/Core/Src/main.c **** 
  50:../../CM4/Core/Src/main.c **** int main(void) {
  51:../../CM4/Core/Src/main.c ****   /* ------------------------------------------------------------------ */
  52:../../CM4/Core/Src/main.c ****   /* Pre-HAL GPIO: enable GPIOB for LEDs                                */
  53:../../CM4/Core/Src/main.c ****   /* ------------------------------------------------------------------ */
  54:../../CM4/Core/Src/main.c ****   RCC->AHB4ENR |= (1U << 1);
  55:../../CM4/Core/Src/main.c ****   BUSY(10000);
  56:../../CM4/Core/Src/main.c ****   GPIOB->MODER &= ~(3U << 0);
  57:../../CM4/Core/Src/main.c ****   GPIOB->MODER |= (1U << 0); /* PB0  out */
  58:../../CM4/Core/Src/main.c ****   GPIOB->MODER &= ~(3U << 28);
  59:../../CM4/Core/Src/main.c ****   GPIOB->MODER |= (1U << 28); /* PB14 out */
  60:../../CM4/Core/Src/main.c **** 
  61:../../CM4/Core/Src/main.c ****   /* Quick alive blink */
  62:../../CM4/Core/Src/main.c ****   for (int j = 0; j < 2; j++) {
  63:../../CM4/Core/Src/main.c ****     LED_GREEN_ON();
  64:../../CM4/Core/Src/main.c ****     LED_RED_ON();
  65:../../CM4/Core/Src/main.c ****     BUSY(3000000);
  66:../../CM4/Core/Src/main.c ****     LED_ALL_OFF();
  67:../../CM4/Core/Src/main.c ****     BUSY(3000000);
  68:../../CM4/Core/Src/main.c ****   }
  69:../../CM4/Core/Src/main.c **** 
  70:../../CM4/Core/Src/main.c ****   HAL_Init();
  71:../../CM4/Core/Src/main.c ****   SystemClock_Config();
  72:../../CM4/Core/Src/main.c ****   SCB->VTOR = 0x08100000;
  73:../../CM4/Core/Src/main.c ****   MX_GPIO_Init();
  74:../../CM4/Core/Src/main.c ****   MX_TIM2_Init();
  75:../../CM4/Core/Src/main.c ****   MX_UART4_Init();
  76:../../CM4/Core/Src/main.c ****   /* Abilitazione del clock per gli Hardware Semaphores */
  77:../../CM4/Core/Src/main.c ****   __HAL_RCC_HSEM_CLK_ENABLE();
  78:../../CM4/Core/Src/main.c **** 
  79:../../CM4/Core/Src/main.c ****   /* Compute prescaler */
  80:../../CM4/Core/Src/main.c ****   uint32_t pclk1 = HAL_RCC_GetPCLK1Freq();
  81:../../CM4/Core/Src/main.c ****   uint32_t apb1pre =
  82:../../CM4/Core/Src/main.c ****       (RCC->D2CFGR & RCC_D2CFGR_D2PPRE1_Msk) >> RCC_D2CFGR_D2PPRE1_Pos;
  83:../../CM4/Core/Src/main.c ****   uint32_t tim2clk = (apb1pre >= 0x04U) ? (pclk1 * 2U) : pclk1;
  84:../../CM4/Core/Src/main.c ****   uint32_t psc = (tim2clk / TIMER_TARGET_HZ);
  85:../../CM4/Core/Src/main.c ****   if (psc > 0U) {
  86:../../CM4/Core/Src/main.c ****     psc -= 1U;
  87:../../CM4/Core/Src/main.c ****   }
  88:../../CM4/Core/Src/main.c ****   __HAL_TIM_SET_PRESCALER(&htim2, psc);
ARM GAS  C:\Users\minis\AppData\Local\Temp\cc4dDDks.s 			page 3


  89:../../CM4/Core/Src/main.c ****   __HAL_TIM_SET_COUNTER(&htim2, 0);
  90:../../CM4/Core/Src/main.c ****   HAL_TIM_GenerateEvent(&htim2, TIM_EVENTSOURCE_UPDATE);
  91:../../CM4/Core/Src/main.c ****   HAL_TIM_Base_Start(&htim2);
  92:../../CM4/Core/Src/main.c **** 
  93:../../CM4/Core/Src/main.c ****   /* Clocks OK — 2 green blinks */
  94:../../CM4/Core/Src/main.c ****   for (int j = 0; j < 2; j++) {
  95:../../CM4/Core/Src/main.c ****     LED_GREEN_ON();
  96:../../CM4/Core/Src/main.c ****     HAL_Delay(200U);
  97:../../CM4/Core/Src/main.c ****     LED_GREEN_OFF();
  98:../../CM4/Core/Src/main.c ****     HAL_Delay(200U);
  99:../../CM4/Core/Src/main.c ****   }
 100:../../CM4/Core/Src/main.c ****   HAL_Delay(500U);
 101:../../CM4/Core/Src/main.c **** 
 102:../../CM4/Core/Src/main.c ****   /* ================================================================== */
 103:../../CM4/Core/Src/main.c ****   /* PHASE 1: TRIG toggle — probe PD1 with multimeter                   */
 104:../../CM4/Core/Src/main.c ****   /* Expected: ~3.3V / 0V alternating every 500ms                       */
 105:../../CM4/Core/Src/main.c ****   /* Failure:  stuck at 0V → GPIOD clock or MX_GPIO_Init broken         */
 106:../../CM4/Core/Src/main.c ****   /* ================================================================== */
 107:../../CM4/Core/Src/main.c **** 
 108:../../CM4/Core/Src/main.c ****   /* 1× slow red = entering phase 1 */
 109:../../CM4/Core/Src/main.c ****   LED_RED_ON();
 110:../../CM4/Core/Src/main.c ****   HAL_Delay(1000U);
 111:../../CM4/Core/Src/main.c ****   LED_RED_OFF();
 112:../../CM4/Core/Src/main.c ****   HAL_Delay(500U);
 113:../../CM4/Core/Src/main.c **** 
 114:../../CM4/Core/Src/main.c ****   uint32_t phase1_start = HAL_GetTick();
 115:../../CM4/Core/Src/main.c ****   while (HAL_GetTick() - phase1_start < 5000U) {
 116:../../CM4/Core/Src/main.c ****     HAL_GPIO_WritePin(GPIOD, GPIO_PIN_1, GPIO_PIN_SET);
 117:../../CM4/Core/Src/main.c ****     LED_GREEN_ON();
 118:../../CM4/Core/Src/main.c ****     HAL_Delay(500U);
 119:../../CM4/Core/Src/main.c ****     HAL_GPIO_WritePin(GPIOD, GPIO_PIN_1, GPIO_PIN_RESET);
 120:../../CM4/Core/Src/main.c ****     LED_GREEN_OFF();
 121:../../CM4/Core/Src/main.c ****     HAL_Delay(500U);
 122:../../CM4/Core/Src/main.c ****   }
 123:../../CM4/Core/Src/main.c ****   HAL_Delay(1000U);
 124:../../CM4/Core/Src/main.c **** 
 125:../../CM4/Core/Src/main.c ****   /* ================================================================== */
 126:../../CM4/Core/Src/main.c ****   /* PHASE 2: Raw ECHO read — no trigger sent                           */
 127:../../CM4/Core/Src/main.c ****   /* GREEN = PD0 reads HIGH                                             */
 128:../../CM4/Core/Src/main.c ****   /* RED   = PD0 reads LOW  (expected with PULLDOWN and no signal)      */
 129:../../CM4/Core/Src/main.c ****   /* ================================================================== */
 130:../../CM4/Core/Src/main.c **** 
 131:../../CM4/Core/Src/main.c ****   /* 2× slow red = entering phase 2 */
 132:../../CM4/Core/Src/main.c ****   for (int j = 0; j < 2; j++) {
 133:../../CM4/Core/Src/main.c ****     LED_RED_ON();
 134:../../CM4/Core/Src/main.c ****     HAL_Delay(500U);
 135:../../CM4/Core/Src/main.c ****     LED_RED_OFF();
 136:../../CM4/Core/Src/main.c ****     HAL_Delay(500U);
 137:../../CM4/Core/Src/main.c ****   }
 138:../../CM4/Core/Src/main.c ****   HAL_Delay(500U);
 139:../../CM4/Core/Src/main.c **** 
 140:../../CM4/Core/Src/main.c ****   uint32_t phase2_start = HAL_GetTick();
 141:../../CM4/Core/Src/main.c ****   while (HAL_GetTick() - phase2_start < 5000U) {
 142:../../CM4/Core/Src/main.c ****     if (HAL_GPIO_ReadPin(GPIOD, GPIO_PIN_0) == GPIO_PIN_SET) {
 143:../../CM4/Core/Src/main.c ****       LED_GREEN_ON();
 144:../../CM4/Core/Src/main.c ****       LED_RED_OFF();
 145:../../CM4/Core/Src/main.c ****     } else {
ARM GAS  C:\Users\minis\AppData\Local\Temp\cc4dDDks.s 			page 4


 146:../../CM4/Core/Src/main.c ****       LED_GREEN_OFF();
 147:../../CM4/Core/Src/main.c ****       LED_RED_ON();
 148:../../CM4/Core/Src/main.c ****     }
 149:../../CM4/Core/Src/main.c ****     HAL_Delay(50U);
 150:../../CM4/Core/Src/main.c ****   }
 151:../../CM4/Core/Src/main.c ****   LED_ALL_OFF();
 152:../../CM4/Core/Src/main.c ****   HAL_Delay(5000U);
 153:../../CM4/Core/Src/main.c **** 
 154:../../CM4/Core/Src/main.c ****   /* ================================================================== */
 155:../../CM4/Core/Src/main.c ****   /* PHASE 3: Full trigger → echo attempt, 10 tries                    */
 156:../../CM4/Core/Src/main.c ****   /* GREEN blink = echo received                                        */
 157:../../CM4/Core/Src/main.c ****   /* RED blink   = timeout                                              */
 158:../../CM4/Core/Src/main.c ****   /* ================================================================== */
 159:../../CM4/Core/Src/main.c **** 
 160:../../CM4/Core/Src/main.c ****   /* 3× slow red = entering phase 3 */
 161:../../CM4/Core/Src/main.c ****   for (int j = 0; j < 3; j++) {
 162:../../CM4/Core/Src/main.c ****     LED_RED_ON();
 163:../../CM4/Core/Src/main.c ****     HAL_Delay(500U);
 164:../../CM4/Core/Src/main.c ****     LED_RED_OFF();
 165:../../CM4/Core/Src/main.c ****     HAL_Delay(500U);
 166:../../CM4/Core/Src/main.c ****   }
 167:../../CM4/Core/Src/main.c ****   HAL_Delay(500U);
 168:../../CM4/Core/Src/main.c **** 
 169:../../CM4/Core/Src/main.c ****   uint8_t any_echo = 0U;
 170:../../CM4/Core/Src/main.c ****   uint32_t echo_time = 0U;
 171:../../CM4/Core/Src/main.c **** 
 172:../../CM4/Core/Src/main.c ****   for (int attempt = 0; attempt < 10; attempt++) {
 173:../../CM4/Core/Src/main.c ****     /* Trigger */
 174:../../CM4/Core/Src/main.c ****     HAL_GPIO_WritePin(GPIOD, GPIO_PIN_1, GPIO_PIN_RESET);
 175:../../CM4/Core/Src/main.c ****     __HAL_TIM_SET_COUNTER(&htim2, 0);
 176:../../CM4/Core/Src/main.c ****     while (__HAL_TIM_GET_COUNTER(&htim2) < TRIG_RESET_TIME_US)
 177:../../CM4/Core/Src/main.c ****       ;
 178:../../CM4/Core/Src/main.c **** 
 179:../../CM4/Core/Src/main.c ****     HAL_GPIO_WritePin(GPIOD, GPIO_PIN_1, GPIO_PIN_SET);
 180:../../CM4/Core/Src/main.c ****     __HAL_TIM_SET_COUNTER(&htim2, 0);
 181:../../CM4/Core/Src/main.c ****     while (__HAL_TIM_GET_COUNTER(&htim2) < TRIG_PULSE_TIME_US)
 182:../../CM4/Core/Src/main.c ****       ;
 183:../../CM4/Core/Src/main.c ****     HAL_GPIO_WritePin(GPIOD, GPIO_PIN_1, GPIO_PIN_RESET);
 184:../../CM4/Core/Src/main.c **** 
 185:../../CM4/Core/Src/main.c ****     /* Wait for echo HIGH */
 186:../../CM4/Core/Src/main.c ****     uint8_t got_echo = 0U;
 187:../../CM4/Core/Src/main.c ****     uint32_t wait_start = __HAL_TIM_GET_COUNTER(&htim2);
 188:../../CM4/Core/Src/main.c ****     while (HAL_GPIO_ReadPin(GPIOD, GPIO_PIN_0) == GPIO_PIN_RESET) {
 189:../../CM4/Core/Src/main.c ****       if ((uint32_t)(__HAL_TIM_GET_COUNTER(&htim2) - wait_start) >
 190:../../CM4/Core/Src/main.c ****           ECHO_WAIT_TIMEOUT_US) {
 191:../../CM4/Core/Src/main.c ****         break;
 192:../../CM4/Core/Src/main.c ****       }
 193:../../CM4/Core/Src/main.c ****     }
 194:../../CM4/Core/Src/main.c **** 
 195:../../CM4/Core/Src/main.c ****     if (HAL_GPIO_ReadPin(GPIOD, GPIO_PIN_0) == GPIO_PIN_SET) {
 196:../../CM4/Core/Src/main.c ****       uint32_t echo_start = __HAL_TIM_GET_COUNTER(&htim2);
 197:../../CM4/Core/Src/main.c ****       while (HAL_GPIO_ReadPin(GPIOD, GPIO_PIN_0) == GPIO_PIN_SET) {
 198:../../CM4/Core/Src/main.c ****         if ((uint32_t)(__HAL_TIM_GET_COUNTER(&htim2) - echo_start) >
 199:../../CM4/Core/Src/main.c ****             ECHO_PULSE_TIMEOUT_US) {
 200:../../CM4/Core/Src/main.c ****           break;
 201:../../CM4/Core/Src/main.c ****         }
 202:../../CM4/Core/Src/main.c ****       }
ARM GAS  C:\Users\minis\AppData\Local\Temp\cc4dDDks.s 			page 5


 203:../../CM4/Core/Src/main.c ****       echo_time = (uint32_t)(__HAL_TIM_GET_COUNTER(&htim2) - echo_start);
 204:../../CM4/Core/Src/main.c ****       got_echo = 1U;
 205:../../CM4/Core/Src/main.c ****       any_echo = 1U;
 206:../../CM4/Core/Src/main.c ****     }
 207:../../CM4/Core/Src/main.c **** 
 208:../../CM4/Core/Src/main.c ****     if (got_echo) {
 209:../../CM4/Core/Src/main.c ****       /* GREEN blink = echo received this attempt */
 210:../../CM4/Core/Src/main.c ****       LED_GREEN_ON();
 211:../../CM4/Core/Src/main.c ****       HAL_Delay(300U);
 212:../../CM4/Core/Src/main.c ****       LED_GREEN_OFF();
 213:../../CM4/Core/Src/main.c ****     } else {
 214:../../CM4/Core/Src/main.c ****       /* RED blink = no echo this attempt */
 215:../../CM4/Core/Src/main.c ****       LED_RED_ON();
 216:../../CM4/Core/Src/main.c ****       HAL_Delay(300U);
 217:../../CM4/Core/Src/main.c ****       LED_RED_OFF();
 218:../../CM4/Core/Src/main.c ****     }
 219:../../CM4/Core/Src/main.c ****     HAL_Delay(200U);
 220:../../CM4/Core/Src/main.c ****   }
 221:../../CM4/Core/Src/main.c ****   HAL_Delay(1000U);
 222:../../CM4/Core/Src/main.c **** 
 223:../../CM4/Core/Src/main.c ****   /* ================================================================== */
 224:../../CM4/Core/Src/main.c ****   /* PHASE 4: Result                                                     */
 225:../../CM4/Core/Src/main.c ****   /* If any echo was received: distance blinks on green                 */
 226:../../CM4/Core/Src/main.c ****   /* If no echo at all:        solid red forever → debug wiring         */
 227:../../CM4/Core/Src/main.c ****   /* ================================================================== */
 228:../../CM4/Core/Src/main.c ****   if (!any_echo) {
 229:../../CM4/Core/Src/main.c ****     /* Solid red = complete failure, check wiring */
 230:../../CM4/Core/Src/main.c ****     LED_RED_ON();
 231:../../CM4/Core/Src/main.c ****     while (1)
 232:../../CM4/Core/Src/main.c ****       ;
 233:../../CM4/Core/Src/main.c ****   }
 234:../../CM4/Core/Src/main.c **** 
 235:../../CM4/Core/Src/main.c ****   /* Distance in cm via green blinks (up to 9, then pause) */
 236:../../CM4/Core/Src/main.c ****   uint32_t dist_cm = echo_time / 58U;
 237:../../CM4/Core/Src/main.c **** 
 238:../../CM4/Core/Src/main.c ****   /* ── Scrivi prima misura nella shared memory ── */
 239:../../CM4/Core/Src/main.c ****   SHARED_DATA->distance_cm = dist_cm;
 240:../../CM4/Core/Src/main.c ****   SHARED_DATA->data_ready = 1U;
 241:../../CM4/Core/Src/main.c ****   __DSB(); /* Forza la scrittura a raggiungere SRAM4 */
 242:../../CM4/Core/Src/main.c ****   HAL_HSEM_FastTake(HSEM_ID_SENSOR);
 243:../../CM4/Core/Src/main.c ****   HAL_HSEM_Release(HSEM_ID_SENSOR, 0);
 244:../../CM4/Core/Src/main.c **** 
 245:../../CM4/Core/Src/main.c ****   while (1) {
 246:../../CM4/Core/Src/main.c ****     printf("Misura rilevata: %lu cm\r\n", dist_cm);
 247:../../CM4/Core/Src/main.c ****     HAL_Delay(500U); /* 500ms pause between updates */
 248:../../CM4/Core/Src/main.c **** 
 249:../../CM4/Core/Src/main.c ****     /* Retrigger for fresh distance */
 250:../../CM4/Core/Src/main.c ****     HAL_GPIO_WritePin(GPIOD, GPIO_PIN_1, GPIO_PIN_RESET);
 251:../../CM4/Core/Src/main.c ****     __HAL_TIM_SET_COUNTER(&htim2, 0);
 252:../../CM4/Core/Src/main.c ****     while (__HAL_TIM_GET_COUNTER(&htim2) < TRIG_RESET_TIME_US)
 253:../../CM4/Core/Src/main.c ****       ;
 254:../../CM4/Core/Src/main.c ****     HAL_GPIO_WritePin(GPIOD, GPIO_PIN_1, GPIO_PIN_SET);
 255:../../CM4/Core/Src/main.c ****     __HAL_TIM_SET_COUNTER(&htim2, 0);
 256:../../CM4/Core/Src/main.c ****     while (__HAL_TIM_GET_COUNTER(&htim2) < TRIG_PULSE_TIME_US)
 257:../../CM4/Core/Src/main.c ****       ;
 258:../../CM4/Core/Src/main.c ****     HAL_GPIO_WritePin(GPIOD, GPIO_PIN_1, GPIO_PIN_RESET);
 259:../../CM4/Core/Src/main.c **** 
ARM GAS  C:\Users\minis\AppData\Local\Temp\cc4dDDks.s 			page 6


 260:../../CM4/Core/Src/main.c ****     uint32_t ws = __HAL_TIM_GET_COUNTER(&htim2);
 261:../../CM4/Core/Src/main.c ****     while (HAL_GPIO_ReadPin(GPIOD, GPIO_PIN_0) == GPIO_PIN_RESET) {
 262:../../CM4/Core/Src/main.c ****       if ((uint32_t)(__HAL_TIM_GET_COUNTER(&htim2) - ws) >
 263:../../CM4/Core/Src/main.c ****           ECHO_WAIT_TIMEOUT_US) {
 264:../../CM4/Core/Src/main.c ****         break;
 265:../../CM4/Core/Src/main.c ****       }
 266:../../CM4/Core/Src/main.c ****     }
 267:../../CM4/Core/Src/main.c ****     if (HAL_GPIO_ReadPin(GPIOD, GPIO_PIN_0) == GPIO_PIN_SET) {
 268:../../CM4/Core/Src/main.c ****       uint32_t es = __HAL_TIM_GET_COUNTER(&htim2);
 269:../../CM4/Core/Src/main.c ****       while (HAL_GPIO_ReadPin(GPIOD, GPIO_PIN_0) == GPIO_PIN_SET) {
 270:../../CM4/Core/Src/main.c ****         if ((uint32_t)(__HAL_TIM_GET_COUNTER(&htim2) - es) >
 271:../../CM4/Core/Src/main.c ****             ECHO_PULSE_TIMEOUT_US) {
 272:../../CM4/Core/Src/main.c ****           break;
 273:../../CM4/Core/Src/main.c ****         }
 274:../../CM4/Core/Src/main.c ****       }
 275:../../CM4/Core/Src/main.c ****       echo_time = (uint32_t)(__HAL_TIM_GET_COUNTER(&htim2) - es);
 276:../../CM4/Core/Src/main.c ****       dist_cm = echo_time / 58U;
 277:../../CM4/Core/Src/main.c ****     }
 278:../../CM4/Core/Src/main.c **** 
 279:../../CM4/Core/Src/main.c ****     /* ── Aggiorna shared memory SEMPRE (anche se dist_cm invariato) ── */
 280:../../CM4/Core/Src/main.c ****     SHARED_DATA->distance_cm = dist_cm;
 281:../../CM4/Core/Src/main.c ****     SHARED_DATA->data_ready = 1U;
 282:../../CM4/Core/Src/main.c ****     __DSB(); /* Forza la scrittura a raggiungere SRAM4 */
 283:../../CM4/Core/Src/main.c ****   }
 284:../../CM4/Core/Src/main.c **** }
 285:../../CM4/Core/Src/main.c **** static void MX_UART4_Init(void) {
 286:../../CM4/Core/Src/main.c **** 
 287:../../CM4/Core/Src/main.c ****   /* USER CODE BEGIN UART4_Init 0 */
 288:../../CM4/Core/Src/main.c **** 
 289:../../CM4/Core/Src/main.c ****   /* USER CODE END UART4_Init 0 */
 290:../../CM4/Core/Src/main.c **** 
 291:../../CM4/Core/Src/main.c ****   /* USER CODE BEGIN UART4_Init 1 */
 292:../../CM4/Core/Src/main.c **** 
 293:../../CM4/Core/Src/main.c ****   /* USER CODE END UART4_Init 1 */
 294:../../CM4/Core/Src/main.c ****   huart4.Instance = UART4;
 295:../../CM4/Core/Src/main.c ****   huart4.Init.BaudRate = 115200;
 296:../../CM4/Core/Src/main.c ****   huart4.Init.WordLength = UART_WORDLENGTH_8B;
 297:../../CM4/Core/Src/main.c ****   huart4.Init.StopBits = UART_STOPBITS_1;
 298:../../CM4/Core/Src/main.c ****   huart4.Init.Parity = UART_PARITY_NONE;
 299:../../CM4/Core/Src/main.c ****   huart4.Init.Mode = UART_MODE_TX_RX;
 300:../../CM4/Core/Src/main.c ****   huart4.Init.HwFlowCtl = UART_HWCONTROL_NONE;
 301:../../CM4/Core/Src/main.c ****   huart4.Init.OverSampling = UART_OVERSAMPLING_16;
 302:../../CM4/Core/Src/main.c ****   huart4.Init.OneBitSampling = UART_ONE_BIT_SAMPLE_DISABLE;
 303:../../CM4/Core/Src/main.c ****   huart4.Init.ClockPrescaler = UART_PRESCALER_DIV1;
 304:../../CM4/Core/Src/main.c ****   huart4.AdvancedInit.AdvFeatureInit = UART_ADVFEATURE_NO_INIT;
 305:../../CM4/Core/Src/main.c ****   if (HAL_UART_Init(&huart4) != HAL_OK) {
 306:../../CM4/Core/Src/main.c ****     Error_Handler();
 307:../../CM4/Core/Src/main.c ****   }
 308:../../CM4/Core/Src/main.c ****   if (HAL_UARTEx_SetTxFifoThreshold(&huart4, UART_TXFIFO_THRESHOLD_1_8) !=
 309:../../CM4/Core/Src/main.c ****       HAL_OK) {
 310:../../CM4/Core/Src/main.c ****     Error_Handler();
 311:../../CM4/Core/Src/main.c ****   }
 312:../../CM4/Core/Src/main.c ****   if (HAL_UARTEx_SetRxFifoThreshold(&huart4, UART_RXFIFO_THRESHOLD_1_8) !=
 313:../../CM4/Core/Src/main.c ****       HAL_OK) {
 314:../../CM4/Core/Src/main.c ****     Error_Handler();
 315:../../CM4/Core/Src/main.c ****   }
 316:../../CM4/Core/Src/main.c ****   if (HAL_UARTEx_DisableFifoMode(&huart4) != HAL_OK) {
ARM GAS  C:\Users\minis\AppData\Local\Temp\cc4dDDks.s 			page 7


 317:../../CM4/Core/Src/main.c ****     Error_Handler();
 318:../../CM4/Core/Src/main.c ****   }
 319:../../CM4/Core/Src/main.c ****   /* USER CODE BEGIN UART4_Init 2 */
 320:../../CM4/Core/Src/main.c **** 
 321:../../CM4/Core/Src/main.c ****   /* USER CODE END UART4_Init 2 */
 322:../../CM4/Core/Src/main.c **** }
 323:../../CM4/Core/Src/main.c **** 
 324:../../CM4/Core/Src/main.c **** /* ========================================================================
 325:../../CM4/Core/Src/main.c ****  * Peripherals
 326:../../CM4/Core/Src/main.c ****  * ======================================================================== */
 327:../../CM4/Core/Src/main.c **** static void SystemClock_Config(void) {
 328:../../CM4/Core/Src/main.c ****   RCC_OscInitTypeDef RCC_OscInitStruct = {0};
 329:../../CM4/Core/Src/main.c ****   RCC_ClkInitTypeDef RCC_ClkInitStruct = {0};
 330:../../CM4/Core/Src/main.c **** 
 331:../../CM4/Core/Src/main.c ****   HAL_PWREx_ConfigSupply(PWR_DIRECT_SMPS_SUPPLY);
 332:../../CM4/Core/Src/main.c ****   __HAL_PWR_VOLTAGESCALING_CONFIG(PWR_REGULATOR_VOLTAGE_SCALE2);
 333:../../CM4/Core/Src/main.c ****   while (!__HAL_PWR_GET_FLAG(PWR_FLAG_VOSRDY))
 334:../../CM4/Core/Src/main.c ****     ;
 335:../../CM4/Core/Src/main.c **** 
 336:../../CM4/Core/Src/main.c ****   RCC_OscInitStruct.OscillatorType = RCC_OSCILLATORTYPE_HSI;
 337:../../CM4/Core/Src/main.c ****   RCC_OscInitStruct.HSIState = RCC_HSI_DIV1;
 338:../../CM4/Core/Src/main.c ****   RCC_OscInitStruct.HSICalibrationValue = RCC_HSICALIBRATION_DEFAULT;
 339:../../CM4/Core/Src/main.c ****   RCC_OscInitStruct.PLL.PLLState = RCC_PLL_ON;
 340:../../CM4/Core/Src/main.c ****   RCC_OscInitStruct.PLL.PLLSource = RCC_PLLSOURCE_HSI;
 341:../../CM4/Core/Src/main.c ****   RCC_OscInitStruct.PLL.PLLM = 4;
 342:../../CM4/Core/Src/main.c ****   RCC_OscInitStruct.PLL.PLLN = 28;
 343:../../CM4/Core/Src/main.c ****   RCC_OscInitStruct.PLL.PLLP = 2;
 344:../../CM4/Core/Src/main.c ****   RCC_OscInitStruct.PLL.PLLQ = 5;
 345:../../CM4/Core/Src/main.c ****   RCC_OscInitStruct.PLL.PLLR = 2;
 346:../../CM4/Core/Src/main.c ****   RCC_OscInitStruct.PLL.PLLRGE = RCC_PLL1VCIRANGE_3;
 347:../../CM4/Core/Src/main.c ****   RCC_OscInitStruct.PLL.PLLVCOSEL = RCC_PLL1VCOWIDE;
 348:../../CM4/Core/Src/main.c ****   RCC_OscInitStruct.PLL.PLLFRACN = 1024;
 349:../../CM4/Core/Src/main.c ****   if (HAL_RCC_OscConfig(&RCC_OscInitStruct) != HAL_OK) {
 350:../../CM4/Core/Src/main.c ****     Error_Handler();
 351:../../CM4/Core/Src/main.c ****   }
 352:../../CM4/Core/Src/main.c **** 
 353:../../CM4/Core/Src/main.c ****   RCC_ClkInitStruct.ClockType = RCC_CLOCKTYPE_HCLK | RCC_CLOCKTYPE_SYSCLK |
 354:../../CM4/Core/Src/main.c ****                                 RCC_CLOCKTYPE_PCLK1 | RCC_CLOCKTYPE_PCLK2 |
 355:../../CM4/Core/Src/main.c ****                                 RCC_CLOCKTYPE_D3PCLK1 | RCC_CLOCKTYPE_D1PCLK1;
 356:../../CM4/Core/Src/main.c ****   RCC_ClkInitStruct.SYSCLKSource = RCC_SYSCLKSOURCE_PLLCLK;
 357:../../CM4/Core/Src/main.c ****   RCC_ClkInitStruct.SYSCLKDivider = RCC_SYSCLK_DIV1;
 358:../../CM4/Core/Src/main.c ****   RCC_ClkInitStruct.AHBCLKDivider = RCC_HCLK_DIV1;
 359:../../CM4/Core/Src/main.c ****   RCC_ClkInitStruct.APB3CLKDivider = RCC_APB3_DIV2;
 360:../../CM4/Core/Src/main.c ****   RCC_ClkInitStruct.APB1CLKDivider =
 361:../../CM4/Core/Src/main.c ****       RCC_APB1_DIV4; /* DEVE essere uguale al CM7! */
 362:../../CM4/Core/Src/main.c ****   RCC_ClkInitStruct.APB2CLKDivider = RCC_APB2_DIV2;
 363:../../CM4/Core/Src/main.c ****   RCC_ClkInitStruct.APB4CLKDivider = RCC_APB4_DIV2;
 364:../../CM4/Core/Src/main.c ****   if (HAL_RCC_ClockConfig(&RCC_ClkInitStruct, FLASH_LATENCY_4) != HAL_OK) {
 365:../../CM4/Core/Src/main.c ****     Error_Handler();
 366:../../CM4/Core/Src/main.c ****   }
 367:../../CM4/Core/Src/main.c **** }
 368:../../CM4/Core/Src/main.c **** 
 369:../../CM4/Core/Src/main.c **** static void MX_TIM2_Init(void) {
 370:../../CM4/Core/Src/main.c ****   __HAL_RCC_TIM2_CLK_ENABLE();
 371:../../CM4/Core/Src/main.c **** 
 372:../../CM4/Core/Src/main.c ****   TIM_ClockConfigTypeDef sClockSourceConfig = {0};
 373:../../CM4/Core/Src/main.c ****   TIM_MasterConfigTypeDef sMasterConfig = {0};
ARM GAS  C:\Users\minis\AppData\Local\Temp\cc4dDDks.s 			page 8


 374:../../CM4/Core/Src/main.c **** 
 375:../../CM4/Core/Src/main.c ****   htim2.Instance = TIM2;
 376:../../CM4/Core/Src/main.c ****   htim2.Init.Prescaler = 0;
 377:../../CM4/Core/Src/main.c ****   htim2.Init.CounterMode = TIM_COUNTERMODE_UP;
 378:../../CM4/Core/Src/main.c ****   htim2.Init.Period = 0xFFFFFFFFU;
 379:../../CM4/Core/Src/main.c ****   htim2.Init.ClockDivision = TIM_CLOCKDIVISION_DIV1;
 380:../../CM4/Core/Src/main.c ****   htim2.Init.AutoReloadPreload = TIM_AUTORELOAD_PRELOAD_DISABLE;
 381:../../CM4/Core/Src/main.c ****   if (HAL_TIM_Base_Init(&htim2) != HAL_OK) {
 382:../../CM4/Core/Src/main.c ****     Error_Handler();
 383:../../CM4/Core/Src/main.c ****   }
 384:../../CM4/Core/Src/main.c **** 
 385:../../CM4/Core/Src/main.c ****   sClockSourceConfig.ClockSource = TIM_CLOCKSOURCE_INTERNAL;
 386:../../CM4/Core/Src/main.c ****   if (HAL_TIM_ConfigClockSource(&htim2, &sClockSourceConfig) != HAL_OK) {
 387:../../CM4/Core/Src/main.c ****     Error_Handler();
 388:../../CM4/Core/Src/main.c ****   }
 389:../../CM4/Core/Src/main.c **** 
 390:../../CM4/Core/Src/main.c ****   sMasterConfig.MasterOutputTrigger = TIM_TRGO_RESET;
 391:../../CM4/Core/Src/main.c ****   sMasterConfig.MasterSlaveMode = TIM_MASTERSLAVEMODE_DISABLE;
 392:../../CM4/Core/Src/main.c ****   if (HAL_TIMEx_MasterConfigSynchronization(&htim2, &sMasterConfig) != HAL_OK) {
 393:../../CM4/Core/Src/main.c ****     Error_Handler();
 394:../../CM4/Core/Src/main.c ****   }
 395:../../CM4/Core/Src/main.c **** }
 396:../../CM4/Core/Src/main.c **** 
 397:../../CM4/Core/Src/main.c **** static void MX_GPIO_Init(void) {
  28              		.loc 1 397 32 view -0
  29              		.cfi_startproc
  30              		@ args = 0, pretend = 0, frame = 32
  31              		@ frame_needed = 0, uses_anonymous_args = 0
  32 0000 2DE9F043 		push	{r4, r5, r6, r7, r8, r9, lr}
  33              	.LCFI0:
  34              		.cfi_def_cfa_offset 28
  35              		.cfi_offset 4, -28
  36              		.cfi_offset 5, -24
  37              		.cfi_offset 6, -20
  38              		.cfi_offset 7, -16
  39              		.cfi_offset 8, -12
  40              		.cfi_offset 9, -8
  41              		.cfi_offset 14, -4
  42 0004 89B0     		sub	sp, sp, #36
  43              	.LCFI1:
  44              		.cfi_def_cfa_offset 64
 398:../../CM4/Core/Src/main.c ****   GPIO_InitTypeDef GPIO_InitStruct = {0};
  45              		.loc 1 398 3 view .LVU1
  46              		.loc 1 398 20 is_stmt 0 view .LVU2
  47 0006 03AD     		add	r5, sp, #12
  48 0008 0024     		movs	r4, #0
  49 000a 0394     		str	r4, [sp, #12]
  50 000c 0494     		str	r4, [sp, #16]
  51 000e 0594     		str	r4, [sp, #20]
  52 0010 0694     		str	r4, [sp, #24]
  53 0012 0794     		str	r4, [sp, #28]
 399:../../CM4/Core/Src/main.c **** 
 400:../../CM4/Core/Src/main.c ****   __HAL_RCC_GPIOD_CLK_ENABLE();
  54              		.loc 1 400 3 is_stmt 1 view .LVU3
  55              	.LBB23:
  56              		.loc 1 400 3 view .LVU4
  57              		.loc 1 400 3 view .LVU5
ARM GAS  C:\Users\minis\AppData\Local\Temp\cc4dDDks.s 			page 9


  58 0014 274B     		ldr	r3, .L3
  59 0016 D3F8E020 		ldr	r2, [r3, #224]
  60 001a 42F00802 		orr	r2, r2, #8
  61 001e C3F8E020 		str	r2, [r3, #224]
  62              		.loc 1 400 3 view .LVU6
  63 0022 D3F8E020 		ldr	r2, [r3, #224]
  64 0026 02F00802 		and	r2, r2, #8
  65 002a 0192     		str	r2, [sp, #4]
  66              		.loc 1 400 3 view .LVU7
  67 002c 019A     		ldr	r2, [sp, #4]
  68              	.LBE23:
  69              		.loc 1 400 3 view .LVU8
 401:../../CM4/Core/Src/main.c ****   __HAL_RCC_GPIOB_CLK_ENABLE();
  70              		.loc 1 401 3 view .LVU9
  71              	.LBB24:
  72              		.loc 1 401 3 view .LVU10
  73              		.loc 1 401 3 view .LVU11
  74 002e D3F8E020 		ldr	r2, [r3, #224]
  75 0032 42F00202 		orr	r2, r2, #2
  76 0036 C3F8E020 		str	r2, [r3, #224]
  77              		.loc 1 401 3 view .LVU12
  78 003a D3F8E030 		ldr	r3, [r3, #224]
  79 003e 03F00203 		and	r3, r3, #2
  80 0042 0293     		str	r3, [sp, #8]
  81              		.loc 1 401 3 view .LVU13
  82 0044 029B     		ldr	r3, [sp, #8]
  83              	.LBE24:
  84              		.loc 1 401 3 view .LVU14
 402:../../CM4/Core/Src/main.c **** 
 403:../../CM4/Core/Src/main.c ****   HAL_GPIO_WritePin(GPIOD, GPIO_PIN_1, GPIO_PIN_RESET);
  85              		.loc 1 403 3 view .LVU15
  86 0046 DFF87480 		ldr	r8, .L3+8
  87 004a 2246     		mov	r2, r4
  88 004c 0221     		movs	r1, #2
  89 004e 4046     		mov	r0, r8
  90 0050 FFF7FEFF 		bl	HAL_GPIO_WritePin
  91              	.LVL0:
 404:../../CM4/Core/Src/main.c ****   HAL_GPIO_WritePin(GPIOB, GPIO_PIN_0 | GPIO_PIN_14, GPIO_PIN_RESET);
  92              		.loc 1 404 3 view .LVU16
  93 0054 184F     		ldr	r7, .L3+4
  94 0056 2246     		mov	r2, r4
  95 0058 44F20101 		movw	r1, #16385
  96 005c 3846     		mov	r0, r7
  97 005e FFF7FEFF 		bl	HAL_GPIO_WritePin
  98              	.LVL1:
 405:../../CM4/Core/Src/main.c **** 
 406:../../CM4/Core/Src/main.c ****   /* PD0 — ECHO input */
 407:../../CM4/Core/Src/main.c ****   GPIO_InitStruct.Pin = GPIO_PIN_0;
  99              		.loc 1 407 3 view .LVU17
 100              		.loc 1 407 23 is_stmt 0 view .LVU18
 101 0062 0126     		movs	r6, #1
 102 0064 0396     		str	r6, [sp, #12]
 408:../../CM4/Core/Src/main.c ****   GPIO_InitStruct.Mode = GPIO_MODE_INPUT;
 103              		.loc 1 408 3 is_stmt 1 view .LVU19
 104              		.loc 1 408 24 is_stmt 0 view .LVU20
 105 0066 0494     		str	r4, [sp, #16]
 409:../../CM4/Core/Src/main.c ****   GPIO_InitStruct.Pull = GPIO_PULLDOWN;
ARM GAS  C:\Users\minis\AppData\Local\Temp\cc4dDDks.s 			page 10


 106              		.loc 1 409 3 is_stmt 1 view .LVU21
 107              		.loc 1 409 24 is_stmt 0 view .LVU22
 108 0068 4FF00209 		mov	r9, #2
 109 006c CDF81490 		str	r9, [sp, #20]
 410:../../CM4/Core/Src/main.c ****   HAL_GPIO_Init(GPIOD, &GPIO_InitStruct);
 110              		.loc 1 410 3 is_stmt 1 view .LVU23
 111 0070 2946     		mov	r1, r5
 112 0072 4046     		mov	r0, r8
 113 0074 FFF7FEFF 		bl	HAL_GPIO_Init
 114              	.LVL2:
 411:../../CM4/Core/Src/main.c **** 
 412:../../CM4/Core/Src/main.c ****   /* PD1 — TRIG output */
 413:../../CM4/Core/Src/main.c ****   GPIO_InitStruct.Pin = GPIO_PIN_1;
 115              		.loc 1 413 3 view .LVU24
 116              		.loc 1 413 23 is_stmt 0 view .LVU25
 117 0078 CDF80C90 		str	r9, [sp, #12]
 414:../../CM4/Core/Src/main.c ****   GPIO_InitStruct.Mode = GPIO_MODE_OUTPUT_PP;
 118              		.loc 1 414 3 is_stmt 1 view .LVU26
 119              		.loc 1 414 24 is_stmt 0 view .LVU27
 120 007c 0496     		str	r6, [sp, #16]
 415:../../CM4/Core/Src/main.c ****   GPIO_InitStruct.Pull = GPIO_NOPULL;
 121              		.loc 1 415 3 is_stmt 1 view .LVU28
 122              		.loc 1 415 24 is_stmt 0 view .LVU29
 123 007e 0594     		str	r4, [sp, #20]
 416:../../CM4/Core/Src/main.c ****   GPIO_InitStruct.Speed = GPIO_SPEED_FREQ_LOW;
 124              		.loc 1 416 3 is_stmt 1 view .LVU30
 125              		.loc 1 416 25 is_stmt 0 view .LVU31
 126 0080 0694     		str	r4, [sp, #24]
 417:../../CM4/Core/Src/main.c ****   HAL_GPIO_Init(GPIOD, &GPIO_InitStruct);
 127              		.loc 1 417 3 is_stmt 1 view .LVU32
 128 0082 2946     		mov	r1, r5
 129 0084 4046     		mov	r0, r8
 130 0086 FFF7FEFF 		bl	HAL_GPIO_Init
 131              	.LVL3:
 418:../../CM4/Core/Src/main.c **** 
 419:../../CM4/Core/Src/main.c ****   /* PB0 — green LED */
 420:../../CM4/Core/Src/main.c ****   GPIO_InitStruct.Pin = GPIO_PIN_0;
 132              		.loc 1 420 3 view .LVU33
 133              		.loc 1 420 23 is_stmt 0 view .LVU34
 134 008a 0396     		str	r6, [sp, #12]
 421:../../CM4/Core/Src/main.c ****   GPIO_InitStruct.Mode = GPIO_MODE_OUTPUT_PP;
 135              		.loc 1 421 3 is_stmt 1 view .LVU35
 136              		.loc 1 421 24 is_stmt 0 view .LVU36
 137 008c 0496     		str	r6, [sp, #16]
 422:../../CM4/Core/Src/main.c ****   GPIO_InitStruct.Pull = GPIO_NOPULL;
 138              		.loc 1 422 3 is_stmt 1 view .LVU37
 139              		.loc 1 422 24 is_stmt 0 view .LVU38
 140 008e 0594     		str	r4, [sp, #20]
 423:../../CM4/Core/Src/main.c ****   GPIO_InitStruct.Speed = GPIO_SPEED_FREQ_LOW;
 141              		.loc 1 423 3 is_stmt 1 view .LVU39
 142              		.loc 1 423 25 is_stmt 0 view .LVU40
 143 0090 0694     		str	r4, [sp, #24]
 424:../../CM4/Core/Src/main.c ****   HAL_GPIO_Init(GPIOB, &GPIO_InitStruct);
 144              		.loc 1 424 3 is_stmt 1 view .LVU41
 145 0092 2946     		mov	r1, r5
 146 0094 3846     		mov	r0, r7
 147 0096 FFF7FEFF 		bl	HAL_GPIO_Init
ARM GAS  C:\Users\minis\AppData\Local\Temp\cc4dDDks.s 			page 11


 148              	.LVL4:
 425:../../CM4/Core/Src/main.c **** 
 426:../../CM4/Core/Src/main.c ****   /* PB14 — red LED */
 427:../../CM4/Core/Src/main.c ****   GPIO_InitStruct.Pin = GPIO_PIN_14;
 149              		.loc 1 427 3 view .LVU42
 150              		.loc 1 427 23 is_stmt 0 view .LVU43
 151 009a 4FF48043 		mov	r3, #16384
 152 009e 0393     		str	r3, [sp, #12]
 428:../../CM4/Core/Src/main.c ****   GPIO_InitStruct.Mode = GPIO_MODE_OUTPUT_PP;
 153              		.loc 1 428 3 is_stmt 1 view .LVU44
 154              		.loc 1 428 24 is_stmt 0 view .LVU45
 155 00a0 0496     		str	r6, [sp, #16]
 429:../../CM4/Core/Src/main.c ****   GPIO_InitStruct.Pull = GPIO_NOPULL;
 156              		.loc 1 429 3 is_stmt 1 view .LVU46
 157              		.loc 1 429 24 is_stmt 0 view .LVU47
 158 00a2 0594     		str	r4, [sp, #20]
 430:../../CM4/Core/Src/main.c ****   GPIO_InitStruct.Speed = GPIO_SPEED_FREQ_LOW;
 159              		.loc 1 430 3 is_stmt 1 view .LVU48
 160              		.loc 1 430 25 is_stmt 0 view .LVU49
 161 00a4 0694     		str	r4, [sp, #24]
 431:../../CM4/Core/Src/main.c ****   HAL_GPIO_Init(GPIOB, &GPIO_InitStruct);
 162              		.loc 1 431 3 is_stmt 1 view .LVU50
 163 00a6 2946     		mov	r1, r5
 164 00a8 3846     		mov	r0, r7
 165 00aa FFF7FEFF 		bl	HAL_GPIO_Init
 166              	.LVL5:
 432:../../CM4/Core/Src/main.c **** }
 167              		.loc 1 432 1 is_stmt 0 view .LVU51
 168 00ae 09B0     		add	sp, sp, #36
 169              	.LCFI2:
 170              		.cfi_def_cfa_offset 28
 171              		@ sp needed
 172 00b0 BDE8F083 		pop	{r4, r5, r6, r7, r8, r9, pc}
 173              	.L4:
 174              		.align	2
 175              	.L3:
 176 00b4 00440258 		.word	1476543488
 177 00b8 00040258 		.word	1476527104
 178 00bc 000C0258 		.word	1476529152
 179              		.cfi_endproc
 180              	.LFE139:
 182              		.section	.text.Error_Handler,"ax",%progbits
 183              		.align	1
 184              		.global	Error_Handler
 185              		.syntax unified
 186              		.thumb
 187              		.thumb_func
 189              	Error_Handler:
 190              	.LFB140:
 433:../../CM4/Core/Src/main.c **** 
 434:../../CM4/Core/Src/main.c **** void Error_Handler(void) {
 191              		.loc 1 434 26 is_stmt 1 view -0
 192              		.cfi_startproc
 193              		@ Volatile: function does not return.
 194              		@ args = 0, pretend = 0, frame = 8
 195              		@ frame_needed = 0, uses_anonymous_args = 0
 196              		@ link register save eliminated.
ARM GAS  C:\Users\minis\AppData\Local\Temp\cc4dDDks.s 			page 12


 197 0000 82B0     		sub	sp, sp, #8
 198              	.LCFI3:
 199              		.cfi_def_cfa_offset 8
 435:../../CM4/Core/Src/main.c ****   __disable_irq();
 200              		.loc 1 435 3 view .LVU53
 201              	.LBB25:
 202              	.LBI25:
 203              		.file 2 "../../Drivers/CMSIS/Include/cmsis_gcc.h"
   1:../../Drivers/CMSIS/Include/cmsis_gcc.h **** /**************************************************************************//**
   2:../../Drivers/CMSIS/Include/cmsis_gcc.h ****  * @file     cmsis_gcc.h
   3:../../Drivers/CMSIS/Include/cmsis_gcc.h ****  * @brief    CMSIS compiler GCC header file
   4:../../Drivers/CMSIS/Include/cmsis_gcc.h ****  * @version  V5.2.0
   5:../../Drivers/CMSIS/Include/cmsis_gcc.h ****  * @date     08. May 2019
   6:../../Drivers/CMSIS/Include/cmsis_gcc.h ****  ******************************************************************************/
   7:../../Drivers/CMSIS/Include/cmsis_gcc.h **** /*
   8:../../Drivers/CMSIS/Include/cmsis_gcc.h ****  * Copyright (c) 2009-2019 Arm Limited. All rights reserved.
   9:../../Drivers/CMSIS/Include/cmsis_gcc.h ****  *
  10:../../Drivers/CMSIS/Include/cmsis_gcc.h ****  * SPDX-License-Identifier: Apache-2.0
  11:../../Drivers/CMSIS/Include/cmsis_gcc.h ****  *
  12:../../Drivers/CMSIS/Include/cmsis_gcc.h ****  * Licensed under the Apache License, Version 2.0 (the License); you may
  13:../../Drivers/CMSIS/Include/cmsis_gcc.h ****  * not use this file except in compliance with the License.
  14:../../Drivers/CMSIS/Include/cmsis_gcc.h ****  * You may obtain a copy of the License at
  15:../../Drivers/CMSIS/Include/cmsis_gcc.h ****  *
  16:../../Drivers/CMSIS/Include/cmsis_gcc.h ****  * www.apache.org/licenses/LICENSE-2.0
  17:../../Drivers/CMSIS/Include/cmsis_gcc.h ****  *
  18:../../Drivers/CMSIS/Include/cmsis_gcc.h ****  * Unless required by applicable law or agreed to in writing, software
  19:../../Drivers/CMSIS/Include/cmsis_gcc.h ****  * distributed under the License is distributed on an AS IS BASIS, WITHOUT
  20:../../Drivers/CMSIS/Include/cmsis_gcc.h ****  * WARRANTIES OR CONDITIONS OF ANY KIND, either express or implied.
  21:../../Drivers/CMSIS/Include/cmsis_gcc.h ****  * See the License for the specific language governing permissions and
  22:../../Drivers/CMSIS/Include/cmsis_gcc.h ****  * limitations under the License.
  23:../../Drivers/CMSIS/Include/cmsis_gcc.h ****  */
  24:../../Drivers/CMSIS/Include/cmsis_gcc.h **** 
  25:../../Drivers/CMSIS/Include/cmsis_gcc.h **** #ifndef __CMSIS_GCC_H
  26:../../Drivers/CMSIS/Include/cmsis_gcc.h **** #define __CMSIS_GCC_H
  27:../../Drivers/CMSIS/Include/cmsis_gcc.h **** 
  28:../../Drivers/CMSIS/Include/cmsis_gcc.h **** /* ignore some GCC warnings */
  29:../../Drivers/CMSIS/Include/cmsis_gcc.h **** #pragma GCC diagnostic push
  30:../../Drivers/CMSIS/Include/cmsis_gcc.h **** #pragma GCC diagnostic ignored "-Wsign-conversion"
  31:../../Drivers/CMSIS/Include/cmsis_gcc.h **** #pragma GCC diagnostic ignored "-Wconversion"
  32:../../Drivers/CMSIS/Include/cmsis_gcc.h **** #pragma GCC diagnostic ignored "-Wunused-parameter"
  33:../../Drivers/CMSIS/Include/cmsis_gcc.h **** 
  34:../../Drivers/CMSIS/Include/cmsis_gcc.h **** /* Fallback for __has_builtin */
  35:../../Drivers/CMSIS/Include/cmsis_gcc.h **** #ifndef __has_builtin
  36:../../Drivers/CMSIS/Include/cmsis_gcc.h ****   #define __has_builtin(x) (0)
  37:../../Drivers/CMSIS/Include/cmsis_gcc.h **** #endif
  38:../../Drivers/CMSIS/Include/cmsis_gcc.h **** 
  39:../../Drivers/CMSIS/Include/cmsis_gcc.h **** /* CMSIS compiler specific defines */
  40:../../Drivers/CMSIS/Include/cmsis_gcc.h **** #ifndef   __ASM
  41:../../Drivers/CMSIS/Include/cmsis_gcc.h ****   #define __ASM                                  __asm
  42:../../Drivers/CMSIS/Include/cmsis_gcc.h **** #endif
  43:../../Drivers/CMSIS/Include/cmsis_gcc.h **** #ifndef   __INLINE
  44:../../Drivers/CMSIS/Include/cmsis_gcc.h ****   #define __INLINE                               inline
  45:../../Drivers/CMSIS/Include/cmsis_gcc.h **** #endif
  46:../../Drivers/CMSIS/Include/cmsis_gcc.h **** #ifndef   __STATIC_INLINE
  47:../../Drivers/CMSIS/Include/cmsis_gcc.h ****   #define __STATIC_INLINE                        static inline
  48:../../Drivers/CMSIS/Include/cmsis_gcc.h **** #endif
  49:../../Drivers/CMSIS/Include/cmsis_gcc.h **** #ifndef   __STATIC_FORCEINLINE                 
ARM GAS  C:\Users\minis\AppData\Local\Temp\cc4dDDks.s 			page 13


  50:../../Drivers/CMSIS/Include/cmsis_gcc.h ****   #define __STATIC_FORCEINLINE                   __attribute__((always_inline)) static inline
  51:../../Drivers/CMSIS/Include/cmsis_gcc.h **** #endif                                           
  52:../../Drivers/CMSIS/Include/cmsis_gcc.h **** #ifndef   __NO_RETURN
  53:../../Drivers/CMSIS/Include/cmsis_gcc.h ****   #define __NO_RETURN                            __attribute__((__noreturn__))
  54:../../Drivers/CMSIS/Include/cmsis_gcc.h **** #endif
  55:../../Drivers/CMSIS/Include/cmsis_gcc.h **** #ifndef   __USED
  56:../../Drivers/CMSIS/Include/cmsis_gcc.h ****   #define __USED                                 __attribute__((used))
  57:../../Drivers/CMSIS/Include/cmsis_gcc.h **** #endif
  58:../../Drivers/CMSIS/Include/cmsis_gcc.h **** #ifndef   __WEAK
  59:../../Drivers/CMSIS/Include/cmsis_gcc.h ****   #define __WEAK                                 __attribute__((weak))
  60:../../Drivers/CMSIS/Include/cmsis_gcc.h **** #endif
  61:../../Drivers/CMSIS/Include/cmsis_gcc.h **** #ifndef   __PACKED
  62:../../Drivers/CMSIS/Include/cmsis_gcc.h ****   #define __PACKED                               __attribute__((packed, aligned(1)))
  63:../../Drivers/CMSIS/Include/cmsis_gcc.h **** #endif
  64:../../Drivers/CMSIS/Include/cmsis_gcc.h **** #ifndef   __PACKED_STRUCT
  65:../../Drivers/CMSIS/Include/cmsis_gcc.h ****   #define __PACKED_STRUCT                        struct __attribute__((packed, aligned(1)))
  66:../../Drivers/CMSIS/Include/cmsis_gcc.h **** #endif
  67:../../Drivers/CMSIS/Include/cmsis_gcc.h **** #ifndef   __PACKED_UNION
  68:../../Drivers/CMSIS/Include/cmsis_gcc.h ****   #define __PACKED_UNION                         union __attribute__((packed, aligned(1)))
  69:../../Drivers/CMSIS/Include/cmsis_gcc.h **** #endif
  70:../../Drivers/CMSIS/Include/cmsis_gcc.h **** #ifndef   __UNALIGNED_UINT32        /* deprecated */
  71:../../Drivers/CMSIS/Include/cmsis_gcc.h ****   #pragma GCC diagnostic push
  72:../../Drivers/CMSIS/Include/cmsis_gcc.h ****   #pragma GCC diagnostic ignored "-Wpacked"
  73:../../Drivers/CMSIS/Include/cmsis_gcc.h ****   #pragma GCC diagnostic ignored "-Wattributes"
  74:../../Drivers/CMSIS/Include/cmsis_gcc.h ****   struct __attribute__((packed)) T_UINT32 { uint32_t v; };
  75:../../Drivers/CMSIS/Include/cmsis_gcc.h ****   #pragma GCC diagnostic pop
  76:../../Drivers/CMSIS/Include/cmsis_gcc.h ****   #define __UNALIGNED_UINT32(x)                  (((struct T_UINT32 *)(x))->v)
  77:../../Drivers/CMSIS/Include/cmsis_gcc.h **** #endif
  78:../../Drivers/CMSIS/Include/cmsis_gcc.h **** #ifndef   __UNALIGNED_UINT16_WRITE
  79:../../Drivers/CMSIS/Include/cmsis_gcc.h ****   #pragma GCC diagnostic push
  80:../../Drivers/CMSIS/Include/cmsis_gcc.h ****   #pragma GCC diagnostic ignored "-Wpacked"
  81:../../Drivers/CMSIS/Include/cmsis_gcc.h ****   #pragma GCC diagnostic ignored "-Wattributes"
  82:../../Drivers/CMSIS/Include/cmsis_gcc.h ****   __PACKED_STRUCT T_UINT16_WRITE { uint16_t v; };
  83:../../Drivers/CMSIS/Include/cmsis_gcc.h ****   #pragma GCC diagnostic pop
  84:../../Drivers/CMSIS/Include/cmsis_gcc.h ****   #define __UNALIGNED_UINT16_WRITE(addr, val)    (void)((((struct T_UINT16_WRITE *)(void *)(addr))-
  85:../../Drivers/CMSIS/Include/cmsis_gcc.h **** #endif
  86:../../Drivers/CMSIS/Include/cmsis_gcc.h **** #ifndef   __UNALIGNED_UINT16_READ
  87:../../Drivers/CMSIS/Include/cmsis_gcc.h ****   #pragma GCC diagnostic push
  88:../../Drivers/CMSIS/Include/cmsis_gcc.h ****   #pragma GCC diagnostic ignored "-Wpacked"
  89:../../Drivers/CMSIS/Include/cmsis_gcc.h ****   #pragma GCC diagnostic ignored "-Wattributes"
  90:../../Drivers/CMSIS/Include/cmsis_gcc.h ****   __PACKED_STRUCT T_UINT16_READ { uint16_t v; };
  91:../../Drivers/CMSIS/Include/cmsis_gcc.h ****   #pragma GCC diagnostic pop
  92:../../Drivers/CMSIS/Include/cmsis_gcc.h ****   #define __UNALIGNED_UINT16_READ(addr)          (((const struct T_UINT16_READ *)(const void *)(add
  93:../../Drivers/CMSIS/Include/cmsis_gcc.h **** #endif
  94:../../Drivers/CMSIS/Include/cmsis_gcc.h **** #ifndef   __UNALIGNED_UINT32_WRITE
  95:../../Drivers/CMSIS/Include/cmsis_gcc.h ****   #pragma GCC diagnostic push
  96:../../Drivers/CMSIS/Include/cmsis_gcc.h ****   #pragma GCC diagnostic ignored "-Wpacked"
  97:../../Drivers/CMSIS/Include/cmsis_gcc.h ****   #pragma GCC diagnostic ignored "-Wattributes"
  98:../../Drivers/CMSIS/Include/cmsis_gcc.h ****   __PACKED_STRUCT T_UINT32_WRITE { uint32_t v; };
  99:../../Drivers/CMSIS/Include/cmsis_gcc.h ****   #pragma GCC diagnostic pop
 100:../../Drivers/CMSIS/Include/cmsis_gcc.h ****   #define __UNALIGNED_UINT32_WRITE(addr, val)    (void)((((struct T_UINT32_WRITE *)(void *)(addr))-
 101:../../Drivers/CMSIS/Include/cmsis_gcc.h **** #endif
 102:../../Drivers/CMSIS/Include/cmsis_gcc.h **** #ifndef   __UNALIGNED_UINT32_READ
 103:../../Drivers/CMSIS/Include/cmsis_gcc.h ****   #pragma GCC diagnostic push
 104:../../Drivers/CMSIS/Include/cmsis_gcc.h ****   #pragma GCC diagnostic ignored "-Wpacked"
 105:../../Drivers/CMSIS/Include/cmsis_gcc.h ****   #pragma GCC diagnostic ignored "-Wattributes"
 106:../../Drivers/CMSIS/Include/cmsis_gcc.h ****   __PACKED_STRUCT T_UINT32_READ { uint32_t v; };
ARM GAS  C:\Users\minis\AppData\Local\Temp\cc4dDDks.s 			page 14


 107:../../Drivers/CMSIS/Include/cmsis_gcc.h ****   #pragma GCC diagnostic pop
 108:../../Drivers/CMSIS/Include/cmsis_gcc.h ****   #define __UNALIGNED_UINT32_READ(addr)          (((const struct T_UINT32_READ *)(const void *)(add
 109:../../Drivers/CMSIS/Include/cmsis_gcc.h **** #endif
 110:../../Drivers/CMSIS/Include/cmsis_gcc.h **** #ifndef   __ALIGNED
 111:../../Drivers/CMSIS/Include/cmsis_gcc.h ****   #define __ALIGNED(x)                           __attribute__((aligned(x)))
 112:../../Drivers/CMSIS/Include/cmsis_gcc.h **** #endif
 113:../../Drivers/CMSIS/Include/cmsis_gcc.h **** #ifndef   __RESTRICT
 114:../../Drivers/CMSIS/Include/cmsis_gcc.h ****   #define __RESTRICT                             __restrict
 115:../../Drivers/CMSIS/Include/cmsis_gcc.h **** #endif
 116:../../Drivers/CMSIS/Include/cmsis_gcc.h **** #ifndef   __COMPILER_BARRIER
 117:../../Drivers/CMSIS/Include/cmsis_gcc.h ****   #define __COMPILER_BARRIER()                   __ASM volatile("":::"memory")
 118:../../Drivers/CMSIS/Include/cmsis_gcc.h **** #endif
 119:../../Drivers/CMSIS/Include/cmsis_gcc.h **** 
 120:../../Drivers/CMSIS/Include/cmsis_gcc.h **** /* #########################  Startup and Lowlevel Init  ######################## */
 121:../../Drivers/CMSIS/Include/cmsis_gcc.h **** 
 122:../../Drivers/CMSIS/Include/cmsis_gcc.h **** #ifndef __PROGRAM_START
 123:../../Drivers/CMSIS/Include/cmsis_gcc.h **** 
 124:../../Drivers/CMSIS/Include/cmsis_gcc.h **** /**
 125:../../Drivers/CMSIS/Include/cmsis_gcc.h ****   \brief   Initializes data and bss sections
 126:../../Drivers/CMSIS/Include/cmsis_gcc.h ****   \details This default implementations initialized all data and additional bss
 127:../../Drivers/CMSIS/Include/cmsis_gcc.h ****            sections relying on .copy.table and .zero.table specified properly
 128:../../Drivers/CMSIS/Include/cmsis_gcc.h ****            in the used linker script.
 129:../../Drivers/CMSIS/Include/cmsis_gcc.h ****   
 130:../../Drivers/CMSIS/Include/cmsis_gcc.h ****  */
 131:../../Drivers/CMSIS/Include/cmsis_gcc.h **** __STATIC_FORCEINLINE __NO_RETURN void __cmsis_start(void)
 132:../../Drivers/CMSIS/Include/cmsis_gcc.h **** {
 133:../../Drivers/CMSIS/Include/cmsis_gcc.h ****   extern void _start(void) __NO_RETURN;
 134:../../Drivers/CMSIS/Include/cmsis_gcc.h ****   
 135:../../Drivers/CMSIS/Include/cmsis_gcc.h ****   typedef struct {
 136:../../Drivers/CMSIS/Include/cmsis_gcc.h ****     uint32_t const* src;
 137:../../Drivers/CMSIS/Include/cmsis_gcc.h ****     uint32_t* dest;
 138:../../Drivers/CMSIS/Include/cmsis_gcc.h ****     uint32_t  wlen;
 139:../../Drivers/CMSIS/Include/cmsis_gcc.h ****   } __copy_table_t;
 140:../../Drivers/CMSIS/Include/cmsis_gcc.h ****   
 141:../../Drivers/CMSIS/Include/cmsis_gcc.h ****   typedef struct {
 142:../../Drivers/CMSIS/Include/cmsis_gcc.h ****     uint32_t* dest;
 143:../../Drivers/CMSIS/Include/cmsis_gcc.h ****     uint32_t  wlen;
 144:../../Drivers/CMSIS/Include/cmsis_gcc.h ****   } __zero_table_t;
 145:../../Drivers/CMSIS/Include/cmsis_gcc.h ****   
 146:../../Drivers/CMSIS/Include/cmsis_gcc.h ****   extern const __copy_table_t __copy_table_start__;
 147:../../Drivers/CMSIS/Include/cmsis_gcc.h ****   extern const __copy_table_t __copy_table_end__;
 148:../../Drivers/CMSIS/Include/cmsis_gcc.h ****   extern const __zero_table_t __zero_table_start__;
 149:../../Drivers/CMSIS/Include/cmsis_gcc.h ****   extern const __zero_table_t __zero_table_end__;
 150:../../Drivers/CMSIS/Include/cmsis_gcc.h **** 
 151:../../Drivers/CMSIS/Include/cmsis_gcc.h ****   for (__copy_table_t const* pTable = &__copy_table_start__; pTable < &__copy_table_end__; ++pTable
 152:../../Drivers/CMSIS/Include/cmsis_gcc.h ****     for(uint32_t i=0u; i<pTable->wlen; ++i) {
 153:../../Drivers/CMSIS/Include/cmsis_gcc.h ****       pTable->dest[i] = pTable->src[i];
 154:../../Drivers/CMSIS/Include/cmsis_gcc.h ****     }
 155:../../Drivers/CMSIS/Include/cmsis_gcc.h ****   }
 156:../../Drivers/CMSIS/Include/cmsis_gcc.h ****  
 157:../../Drivers/CMSIS/Include/cmsis_gcc.h ****   for (__zero_table_t const* pTable = &__zero_table_start__; pTable < &__zero_table_end__; ++pTable
 158:../../Drivers/CMSIS/Include/cmsis_gcc.h ****     for(uint32_t i=0u; i<pTable->wlen; ++i) {
 159:../../Drivers/CMSIS/Include/cmsis_gcc.h ****       pTable->dest[i] = 0u;
 160:../../Drivers/CMSIS/Include/cmsis_gcc.h ****     }
 161:../../Drivers/CMSIS/Include/cmsis_gcc.h ****   }
 162:../../Drivers/CMSIS/Include/cmsis_gcc.h ****  
 163:../../Drivers/CMSIS/Include/cmsis_gcc.h ****   _start();
ARM GAS  C:\Users\minis\AppData\Local\Temp\cc4dDDks.s 			page 15


 164:../../Drivers/CMSIS/Include/cmsis_gcc.h **** }
 165:../../Drivers/CMSIS/Include/cmsis_gcc.h ****   
 166:../../Drivers/CMSIS/Include/cmsis_gcc.h **** #define __PROGRAM_START           __cmsis_start
 167:../../Drivers/CMSIS/Include/cmsis_gcc.h **** #endif
 168:../../Drivers/CMSIS/Include/cmsis_gcc.h **** 
 169:../../Drivers/CMSIS/Include/cmsis_gcc.h **** #ifndef __INITIAL_SP
 170:../../Drivers/CMSIS/Include/cmsis_gcc.h **** #define __INITIAL_SP              __StackTop
 171:../../Drivers/CMSIS/Include/cmsis_gcc.h **** #endif
 172:../../Drivers/CMSIS/Include/cmsis_gcc.h **** 
 173:../../Drivers/CMSIS/Include/cmsis_gcc.h **** #ifndef __STACK_LIMIT
 174:../../Drivers/CMSIS/Include/cmsis_gcc.h **** #define __STACK_LIMIT             __StackLimit
 175:../../Drivers/CMSIS/Include/cmsis_gcc.h **** #endif
 176:../../Drivers/CMSIS/Include/cmsis_gcc.h **** 
 177:../../Drivers/CMSIS/Include/cmsis_gcc.h **** #ifndef __VECTOR_TABLE
 178:../../Drivers/CMSIS/Include/cmsis_gcc.h **** #define __VECTOR_TABLE            __Vectors
 179:../../Drivers/CMSIS/Include/cmsis_gcc.h **** #endif
 180:../../Drivers/CMSIS/Include/cmsis_gcc.h **** 
 181:../../Drivers/CMSIS/Include/cmsis_gcc.h **** #ifndef __VECTOR_TABLE_ATTRIBUTE
 182:../../Drivers/CMSIS/Include/cmsis_gcc.h **** #define __VECTOR_TABLE_ATTRIBUTE  __attribute((used, section(".vectors")))
 183:../../Drivers/CMSIS/Include/cmsis_gcc.h **** #endif
 184:../../Drivers/CMSIS/Include/cmsis_gcc.h **** 
 185:../../Drivers/CMSIS/Include/cmsis_gcc.h **** /* ###########################  Core Function Access  ########################### */
 186:../../Drivers/CMSIS/Include/cmsis_gcc.h **** /** \ingroup  CMSIS_Core_FunctionInterface
 187:../../Drivers/CMSIS/Include/cmsis_gcc.h ****     \defgroup CMSIS_Core_RegAccFunctions CMSIS Core Register Access Functions
 188:../../Drivers/CMSIS/Include/cmsis_gcc.h ****   @{
 189:../../Drivers/CMSIS/Include/cmsis_gcc.h ****  */
 190:../../Drivers/CMSIS/Include/cmsis_gcc.h **** 
 191:../../Drivers/CMSIS/Include/cmsis_gcc.h **** /**
 192:../../Drivers/CMSIS/Include/cmsis_gcc.h ****   \brief   Enable IRQ Interrupts
 193:../../Drivers/CMSIS/Include/cmsis_gcc.h ****   \details Enables IRQ interrupts by clearing the I-bit in the CPSR.
 194:../../Drivers/CMSIS/Include/cmsis_gcc.h ****            Can only be executed in Privileged modes.
 195:../../Drivers/CMSIS/Include/cmsis_gcc.h ****  */
 196:../../Drivers/CMSIS/Include/cmsis_gcc.h **** __STATIC_FORCEINLINE void __enable_irq(void)
 197:../../Drivers/CMSIS/Include/cmsis_gcc.h **** {
 198:../../Drivers/CMSIS/Include/cmsis_gcc.h ****   __ASM volatile ("cpsie i" : : : "memory");
 199:../../Drivers/CMSIS/Include/cmsis_gcc.h **** }
 200:../../Drivers/CMSIS/Include/cmsis_gcc.h **** 
 201:../../Drivers/CMSIS/Include/cmsis_gcc.h **** 
 202:../../Drivers/CMSIS/Include/cmsis_gcc.h **** /**
 203:../../Drivers/CMSIS/Include/cmsis_gcc.h ****   \brief   Disable IRQ Interrupts
 204:../../Drivers/CMSIS/Include/cmsis_gcc.h ****   \details Disables IRQ interrupts by setting the I-bit in the CPSR.
 205:../../Drivers/CMSIS/Include/cmsis_gcc.h ****            Can only be executed in Privileged modes.
 206:../../Drivers/CMSIS/Include/cmsis_gcc.h ****  */
 207:../../Drivers/CMSIS/Include/cmsis_gcc.h **** __STATIC_FORCEINLINE void __disable_irq(void)
 204              		.loc 2 207 27 view .LVU54
 205              	.LBB26:
 208:../../Drivers/CMSIS/Include/cmsis_gcc.h **** {
 209:../../Drivers/CMSIS/Include/cmsis_gcc.h ****   __ASM volatile ("cpsid i" : : : "memory");
 206              		.loc 2 209 3 view .LVU55
 207              		.syntax unified
 208              	@ 209 "../../Drivers/CMSIS/Include/cmsis_gcc.h" 1
 209 0002 72B6     		cpsid i
 210              	@ 0 "" 2
 210:../../Drivers/CMSIS/Include/cmsis_gcc.h **** }
 211              		.loc 2 210 1 is_stmt 0 view .LVU56
 212              		.thumb
 213              		.syntax unified
ARM GAS  C:\Users\minis\AppData\Local\Temp\cc4dDDks.s 			page 16


 214 0004 10E0     		b	.L10
 215              	.L7:
 216              	.LBE26:
 217              	.LBE25:
 218              	.LBB27:
 436:../../CM4/Core/Src/main.c ****   while (1) {
 437:../../CM4/Core/Src/main.c ****     LED_RED_ON();
 438:../../CM4/Core/Src/main.c ****     BUSY(500000);
 219              		.loc 1 438 5 is_stmt 1 discriminator 3 view .LVU57
 220 0006 009B     		ldr	r3, [sp]
 221 0008 0133     		adds	r3, r3, #1
 222 000a 0093     		str	r3, [sp]
 223              	.L6:
 224              		.loc 1 438 5 discriminator 1 view .LVU58
 225 000c 009A     		ldr	r2, [sp]
 226 000e 0C4B     		ldr	r3, .L12
 227 0010 9A42     		cmp	r2, r3
 228 0012 F8DD     		ble	.L7
 229              	.LBE27:
 230              		.loc 1 438 5 view .LVU59
 439:../../CM4/Core/Src/main.c ****     LED_RED_OFF();
 231              		.loc 1 439 5 view .LVU60
 232 0014 0B4B     		ldr	r3, .L12+4
 233 0016 4FF08042 		mov	r2, #1073741824
 234 001a 9A61     		str	r2, [r3, #24]
 440:../../CM4/Core/Src/main.c ****     BUSY(500000);
 235              		.loc 1 440 5 view .LVU61
 236              		.loc 1 440 5 view .LVU62
 237              	.LBB28:
 238              		.loc 1 440 5 view .LVU63
 239 001c 0023     		movs	r3, #0
 240 001e 0193     		str	r3, [sp, #4]
 241              	.L8:
 242              		.loc 1 440 5 discriminator 1 view .LVU64
 243 0020 019A     		ldr	r2, [sp, #4]
 244 0022 074B     		ldr	r3, .L12
 245 0024 9A42     		cmp	r2, r3
 246 0026 06DD     		ble	.L9
 247              	.L10:
 248              	.LBE28:
 436:../../CM4/Core/Src/main.c ****   while (1) {
 249              		.loc 1 436 3 view .LVU65
 437:../../CM4/Core/Src/main.c ****     BUSY(500000);
 250              		.loc 1 437 5 view .LVU66
 251 0028 064B     		ldr	r3, .L12+4
 252 002a 4FF48042 		mov	r2, #16384
 253 002e 9A61     		str	r2, [r3, #24]
 438:../../CM4/Core/Src/main.c ****     LED_RED_OFF();
 254              		.loc 1 438 5 view .LVU67
 438:../../CM4/Core/Src/main.c ****     LED_RED_OFF();
 255              		.loc 1 438 5 view .LVU68
 256              	.LBB29:
 438:../../CM4/Core/Src/main.c ****     LED_RED_OFF();
 257              		.loc 1 438 5 view .LVU69
 258 0030 0023     		movs	r3, #0
 259 0032 0093     		str	r3, [sp]
 260 0034 EAE7     		b	.L6
ARM GAS  C:\Users\minis\AppData\Local\Temp\cc4dDDks.s 			page 17


 261              	.L9:
 262              	.LBE29:
 263              	.LBB30:
 264              		.loc 1 440 5 discriminator 3 view .LVU70
 265 0036 019B     		ldr	r3, [sp, #4]
 266 0038 0133     		adds	r3, r3, #1
 267 003a 0193     		str	r3, [sp, #4]
 268 003c F0E7     		b	.L8
 269              	.L13:
 270 003e 00BF     		.align	2
 271              	.L12:
 272 0040 1FA10700 		.word	499999
 273 0044 00040258 		.word	1476527104
 274              	.LBE30:
 275              		.cfi_endproc
 276              	.LFE140:
 278              		.section	.text.SystemClock_Config,"ax",%progbits
 279              		.align	1
 280              		.syntax unified
 281              		.thumb
 282              		.thumb_func
 284              	SystemClock_Config:
 285              	.LFB137:
 327:../../CM4/Core/Src/main.c ****   RCC_OscInitTypeDef RCC_OscInitStruct = {0};
 286              		.loc 1 327 38 view -0
 287              		.cfi_startproc
 288              		@ args = 0, pretend = 0, frame = 112
 289              		@ frame_needed = 0, uses_anonymous_args = 0
 290 0000 00B5     		push	{lr}
 291              	.LCFI4:
 292              		.cfi_def_cfa_offset 4
 293              		.cfi_offset 14, -4
 294 0002 9DB0     		sub	sp, sp, #116
 295              	.LCFI5:
 296              		.cfi_def_cfa_offset 120
 328:../../CM4/Core/Src/main.c ****   RCC_ClkInitTypeDef RCC_ClkInitStruct = {0};
 297              		.loc 1 328 3 view .LVU72
 328:../../CM4/Core/Src/main.c ****   RCC_ClkInitTypeDef RCC_ClkInitStruct = {0};
 298              		.loc 1 328 22 is_stmt 0 view .LVU73
 299 0004 4C22     		movs	r2, #76
 300 0006 0021     		movs	r1, #0
 301 0008 09A8     		add	r0, sp, #36
 302 000a FFF7FEFF 		bl	memset
 303              	.LVL6:
 329:../../CM4/Core/Src/main.c **** 
 304              		.loc 1 329 3 is_stmt 1 view .LVU74
 329:../../CM4/Core/Src/main.c **** 
 305              		.loc 1 329 22 is_stmt 0 view .LVU75
 306 000e 2022     		movs	r2, #32
 307 0010 0021     		movs	r1, #0
 308 0012 01A8     		add	r0, sp, #4
 309 0014 FFF7FEFF 		bl	memset
 310              	.LVL7:
 331:../../CM4/Core/Src/main.c ****   __HAL_PWR_VOLTAGESCALING_CONFIG(PWR_REGULATOR_VOLTAGE_SCALE2);
 311              		.loc 1 331 3 is_stmt 1 view .LVU76
 312 0018 0420     		movs	r0, #4
 313 001a FFF7FEFF 		bl	HAL_PWREx_ConfigSupply
ARM GAS  C:\Users\minis\AppData\Local\Temp\cc4dDDks.s 			page 18


 314              	.LVL8:
 332:../../CM4/Core/Src/main.c ****   while (!__HAL_PWR_GET_FLAG(PWR_FLAG_VOSRDY))
 315              		.loc 1 332 3 view .LVU77
 316              	.LBB31:
 332:../../CM4/Core/Src/main.c ****   while (!__HAL_PWR_GET_FLAG(PWR_FLAG_VOSRDY))
 317              		.loc 1 332 3 view .LVU78
 318 001e 0023     		movs	r3, #0
 319 0020 0093     		str	r3, [sp]
 332:../../CM4/Core/Src/main.c ****   while (!__HAL_PWR_GET_FLAG(PWR_FLAG_VOSRDY))
 320              		.loc 1 332 3 view .LVU79
 332:../../CM4/Core/Src/main.c ****   while (!__HAL_PWR_GET_FLAG(PWR_FLAG_VOSRDY))
 321              		.loc 1 332 3 discriminator 2 view .LVU80
 322 0022 284B     		ldr	r3, .L21
 323 0024 DA6A     		ldr	r2, [r3, #44]
 324 0026 22F00102 		bic	r2, r2, #1
 325 002a DA62     		str	r2, [r3, #44]
 332:../../CM4/Core/Src/main.c ****   while (!__HAL_PWR_GET_FLAG(PWR_FLAG_VOSRDY))
 326              		.loc 1 332 3 view .LVU81
 332:../../CM4/Core/Src/main.c ****   while (!__HAL_PWR_GET_FLAG(PWR_FLAG_VOSRDY))
 327              		.loc 1 332 3 is_stmt 0 discriminator 2 view .LVU82
 328 002c DB6A     		ldr	r3, [r3, #44]
 329 002e 03F00103 		and	r3, r3, #1
 330 0032 0093     		str	r3, [sp]
 332:../../CM4/Core/Src/main.c ****   while (!__HAL_PWR_GET_FLAG(PWR_FLAG_VOSRDY))
 331              		.loc 1 332 3 is_stmt 1 view .LVU83
 332:../../CM4/Core/Src/main.c ****   while (!__HAL_PWR_GET_FLAG(PWR_FLAG_VOSRDY))
 332              		.loc 1 332 3 is_stmt 0 discriminator 2 view .LVU84
 333 0034 244A     		ldr	r2, .L21+4
 334 0036 9369     		ldr	r3, [r2, #24]
 335 0038 23F44043 		bic	r3, r3, #49152
 336 003c 43F40043 		orr	r3, r3, #32768
 337 0040 9361     		str	r3, [r2, #24]
 332:../../CM4/Core/Src/main.c ****   while (!__HAL_PWR_GET_FLAG(PWR_FLAG_VOSRDY))
 338              		.loc 1 332 3 is_stmt 1 view .LVU85
 332:../../CM4/Core/Src/main.c ****   while (!__HAL_PWR_GET_FLAG(PWR_FLAG_VOSRDY))
 339              		.loc 1 332 3 is_stmt 0 discriminator 2 view .LVU86
 340 0042 9369     		ldr	r3, [r2, #24]
 341 0044 03F44043 		and	r3, r3, #49152
 342 0048 0093     		str	r3, [sp]
 332:../../CM4/Core/Src/main.c ****   while (!__HAL_PWR_GET_FLAG(PWR_FLAG_VOSRDY))
 343              		.loc 1 332 3 is_stmt 1 discriminator 4 view .LVU87
 344 004a 009B     		ldr	r3, [sp]
 345              	.LBE31:
 332:../../CM4/Core/Src/main.c ****   while (!__HAL_PWR_GET_FLAG(PWR_FLAG_VOSRDY))
 346              		.loc 1 332 3 view .LVU88
 333:../../CM4/Core/Src/main.c ****     ;
 347              		.loc 1 333 3 view .LVU89
 348              	.L15:
 333:../../CM4/Core/Src/main.c ****     ;
 349              		.loc 1 333 10 discriminator 1 view .LVU90
 333:../../CM4/Core/Src/main.c ****     ;
 350              		.loc 1 333 11 is_stmt 0 discriminator 1 view .LVU91
 351 004c 1E4B     		ldr	r3, .L21+4
 352 004e 9B69     		ldr	r3, [r3, #24]
 333:../../CM4/Core/Src/main.c ****     ;
 353              		.loc 1 333 10 discriminator 1 view .LVU92
 354 0050 13F4005F 		tst	r3, #8192
ARM GAS  C:\Users\minis\AppData\Local\Temp\cc4dDDks.s 			page 19


 355 0054 FAD0     		beq	.L15
 336:../../CM4/Core/Src/main.c ****   RCC_OscInitStruct.HSIState = RCC_HSI_DIV1;
 356              		.loc 1 336 3 is_stmt 1 view .LVU93
 336:../../CM4/Core/Src/main.c ****   RCC_OscInitStruct.HSIState = RCC_HSI_DIV1;
 357              		.loc 1 336 36 is_stmt 0 view .LVU94
 358 0056 0223     		movs	r3, #2
 359 0058 0993     		str	r3, [sp, #36]
 337:../../CM4/Core/Src/main.c ****   RCC_OscInitStruct.HSICalibrationValue = RCC_HSICALIBRATION_DEFAULT;
 360              		.loc 1 337 3 is_stmt 1 view .LVU95
 337:../../CM4/Core/Src/main.c ****   RCC_OscInitStruct.HSICalibrationValue = RCC_HSICALIBRATION_DEFAULT;
 361              		.loc 1 337 30 is_stmt 0 view .LVU96
 362 005a 0122     		movs	r2, #1
 363 005c 0C92     		str	r2, [sp, #48]
 338:../../CM4/Core/Src/main.c ****   RCC_OscInitStruct.PLL.PLLState = RCC_PLL_ON;
 364              		.loc 1 338 3 is_stmt 1 view .LVU97
 338:../../CM4/Core/Src/main.c ****   RCC_OscInitStruct.PLL.PLLState = RCC_PLL_ON;
 365              		.loc 1 338 41 is_stmt 0 view .LVU98
 366 005e 4022     		movs	r2, #64
 367 0060 0D92     		str	r2, [sp, #52]
 339:../../CM4/Core/Src/main.c ****   RCC_OscInitStruct.PLL.PLLSource = RCC_PLLSOURCE_HSI;
 368              		.loc 1 339 3 is_stmt 1 view .LVU99
 339:../../CM4/Core/Src/main.c ****   RCC_OscInitStruct.PLL.PLLSource = RCC_PLLSOURCE_HSI;
 369              		.loc 1 339 34 is_stmt 0 view .LVU100
 370 0062 1293     		str	r3, [sp, #72]
 340:../../CM4/Core/Src/main.c ****   RCC_OscInitStruct.PLL.PLLM = 4;
 371              		.loc 1 340 3 is_stmt 1 view .LVU101
 340:../../CM4/Core/Src/main.c ****   RCC_OscInitStruct.PLL.PLLM = 4;
 372              		.loc 1 340 35 is_stmt 0 view .LVU102
 373 0064 0022     		movs	r2, #0
 374 0066 1392     		str	r2, [sp, #76]
 341:../../CM4/Core/Src/main.c ****   RCC_OscInitStruct.PLL.PLLN = 28;
 375              		.loc 1 341 3 is_stmt 1 view .LVU103
 341:../../CM4/Core/Src/main.c ****   RCC_OscInitStruct.PLL.PLLN = 28;
 376              		.loc 1 341 30 is_stmt 0 view .LVU104
 377 0068 0421     		movs	r1, #4
 378 006a 1491     		str	r1, [sp, #80]
 342:../../CM4/Core/Src/main.c ****   RCC_OscInitStruct.PLL.PLLP = 2;
 379              		.loc 1 342 3 is_stmt 1 view .LVU105
 342:../../CM4/Core/Src/main.c ****   RCC_OscInitStruct.PLL.PLLP = 2;
 380              		.loc 1 342 30 is_stmt 0 view .LVU106
 381 006c 1C21     		movs	r1, #28
 382 006e 1591     		str	r1, [sp, #84]
 343:../../CM4/Core/Src/main.c ****   RCC_OscInitStruct.PLL.PLLQ = 5;
 383              		.loc 1 343 3 is_stmt 1 view .LVU107
 343:../../CM4/Core/Src/main.c ****   RCC_OscInitStruct.PLL.PLLQ = 5;
 384              		.loc 1 343 30 is_stmt 0 view .LVU108
 385 0070 1693     		str	r3, [sp, #88]
 344:../../CM4/Core/Src/main.c ****   RCC_OscInitStruct.PLL.PLLR = 2;
 386              		.loc 1 344 3 is_stmt 1 view .LVU109
 344:../../CM4/Core/Src/main.c ****   RCC_OscInitStruct.PLL.PLLR = 2;
 387              		.loc 1 344 30 is_stmt 0 view .LVU110
 388 0072 0521     		movs	r1, #5
 389 0074 1791     		str	r1, [sp, #92]
 345:../../CM4/Core/Src/main.c ****   RCC_OscInitStruct.PLL.PLLRGE = RCC_PLL1VCIRANGE_3;
 390              		.loc 1 345 3 is_stmt 1 view .LVU111
 345:../../CM4/Core/Src/main.c ****   RCC_OscInitStruct.PLL.PLLRGE = RCC_PLL1VCIRANGE_3;
 391              		.loc 1 345 30 is_stmt 0 view .LVU112
ARM GAS  C:\Users\minis\AppData\Local\Temp\cc4dDDks.s 			page 20


 392 0076 1893     		str	r3, [sp, #96]
 346:../../CM4/Core/Src/main.c ****   RCC_OscInitStruct.PLL.PLLVCOSEL = RCC_PLL1VCOWIDE;
 393              		.loc 1 346 3 is_stmt 1 view .LVU113
 346:../../CM4/Core/Src/main.c ****   RCC_OscInitStruct.PLL.PLLVCOSEL = RCC_PLL1VCOWIDE;
 394              		.loc 1 346 32 is_stmt 0 view .LVU114
 395 0078 0C23     		movs	r3, #12
 396 007a 1993     		str	r3, [sp, #100]
 347:../../CM4/Core/Src/main.c ****   RCC_OscInitStruct.PLL.PLLFRACN = 1024;
 397              		.loc 1 347 3 is_stmt 1 view .LVU115
 347:../../CM4/Core/Src/main.c ****   RCC_OscInitStruct.PLL.PLLFRACN = 1024;
 398              		.loc 1 347 35 is_stmt 0 view .LVU116
 399 007c 1A92     		str	r2, [sp, #104]
 348:../../CM4/Core/Src/main.c ****   if (HAL_RCC_OscConfig(&RCC_OscInitStruct) != HAL_OK) {
 400              		.loc 1 348 3 is_stmt 1 view .LVU117
 348:../../CM4/Core/Src/main.c ****   if (HAL_RCC_OscConfig(&RCC_OscInitStruct) != HAL_OK) {
 401              		.loc 1 348 34 is_stmt 0 view .LVU118
 402 007e 4FF48063 		mov	r3, #1024
 403 0082 1B93     		str	r3, [sp, #108]
 349:../../CM4/Core/Src/main.c ****     Error_Handler();
 404              		.loc 1 349 3 is_stmt 1 view .LVU119
 349:../../CM4/Core/Src/main.c ****     Error_Handler();
 405              		.loc 1 349 7 is_stmt 0 view .LVU120
 406 0084 09A8     		add	r0, sp, #36
 407 0086 FFF7FEFF 		bl	HAL_RCC_OscConfig
 408              	.LVL9:
 349:../../CM4/Core/Src/main.c ****     Error_Handler();
 409              		.loc 1 349 6 discriminator 1 view .LVU121
 410 008a B8B9     		cbnz	r0, .L19
 353:../../CM4/Core/Src/main.c ****                                 RCC_CLOCKTYPE_PCLK1 | RCC_CLOCKTYPE_PCLK2 |
 411              		.loc 1 353 3 is_stmt 1 view .LVU122
 353:../../CM4/Core/Src/main.c ****                                 RCC_CLOCKTYPE_PCLK1 | RCC_CLOCKTYPE_PCLK2 |
 412              		.loc 1 353 31 is_stmt 0 view .LVU123
 413 008c 3F23     		movs	r3, #63
 414 008e 0193     		str	r3, [sp, #4]
 356:../../CM4/Core/Src/main.c ****   RCC_ClkInitStruct.SYSCLKDivider = RCC_SYSCLK_DIV1;
 415              		.loc 1 356 3 is_stmt 1 view .LVU124
 356:../../CM4/Core/Src/main.c ****   RCC_ClkInitStruct.SYSCLKDivider = RCC_SYSCLK_DIV1;
 416              		.loc 1 356 34 is_stmt 0 view .LVU125
 417 0090 0323     		movs	r3, #3
 418 0092 0293     		str	r3, [sp, #8]
 357:../../CM4/Core/Src/main.c ****   RCC_ClkInitStruct.AHBCLKDivider = RCC_HCLK_DIV1;
 419              		.loc 1 357 3 is_stmt 1 view .LVU126
 357:../../CM4/Core/Src/main.c ****   RCC_ClkInitStruct.AHBCLKDivider = RCC_HCLK_DIV1;
 420              		.loc 1 357 35 is_stmt 0 view .LVU127
 421 0094 0023     		movs	r3, #0
 422 0096 0393     		str	r3, [sp, #12]
 358:../../CM4/Core/Src/main.c ****   RCC_ClkInitStruct.APB3CLKDivider = RCC_APB3_DIV2;
 423              		.loc 1 358 3 is_stmt 1 view .LVU128
 358:../../CM4/Core/Src/main.c ****   RCC_ClkInitStruct.APB3CLKDivider = RCC_APB3_DIV2;
 424              		.loc 1 358 35 is_stmt 0 view .LVU129
 425 0098 0493     		str	r3, [sp, #16]
 359:../../CM4/Core/Src/main.c ****   RCC_ClkInitStruct.APB1CLKDivider =
 426              		.loc 1 359 3 is_stmt 1 view .LVU130
 359:../../CM4/Core/Src/main.c ****   RCC_ClkInitStruct.APB1CLKDivider =
 427              		.loc 1 359 36 is_stmt 0 view .LVU131
 428 009a 4023     		movs	r3, #64
 429 009c 0593     		str	r3, [sp, #20]
ARM GAS  C:\Users\minis\AppData\Local\Temp\cc4dDDks.s 			page 21


 360:../../CM4/Core/Src/main.c ****       RCC_APB1_DIV4; /* DEVE essere uguale al CM7! */
 430              		.loc 1 360 3 is_stmt 1 view .LVU132
 360:../../CM4/Core/Src/main.c ****       RCC_APB1_DIV4; /* DEVE essere uguale al CM7! */
 431              		.loc 1 360 36 is_stmt 0 view .LVU133
 432 009e 5022     		movs	r2, #80
 433 00a0 0692     		str	r2, [sp, #24]
 362:../../CM4/Core/Src/main.c ****   RCC_ClkInitStruct.APB4CLKDivider = RCC_APB4_DIV2;
 434              		.loc 1 362 3 is_stmt 1 view .LVU134
 362:../../CM4/Core/Src/main.c ****   RCC_ClkInitStruct.APB4CLKDivider = RCC_APB4_DIV2;
 435              		.loc 1 362 36 is_stmt 0 view .LVU135
 436 00a2 4FF48062 		mov	r2, #1024
 437 00a6 0792     		str	r2, [sp, #28]
 363:../../CM4/Core/Src/main.c ****   if (HAL_RCC_ClockConfig(&RCC_ClkInitStruct, FLASH_LATENCY_4) != HAL_OK) {
 438              		.loc 1 363 3 is_stmt 1 view .LVU136
 363:../../CM4/Core/Src/main.c ****   if (HAL_RCC_ClockConfig(&RCC_ClkInitStruct, FLASH_LATENCY_4) != HAL_OK) {
 439              		.loc 1 363 36 is_stmt 0 view .LVU137
 440 00a8 0893     		str	r3, [sp, #32]
 364:../../CM4/Core/Src/main.c ****     Error_Handler();
 441              		.loc 1 364 3 is_stmt 1 view .LVU138
 364:../../CM4/Core/Src/main.c ****     Error_Handler();
 442              		.loc 1 364 7 is_stmt 0 view .LVU139
 443 00aa 0421     		movs	r1, #4
 444 00ac 0DEB0100 		add	r0, sp, r1
 445 00b0 FFF7FEFF 		bl	HAL_RCC_ClockConfig
 446              	.LVL10:
 364:../../CM4/Core/Src/main.c ****     Error_Handler();
 447              		.loc 1 364 6 discriminator 1 view .LVU140
 448 00b4 20B9     		cbnz	r0, .L20
 367:../../CM4/Core/Src/main.c **** 
 449              		.loc 1 367 1 view .LVU141
 450 00b6 1DB0     		add	sp, sp, #116
 451              	.LCFI6:
 452              		.cfi_remember_state
 453              		.cfi_def_cfa_offset 4
 454              		@ sp needed
 455 00b8 5DF804FB 		ldr	pc, [sp], #4
 456              	.L19:
 457              	.LCFI7:
 458              		.cfi_restore_state
 350:../../CM4/Core/Src/main.c ****   }
 459              		.loc 1 350 5 is_stmt 1 view .LVU142
 460 00bc FFF7FEFF 		bl	Error_Handler
 461              	.LVL11:
 462              	.L20:
 365:../../CM4/Core/Src/main.c ****   }
 463              		.loc 1 365 5 view .LVU143
 464 00c0 FFF7FEFF 		bl	Error_Handler
 465              	.LVL12:
 466              	.L22:
 467              		.align	2
 468              	.L21:
 469 00c4 00040058 		.word	1476396032
 470 00c8 00480258 		.word	1476544512
 471              		.cfi_endproc
 472              	.LFE137:
 474              		.section	.text.MX_TIM2_Init,"ax",%progbits
 475              		.align	1
ARM GAS  C:\Users\minis\AppData\Local\Temp\cc4dDDks.s 			page 22


 476              		.syntax unified
 477              		.thumb
 478              		.thumb_func
 480              	MX_TIM2_Init:
 481              	.LFB138:
 369:../../CM4/Core/Src/main.c ****   __HAL_RCC_TIM2_CLK_ENABLE();
 482              		.loc 1 369 32 view -0
 483              		.cfi_startproc
 484              		@ args = 0, pretend = 0, frame = 32
 485              		@ frame_needed = 0, uses_anonymous_args = 0
 486 0000 00B5     		push	{lr}
 487              	.LCFI8:
 488              		.cfi_def_cfa_offset 4
 489              		.cfi_offset 14, -4
 490 0002 89B0     		sub	sp, sp, #36
 491              	.LCFI9:
 492              		.cfi_def_cfa_offset 40
 370:../../CM4/Core/Src/main.c **** 
 493              		.loc 1 370 3 view .LVU145
 494              	.LBB32:
 370:../../CM4/Core/Src/main.c **** 
 495              		.loc 1 370 3 view .LVU146
 370:../../CM4/Core/Src/main.c **** 
 496              		.loc 1 370 3 view .LVU147
 497 0004 1D4B     		ldr	r3, .L31
 498 0006 D3F8E820 		ldr	r2, [r3, #232]
 499 000a 42F00102 		orr	r2, r2, #1
 500 000e C3F8E820 		str	r2, [r3, #232]
 370:../../CM4/Core/Src/main.c **** 
 501              		.loc 1 370 3 view .LVU148
 502 0012 D3F8E830 		ldr	r3, [r3, #232]
 503 0016 03F00103 		and	r3, r3, #1
 504 001a 0093     		str	r3, [sp]
 370:../../CM4/Core/Src/main.c **** 
 505              		.loc 1 370 3 view .LVU149
 506 001c 009B     		ldr	r3, [sp]
 507              	.LBE32:
 370:../../CM4/Core/Src/main.c **** 
 508              		.loc 1 370 3 view .LVU150
 372:../../CM4/Core/Src/main.c ****   TIM_MasterConfigTypeDef sMasterConfig = {0};
 509              		.loc 1 372 3 view .LVU151
 372:../../CM4/Core/Src/main.c ****   TIM_MasterConfigTypeDef sMasterConfig = {0};
 510              		.loc 1 372 26 is_stmt 0 view .LVU152
 511 001e 0023     		movs	r3, #0
 512 0020 0493     		str	r3, [sp, #16]
 513 0022 0593     		str	r3, [sp, #20]
 514 0024 0693     		str	r3, [sp, #24]
 515 0026 0793     		str	r3, [sp, #28]
 373:../../CM4/Core/Src/main.c **** 
 516              		.loc 1 373 3 is_stmt 1 view .LVU153
 373:../../CM4/Core/Src/main.c **** 
 517              		.loc 1 373 27 is_stmt 0 view .LVU154
 518 0028 0193     		str	r3, [sp, #4]
 519 002a 0293     		str	r3, [sp, #8]
 520 002c 0393     		str	r3, [sp, #12]
 375:../../CM4/Core/Src/main.c ****   htim2.Init.Prescaler = 0;
 521              		.loc 1 375 3 is_stmt 1 view .LVU155
ARM GAS  C:\Users\minis\AppData\Local\Temp\cc4dDDks.s 			page 23


 375:../../CM4/Core/Src/main.c ****   htim2.Init.Prescaler = 0;
 522              		.loc 1 375 18 is_stmt 0 view .LVU156
 523 002e 1448     		ldr	r0, .L31+4
 524 0030 4FF08042 		mov	r2, #1073741824
 525 0034 0260     		str	r2, [r0]
 376:../../CM4/Core/Src/main.c ****   htim2.Init.CounterMode = TIM_COUNTERMODE_UP;
 526              		.loc 1 376 3 is_stmt 1 view .LVU157
 376:../../CM4/Core/Src/main.c ****   htim2.Init.CounterMode = TIM_COUNTERMODE_UP;
 527              		.loc 1 376 24 is_stmt 0 view .LVU158
 528 0036 4360     		str	r3, [r0, #4]
 377:../../CM4/Core/Src/main.c ****   htim2.Init.Period = 0xFFFFFFFFU;
 529              		.loc 1 377 3 is_stmt 1 view .LVU159
 377:../../CM4/Core/Src/main.c ****   htim2.Init.Period = 0xFFFFFFFFU;
 530              		.loc 1 377 26 is_stmt 0 view .LVU160
 531 0038 8360     		str	r3, [r0, #8]
 378:../../CM4/Core/Src/main.c ****   htim2.Init.ClockDivision = TIM_CLOCKDIVISION_DIV1;
 532              		.loc 1 378 3 is_stmt 1 view .LVU161
 378:../../CM4/Core/Src/main.c ****   htim2.Init.ClockDivision = TIM_CLOCKDIVISION_DIV1;
 533              		.loc 1 378 21 is_stmt 0 view .LVU162
 534 003a 4FF0FF32 		mov	r2, #-1
 535 003e C260     		str	r2, [r0, #12]
 379:../../CM4/Core/Src/main.c ****   htim2.Init.AutoReloadPreload = TIM_AUTORELOAD_PRELOAD_DISABLE;
 536              		.loc 1 379 3 is_stmt 1 view .LVU163
 379:../../CM4/Core/Src/main.c ****   htim2.Init.AutoReloadPreload = TIM_AUTORELOAD_PRELOAD_DISABLE;
 537              		.loc 1 379 28 is_stmt 0 view .LVU164
 538 0040 0361     		str	r3, [r0, #16]
 380:../../CM4/Core/Src/main.c ****   if (HAL_TIM_Base_Init(&htim2) != HAL_OK) {
 539              		.loc 1 380 3 is_stmt 1 view .LVU165
 380:../../CM4/Core/Src/main.c ****   if (HAL_TIM_Base_Init(&htim2) != HAL_OK) {
 540              		.loc 1 380 32 is_stmt 0 view .LVU166
 541 0042 8361     		str	r3, [r0, #24]
 381:../../CM4/Core/Src/main.c ****     Error_Handler();
 542              		.loc 1 381 3 is_stmt 1 view .LVU167
 381:../../CM4/Core/Src/main.c ****     Error_Handler();
 543              		.loc 1 381 7 is_stmt 0 view .LVU168
 544 0044 FFF7FEFF 		bl	HAL_TIM_Base_Init
 545              	.LVL13:
 381:../../CM4/Core/Src/main.c ****     Error_Handler();
 546              		.loc 1 381 6 discriminator 1 view .LVU169
 547 0048 90B9     		cbnz	r0, .L28
 385:../../CM4/Core/Src/main.c ****   if (HAL_TIM_ConfigClockSource(&htim2, &sClockSourceConfig) != HAL_OK) {
 548              		.loc 1 385 3 is_stmt 1 view .LVU170
 385:../../CM4/Core/Src/main.c ****   if (HAL_TIM_ConfigClockSource(&htim2, &sClockSourceConfig) != HAL_OK) {
 549              		.loc 1 385 34 is_stmt 0 view .LVU171
 550 004a 4FF48053 		mov	r3, #4096
 551 004e 0493     		str	r3, [sp, #16]
 386:../../CM4/Core/Src/main.c ****     Error_Handler();
 552              		.loc 1 386 3 is_stmt 1 view .LVU172
 386:../../CM4/Core/Src/main.c ****     Error_Handler();
 553              		.loc 1 386 7 is_stmt 0 view .LVU173
 554 0050 04A9     		add	r1, sp, #16
 555 0052 0B48     		ldr	r0, .L31+4
 556 0054 FFF7FEFF 		bl	HAL_TIM_ConfigClockSource
 557              	.LVL14:
 386:../../CM4/Core/Src/main.c ****     Error_Handler();
 558              		.loc 1 386 6 discriminator 1 view .LVU174
 559 0058 60B9     		cbnz	r0, .L29
ARM GAS  C:\Users\minis\AppData\Local\Temp\cc4dDDks.s 			page 24


 390:../../CM4/Core/Src/main.c ****   sMasterConfig.MasterSlaveMode = TIM_MASTERSLAVEMODE_DISABLE;
 560              		.loc 1 390 3 is_stmt 1 view .LVU175
 390:../../CM4/Core/Src/main.c ****   sMasterConfig.MasterSlaveMode = TIM_MASTERSLAVEMODE_DISABLE;
 561              		.loc 1 390 37 is_stmt 0 view .LVU176
 562 005a 0023     		movs	r3, #0
 563 005c 0193     		str	r3, [sp, #4]
 391:../../CM4/Core/Src/main.c ****   if (HAL_TIMEx_MasterConfigSynchronization(&htim2, &sMasterConfig) != HAL_OK) {
 564              		.loc 1 391 3 is_stmt 1 view .LVU177
 391:../../CM4/Core/Src/main.c ****   if (HAL_TIMEx_MasterConfigSynchronization(&htim2, &sMasterConfig) != HAL_OK) {
 565              		.loc 1 391 33 is_stmt 0 view .LVU178
 566 005e 0393     		str	r3, [sp, #12]
 392:../../CM4/Core/Src/main.c ****     Error_Handler();
 567              		.loc 1 392 3 is_stmt 1 view .LVU179
 392:../../CM4/Core/Src/main.c ****     Error_Handler();
 568              		.loc 1 392 7 is_stmt 0 view .LVU180
 569 0060 01A9     		add	r1, sp, #4
 570 0062 0748     		ldr	r0, .L31+4
 571 0064 FFF7FEFF 		bl	HAL_TIMEx_MasterConfigSynchronization
 572              	.LVL15:
 392:../../CM4/Core/Src/main.c ****     Error_Handler();
 573              		.loc 1 392 6 discriminator 1 view .LVU181
 574 0068 30B9     		cbnz	r0, .L30
 395:../../CM4/Core/Src/main.c **** 
 575              		.loc 1 395 1 view .LVU182
 576 006a 09B0     		add	sp, sp, #36
 577              	.LCFI10:
 578              		.cfi_remember_state
 579              		.cfi_def_cfa_offset 4
 580              		@ sp needed
 581 006c 5DF804FB 		ldr	pc, [sp], #4
 582              	.L28:
 583              	.LCFI11:
 584              		.cfi_restore_state
 382:../../CM4/Core/Src/main.c ****   }
 585              		.loc 1 382 5 is_stmt 1 view .LVU183
 586 0070 FFF7FEFF 		bl	Error_Handler
 587              	.LVL16:
 588              	.L29:
 387:../../CM4/Core/Src/main.c ****   }
 589              		.loc 1 387 5 view .LVU184
 590 0074 FFF7FEFF 		bl	Error_Handler
 591              	.LVL17:
 592              	.L30:
 393:../../CM4/Core/Src/main.c ****   }
 593              		.loc 1 393 5 view .LVU185
 594 0078 FFF7FEFF 		bl	Error_Handler
 595              	.LVL18:
 596              	.L32:
 597              		.align	2
 598              	.L31:
 599 007c 00440258 		.word	1476543488
 600 0080 00000000 		.word	htim2
 601              		.cfi_endproc
 602              	.LFE138:
 604              		.section	.text.MX_UART4_Init,"ax",%progbits
 605              		.align	1
 606              		.syntax unified
ARM GAS  C:\Users\minis\AppData\Local\Temp\cc4dDDks.s 			page 25


 607              		.thumb
 608              		.thumb_func
 610              	MX_UART4_Init:
 611              	.LFB136:
 285:../../CM4/Core/Src/main.c **** 
 612              		.loc 1 285 33 view -0
 613              		.cfi_startproc
 614              		@ args = 0, pretend = 0, frame = 0
 615              		@ frame_needed = 0, uses_anonymous_args = 0
 616 0000 08B5     		push	{r3, lr}
 617              	.LCFI12:
 618              		.cfi_def_cfa_offset 8
 619              		.cfi_offset 3, -8
 620              		.cfi_offset 14, -4
 294:../../CM4/Core/Src/main.c ****   huart4.Init.BaudRate = 115200;
 621              		.loc 1 294 3 view .LVU187
 294:../../CM4/Core/Src/main.c ****   huart4.Init.BaudRate = 115200;
 622              		.loc 1 294 19 is_stmt 0 view .LVU188
 623 0002 1548     		ldr	r0, .L43
 624 0004 154B     		ldr	r3, .L43+4
 625 0006 0360     		str	r3, [r0]
 295:../../CM4/Core/Src/main.c ****   huart4.Init.WordLength = UART_WORDLENGTH_8B;
 626              		.loc 1 295 3 is_stmt 1 view .LVU189
 295:../../CM4/Core/Src/main.c ****   huart4.Init.WordLength = UART_WORDLENGTH_8B;
 627              		.loc 1 295 24 is_stmt 0 view .LVU190
 628 0008 4FF4E133 		mov	r3, #115200
 629 000c 4360     		str	r3, [r0, #4]
 296:../../CM4/Core/Src/main.c ****   huart4.Init.StopBits = UART_STOPBITS_1;
 630              		.loc 1 296 3 is_stmt 1 view .LVU191
 296:../../CM4/Core/Src/main.c ****   huart4.Init.StopBits = UART_STOPBITS_1;
 631              		.loc 1 296 26 is_stmt 0 view .LVU192
 632 000e 0023     		movs	r3, #0
 633 0010 8360     		str	r3, [r0, #8]
 297:../../CM4/Core/Src/main.c ****   huart4.Init.Parity = UART_PARITY_NONE;
 634              		.loc 1 297 3 is_stmt 1 view .LVU193
 297:../../CM4/Core/Src/main.c ****   huart4.Init.Parity = UART_PARITY_NONE;
 635              		.loc 1 297 24 is_stmt 0 view .LVU194
 636 0012 C360     		str	r3, [r0, #12]
 298:../../CM4/Core/Src/main.c ****   huart4.Init.Mode = UART_MODE_TX_RX;
 637              		.loc 1 298 3 is_stmt 1 view .LVU195
 298:../../CM4/Core/Src/main.c ****   huart4.Init.Mode = UART_MODE_TX_RX;
 638              		.loc 1 298 22 is_stmt 0 view .LVU196
 639 0014 0361     		str	r3, [r0, #16]
 299:../../CM4/Core/Src/main.c ****   huart4.Init.HwFlowCtl = UART_HWCONTROL_NONE;
 640              		.loc 1 299 3 is_stmt 1 view .LVU197
 299:../../CM4/Core/Src/main.c ****   huart4.Init.HwFlowCtl = UART_HWCONTROL_NONE;
 641              		.loc 1 299 20 is_stmt 0 view .LVU198
 642 0016 0C22     		movs	r2, #12
 643 0018 4261     		str	r2, [r0, #20]
 300:../../CM4/Core/Src/main.c ****   huart4.Init.OverSampling = UART_OVERSAMPLING_16;
 644              		.loc 1 300 3 is_stmt 1 view .LVU199
 300:../../CM4/Core/Src/main.c ****   huart4.Init.OverSampling = UART_OVERSAMPLING_16;
 645              		.loc 1 300 25 is_stmt 0 view .LVU200
 646 001a 8361     		str	r3, [r0, #24]
 301:../../CM4/Core/Src/main.c ****   huart4.Init.OneBitSampling = UART_ONE_BIT_SAMPLE_DISABLE;
 647              		.loc 1 301 3 is_stmt 1 view .LVU201
 301:../../CM4/Core/Src/main.c ****   huart4.Init.OneBitSampling = UART_ONE_BIT_SAMPLE_DISABLE;
ARM GAS  C:\Users\minis\AppData\Local\Temp\cc4dDDks.s 			page 26


 648              		.loc 1 301 28 is_stmt 0 view .LVU202
 649 001c C361     		str	r3, [r0, #28]
 302:../../CM4/Core/Src/main.c ****   huart4.Init.ClockPrescaler = UART_PRESCALER_DIV1;
 650              		.loc 1 302 3 is_stmt 1 view .LVU203
 302:../../CM4/Core/Src/main.c ****   huart4.Init.ClockPrescaler = UART_PRESCALER_DIV1;
 651              		.loc 1 302 30 is_stmt 0 view .LVU204
 652 001e 0362     		str	r3, [r0, #32]
 303:../../CM4/Core/Src/main.c ****   huart4.AdvancedInit.AdvFeatureInit = UART_ADVFEATURE_NO_INIT;
 653              		.loc 1 303 3 is_stmt 1 view .LVU205
 303:../../CM4/Core/Src/main.c ****   huart4.AdvancedInit.AdvFeatureInit = UART_ADVFEATURE_NO_INIT;
 654              		.loc 1 303 30 is_stmt 0 view .LVU206
 655 0020 4362     		str	r3, [r0, #36]
 304:../../CM4/Core/Src/main.c ****   if (HAL_UART_Init(&huart4) != HAL_OK) {
 656              		.loc 1 304 3 is_stmt 1 view .LVU207
 304:../../CM4/Core/Src/main.c ****   if (HAL_UART_Init(&huart4) != HAL_OK) {
 657              		.loc 1 304 38 is_stmt 0 view .LVU208
 658 0022 8362     		str	r3, [r0, #40]
 305:../../CM4/Core/Src/main.c ****     Error_Handler();
 659              		.loc 1 305 3 is_stmt 1 view .LVU209
 305:../../CM4/Core/Src/main.c ****     Error_Handler();
 660              		.loc 1 305 7 is_stmt 0 view .LVU210
 661 0024 FFF7FEFF 		bl	HAL_UART_Init
 662              	.LVL19:
 305:../../CM4/Core/Src/main.c ****     Error_Handler();
 663              		.loc 1 305 6 discriminator 1 view .LVU211
 664 0028 70B9     		cbnz	r0, .L39
 308:../../CM4/Core/Src/main.c ****       HAL_OK) {
 665              		.loc 1 308 3 is_stmt 1 view .LVU212
 308:../../CM4/Core/Src/main.c ****       HAL_OK) {
 666              		.loc 1 308 7 is_stmt 0 view .LVU213
 667 002a 0021     		movs	r1, #0
 668 002c 0A48     		ldr	r0, .L43
 669 002e FFF7FEFF 		bl	HAL_UARTEx_SetTxFifoThreshold
 670              	.LVL20:
 308:../../CM4/Core/Src/main.c ****       HAL_OK) {
 671              		.loc 1 308 6 discriminator 1 view .LVU214
 672 0032 58B9     		cbnz	r0, .L40
 312:../../CM4/Core/Src/main.c ****       HAL_OK) {
 673              		.loc 1 312 3 is_stmt 1 view .LVU215
 312:../../CM4/Core/Src/main.c ****       HAL_OK) {
 674              		.loc 1 312 7 is_stmt 0 view .LVU216
 675 0034 0021     		movs	r1, #0
 676 0036 0848     		ldr	r0, .L43
 677 0038 FFF7FEFF 		bl	HAL_UARTEx_SetRxFifoThreshold
 678              	.LVL21:
 312:../../CM4/Core/Src/main.c ****       HAL_OK) {
 679              		.loc 1 312 6 discriminator 1 view .LVU217
 680 003c 40B9     		cbnz	r0, .L41
 316:../../CM4/Core/Src/main.c ****     Error_Handler();
 681              		.loc 1 316 3 is_stmt 1 view .LVU218
 316:../../CM4/Core/Src/main.c ****     Error_Handler();
 682              		.loc 1 316 7 is_stmt 0 view .LVU219
 683 003e 0648     		ldr	r0, .L43
 684 0040 FFF7FEFF 		bl	HAL_UARTEx_DisableFifoMode
 685              	.LVL22:
 316:../../CM4/Core/Src/main.c ****     Error_Handler();
 686              		.loc 1 316 6 discriminator 1 view .LVU220
ARM GAS  C:\Users\minis\AppData\Local\Temp\cc4dDDks.s 			page 27


 687 0044 30B9     		cbnz	r0, .L42
 322:../../CM4/Core/Src/main.c **** 
 688              		.loc 1 322 1 view .LVU221
 689 0046 08BD     		pop	{r3, pc}
 690              	.L39:
 306:../../CM4/Core/Src/main.c ****   }
 691              		.loc 1 306 5 is_stmt 1 view .LVU222
 692 0048 FFF7FEFF 		bl	Error_Handler
 693              	.LVL23:
 694              	.L40:
 310:../../CM4/Core/Src/main.c ****   }
 695              		.loc 1 310 5 view .LVU223
 696 004c FFF7FEFF 		bl	Error_Handler
 697              	.LVL24:
 698              	.L41:
 314:../../CM4/Core/Src/main.c ****   }
 699              		.loc 1 314 5 view .LVU224
 700 0050 FFF7FEFF 		bl	Error_Handler
 701              	.LVL25:
 702              	.L42:
 317:../../CM4/Core/Src/main.c ****   }
 703              		.loc 1 317 5 view .LVU225
 704 0054 FFF7FEFF 		bl	Error_Handler
 705              	.LVL26:
 706              	.L44:
 707              		.align	2
 708              	.L43:
 709 0058 00000000 		.word	huart4
 710 005c 004C0040 		.word	1073761280
 711              		.cfi_endproc
 712              	.LFE136:
 714              		.section	.rodata.main.str1.4,"aMS",%progbits,1
 715              		.align	2
 716              	.LC0:
 717 0000 4D697375 		.ascii	"Misura rilevata: %lu cm\015\012\000"
 717      72612072 
 717      696C6576 
 717      6174613A 
 717      20256C75 
 718              		.section	.text.main,"ax",%progbits
 719              		.align	1
 720              		.global	main
 721              		.syntax unified
 722              		.thumb
 723              		.thumb_func
 725              	main:
 726              	.LFB135:
  50:../../CM4/Core/Src/main.c ****   /* ------------------------------------------------------------------ */
 727              		.loc 1 50 16 view -0
 728              		.cfi_startproc
 729              		@ args = 0, pretend = 0, frame = 16
 730              		@ frame_needed = 0, uses_anonymous_args = 0
 731 0000 F0B5     		push	{r4, r5, r6, r7, lr}
 732              	.LCFI13:
 733              		.cfi_def_cfa_offset 20
 734              		.cfi_offset 4, -20
 735              		.cfi_offset 5, -16
ARM GAS  C:\Users\minis\AppData\Local\Temp\cc4dDDks.s 			page 28


 736              		.cfi_offset 6, -12
 737              		.cfi_offset 7, -8
 738              		.cfi_offset 14, -4
 739 0002 85B0     		sub	sp, sp, #20
 740              	.LCFI14:
 741              		.cfi_def_cfa_offset 40
  54:../../CM4/Core/Src/main.c ****   BUSY(10000);
 742              		.loc 1 54 3 view .LVU227
  54:../../CM4/Core/Src/main.c ****   BUSY(10000);
 743              		.loc 1 54 6 is_stmt 0 view .LVU228
 744 0004 B84A     		ldr	r2, .L99
 745 0006 D2F8E030 		ldr	r3, [r2, #224]
  54:../../CM4/Core/Src/main.c ****   BUSY(10000);
 746              		.loc 1 54 16 view .LVU229
 747 000a 43F00203 		orr	r3, r3, #2
 748 000e C2F8E030 		str	r3, [r2, #224]
  55:../../CM4/Core/Src/main.c ****   GPIOB->MODER &= ~(3U << 0);
 749              		.loc 1 55 3 is_stmt 1 view .LVU230
  55:../../CM4/Core/Src/main.c ****   GPIOB->MODER &= ~(3U << 0);
 750              		.loc 1 55 3 view .LVU231
 751              	.LBB33:
  55:../../CM4/Core/Src/main.c ****   GPIOB->MODER &= ~(3U << 0);
 752              		.loc 1 55 3 view .LVU232
 753 0012 0023     		movs	r3, #0
 754 0014 0093     		str	r3, [sp]
 755 0016 02E0     		b	.L46
 756              	.L47:
  55:../../CM4/Core/Src/main.c ****   GPIOB->MODER &= ~(3U << 0);
 757              		.loc 1 55 3 discriminator 3 view .LVU233
 758 0018 009B     		ldr	r3, [sp]
 759 001a 0133     		adds	r3, r3, #1
 760 001c 0093     		str	r3, [sp]
 761              	.L46:
  55:../../CM4/Core/Src/main.c ****   GPIOB->MODER &= ~(3U << 0);
 762              		.loc 1 55 3 discriminator 1 view .LVU234
 763 001e 009A     		ldr	r2, [sp]
 764 0020 42F20F73 		movw	r3, #9999
 765 0024 9A42     		cmp	r2, r3
 766 0026 F7DD     		ble	.L47
 767              	.LBE33:
  55:../../CM4/Core/Src/main.c ****   GPIOB->MODER &= ~(3U << 0);
 768              		.loc 1 55 3 view .LVU235
  56:../../CM4/Core/Src/main.c ****   GPIOB->MODER |= (1U << 0); /* PB0  out */
 769              		.loc 1 56 3 view .LVU236
  56:../../CM4/Core/Src/main.c ****   GPIOB->MODER |= (1U << 0); /* PB0  out */
 770              		.loc 1 56 8 is_stmt 0 view .LVU237
 771 0028 B04B     		ldr	r3, .L99+4
 772 002a 1A68     		ldr	r2, [r3]
  56:../../CM4/Core/Src/main.c ****   GPIOB->MODER |= (1U << 0); /* PB0  out */
 773              		.loc 1 56 16 view .LVU238
 774 002c 22F00302 		bic	r2, r2, #3
 775 0030 1A60     		str	r2, [r3]
  57:../../CM4/Core/Src/main.c ****   GPIOB->MODER &= ~(3U << 28);
 776              		.loc 1 57 3 is_stmt 1 view .LVU239
  57:../../CM4/Core/Src/main.c ****   GPIOB->MODER &= ~(3U << 28);
 777              		.loc 1 57 8 is_stmt 0 view .LVU240
 778 0032 1A68     		ldr	r2, [r3]
ARM GAS  C:\Users\minis\AppData\Local\Temp\cc4dDDks.s 			page 29


  57:../../CM4/Core/Src/main.c ****   GPIOB->MODER &= ~(3U << 28);
 779              		.loc 1 57 16 view .LVU241
 780 0034 42F00102 		orr	r2, r2, #1
 781 0038 1A60     		str	r2, [r3]
  58:../../CM4/Core/Src/main.c ****   GPIOB->MODER |= (1U << 28); /* PB14 out */
 782              		.loc 1 58 3 is_stmt 1 view .LVU242
  58:../../CM4/Core/Src/main.c ****   GPIOB->MODER |= (1U << 28); /* PB14 out */
 783              		.loc 1 58 8 is_stmt 0 view .LVU243
 784 003a 1A68     		ldr	r2, [r3]
  58:../../CM4/Core/Src/main.c ****   GPIOB->MODER |= (1U << 28); /* PB14 out */
 785              		.loc 1 58 16 view .LVU244
 786 003c 22F04052 		bic	r2, r2, #805306368
 787 0040 1A60     		str	r2, [r3]
  59:../../CM4/Core/Src/main.c **** 
 788              		.loc 1 59 3 is_stmt 1 view .LVU245
  59:../../CM4/Core/Src/main.c **** 
 789              		.loc 1 59 8 is_stmt 0 view .LVU246
 790 0042 1A68     		ldr	r2, [r3]
  59:../../CM4/Core/Src/main.c **** 
 791              		.loc 1 59 16 view .LVU247
 792 0044 42F08052 		orr	r2, r2, #268435456
 793 0048 1A60     		str	r2, [r3]
  62:../../CM4/Core/Src/main.c ****     LED_GREEN_ON();
 794              		.loc 1 62 3 is_stmt 1 view .LVU248
 795              	.LBB34:
  62:../../CM4/Core/Src/main.c ****     LED_GREEN_ON();
 796              		.loc 1 62 8 view .LVU249
 797              	.LVL27:
  62:../../CM4/Core/Src/main.c ****     LED_GREEN_ON();
 798              		.loc 1 62 12 is_stmt 0 view .LVU250
 799 004a 0021     		movs	r1, #0
  62:../../CM4/Core/Src/main.c ****     LED_GREEN_ON();
 800              		.loc 1 62 3 view .LVU251
 801 004c 18E0     		b	.L48
 802              	.LVL28:
 803              	.L50:
 804              	.LBB35:
  65:../../CM4/Core/Src/main.c ****     LED_ALL_OFF();
 805              		.loc 1 65 5 is_stmt 1 discriminator 3 view .LVU252
 806 004e 019B     		ldr	r3, [sp, #4]
 807 0050 0133     		adds	r3, r3, #1
 808 0052 0193     		str	r3, [sp, #4]
 809              	.L49:
  65:../../CM4/Core/Src/main.c ****     LED_ALL_OFF();
 810              		.loc 1 65 5 discriminator 1 view .LVU253
 811 0054 019A     		ldr	r2, [sp, #4]
 812 0056 A64B     		ldr	r3, .L99+8
 813 0058 9A42     		cmp	r2, r3
 814 005a F8DD     		ble	.L50
 815              	.LBE35:
  65:../../CM4/Core/Src/main.c ****     LED_ALL_OFF();
 816              		.loc 1 65 5 view .LVU254
  66:../../CM4/Core/Src/main.c ****     BUSY(3000000);
 817              		.loc 1 66 5 view .LVU255
  66:../../CM4/Core/Src/main.c ****     BUSY(3000000);
 818              		.loc 1 66 5 view .LVU256
 819 005c A34B     		ldr	r3, .L99+4
ARM GAS  C:\Users\minis\AppData\Local\Temp\cc4dDDks.s 			page 30


 820 005e 4FF48032 		mov	r2, #65536
 821 0062 9A61     		str	r2, [r3, #24]
  66:../../CM4/Core/Src/main.c ****     BUSY(3000000);
 822              		.loc 1 66 5 view .LVU257
 823 0064 4FF08042 		mov	r2, #1073741824
 824 0068 9A61     		str	r2, [r3, #24]
  66:../../CM4/Core/Src/main.c ****     BUSY(3000000);
 825              		.loc 1 66 5 view .LVU258
  67:../../CM4/Core/Src/main.c ****   }
 826              		.loc 1 67 5 view .LVU259
  67:../../CM4/Core/Src/main.c ****   }
 827              		.loc 1 67 5 view .LVU260
 828              	.LBB36:
  67:../../CM4/Core/Src/main.c ****   }
 829              		.loc 1 67 5 view .LVU261
 830 006a 0023     		movs	r3, #0
 831 006c 0293     		str	r3, [sp, #8]
 832 006e 02E0     		b	.L51
 833              	.L52:
  67:../../CM4/Core/Src/main.c ****   }
 834              		.loc 1 67 5 discriminator 3 view .LVU262
 835 0070 029B     		ldr	r3, [sp, #8]
 836 0072 0133     		adds	r3, r3, #1
 837 0074 0293     		str	r3, [sp, #8]
 838              	.L51:
  67:../../CM4/Core/Src/main.c ****   }
 839              		.loc 1 67 5 discriminator 1 view .LVU263
 840 0076 029A     		ldr	r2, [sp, #8]
 841 0078 9D4B     		ldr	r3, .L99+8
 842 007a 9A42     		cmp	r2, r3
 843 007c F8DD     		ble	.L52
 844              	.LBE36:
  67:../../CM4/Core/Src/main.c ****   }
 845              		.loc 1 67 5 view .LVU264
  62:../../CM4/Core/Src/main.c ****     LED_GREEN_ON();
 846              		.loc 1 62 27 discriminator 2 view .LVU265
 847 007e 0131     		adds	r1, r1, #1
 848              	.LVL29:
 849              	.L48:
  62:../../CM4/Core/Src/main.c ****     LED_GREEN_ON();
 850              		.loc 1 62 21 discriminator 1 view .LVU266
 851 0080 0129     		cmp	r1, #1
 852 0082 08DC     		bgt	.L93
  63:../../CM4/Core/Src/main.c ****     LED_RED_ON();
 853              		.loc 1 63 5 view .LVU267
 854 0084 994B     		ldr	r3, .L99+4
 855 0086 0122     		movs	r2, #1
 856 0088 9A61     		str	r2, [r3, #24]
  64:../../CM4/Core/Src/main.c ****     BUSY(3000000);
 857              		.loc 1 64 5 view .LVU268
 858 008a 4FF48042 		mov	r2, #16384
 859 008e 9A61     		str	r2, [r3, #24]
  65:../../CM4/Core/Src/main.c ****     LED_ALL_OFF();
 860              		.loc 1 65 5 view .LVU269
  65:../../CM4/Core/Src/main.c ****     LED_ALL_OFF();
 861              		.loc 1 65 5 view .LVU270
 862              	.LBB37:
ARM GAS  C:\Users\minis\AppData\Local\Temp\cc4dDDks.s 			page 31


  65:../../CM4/Core/Src/main.c ****     LED_ALL_OFF();
 863              		.loc 1 65 5 view .LVU271
 864 0090 0023     		movs	r3, #0
 865 0092 0193     		str	r3, [sp, #4]
 866 0094 DEE7     		b	.L49
 867              	.L93:
 868              	.LBE37:
 869              	.LBE34:
  70:../../CM4/Core/Src/main.c ****   SystemClock_Config();
 870              		.loc 1 70 3 view .LVU272
 871 0096 FFF7FEFF 		bl	HAL_Init
 872              	.LVL30:
  71:../../CM4/Core/Src/main.c ****   SCB->VTOR = 0x08100000;
 873              		.loc 1 71 3 view .LVU273
 874 009a FFF7FEFF 		bl	SystemClock_Config
 875              	.LVL31:
  72:../../CM4/Core/Src/main.c ****   MX_GPIO_Init();
 876              		.loc 1 72 3 view .LVU274
  72:../../CM4/Core/Src/main.c ****   MX_GPIO_Init();
 877              		.loc 1 72 13 is_stmt 0 view .LVU275
 878 009e 954B     		ldr	r3, .L99+12
 879 00a0 4FF00162 		mov	r2, #135266304
 880 00a4 9A60     		str	r2, [r3, #8]
  73:../../CM4/Core/Src/main.c ****   MX_TIM2_Init();
 881              		.loc 1 73 3 is_stmt 1 view .LVU276
 882 00a6 FFF7FEFF 		bl	MX_GPIO_Init
 883              	.LVL32:
  74:../../CM4/Core/Src/main.c ****   MX_UART4_Init();
 884              		.loc 1 74 3 view .LVU277
 885 00aa FFF7FEFF 		bl	MX_TIM2_Init
 886              	.LVL33:
  75:../../CM4/Core/Src/main.c ****   /* Abilitazione del clock per gli Hardware Semaphores */
 887              		.loc 1 75 3 view .LVU278
 888 00ae FFF7FEFF 		bl	MX_UART4_Init
 889              	.LVL34:
  77:../../CM4/Core/Src/main.c **** 
 890              		.loc 1 77 3 view .LVU279
 891              	.LBB38:
  77:../../CM4/Core/Src/main.c **** 
 892              		.loc 1 77 3 view .LVU280
  77:../../CM4/Core/Src/main.c **** 
 893              		.loc 1 77 3 view .LVU281
 894 00b2 8D4C     		ldr	r4, .L99
 895 00b4 D4F8E030 		ldr	r3, [r4, #224]
 896 00b8 43F00073 		orr	r3, r3, #33554432
 897 00bc C4F8E030 		str	r3, [r4, #224]
  77:../../CM4/Core/Src/main.c **** 
 898              		.loc 1 77 3 view .LVU282
 899 00c0 D4F8E030 		ldr	r3, [r4, #224]
 900 00c4 03F00073 		and	r3, r3, #33554432
 901 00c8 0393     		str	r3, [sp, #12]
  77:../../CM4/Core/Src/main.c **** 
 902              		.loc 1 77 3 view .LVU283
 903 00ca 039B     		ldr	r3, [sp, #12]
 904              	.LBE38:
  77:../../CM4/Core/Src/main.c **** 
 905              		.loc 1 77 3 view .LVU284
ARM GAS  C:\Users\minis\AppData\Local\Temp\cc4dDDks.s 			page 32


  80:../../CM4/Core/Src/main.c ****   uint32_t apb1pre =
 906              		.loc 1 80 3 view .LVU285
  80:../../CM4/Core/Src/main.c ****   uint32_t apb1pre =
 907              		.loc 1 80 20 is_stmt 0 view .LVU286
 908 00cc FFF7FEFF 		bl	HAL_RCC_GetPCLK1Freq
 909              	.LVL35:
  81:../../CM4/Core/Src/main.c ****       (RCC->D2CFGR & RCC_D2CFGR_D2PPRE1_Msk) >> RCC_D2CFGR_D2PPRE1_Pos;
 910              		.loc 1 81 3 is_stmt 1 view .LVU287
  82:../../CM4/Core/Src/main.c ****   uint32_t tim2clk = (apb1pre >= 0x04U) ? (pclk1 * 2U) : pclk1;
 911              		.loc 1 82 11 is_stmt 0 view .LVU288
 912 00d0 E369     		ldr	r3, [r4, #28]
 913              	.LVL36:
  83:../../CM4/Core/Src/main.c ****   uint32_t psc = (tim2clk / TIMER_TARGET_HZ);
 914              		.loc 1 83 3 is_stmt 1 view .LVU289
  83:../../CM4/Core/Src/main.c ****   uint32_t psc = (tim2clk / TIMER_TARGET_HZ);
 915              		.loc 1 83 56 is_stmt 0 view .LVU290
 916 00d2 13F0400F 		tst	r3, #64
 917 00d6 00D0     		beq	.L54
  83:../../CM4/Core/Src/main.c ****   uint32_t psc = (tim2clk / TIMER_TARGET_HZ);
 918              		.loc 1 83 56 discriminator 1 view .LVU291
 919 00d8 4000     		lsls	r0, r0, #1
 920              	.LVL37:
 921              	.L54:
  84:../../CM4/Core/Src/main.c ****   if (psc > 0U) {
 922              		.loc 1 84 3 is_stmt 1 view .LVU292
  84:../../CM4/Core/Src/main.c ****   if (psc > 0U) {
 923              		.loc 1 84 12 is_stmt 0 view .LVU293
 924 00da 874B     		ldr	r3, .L99+16
 925              	.LVL38:
  84:../../CM4/Core/Src/main.c ****   if (psc > 0U) {
 926              		.loc 1 84 12 view .LVU294
 927 00dc A3FB0023 		umull	r2, r3, r3, r0
 928 00e0 9B0C     		lsrs	r3, r3, #18
 929              	.LVL39:
  85:../../CM4/Core/Src/main.c ****     psc -= 1U;
 930              		.loc 1 85 3 is_stmt 1 view .LVU295
  85:../../CM4/Core/Src/main.c ****     psc -= 1U;
 931              		.loc 1 85 6 is_stmt 0 view .LVU296
 932 00e2 864A     		ldr	r2, .L99+20
 933 00e4 9042     		cmp	r0, r2
 934 00e6 00D9     		bls	.L55
  86:../../CM4/Core/Src/main.c ****   }
 935              		.loc 1 86 5 is_stmt 1 view .LVU297
  86:../../CM4/Core/Src/main.c ****   }
 936              		.loc 1 86 9 is_stmt 0 view .LVU298
 937 00e8 013B     		subs	r3, r3, #1
 938              	.LVL40:
 939              	.L55:
  88:../../CM4/Core/Src/main.c ****   __HAL_TIM_SET_COUNTER(&htim2, 0);
 940              		.loc 1 88 3 is_stmt 1 view .LVU299
 941 00ea 854D     		ldr	r5, .L99+24
 942 00ec 2A68     		ldr	r2, [r5]
 943 00ee 9362     		str	r3, [r2, #40]
  89:../../CM4/Core/Src/main.c ****   HAL_TIM_GenerateEvent(&htim2, TIM_EVENTSOURCE_UPDATE);
 944              		.loc 1 89 3 view .LVU300
 945 00f0 0024     		movs	r4, #0
 946 00f2 5462     		str	r4, [r2, #36]
ARM GAS  C:\Users\minis\AppData\Local\Temp\cc4dDDks.s 			page 33


  90:../../CM4/Core/Src/main.c ****   HAL_TIM_Base_Start(&htim2);
 947              		.loc 1 90 3 view .LVU301
 948 00f4 0121     		movs	r1, #1
 949 00f6 2846     		mov	r0, r5
 950              	.LVL41:
  90:../../CM4/Core/Src/main.c ****   HAL_TIM_Base_Start(&htim2);
 951              		.loc 1 90 3 is_stmt 0 view .LVU302
 952 00f8 FFF7FEFF 		bl	HAL_TIM_GenerateEvent
 953              	.LVL42:
  91:../../CM4/Core/Src/main.c **** 
 954              		.loc 1 91 3 is_stmt 1 view .LVU303
 955 00fc 2846     		mov	r0, r5
 956 00fe FFF7FEFF 		bl	HAL_TIM_Base_Start
 957              	.LVL43:
  94:../../CM4/Core/Src/main.c ****     LED_GREEN_ON();
 958              		.loc 1 94 3 view .LVU304
 959              	.LBB39:
  94:../../CM4/Core/Src/main.c ****     LED_GREEN_ON();
 960              		.loc 1 94 8 view .LVU305
  94:../../CM4/Core/Src/main.c ****     LED_GREEN_ON();
 961              		.loc 1 94 3 is_stmt 0 view .LVU306
 962 0102 0CE0     		b	.L56
 963              	.LVL44:
 964              	.L57:
  95:../../CM4/Core/Src/main.c ****     HAL_Delay(200U);
 965              		.loc 1 95 5 is_stmt 1 view .LVU307
 966 0104 794D     		ldr	r5, .L99+4
 967 0106 0123     		movs	r3, #1
 968 0108 AB61     		str	r3, [r5, #24]
  96:../../CM4/Core/Src/main.c ****     LED_GREEN_OFF();
 969              		.loc 1 96 5 view .LVU308
 970 010a C820     		movs	r0, #200
 971 010c FFF7FEFF 		bl	HAL_Delay
 972              	.LVL45:
  97:../../CM4/Core/Src/main.c ****     HAL_Delay(200U);
 973              		.loc 1 97 5 view .LVU309
 974 0110 4FF48033 		mov	r3, #65536
 975 0114 AB61     		str	r3, [r5, #24]
  98:../../CM4/Core/Src/main.c ****   }
 976              		.loc 1 98 5 view .LVU310
 977 0116 C820     		movs	r0, #200
 978 0118 FFF7FEFF 		bl	HAL_Delay
 979              	.LVL46:
  94:../../CM4/Core/Src/main.c ****     LED_GREEN_ON();
 980              		.loc 1 94 27 discriminator 3 view .LVU311
 981 011c 0134     		adds	r4, r4, #1
 982              	.LVL47:
 983              	.L56:
  94:../../CM4/Core/Src/main.c ****     LED_GREEN_ON();
 984              		.loc 1 94 21 discriminator 1 view .LVU312
 985 011e 012C     		cmp	r4, #1
 986 0120 F0DD     		ble	.L57
 987              	.LBE39:
 100:../../CM4/Core/Src/main.c **** 
 988              		.loc 1 100 3 view .LVU313
 989 0122 4FF4FA70 		mov	r0, #500
 990 0126 FFF7FEFF 		bl	HAL_Delay
ARM GAS  C:\Users\minis\AppData\Local\Temp\cc4dDDks.s 			page 34


 991              	.LVL48:
 109:../../CM4/Core/Src/main.c ****   HAL_Delay(1000U);
 992              		.loc 1 109 3 view .LVU314
 993 012a 704C     		ldr	r4, .L99+4
 994              	.LVL49:
 109:../../CM4/Core/Src/main.c ****   HAL_Delay(1000U);
 995              		.loc 1 109 3 is_stmt 0 view .LVU315
 996 012c 4FF48043 		mov	r3, #16384
 997 0130 A361     		str	r3, [r4, #24]
 110:../../CM4/Core/Src/main.c ****   LED_RED_OFF();
 998              		.loc 1 110 3 is_stmt 1 view .LVU316
 999 0132 4FF47A70 		mov	r0, #1000
 1000 0136 FFF7FEFF 		bl	HAL_Delay
 1001              	.LVL50:
 111:../../CM4/Core/Src/main.c ****   HAL_Delay(500U);
 1002              		.loc 1 111 3 view .LVU317
 1003 013a 4FF08043 		mov	r3, #1073741824
 1004 013e A361     		str	r3, [r4, #24]
 112:../../CM4/Core/Src/main.c **** 
 1005              		.loc 1 112 3 view .LVU318
 1006 0140 4FF4FA70 		mov	r0, #500
 1007 0144 FFF7FEFF 		bl	HAL_Delay
 1008              	.LVL51:
 114:../../CM4/Core/Src/main.c ****   while (HAL_GetTick() - phase1_start < 5000U) {
 1009              		.loc 1 114 3 view .LVU319
 114:../../CM4/Core/Src/main.c ****   while (HAL_GetTick() - phase1_start < 5000U) {
 1010              		.loc 1 114 27 is_stmt 0 view .LVU320
 1011 0148 FFF7FEFF 		bl	HAL_GetTick
 1012              	.LVL52:
 1013 014c 0646     		mov	r6, r0
 1014              	.LVL53:
 115:../../CM4/Core/Src/main.c ****     HAL_GPIO_WritePin(GPIOD, GPIO_PIN_1, GPIO_PIN_SET);
 1015              		.loc 1 115 3 is_stmt 1 view .LVU321
 115:../../CM4/Core/Src/main.c ****     HAL_GPIO_WritePin(GPIOD, GPIO_PIN_1, GPIO_PIN_SET);
 1016              		.loc 1 115 9 is_stmt 0 view .LVU322
 1017 014e 18E0     		b	.L58
 1018              	.LVL54:
 1019              	.L59:
 116:../../CM4/Core/Src/main.c ****     LED_GREEN_ON();
 1020              		.loc 1 116 5 is_stmt 1 view .LVU323
 1021 0150 6C4D     		ldr	r5, .L99+28
 1022 0152 0122     		movs	r2, #1
 1023 0154 0221     		movs	r1, #2
 1024 0156 2846     		mov	r0, r5
 1025 0158 FFF7FEFF 		bl	HAL_GPIO_WritePin
 1026              	.LVL55:
 117:../../CM4/Core/Src/main.c ****     HAL_Delay(500U);
 1027              		.loc 1 117 5 view .LVU324
 1028 015c 634C     		ldr	r4, .L99+4
 1029 015e 0123     		movs	r3, #1
 1030 0160 A361     		str	r3, [r4, #24]
 118:../../CM4/Core/Src/main.c ****     HAL_GPIO_WritePin(GPIOD, GPIO_PIN_1, GPIO_PIN_RESET);
 1031              		.loc 1 118 5 view .LVU325
 1032 0162 4FF4FA70 		mov	r0, #500
 1033 0166 FFF7FEFF 		bl	HAL_Delay
 1034              	.LVL56:
 119:../../CM4/Core/Src/main.c ****     LED_GREEN_OFF();
ARM GAS  C:\Users\minis\AppData\Local\Temp\cc4dDDks.s 			page 35


 1035              		.loc 1 119 5 view .LVU326
 1036 016a 0022     		movs	r2, #0
 1037 016c 0221     		movs	r1, #2
 1038 016e 2846     		mov	r0, r5
 1039 0170 FFF7FEFF 		bl	HAL_GPIO_WritePin
 1040              	.LVL57:
 120:../../CM4/Core/Src/main.c ****     HAL_Delay(500U);
 1041              		.loc 1 120 5 view .LVU327
 1042 0174 4FF48033 		mov	r3, #65536
 1043 0178 A361     		str	r3, [r4, #24]
 121:../../CM4/Core/Src/main.c ****   }
 1044              		.loc 1 121 5 view .LVU328
 1045 017a 4FF4FA70 		mov	r0, #500
 1046 017e FFF7FEFF 		bl	HAL_Delay
 1047              	.LVL58:
 1048              	.L58:
 115:../../CM4/Core/Src/main.c ****     HAL_GPIO_WritePin(GPIOD, GPIO_PIN_1, GPIO_PIN_SET);
 1049              		.loc 1 115 39 view .LVU329
 115:../../CM4/Core/Src/main.c ****     HAL_GPIO_WritePin(GPIOD, GPIO_PIN_1, GPIO_PIN_SET);
 1050              		.loc 1 115 10 is_stmt 0 view .LVU330
 1051 0182 FFF7FEFF 		bl	HAL_GetTick
 1052              	.LVL59:
 115:../../CM4/Core/Src/main.c ****     HAL_GPIO_WritePin(GPIOD, GPIO_PIN_1, GPIO_PIN_SET);
 1053              		.loc 1 115 24 discriminator 1 view .LVU331
 1054 0186 801B     		subs	r0, r0, r6
 115:../../CM4/Core/Src/main.c ****     HAL_GPIO_WritePin(GPIOD, GPIO_PIN_1, GPIO_PIN_SET);
 1055              		.loc 1 115 39 discriminator 1 view .LVU332
 1056 0188 41F28733 		movw	r3, #4999
 1057 018c 9842     		cmp	r0, r3
 1058 018e DFD9     		bls	.L59
 123:../../CM4/Core/Src/main.c **** 
 1059              		.loc 1 123 3 is_stmt 1 view .LVU333
 1060 0190 4FF47A70 		mov	r0, #1000
 1061 0194 FFF7FEFF 		bl	HAL_Delay
 1062              	.LVL60:
 132:../../CM4/Core/Src/main.c ****     LED_RED_ON();
 1063              		.loc 1 132 3 view .LVU334
 1064              	.LBB40:
 132:../../CM4/Core/Src/main.c ****     LED_RED_ON();
 1065              		.loc 1 132 8 view .LVU335
 132:../../CM4/Core/Src/main.c ****     LED_RED_ON();
 1066              		.loc 1 132 12 is_stmt 0 view .LVU336
 1067 0198 0024     		movs	r4, #0
 132:../../CM4/Core/Src/main.c ****     LED_RED_ON();
 1068              		.loc 1 132 3 view .LVU337
 1069 019a 0FE0     		b	.L60
 1070              	.LVL61:
 1071              	.L61:
 133:../../CM4/Core/Src/main.c ****     HAL_Delay(500U);
 1072              		.loc 1 133 5 is_stmt 1 view .LVU338
 1073 019c 534D     		ldr	r5, .L99+4
 1074 019e 4FF48043 		mov	r3, #16384
 1075 01a2 AB61     		str	r3, [r5, #24]
 134:../../CM4/Core/Src/main.c ****     LED_RED_OFF();
 1076              		.loc 1 134 5 view .LVU339
 1077 01a4 4FF4FA70 		mov	r0, #500
 1078 01a8 FFF7FEFF 		bl	HAL_Delay
ARM GAS  C:\Users\minis\AppData\Local\Temp\cc4dDDks.s 			page 36


 1079              	.LVL62:
 135:../../CM4/Core/Src/main.c ****     HAL_Delay(500U);
 1080              		.loc 1 135 5 view .LVU340
 1081 01ac 4FF08043 		mov	r3, #1073741824
 1082 01b0 AB61     		str	r3, [r5, #24]
 136:../../CM4/Core/Src/main.c ****   }
 1083              		.loc 1 136 5 view .LVU341
 1084 01b2 4FF4FA70 		mov	r0, #500
 1085 01b6 FFF7FEFF 		bl	HAL_Delay
 1086              	.LVL63:
 132:../../CM4/Core/Src/main.c ****     LED_RED_ON();
 1087              		.loc 1 132 27 discriminator 3 view .LVU342
 1088 01ba 0134     		adds	r4, r4, #1
 1089              	.LVL64:
 1090              	.L60:
 132:../../CM4/Core/Src/main.c ****     LED_RED_ON();
 1091              		.loc 1 132 21 discriminator 1 view .LVU343
 1092 01bc 012C     		cmp	r4, #1
 1093 01be EDDD     		ble	.L61
 1094              	.LBE40:
 138:../../CM4/Core/Src/main.c **** 
 1095              		.loc 1 138 3 view .LVU344
 1096 01c0 4FF4FA70 		mov	r0, #500
 1097 01c4 FFF7FEFF 		bl	HAL_Delay
 1098              	.LVL65:
 140:../../CM4/Core/Src/main.c ****   while (HAL_GetTick() - phase2_start < 5000U) {
 1099              		.loc 1 140 3 view .LVU345
 140:../../CM4/Core/Src/main.c ****   while (HAL_GetTick() - phase2_start < 5000U) {
 1100              		.loc 1 140 27 is_stmt 0 view .LVU346
 1101 01c8 FFF7FEFF 		bl	HAL_GetTick
 1102              	.LVL66:
 1103 01cc 0446     		mov	r4, r0
 1104              	.LVL67:
 141:../../CM4/Core/Src/main.c ****     if (HAL_GPIO_ReadPin(GPIOD, GPIO_PIN_0) == GPIO_PIN_SET) {
 1105              		.loc 1 141 3 is_stmt 1 view .LVU347
 141:../../CM4/Core/Src/main.c ****     if (HAL_GPIO_ReadPin(GPIOD, GPIO_PIN_0) == GPIO_PIN_SET) {
 1106              		.loc 1 141 9 is_stmt 0 view .LVU348
 1107 01ce 08E0     		b	.L62
 1108              	.LVL68:
 1109              	.L95:
 143:../../CM4/Core/Src/main.c ****       LED_RED_OFF();
 1110              		.loc 1 143 7 is_stmt 1 view .LVU349
 1111 01d0 464B     		ldr	r3, .L99+4
 1112 01d2 0122     		movs	r2, #1
 1113 01d4 9A61     		str	r2, [r3, #24]
 144:../../CM4/Core/Src/main.c ****     } else {
 1114              		.loc 1 144 7 view .LVU350
 1115 01d6 4FF08042 		mov	r2, #1073741824
 1116 01da 9A61     		str	r2, [r3, #24]
 1117              	.L64:
 149:../../CM4/Core/Src/main.c ****   }
 1118              		.loc 1 149 5 view .LVU351
 1119 01dc 3220     		movs	r0, #50
 1120 01de FFF7FEFF 		bl	HAL_Delay
 1121              	.LVL69:
 1122              	.L62:
 141:../../CM4/Core/Src/main.c ****     if (HAL_GPIO_ReadPin(GPIOD, GPIO_PIN_0) == GPIO_PIN_SET) {
ARM GAS  C:\Users\minis\AppData\Local\Temp\cc4dDDks.s 			page 37


 1123              		.loc 1 141 39 view .LVU352
 141:../../CM4/Core/Src/main.c ****     if (HAL_GPIO_ReadPin(GPIOD, GPIO_PIN_0) == GPIO_PIN_SET) {
 1124              		.loc 1 141 10 is_stmt 0 view .LVU353
 1125 01e2 FFF7FEFF 		bl	HAL_GetTick
 1126              	.LVL70:
 141:../../CM4/Core/Src/main.c ****     if (HAL_GPIO_ReadPin(GPIOD, GPIO_PIN_0) == GPIO_PIN_SET) {
 1127              		.loc 1 141 24 discriminator 1 view .LVU354
 1128 01e6 001B     		subs	r0, r0, r4
 141:../../CM4/Core/Src/main.c ****     if (HAL_GPIO_ReadPin(GPIOD, GPIO_PIN_0) == GPIO_PIN_SET) {
 1129              		.loc 1 141 39 discriminator 1 view .LVU355
 1130 01e8 41F28733 		movw	r3, #4999
 1131 01ec 9842     		cmp	r0, r3
 1132 01ee 0DD8     		bhi	.L94
 142:../../CM4/Core/Src/main.c ****       LED_GREEN_ON();
 1133              		.loc 1 142 5 is_stmt 1 view .LVU356
 142:../../CM4/Core/Src/main.c ****       LED_GREEN_ON();
 1134              		.loc 1 142 9 is_stmt 0 view .LVU357
 1135 01f0 0121     		movs	r1, #1
 1136 01f2 4448     		ldr	r0, .L99+28
 1137 01f4 FFF7FEFF 		bl	HAL_GPIO_ReadPin
 1138              	.LVL71:
 142:../../CM4/Core/Src/main.c ****       LED_GREEN_ON();
 1139              		.loc 1 142 8 discriminator 1 view .LVU358
 1140 01f8 0128     		cmp	r0, #1
 1141 01fa E9D0     		beq	.L95
 146:../../CM4/Core/Src/main.c ****       LED_RED_ON();
 1142              		.loc 1 146 7 is_stmt 1 view .LVU359
 1143 01fc 3B4B     		ldr	r3, .L99+4
 1144 01fe 4FF48032 		mov	r2, #65536
 1145 0202 9A61     		str	r2, [r3, #24]
 147:../../CM4/Core/Src/main.c ****     }
 1146              		.loc 1 147 7 view .LVU360
 1147 0204 4FF48042 		mov	r2, #16384
 1148 0208 9A61     		str	r2, [r3, #24]
 1149 020a E7E7     		b	.L64
 1150              	.L94:
 151:../../CM4/Core/Src/main.c ****   HAL_Delay(5000U);
 1151              		.loc 1 151 3 view .LVU361
 151:../../CM4/Core/Src/main.c ****   HAL_Delay(5000U);
 1152              		.loc 1 151 3 view .LVU362
 1153 020c 374B     		ldr	r3, .L99+4
 1154 020e 4FF48032 		mov	r2, #65536
 1155 0212 9A61     		str	r2, [r3, #24]
 151:../../CM4/Core/Src/main.c ****   HAL_Delay(5000U);
 1156              		.loc 1 151 3 view .LVU363
 1157 0214 4FF08042 		mov	r2, #1073741824
 1158 0218 9A61     		str	r2, [r3, #24]
 151:../../CM4/Core/Src/main.c ****   HAL_Delay(5000U);
 1159              		.loc 1 151 3 view .LVU364
 152:../../CM4/Core/Src/main.c **** 
 1160              		.loc 1 152 3 view .LVU365
 1161 021a 41F28830 		movw	r0, #5000
 1162 021e FFF7FEFF 		bl	HAL_Delay
 1163              	.LVL72:
 161:../../CM4/Core/Src/main.c ****     LED_RED_ON();
 1164              		.loc 1 161 3 view .LVU366
 1165              	.LBB41:
ARM GAS  C:\Users\minis\AppData\Local\Temp\cc4dDDks.s 			page 38


 161:../../CM4/Core/Src/main.c ****     LED_RED_ON();
 1166              		.loc 1 161 8 view .LVU367
 161:../../CM4/Core/Src/main.c ****     LED_RED_ON();
 1167              		.loc 1 161 12 is_stmt 0 view .LVU368
 1168 0222 0024     		movs	r4, #0
 1169              	.LVL73:
 1170              	.L66:
 161:../../CM4/Core/Src/main.c ****     LED_RED_ON();
 1171              		.loc 1 161 21 is_stmt 1 discriminator 1 view .LVU369
 1172 0224 022C     		cmp	r4, #2
 1173 0226 10DC     		bgt	.L96
 162:../../CM4/Core/Src/main.c ****     HAL_Delay(500U);
 1174              		.loc 1 162 5 view .LVU370
 1175 0228 304D     		ldr	r5, .L99+4
 1176 022a 4FF48043 		mov	r3, #16384
 1177 022e AB61     		str	r3, [r5, #24]
 163:../../CM4/Core/Src/main.c ****     LED_RED_OFF();
 1178              		.loc 1 163 5 view .LVU371
 1179 0230 4FF4FA70 		mov	r0, #500
 1180 0234 FFF7FEFF 		bl	HAL_Delay
 1181              	.LVL74:
 164:../../CM4/Core/Src/main.c ****     HAL_Delay(500U);
 1182              		.loc 1 164 5 view .LVU372
 1183 0238 4FF08043 		mov	r3, #1073741824
 1184 023c AB61     		str	r3, [r5, #24]
 165:../../CM4/Core/Src/main.c ****   }
 1185              		.loc 1 165 5 view .LVU373
 1186 023e 4FF4FA70 		mov	r0, #500
 1187 0242 FFF7FEFF 		bl	HAL_Delay
 1188              	.LVL75:
 161:../../CM4/Core/Src/main.c ****     LED_RED_ON();
 1189              		.loc 1 161 27 discriminator 3 view .LVU374
 1190 0246 0134     		adds	r4, r4, #1
 1191              	.LVL76:
 161:../../CM4/Core/Src/main.c ****     LED_RED_ON();
 1192              		.loc 1 161 27 is_stmt 0 discriminator 3 view .LVU375
 1193 0248 ECE7     		b	.L66
 1194              	.LVL77:
 1195              	.L96:
 161:../../CM4/Core/Src/main.c ****     LED_RED_ON();
 1196              		.loc 1 161 27 discriminator 3 view .LVU376
 1197              	.LBE41:
 167:../../CM4/Core/Src/main.c **** 
 1198              		.loc 1 167 3 is_stmt 1 view .LVU377
 1199 024a 4FF4FA70 		mov	r0, #500
 1200 024e FFF7FEFF 		bl	HAL_Delay
 1201              	.LVL78:
 169:../../CM4/Core/Src/main.c ****   uint32_t echo_time = 0U;
 1202              		.loc 1 169 3 view .LVU378
 170:../../CM4/Core/Src/main.c **** 
 1203              		.loc 1 170 3 view .LVU379
 172:../../CM4/Core/Src/main.c ****     /* Trigger */
 1204              		.loc 1 172 3 view .LVU380
 1205              	.LBB42:
 172:../../CM4/Core/Src/main.c ****     /* Trigger */
 1206              		.loc 1 172 8 view .LVU381
 172:../../CM4/Core/Src/main.c ****     /* Trigger */
ARM GAS  C:\Users\minis\AppData\Local\Temp\cc4dDDks.s 			page 39


 1207              		.loc 1 172 12 is_stmt 0 view .LVU382
 1208 0252 0025     		movs	r5, #0
 1209              	.LBE42:
 170:../../CM4/Core/Src/main.c **** 
 1210              		.loc 1 170 12 view .LVU383
 1211 0254 2C46     		mov	r4, r5
 1212              	.LVL79:
 169:../../CM4/Core/Src/main.c ****   uint32_t echo_time = 0U;
 1213              		.loc 1 169 11 view .LVU384
 1214 0256 2E46     		mov	r6, r5
 1215              	.LVL80:
 1216              	.LBB47:
 172:../../CM4/Core/Src/main.c ****     /* Trigger */
 1217              		.loc 1 172 3 view .LVU385
 1218 0258 15E0     		b	.L68
 1219              	.LVL81:
 1220              	.L72:
 1221              	.LBB43:
 195:../../CM4/Core/Src/main.c ****       uint32_t echo_start = __HAL_TIM_GET_COUNTER(&htim2);
 1222              		.loc 1 195 5 is_stmt 1 view .LVU386
 195:../../CM4/Core/Src/main.c ****       uint32_t echo_start = __HAL_TIM_GET_COUNTER(&htim2);
 1223              		.loc 1 195 9 is_stmt 0 view .LVU387
 1224 025a 0121     		movs	r1, #1
 1225 025c 2948     		ldr	r0, .L99+28
 1226 025e FFF7FEFF 		bl	HAL_GPIO_ReadPin
 1227              	.LVL82:
 1228 0262 0746     		mov	r7, r0
 1229              	.LVL83:
 195:../../CM4/Core/Src/main.c ****       uint32_t echo_start = __HAL_TIM_GET_COUNTER(&htim2);
 1230              		.loc 1 195 8 discriminator 1 view .LVU388
 1231 0264 0128     		cmp	r0, #1
 1232 0266 4FD0     		beq	.L74
 208:../../CM4/Core/Src/main.c ****       /* GREEN blink = echo received this attempt */
 1233              		.loc 1 208 5 is_stmt 1 view .LVU389
 215:../../CM4/Core/Src/main.c ****       HAL_Delay(300U);
 1234              		.loc 1 215 7 view .LVU390
 1235 0268 204F     		ldr	r7, .L99+4
 1236 026a 4FF48043 		mov	r3, #16384
 1237 026e BB61     		str	r3, [r7, #24]
 216:../../CM4/Core/Src/main.c ****       LED_RED_OFF();
 1238              		.loc 1 216 7 view .LVU391
 1239 0270 4FF49670 		mov	r0, #300
 1240 0274 FFF7FEFF 		bl	HAL_Delay
 1241              	.LVL84:
 217:../../CM4/Core/Src/main.c ****     }
 1242              		.loc 1 217 7 view .LVU392
 1243 0278 4FF08043 		mov	r3, #1073741824
 1244 027c BB61     		str	r3, [r7, #24]
 1245              	.LVL85:
 1246              	.L75:
 219:../../CM4/Core/Src/main.c ****   }
 1247              		.loc 1 219 5 view .LVU393
 1248 027e C820     		movs	r0, #200
 1249 0280 FFF7FEFF 		bl	HAL_Delay
 1250              	.LVL86:
 1251              	.LBE43:
 172:../../CM4/Core/Src/main.c ****     /* Trigger */
ARM GAS  C:\Users\minis\AppData\Local\Temp\cc4dDDks.s 			page 40


 1252              		.loc 1 172 46 discriminator 2 view .LVU394
 1253 0284 0135     		adds	r5, r5, #1
 1254              	.LVL87:
 1255              	.L68:
 172:../../CM4/Core/Src/main.c ****     /* Trigger */
 1256              		.loc 1 172 33 discriminator 1 view .LVU395
 1257 0286 092D     		cmp	r5, #9
 1258 0288 5FDC     		bgt	.L97
 1259              	.LBB46:
 174:../../CM4/Core/Src/main.c ****     __HAL_TIM_SET_COUNTER(&htim2, 0);
 1260              		.loc 1 174 5 view .LVU396
 1261 028a 0022     		movs	r2, #0
 1262 028c 0221     		movs	r1, #2
 1263 028e 1D48     		ldr	r0, .L99+28
 1264 0290 FFF7FEFF 		bl	HAL_GPIO_WritePin
 1265              	.LVL88:
 175:../../CM4/Core/Src/main.c ****     while (__HAL_TIM_GET_COUNTER(&htim2) < TRIG_RESET_TIME_US)
 1266              		.loc 1 175 5 view .LVU397
 1267 0294 1A4B     		ldr	r3, .L99+24
 1268 0296 1A68     		ldr	r2, [r3]
 1269 0298 0023     		movs	r3, #0
 1270 029a 5362     		str	r3, [r2, #36]
 176:../../CM4/Core/Src/main.c ****       ;
 1271              		.loc 1 176 5 view .LVU398
 1272              	.L69:
 176:../../CM4/Core/Src/main.c ****       ;
 1273              		.loc 1 176 42 discriminator 1 view .LVU399
 176:../../CM4/Core/Src/main.c ****       ;
 1274              		.loc 1 176 12 is_stmt 0 discriminator 1 view .LVU400
 1275 029c 536A     		ldr	r3, [r2, #36]
 176:../../CM4/Core/Src/main.c ****       ;
 1276              		.loc 1 176 42 discriminator 1 view .LVU401
 1277 029e 012B     		cmp	r3, #1
 1278 02a0 FCD9     		bls	.L69
 179:../../CM4/Core/Src/main.c ****     __HAL_TIM_SET_COUNTER(&htim2, 0);
 1279              		.loc 1 179 5 is_stmt 1 view .LVU402
 1280 02a2 0122     		movs	r2, #1
 1281 02a4 0221     		movs	r1, #2
 1282 02a6 1748     		ldr	r0, .L99+28
 1283 02a8 FFF7FEFF 		bl	HAL_GPIO_WritePin
 1284              	.LVL89:
 180:../../CM4/Core/Src/main.c ****     while (__HAL_TIM_GET_COUNTER(&htim2) < TRIG_PULSE_TIME_US)
 1285              		.loc 1 180 5 view .LVU403
 1286 02ac 144B     		ldr	r3, .L99+24
 1287 02ae 1A68     		ldr	r2, [r3]
 1288 02b0 0023     		movs	r3, #0
 1289 02b2 5362     		str	r3, [r2, #36]
 181:../../CM4/Core/Src/main.c ****       ;
 1290              		.loc 1 181 5 view .LVU404
 1291              	.L70:
 181:../../CM4/Core/Src/main.c ****       ;
 1292              		.loc 1 181 42 discriminator 1 view .LVU405
 181:../../CM4/Core/Src/main.c ****       ;
 1293              		.loc 1 181 12 is_stmt 0 discriminator 1 view .LVU406
 1294 02b4 536A     		ldr	r3, [r2, #36]
 181:../../CM4/Core/Src/main.c ****       ;
 1295              		.loc 1 181 42 discriminator 1 view .LVU407
ARM GAS  C:\Users\minis\AppData\Local\Temp\cc4dDDks.s 			page 41


 1296 02b6 092B     		cmp	r3, #9
 1297 02b8 FCD9     		bls	.L70
 183:../../CM4/Core/Src/main.c **** 
 1298              		.loc 1 183 5 is_stmt 1 view .LVU408
 1299 02ba 0022     		movs	r2, #0
 1300 02bc 0221     		movs	r1, #2
 1301 02be 1148     		ldr	r0, .L99+28
 1302 02c0 FFF7FEFF 		bl	HAL_GPIO_WritePin
 1303              	.LVL90:
 186:../../CM4/Core/Src/main.c ****     uint32_t wait_start = __HAL_TIM_GET_COUNTER(&htim2);
 1304              		.loc 1 186 5 view .LVU409
 187:../../CM4/Core/Src/main.c ****     while (HAL_GPIO_ReadPin(GPIOD, GPIO_PIN_0) == GPIO_PIN_RESET) {
 1305              		.loc 1 187 5 view .LVU410
 187:../../CM4/Core/Src/main.c ****     while (HAL_GPIO_ReadPin(GPIOD, GPIO_PIN_0) == GPIO_PIN_RESET) {
 1306              		.loc 1 187 27 is_stmt 0 view .LVU411
 1307 02c4 0E4B     		ldr	r3, .L99+24
 1308 02c6 1B68     		ldr	r3, [r3]
 187:../../CM4/Core/Src/main.c ****     while (HAL_GPIO_ReadPin(GPIOD, GPIO_PIN_0) == GPIO_PIN_RESET) {
 1309              		.loc 1 187 14 view .LVU412
 1310 02c8 5F6A     		ldr	r7, [r3, #36]
 1311              	.LVL91:
 188:../../CM4/Core/Src/main.c ****       if ((uint32_t)(__HAL_TIM_GET_COUNTER(&htim2) - wait_start) >
 1312              		.loc 1 188 5 is_stmt 1 view .LVU413
 1313              	.L71:
 188:../../CM4/Core/Src/main.c ****       if ((uint32_t)(__HAL_TIM_GET_COUNTER(&htim2) - wait_start) >
 1314              		.loc 1 188 48 view .LVU414
 188:../../CM4/Core/Src/main.c ****       if ((uint32_t)(__HAL_TIM_GET_COUNTER(&htim2) - wait_start) >
 1315              		.loc 1 188 12 is_stmt 0 view .LVU415
 1316 02ca 0121     		movs	r1, #1
 1317 02cc 0D48     		ldr	r0, .L99+28
 1318 02ce FFF7FEFF 		bl	HAL_GPIO_ReadPin
 1319              	.LVL92:
 188:../../CM4/Core/Src/main.c ****       if ((uint32_t)(__HAL_TIM_GET_COUNTER(&htim2) - wait_start) >
 1320              		.loc 1 188 48 discriminator 1 view .LVU416
 1321 02d2 0028     		cmp	r0, #0
 1322 02d4 C1D1     		bne	.L72
 189:../../CM4/Core/Src/main.c ****           ECHO_WAIT_TIMEOUT_US) {
 1323              		.loc 1 189 7 is_stmt 1 view .LVU417
 189:../../CM4/Core/Src/main.c ****           ECHO_WAIT_TIMEOUT_US) {
 1324              		.loc 1 189 22 is_stmt 0 view .LVU418
 1325 02d6 0A4B     		ldr	r3, .L99+24
 1326 02d8 1B68     		ldr	r3, [r3]
 1327 02da 5B6A     		ldr	r3, [r3, #36]
 189:../../CM4/Core/Src/main.c ****           ECHO_WAIT_TIMEOUT_US) {
 1328              		.loc 1 189 52 view .LVU419
 1329 02dc DB1B     		subs	r3, r3, r7
 189:../../CM4/Core/Src/main.c ****           ECHO_WAIT_TIMEOUT_US) {
 1330              		.loc 1 189 10 view .LVU420
 1331 02de 47F23052 		movw	r2, #30000
 1332 02e2 9342     		cmp	r3, r2
 1333 02e4 F1D9     		bls	.L71
 1334 02e6 B8E7     		b	.L72
 1335              	.L100:
 1336              		.align	2
 1337              	.L99:
 1338 02e8 00440258 		.word	1476543488
 1339 02ec 00040258 		.word	1476527104
ARM GAS  C:\Users\minis\AppData\Local\Temp\cc4dDDks.s 			page 42


 1340 02f0 BFC62D00 		.word	2999999
 1341 02f4 00ED00E0 		.word	-536810240
 1342 02f8 83DE1B43 		.word	1125899907
 1343 02fc 3F420F00 		.word	999999
 1344 0300 00000000 		.word	htim2
 1345 0304 000C0258 		.word	1476529152
 1346              	.LVL93:
 1347              	.L74:
 1348              	.LBB44:
 196:../../CM4/Core/Src/main.c ****       while (HAL_GPIO_ReadPin(GPIOD, GPIO_PIN_0) == GPIO_PIN_SET) {
 1349              		.loc 1 196 7 is_stmt 1 view .LVU421
 196:../../CM4/Core/Src/main.c ****       while (HAL_GPIO_ReadPin(GPIOD, GPIO_PIN_0) == GPIO_PIN_SET) {
 1350              		.loc 1 196 29 is_stmt 0 view .LVU422
 1351 0308 4D4B     		ldr	r3, .L101
 1352 030a 1B68     		ldr	r3, [r3]
 196:../../CM4/Core/Src/main.c ****       while (HAL_GPIO_ReadPin(GPIOD, GPIO_PIN_0) == GPIO_PIN_SET) {
 1353              		.loc 1 196 16 view .LVU423
 1354 030c 5E6A     		ldr	r6, [r3, #36]
 1355              	.LVL94:
 197:../../CM4/Core/Src/main.c ****         if ((uint32_t)(__HAL_TIM_GET_COUNTER(&htim2) - echo_start) >
 1356              		.loc 1 197 7 is_stmt 1 view .LVU424
 1357              	.L76:
 197:../../CM4/Core/Src/main.c ****         if ((uint32_t)(__HAL_TIM_GET_COUNTER(&htim2) - echo_start) >
 1358              		.loc 1 197 50 view .LVU425
 197:../../CM4/Core/Src/main.c ****         if ((uint32_t)(__HAL_TIM_GET_COUNTER(&htim2) - echo_start) >
 1359              		.loc 1 197 14 is_stmt 0 view .LVU426
 1360 030e 0121     		movs	r1, #1
 1361 0310 4C48     		ldr	r0, .L101+4
 1362 0312 FFF7FEFF 		bl	HAL_GPIO_ReadPin
 1363              	.LVL95:
 197:../../CM4/Core/Src/main.c ****         if ((uint32_t)(__HAL_TIM_GET_COUNTER(&htim2) - echo_start) >
 1364              		.loc 1 197 50 discriminator 1 view .LVU427
 1365 0316 0128     		cmp	r0, #1
 1366 0318 07D1     		bne	.L77
 198:../../CM4/Core/Src/main.c ****             ECHO_PULSE_TIMEOUT_US) {
 1367              		.loc 1 198 9 is_stmt 1 view .LVU428
 198:../../CM4/Core/Src/main.c ****             ECHO_PULSE_TIMEOUT_US) {
 1368              		.loc 1 198 24 is_stmt 0 view .LVU429
 1369 031a 494B     		ldr	r3, .L101
 1370 031c 1B68     		ldr	r3, [r3]
 1371 031e 5B6A     		ldr	r3, [r3, #36]
 198:../../CM4/Core/Src/main.c ****             ECHO_PULSE_TIMEOUT_US) {
 1372              		.loc 1 198 54 view .LVU430
 1373 0320 9B1B     		subs	r3, r3, r6
 198:../../CM4/Core/Src/main.c ****             ECHO_PULSE_TIMEOUT_US) {
 1374              		.loc 1 198 12 view .LVU431
 1375 0322 46F29052 		movw	r2, #26000
 1376 0326 9342     		cmp	r3, r2
 1377 0328 F1D9     		bls	.L76
 1378              	.L77:
 203:../../CM4/Core/Src/main.c ****       got_echo = 1U;
 1379              		.loc 1 203 7 is_stmt 1 view .LVU432
 203:../../CM4/Core/Src/main.c ****       got_echo = 1U;
 1380              		.loc 1 203 30 is_stmt 0 view .LVU433
 1381 032a 454B     		ldr	r3, .L101
 1382 032c 1B68     		ldr	r3, [r3]
 1383 032e 5C6A     		ldr	r4, [r3, #36]
ARM GAS  C:\Users\minis\AppData\Local\Temp\cc4dDDks.s 			page 43


 1384              	.LVL96:
 203:../../CM4/Core/Src/main.c ****       got_echo = 1U;
 1385              		.loc 1 203 17 view .LVU434
 1386 0330 A41B     		subs	r4, r4, r6
 1387              	.LVL97:
 204:../../CM4/Core/Src/main.c ****       any_echo = 1U;
 1388              		.loc 1 204 7 is_stmt 1 view .LVU435
 205:../../CM4/Core/Src/main.c ****     }
 1389              		.loc 1 205 7 view .LVU436
 205:../../CM4/Core/Src/main.c ****     }
 1390              		.loc 1 205 7 is_stmt 0 view .LVU437
 1391              	.LBE44:
 208:../../CM4/Core/Src/main.c ****       /* GREEN blink = echo received this attempt */
 1392              		.loc 1 208 5 is_stmt 1 view .LVU438
 210:../../CM4/Core/Src/main.c ****       HAL_Delay(300U);
 1393              		.loc 1 210 7 view .LVU439
 1394 0332 454E     		ldr	r6, .L101+8
 1395              	.LVL98:
 210:../../CM4/Core/Src/main.c ****       HAL_Delay(300U);
 1396              		.loc 1 210 7 is_stmt 0 view .LVU440
 1397 0334 0123     		movs	r3, #1
 1398 0336 B361     		str	r3, [r6, #24]
 211:../../CM4/Core/Src/main.c ****       LED_GREEN_OFF();
 1399              		.loc 1 211 7 is_stmt 1 view .LVU441
 1400 0338 4FF49670 		mov	r0, #300
 1401 033c FFF7FEFF 		bl	HAL_Delay
 1402              	.LVL99:
 212:../../CM4/Core/Src/main.c ****     } else {
 1403              		.loc 1 212 7 view .LVU442
 1404 0340 4FF48033 		mov	r3, #65536
 1405 0344 B361     		str	r3, [r6, #24]
 1406              	.LBB45:
 205:../../CM4/Core/Src/main.c ****     }
 1407              		.loc 1 205 16 is_stmt 0 view .LVU443
 1408 0346 3E46     		mov	r6, r7
 1409              	.LBE45:
 1410 0348 99E7     		b	.L75
 1411              	.LVL100:
 1412              	.L97:
 205:../../CM4/Core/Src/main.c ****     }
 1413              		.loc 1 205 16 view .LVU444
 1414              	.LBE46:
 1415              	.LBE47:
 221:../../CM4/Core/Src/main.c **** 
 1416              		.loc 1 221 3 is_stmt 1 view .LVU445
 1417 034a 4FF47A70 		mov	r0, #1000
 1418 034e FFF7FEFF 		bl	HAL_Delay
 1419              	.LVL101:
 228:../../CM4/Core/Src/main.c ****     /* Solid red = complete failure, check wiring */
 1420              		.loc 1 228 3 view .LVU446
 228:../../CM4/Core/Src/main.c ****     /* Solid red = complete failure, check wiring */
 1421              		.loc 1 228 6 is_stmt 0 view .LVU447
 1422 0352 26B9     		cbnz	r6, .L80
 230:../../CM4/Core/Src/main.c ****     while (1)
 1423              		.loc 1 230 5 is_stmt 1 view .LVU448
 1424 0354 3C4B     		ldr	r3, .L101+8
 1425 0356 4FF48042 		mov	r2, #16384
ARM GAS  C:\Users\minis\AppData\Local\Temp\cc4dDDks.s 			page 44


 1426 035a 9A61     		str	r2, [r3, #24]
 1427              	.L81:
 231:../../CM4/Core/Src/main.c ****       ;
 1428              		.loc 1 231 5 view .LVU449
 231:../../CM4/Core/Src/main.c ****       ;
 1429              		.loc 1 231 11 view .LVU450
 1430 035c FEE7     		b	.L81
 1431              	.L80:
 236:../../CM4/Core/Src/main.c **** 
 1432              		.loc 1 236 3 view .LVU451
 236:../../CM4/Core/Src/main.c **** 
 1433              		.loc 1 236 12 is_stmt 0 view .LVU452
 1434 035e 3A23     		movs	r3, #58
 1435 0360 B4FBF3F4 		udiv	r4, r4, r3
 1436              	.LVL102:
 239:../../CM4/Core/Src/main.c ****   SHARED_DATA->data_ready = 1U;
 1437              		.loc 1 239 3 is_stmt 1 view .LVU453
 239:../../CM4/Core/Src/main.c ****   SHARED_DATA->data_ready = 1U;
 1438              		.loc 1 239 28 is_stmt 0 view .LVU454
 1439 0364 4FF06053 		mov	r3, #939524096
 1440 0368 1C60     		str	r4, [r3]
 240:../../CM4/Core/Src/main.c ****   __DSB(); /* Forza la scrittura a raggiungere SRAM4 */
 1441              		.loc 1 240 3 is_stmt 1 view .LVU455
 240:../../CM4/Core/Src/main.c ****   __DSB(); /* Forza la scrittura a raggiungere SRAM4 */
 1442              		.loc 1 240 27 is_stmt 0 view .LVU456
 1443 036a 0125     		movs	r5, #1
 1444              	.LVL103:
 240:../../CM4/Core/Src/main.c ****   __DSB(); /* Forza la scrittura a raggiungere SRAM4 */
 1445              		.loc 1 240 27 view .LVU457
 1446 036c 5D60     		str	r5, [r3, #4]
 241:../../CM4/Core/Src/main.c ****   HAL_HSEM_FastTake(HSEM_ID_SENSOR);
 1447              		.loc 1 241 3 is_stmt 1 view .LVU458
 1448              	.LBB48:
 1449              	.LBI48:
 211:../../Drivers/CMSIS/Include/cmsis_gcc.h **** 
 212:../../Drivers/CMSIS/Include/cmsis_gcc.h **** 
 213:../../Drivers/CMSIS/Include/cmsis_gcc.h **** /**
 214:../../Drivers/CMSIS/Include/cmsis_gcc.h ****   \brief   Get Control Register
 215:../../Drivers/CMSIS/Include/cmsis_gcc.h ****   \details Returns the content of the Control Register.
 216:../../Drivers/CMSIS/Include/cmsis_gcc.h ****   \return               Control Register value
 217:../../Drivers/CMSIS/Include/cmsis_gcc.h ****  */
 218:../../Drivers/CMSIS/Include/cmsis_gcc.h **** __STATIC_FORCEINLINE uint32_t __get_CONTROL(void)
 219:../../Drivers/CMSIS/Include/cmsis_gcc.h **** {
 220:../../Drivers/CMSIS/Include/cmsis_gcc.h ****   uint32_t result;
 221:../../Drivers/CMSIS/Include/cmsis_gcc.h **** 
 222:../../Drivers/CMSIS/Include/cmsis_gcc.h ****   __ASM volatile ("MRS %0, control" : "=r" (result) );
 223:../../Drivers/CMSIS/Include/cmsis_gcc.h ****   return(result);
 224:../../Drivers/CMSIS/Include/cmsis_gcc.h **** }
 225:../../Drivers/CMSIS/Include/cmsis_gcc.h **** 
 226:../../Drivers/CMSIS/Include/cmsis_gcc.h **** 
 227:../../Drivers/CMSIS/Include/cmsis_gcc.h **** #if (defined (__ARM_FEATURE_CMSE ) && (__ARM_FEATURE_CMSE == 3))
 228:../../Drivers/CMSIS/Include/cmsis_gcc.h **** /**
 229:../../Drivers/CMSIS/Include/cmsis_gcc.h ****   \brief   Get Control Register (non-secure)
 230:../../Drivers/CMSIS/Include/cmsis_gcc.h ****   \details Returns the content of the non-secure Control Register when in secure mode.
 231:../../Drivers/CMSIS/Include/cmsis_gcc.h ****   \return               non-secure Control Register value
 232:../../Drivers/CMSIS/Include/cmsis_gcc.h ****  */
 233:../../Drivers/CMSIS/Include/cmsis_gcc.h **** __STATIC_FORCEINLINE uint32_t __TZ_get_CONTROL_NS(void)
ARM GAS  C:\Users\minis\AppData\Local\Temp\cc4dDDks.s 			page 45


 234:../../Drivers/CMSIS/Include/cmsis_gcc.h **** {
 235:../../Drivers/CMSIS/Include/cmsis_gcc.h ****   uint32_t result;
 236:../../Drivers/CMSIS/Include/cmsis_gcc.h **** 
 237:../../Drivers/CMSIS/Include/cmsis_gcc.h ****   __ASM volatile ("MRS %0, control_ns" : "=r" (result) );
 238:../../Drivers/CMSIS/Include/cmsis_gcc.h ****   return(result);
 239:../../Drivers/CMSIS/Include/cmsis_gcc.h **** }
 240:../../Drivers/CMSIS/Include/cmsis_gcc.h **** #endif
 241:../../Drivers/CMSIS/Include/cmsis_gcc.h **** 
 242:../../Drivers/CMSIS/Include/cmsis_gcc.h **** 
 243:../../Drivers/CMSIS/Include/cmsis_gcc.h **** /**
 244:../../Drivers/CMSIS/Include/cmsis_gcc.h ****   \brief   Set Control Register
 245:../../Drivers/CMSIS/Include/cmsis_gcc.h ****   \details Writes the given value to the Control Register.
 246:../../Drivers/CMSIS/Include/cmsis_gcc.h ****   \param [in]    control  Control Register value to set
 247:../../Drivers/CMSIS/Include/cmsis_gcc.h ****  */
 248:../../Drivers/CMSIS/Include/cmsis_gcc.h **** __STATIC_FORCEINLINE void __set_CONTROL(uint32_t control)
 249:../../Drivers/CMSIS/Include/cmsis_gcc.h **** {
 250:../../Drivers/CMSIS/Include/cmsis_gcc.h ****   __ASM volatile ("MSR control, %0" : : "r" (control) : "memory");
 251:../../Drivers/CMSIS/Include/cmsis_gcc.h **** }
 252:../../Drivers/CMSIS/Include/cmsis_gcc.h **** 
 253:../../Drivers/CMSIS/Include/cmsis_gcc.h **** 
 254:../../Drivers/CMSIS/Include/cmsis_gcc.h **** #if (defined (__ARM_FEATURE_CMSE ) && (__ARM_FEATURE_CMSE == 3))
 255:../../Drivers/CMSIS/Include/cmsis_gcc.h **** /**
 256:../../Drivers/CMSIS/Include/cmsis_gcc.h ****   \brief   Set Control Register (non-secure)
 257:../../Drivers/CMSIS/Include/cmsis_gcc.h ****   \details Writes the given value to the non-secure Control Register when in secure state.
 258:../../Drivers/CMSIS/Include/cmsis_gcc.h ****   \param [in]    control  Control Register value to set
 259:../../Drivers/CMSIS/Include/cmsis_gcc.h ****  */
 260:../../Drivers/CMSIS/Include/cmsis_gcc.h **** __STATIC_FORCEINLINE void __TZ_set_CONTROL_NS(uint32_t control)
 261:../../Drivers/CMSIS/Include/cmsis_gcc.h **** {
 262:../../Drivers/CMSIS/Include/cmsis_gcc.h ****   __ASM volatile ("MSR control_ns, %0" : : "r" (control) : "memory");
 263:../../Drivers/CMSIS/Include/cmsis_gcc.h **** }
 264:../../Drivers/CMSIS/Include/cmsis_gcc.h **** #endif
 265:../../Drivers/CMSIS/Include/cmsis_gcc.h **** 
 266:../../Drivers/CMSIS/Include/cmsis_gcc.h **** 
 267:../../Drivers/CMSIS/Include/cmsis_gcc.h **** /**
 268:../../Drivers/CMSIS/Include/cmsis_gcc.h ****   \brief   Get IPSR Register
 269:../../Drivers/CMSIS/Include/cmsis_gcc.h ****   \details Returns the content of the IPSR Register.
 270:../../Drivers/CMSIS/Include/cmsis_gcc.h ****   \return               IPSR Register value
 271:../../Drivers/CMSIS/Include/cmsis_gcc.h ****  */
 272:../../Drivers/CMSIS/Include/cmsis_gcc.h **** __STATIC_FORCEINLINE uint32_t __get_IPSR(void)
 273:../../Drivers/CMSIS/Include/cmsis_gcc.h **** {
 274:../../Drivers/CMSIS/Include/cmsis_gcc.h ****   uint32_t result;
 275:../../Drivers/CMSIS/Include/cmsis_gcc.h **** 
 276:../../Drivers/CMSIS/Include/cmsis_gcc.h ****   __ASM volatile ("MRS %0, ipsr" : "=r" (result) );
 277:../../Drivers/CMSIS/Include/cmsis_gcc.h ****   return(result);
 278:../../Drivers/CMSIS/Include/cmsis_gcc.h **** }
 279:../../Drivers/CMSIS/Include/cmsis_gcc.h **** 
 280:../../Drivers/CMSIS/Include/cmsis_gcc.h **** 
 281:../../Drivers/CMSIS/Include/cmsis_gcc.h **** /**
 282:../../Drivers/CMSIS/Include/cmsis_gcc.h ****   \brief   Get APSR Register
 283:../../Drivers/CMSIS/Include/cmsis_gcc.h ****   \details Returns the content of the APSR Register.
 284:../../Drivers/CMSIS/Include/cmsis_gcc.h ****   \return               APSR Register value
 285:../../Drivers/CMSIS/Include/cmsis_gcc.h ****  */
 286:../../Drivers/CMSIS/Include/cmsis_gcc.h **** __STATIC_FORCEINLINE uint32_t __get_APSR(void)
 287:../../Drivers/CMSIS/Include/cmsis_gcc.h **** {
 288:../../Drivers/CMSIS/Include/cmsis_gcc.h ****   uint32_t result;
 289:../../Drivers/CMSIS/Include/cmsis_gcc.h **** 
 290:../../Drivers/CMSIS/Include/cmsis_gcc.h ****   __ASM volatile ("MRS %0, apsr" : "=r" (result) );
ARM GAS  C:\Users\minis\AppData\Local\Temp\cc4dDDks.s 			page 46


 291:../../Drivers/CMSIS/Include/cmsis_gcc.h ****   return(result);
 292:../../Drivers/CMSIS/Include/cmsis_gcc.h **** }
 293:../../Drivers/CMSIS/Include/cmsis_gcc.h **** 
 294:../../Drivers/CMSIS/Include/cmsis_gcc.h **** 
 295:../../Drivers/CMSIS/Include/cmsis_gcc.h **** /**
 296:../../Drivers/CMSIS/Include/cmsis_gcc.h ****   \brief   Get xPSR Register
 297:../../Drivers/CMSIS/Include/cmsis_gcc.h ****   \details Returns the content of the xPSR Register.
 298:../../Drivers/CMSIS/Include/cmsis_gcc.h ****   \return               xPSR Register value
 299:../../Drivers/CMSIS/Include/cmsis_gcc.h ****  */
 300:../../Drivers/CMSIS/Include/cmsis_gcc.h **** __STATIC_FORCEINLINE uint32_t __get_xPSR(void)
 301:../../Drivers/CMSIS/Include/cmsis_gcc.h **** {
 302:../../Drivers/CMSIS/Include/cmsis_gcc.h ****   uint32_t result;
 303:../../Drivers/CMSIS/Include/cmsis_gcc.h **** 
 304:../../Drivers/CMSIS/Include/cmsis_gcc.h ****   __ASM volatile ("MRS %0, xpsr" : "=r" (result) );
 305:../../Drivers/CMSIS/Include/cmsis_gcc.h ****   return(result);
 306:../../Drivers/CMSIS/Include/cmsis_gcc.h **** }
 307:../../Drivers/CMSIS/Include/cmsis_gcc.h **** 
 308:../../Drivers/CMSIS/Include/cmsis_gcc.h **** 
 309:../../Drivers/CMSIS/Include/cmsis_gcc.h **** /**
 310:../../Drivers/CMSIS/Include/cmsis_gcc.h ****   \brief   Get Process Stack Pointer
 311:../../Drivers/CMSIS/Include/cmsis_gcc.h ****   \details Returns the current value of the Process Stack Pointer (PSP).
 312:../../Drivers/CMSIS/Include/cmsis_gcc.h ****   \return               PSP Register value
 313:../../Drivers/CMSIS/Include/cmsis_gcc.h ****  */
 314:../../Drivers/CMSIS/Include/cmsis_gcc.h **** __STATIC_FORCEINLINE uint32_t __get_PSP(void)
 315:../../Drivers/CMSIS/Include/cmsis_gcc.h **** {
 316:../../Drivers/CMSIS/Include/cmsis_gcc.h ****   uint32_t result;
 317:../../Drivers/CMSIS/Include/cmsis_gcc.h **** 
 318:../../Drivers/CMSIS/Include/cmsis_gcc.h ****   __ASM volatile ("MRS %0, psp"  : "=r" (result) );
 319:../../Drivers/CMSIS/Include/cmsis_gcc.h ****   return(result);
 320:../../Drivers/CMSIS/Include/cmsis_gcc.h **** }
 321:../../Drivers/CMSIS/Include/cmsis_gcc.h **** 
 322:../../Drivers/CMSIS/Include/cmsis_gcc.h **** 
 323:../../Drivers/CMSIS/Include/cmsis_gcc.h **** #if (defined (__ARM_FEATURE_CMSE ) && (__ARM_FEATURE_CMSE == 3))
 324:../../Drivers/CMSIS/Include/cmsis_gcc.h **** /**
 325:../../Drivers/CMSIS/Include/cmsis_gcc.h ****   \brief   Get Process Stack Pointer (non-secure)
 326:../../Drivers/CMSIS/Include/cmsis_gcc.h ****   \details Returns the current value of the non-secure Process Stack Pointer (PSP) when in secure s
 327:../../Drivers/CMSIS/Include/cmsis_gcc.h ****   \return               PSP Register value
 328:../../Drivers/CMSIS/Include/cmsis_gcc.h ****  */
 329:../../Drivers/CMSIS/Include/cmsis_gcc.h **** __STATIC_FORCEINLINE uint32_t __TZ_get_PSP_NS(void)
 330:../../Drivers/CMSIS/Include/cmsis_gcc.h **** {
 331:../../Drivers/CMSIS/Include/cmsis_gcc.h ****   uint32_t result;
 332:../../Drivers/CMSIS/Include/cmsis_gcc.h **** 
 333:../../Drivers/CMSIS/Include/cmsis_gcc.h ****   __ASM volatile ("MRS %0, psp_ns"  : "=r" (result) );
 334:../../Drivers/CMSIS/Include/cmsis_gcc.h ****   return(result);
 335:../../Drivers/CMSIS/Include/cmsis_gcc.h **** }
 336:../../Drivers/CMSIS/Include/cmsis_gcc.h **** #endif
 337:../../Drivers/CMSIS/Include/cmsis_gcc.h **** 
 338:../../Drivers/CMSIS/Include/cmsis_gcc.h **** 
 339:../../Drivers/CMSIS/Include/cmsis_gcc.h **** /**
 340:../../Drivers/CMSIS/Include/cmsis_gcc.h ****   \brief   Set Process Stack Pointer
 341:../../Drivers/CMSIS/Include/cmsis_gcc.h ****   \details Assigns the given value to the Process Stack Pointer (PSP).
 342:../../Drivers/CMSIS/Include/cmsis_gcc.h ****   \param [in]    topOfProcStack  Process Stack Pointer value to set
 343:../../Drivers/CMSIS/Include/cmsis_gcc.h ****  */
 344:../../Drivers/CMSIS/Include/cmsis_gcc.h **** __STATIC_FORCEINLINE void __set_PSP(uint32_t topOfProcStack)
 345:../../Drivers/CMSIS/Include/cmsis_gcc.h **** {
 346:../../Drivers/CMSIS/Include/cmsis_gcc.h ****   __ASM volatile ("MSR psp, %0" : : "r" (topOfProcStack) : );
 347:../../Drivers/CMSIS/Include/cmsis_gcc.h **** }
ARM GAS  C:\Users\minis\AppData\Local\Temp\cc4dDDks.s 			page 47


 348:../../Drivers/CMSIS/Include/cmsis_gcc.h **** 
 349:../../Drivers/CMSIS/Include/cmsis_gcc.h **** 
 350:../../Drivers/CMSIS/Include/cmsis_gcc.h **** #if (defined (__ARM_FEATURE_CMSE ) && (__ARM_FEATURE_CMSE == 3))
 351:../../Drivers/CMSIS/Include/cmsis_gcc.h **** /**
 352:../../Drivers/CMSIS/Include/cmsis_gcc.h ****   \brief   Set Process Stack Pointer (non-secure)
 353:../../Drivers/CMSIS/Include/cmsis_gcc.h ****   \details Assigns the given value to the non-secure Process Stack Pointer (PSP) when in secure sta
 354:../../Drivers/CMSIS/Include/cmsis_gcc.h ****   \param [in]    topOfProcStack  Process Stack Pointer value to set
 355:../../Drivers/CMSIS/Include/cmsis_gcc.h ****  */
 356:../../Drivers/CMSIS/Include/cmsis_gcc.h **** __STATIC_FORCEINLINE void __TZ_set_PSP_NS(uint32_t topOfProcStack)
 357:../../Drivers/CMSIS/Include/cmsis_gcc.h **** {
 358:../../Drivers/CMSIS/Include/cmsis_gcc.h ****   __ASM volatile ("MSR psp_ns, %0" : : "r" (topOfProcStack) : );
 359:../../Drivers/CMSIS/Include/cmsis_gcc.h **** }
 360:../../Drivers/CMSIS/Include/cmsis_gcc.h **** #endif
 361:../../Drivers/CMSIS/Include/cmsis_gcc.h **** 
 362:../../Drivers/CMSIS/Include/cmsis_gcc.h **** 
 363:../../Drivers/CMSIS/Include/cmsis_gcc.h **** /**
 364:../../Drivers/CMSIS/Include/cmsis_gcc.h ****   \brief   Get Main Stack Pointer
 365:../../Drivers/CMSIS/Include/cmsis_gcc.h ****   \details Returns the current value of the Main Stack Pointer (MSP).
 366:../../Drivers/CMSIS/Include/cmsis_gcc.h ****   \return               MSP Register value
 367:../../Drivers/CMSIS/Include/cmsis_gcc.h ****  */
 368:../../Drivers/CMSIS/Include/cmsis_gcc.h **** __STATIC_FORCEINLINE uint32_t __get_MSP(void)
 369:../../Drivers/CMSIS/Include/cmsis_gcc.h **** {
 370:../../Drivers/CMSIS/Include/cmsis_gcc.h ****   uint32_t result;
 371:../../Drivers/CMSIS/Include/cmsis_gcc.h **** 
 372:../../Drivers/CMSIS/Include/cmsis_gcc.h ****   __ASM volatile ("MRS %0, msp" : "=r" (result) );
 373:../../Drivers/CMSIS/Include/cmsis_gcc.h ****   return(result);
 374:../../Drivers/CMSIS/Include/cmsis_gcc.h **** }
 375:../../Drivers/CMSIS/Include/cmsis_gcc.h **** 
 376:../../Drivers/CMSIS/Include/cmsis_gcc.h **** 
 377:../../Drivers/CMSIS/Include/cmsis_gcc.h **** #if (defined (__ARM_FEATURE_CMSE ) && (__ARM_FEATURE_CMSE == 3))
 378:../../Drivers/CMSIS/Include/cmsis_gcc.h **** /**
 379:../../Drivers/CMSIS/Include/cmsis_gcc.h ****   \brief   Get Main Stack Pointer (non-secure)
 380:../../Drivers/CMSIS/Include/cmsis_gcc.h ****   \details Returns the current value of the non-secure Main Stack Pointer (MSP) when in secure stat
 381:../../Drivers/CMSIS/Include/cmsis_gcc.h ****   \return               MSP Register value
 382:../../Drivers/CMSIS/Include/cmsis_gcc.h ****  */
 383:../../Drivers/CMSIS/Include/cmsis_gcc.h **** __STATIC_FORCEINLINE uint32_t __TZ_get_MSP_NS(void)
 384:../../Drivers/CMSIS/Include/cmsis_gcc.h **** {
 385:../../Drivers/CMSIS/Include/cmsis_gcc.h ****   uint32_t result;
 386:../../Drivers/CMSIS/Include/cmsis_gcc.h **** 
 387:../../Drivers/CMSIS/Include/cmsis_gcc.h ****   __ASM volatile ("MRS %0, msp_ns" : "=r" (result) );
 388:../../Drivers/CMSIS/Include/cmsis_gcc.h ****   return(result);
 389:../../Drivers/CMSIS/Include/cmsis_gcc.h **** }
 390:../../Drivers/CMSIS/Include/cmsis_gcc.h **** #endif
 391:../../Drivers/CMSIS/Include/cmsis_gcc.h **** 
 392:../../Drivers/CMSIS/Include/cmsis_gcc.h **** 
 393:../../Drivers/CMSIS/Include/cmsis_gcc.h **** /**
 394:../../Drivers/CMSIS/Include/cmsis_gcc.h ****   \brief   Set Main Stack Pointer
 395:../../Drivers/CMSIS/Include/cmsis_gcc.h ****   \details Assigns the given value to the Main Stack Pointer (MSP).
 396:../../Drivers/CMSIS/Include/cmsis_gcc.h ****   \param [in]    topOfMainStack  Main Stack Pointer value to set
 397:../../Drivers/CMSIS/Include/cmsis_gcc.h ****  */
 398:../../Drivers/CMSIS/Include/cmsis_gcc.h **** __STATIC_FORCEINLINE void __set_MSP(uint32_t topOfMainStack)
 399:../../Drivers/CMSIS/Include/cmsis_gcc.h **** {
 400:../../Drivers/CMSIS/Include/cmsis_gcc.h ****   __ASM volatile ("MSR msp, %0" : : "r" (topOfMainStack) : );
 401:../../Drivers/CMSIS/Include/cmsis_gcc.h **** }
 402:../../Drivers/CMSIS/Include/cmsis_gcc.h **** 
 403:../../Drivers/CMSIS/Include/cmsis_gcc.h **** 
 404:../../Drivers/CMSIS/Include/cmsis_gcc.h **** #if (defined (__ARM_FEATURE_CMSE ) && (__ARM_FEATURE_CMSE == 3))
ARM GAS  C:\Users\minis\AppData\Local\Temp\cc4dDDks.s 			page 48


 405:../../Drivers/CMSIS/Include/cmsis_gcc.h **** /**
 406:../../Drivers/CMSIS/Include/cmsis_gcc.h ****   \brief   Set Main Stack Pointer (non-secure)
 407:../../Drivers/CMSIS/Include/cmsis_gcc.h ****   \details Assigns the given value to the non-secure Main Stack Pointer (MSP) when in secure state.
 408:../../Drivers/CMSIS/Include/cmsis_gcc.h ****   \param [in]    topOfMainStack  Main Stack Pointer value to set
 409:../../Drivers/CMSIS/Include/cmsis_gcc.h ****  */
 410:../../Drivers/CMSIS/Include/cmsis_gcc.h **** __STATIC_FORCEINLINE void __TZ_set_MSP_NS(uint32_t topOfMainStack)
 411:../../Drivers/CMSIS/Include/cmsis_gcc.h **** {
 412:../../Drivers/CMSIS/Include/cmsis_gcc.h ****   __ASM volatile ("MSR msp_ns, %0" : : "r" (topOfMainStack) : );
 413:../../Drivers/CMSIS/Include/cmsis_gcc.h **** }
 414:../../Drivers/CMSIS/Include/cmsis_gcc.h **** #endif
 415:../../Drivers/CMSIS/Include/cmsis_gcc.h **** 
 416:../../Drivers/CMSIS/Include/cmsis_gcc.h **** 
 417:../../Drivers/CMSIS/Include/cmsis_gcc.h **** #if (defined (__ARM_FEATURE_CMSE ) && (__ARM_FEATURE_CMSE == 3))
 418:../../Drivers/CMSIS/Include/cmsis_gcc.h **** /**
 419:../../Drivers/CMSIS/Include/cmsis_gcc.h ****   \brief   Get Stack Pointer (non-secure)
 420:../../Drivers/CMSIS/Include/cmsis_gcc.h ****   \details Returns the current value of the non-secure Stack Pointer (SP) when in secure state.
 421:../../Drivers/CMSIS/Include/cmsis_gcc.h ****   \return               SP Register value
 422:../../Drivers/CMSIS/Include/cmsis_gcc.h ****  */
 423:../../Drivers/CMSIS/Include/cmsis_gcc.h **** __STATIC_FORCEINLINE uint32_t __TZ_get_SP_NS(void)
 424:../../Drivers/CMSIS/Include/cmsis_gcc.h **** {
 425:../../Drivers/CMSIS/Include/cmsis_gcc.h ****   uint32_t result;
 426:../../Drivers/CMSIS/Include/cmsis_gcc.h **** 
 427:../../Drivers/CMSIS/Include/cmsis_gcc.h ****   __ASM volatile ("MRS %0, sp_ns" : "=r" (result) );
 428:../../Drivers/CMSIS/Include/cmsis_gcc.h ****   return(result);
 429:../../Drivers/CMSIS/Include/cmsis_gcc.h **** }
 430:../../Drivers/CMSIS/Include/cmsis_gcc.h **** 
 431:../../Drivers/CMSIS/Include/cmsis_gcc.h **** 
 432:../../Drivers/CMSIS/Include/cmsis_gcc.h **** /**
 433:../../Drivers/CMSIS/Include/cmsis_gcc.h ****   \brief   Set Stack Pointer (non-secure)
 434:../../Drivers/CMSIS/Include/cmsis_gcc.h ****   \details Assigns the given value to the non-secure Stack Pointer (SP) when in secure state.
 435:../../Drivers/CMSIS/Include/cmsis_gcc.h ****   \param [in]    topOfStack  Stack Pointer value to set
 436:../../Drivers/CMSIS/Include/cmsis_gcc.h ****  */
 437:../../Drivers/CMSIS/Include/cmsis_gcc.h **** __STATIC_FORCEINLINE void __TZ_set_SP_NS(uint32_t topOfStack)
 438:../../Drivers/CMSIS/Include/cmsis_gcc.h **** {
 439:../../Drivers/CMSIS/Include/cmsis_gcc.h ****   __ASM volatile ("MSR sp_ns, %0" : : "r" (topOfStack) : );
 440:../../Drivers/CMSIS/Include/cmsis_gcc.h **** }
 441:../../Drivers/CMSIS/Include/cmsis_gcc.h **** #endif
 442:../../Drivers/CMSIS/Include/cmsis_gcc.h **** 
 443:../../Drivers/CMSIS/Include/cmsis_gcc.h **** 
 444:../../Drivers/CMSIS/Include/cmsis_gcc.h **** /**
 445:../../Drivers/CMSIS/Include/cmsis_gcc.h ****   \brief   Get Priority Mask
 446:../../Drivers/CMSIS/Include/cmsis_gcc.h ****   \details Returns the current state of the priority mask bit from the Priority Mask Register.
 447:../../Drivers/CMSIS/Include/cmsis_gcc.h ****   \return               Priority Mask value
 448:../../Drivers/CMSIS/Include/cmsis_gcc.h ****  */
 449:../../Drivers/CMSIS/Include/cmsis_gcc.h **** __STATIC_FORCEINLINE uint32_t __get_PRIMASK(void)
 450:../../Drivers/CMSIS/Include/cmsis_gcc.h **** {
 451:../../Drivers/CMSIS/Include/cmsis_gcc.h ****   uint32_t result;
 452:../../Drivers/CMSIS/Include/cmsis_gcc.h **** 
 453:../../Drivers/CMSIS/Include/cmsis_gcc.h ****   __ASM volatile ("MRS %0, primask" : "=r" (result) :: "memory");
 454:../../Drivers/CMSIS/Include/cmsis_gcc.h ****   return(result);
 455:../../Drivers/CMSIS/Include/cmsis_gcc.h **** }
 456:../../Drivers/CMSIS/Include/cmsis_gcc.h **** 
 457:../../Drivers/CMSIS/Include/cmsis_gcc.h **** 
 458:../../Drivers/CMSIS/Include/cmsis_gcc.h **** #if (defined (__ARM_FEATURE_CMSE ) && (__ARM_FEATURE_CMSE == 3))
 459:../../Drivers/CMSIS/Include/cmsis_gcc.h **** /**
 460:../../Drivers/CMSIS/Include/cmsis_gcc.h ****   \brief   Get Priority Mask (non-secure)
 461:../../Drivers/CMSIS/Include/cmsis_gcc.h ****   \details Returns the current state of the non-secure priority mask bit from the Priority Mask Reg
ARM GAS  C:\Users\minis\AppData\Local\Temp\cc4dDDks.s 			page 49


 462:../../Drivers/CMSIS/Include/cmsis_gcc.h ****   \return               Priority Mask value
 463:../../Drivers/CMSIS/Include/cmsis_gcc.h ****  */
 464:../../Drivers/CMSIS/Include/cmsis_gcc.h **** __STATIC_FORCEINLINE uint32_t __TZ_get_PRIMASK_NS(void)
 465:../../Drivers/CMSIS/Include/cmsis_gcc.h **** {
 466:../../Drivers/CMSIS/Include/cmsis_gcc.h ****   uint32_t result;
 467:../../Drivers/CMSIS/Include/cmsis_gcc.h **** 
 468:../../Drivers/CMSIS/Include/cmsis_gcc.h ****   __ASM volatile ("MRS %0, primask_ns" : "=r" (result) :: "memory");
 469:../../Drivers/CMSIS/Include/cmsis_gcc.h ****   return(result);
 470:../../Drivers/CMSIS/Include/cmsis_gcc.h **** }
 471:../../Drivers/CMSIS/Include/cmsis_gcc.h **** #endif
 472:../../Drivers/CMSIS/Include/cmsis_gcc.h **** 
 473:../../Drivers/CMSIS/Include/cmsis_gcc.h **** 
 474:../../Drivers/CMSIS/Include/cmsis_gcc.h **** /**
 475:../../Drivers/CMSIS/Include/cmsis_gcc.h ****   \brief   Set Priority Mask
 476:../../Drivers/CMSIS/Include/cmsis_gcc.h ****   \details Assigns the given value to the Priority Mask Register.
 477:../../Drivers/CMSIS/Include/cmsis_gcc.h ****   \param [in]    priMask  Priority Mask
 478:../../Drivers/CMSIS/Include/cmsis_gcc.h ****  */
 479:../../Drivers/CMSIS/Include/cmsis_gcc.h **** __STATIC_FORCEINLINE void __set_PRIMASK(uint32_t priMask)
 480:../../Drivers/CMSIS/Include/cmsis_gcc.h **** {
 481:../../Drivers/CMSIS/Include/cmsis_gcc.h ****   __ASM volatile ("MSR primask, %0" : : "r" (priMask) : "memory");
 482:../../Drivers/CMSIS/Include/cmsis_gcc.h **** }
 483:../../Drivers/CMSIS/Include/cmsis_gcc.h **** 
 484:../../Drivers/CMSIS/Include/cmsis_gcc.h **** 
 485:../../Drivers/CMSIS/Include/cmsis_gcc.h **** #if (defined (__ARM_FEATURE_CMSE ) && (__ARM_FEATURE_CMSE == 3))
 486:../../Drivers/CMSIS/Include/cmsis_gcc.h **** /**
 487:../../Drivers/CMSIS/Include/cmsis_gcc.h ****   \brief   Set Priority Mask (non-secure)
 488:../../Drivers/CMSIS/Include/cmsis_gcc.h ****   \details Assigns the given value to the non-secure Priority Mask Register when in secure state.
 489:../../Drivers/CMSIS/Include/cmsis_gcc.h ****   \param [in]    priMask  Priority Mask
 490:../../Drivers/CMSIS/Include/cmsis_gcc.h ****  */
 491:../../Drivers/CMSIS/Include/cmsis_gcc.h **** __STATIC_FORCEINLINE void __TZ_set_PRIMASK_NS(uint32_t priMask)
 492:../../Drivers/CMSIS/Include/cmsis_gcc.h **** {
 493:../../Drivers/CMSIS/Include/cmsis_gcc.h ****   __ASM volatile ("MSR primask_ns, %0" : : "r" (priMask) : "memory");
 494:../../Drivers/CMSIS/Include/cmsis_gcc.h **** }
 495:../../Drivers/CMSIS/Include/cmsis_gcc.h **** #endif
 496:../../Drivers/CMSIS/Include/cmsis_gcc.h **** 
 497:../../Drivers/CMSIS/Include/cmsis_gcc.h **** 
 498:../../Drivers/CMSIS/Include/cmsis_gcc.h **** #if ((defined (__ARM_ARCH_7M__      ) && (__ARM_ARCH_7M__      == 1)) || \
 499:../../Drivers/CMSIS/Include/cmsis_gcc.h ****      (defined (__ARM_ARCH_7EM__     ) && (__ARM_ARCH_7EM__     == 1)) || \
 500:../../Drivers/CMSIS/Include/cmsis_gcc.h ****      (defined (__ARM_ARCH_8M_MAIN__ ) && (__ARM_ARCH_8M_MAIN__ == 1))    )
 501:../../Drivers/CMSIS/Include/cmsis_gcc.h **** /**
 502:../../Drivers/CMSIS/Include/cmsis_gcc.h ****   \brief   Enable FIQ
 503:../../Drivers/CMSIS/Include/cmsis_gcc.h ****   \details Enables FIQ interrupts by clearing the F-bit in the CPSR.
 504:../../Drivers/CMSIS/Include/cmsis_gcc.h ****            Can only be executed in Privileged modes.
 505:../../Drivers/CMSIS/Include/cmsis_gcc.h ****  */
 506:../../Drivers/CMSIS/Include/cmsis_gcc.h **** __STATIC_FORCEINLINE void __enable_fault_irq(void)
 507:../../Drivers/CMSIS/Include/cmsis_gcc.h **** {
 508:../../Drivers/CMSIS/Include/cmsis_gcc.h ****   __ASM volatile ("cpsie f" : : : "memory");
 509:../../Drivers/CMSIS/Include/cmsis_gcc.h **** }
 510:../../Drivers/CMSIS/Include/cmsis_gcc.h **** 
 511:../../Drivers/CMSIS/Include/cmsis_gcc.h **** 
 512:../../Drivers/CMSIS/Include/cmsis_gcc.h **** /**
 513:../../Drivers/CMSIS/Include/cmsis_gcc.h ****   \brief   Disable FIQ
 514:../../Drivers/CMSIS/Include/cmsis_gcc.h ****   \details Disables FIQ interrupts by setting the F-bit in the CPSR.
 515:../../Drivers/CMSIS/Include/cmsis_gcc.h ****            Can only be executed in Privileged modes.
 516:../../Drivers/CMSIS/Include/cmsis_gcc.h ****  */
 517:../../Drivers/CMSIS/Include/cmsis_gcc.h **** __STATIC_FORCEINLINE void __disable_fault_irq(void)
 518:../../Drivers/CMSIS/Include/cmsis_gcc.h **** {
ARM GAS  C:\Users\minis\AppData\Local\Temp\cc4dDDks.s 			page 50


 519:../../Drivers/CMSIS/Include/cmsis_gcc.h ****   __ASM volatile ("cpsid f" : : : "memory");
 520:../../Drivers/CMSIS/Include/cmsis_gcc.h **** }
 521:../../Drivers/CMSIS/Include/cmsis_gcc.h **** 
 522:../../Drivers/CMSIS/Include/cmsis_gcc.h **** 
 523:../../Drivers/CMSIS/Include/cmsis_gcc.h **** /**
 524:../../Drivers/CMSIS/Include/cmsis_gcc.h ****   \brief   Get Base Priority
 525:../../Drivers/CMSIS/Include/cmsis_gcc.h ****   \details Returns the current value of the Base Priority register.
 526:../../Drivers/CMSIS/Include/cmsis_gcc.h ****   \return               Base Priority register value
 527:../../Drivers/CMSIS/Include/cmsis_gcc.h ****  */
 528:../../Drivers/CMSIS/Include/cmsis_gcc.h **** __STATIC_FORCEINLINE uint32_t __get_BASEPRI(void)
 529:../../Drivers/CMSIS/Include/cmsis_gcc.h **** {
 530:../../Drivers/CMSIS/Include/cmsis_gcc.h ****   uint32_t result;
 531:../../Drivers/CMSIS/Include/cmsis_gcc.h **** 
 532:../../Drivers/CMSIS/Include/cmsis_gcc.h ****   __ASM volatile ("MRS %0, basepri" : "=r" (result) );
 533:../../Drivers/CMSIS/Include/cmsis_gcc.h ****   return(result);
 534:../../Drivers/CMSIS/Include/cmsis_gcc.h **** }
 535:../../Drivers/CMSIS/Include/cmsis_gcc.h **** 
 536:../../Drivers/CMSIS/Include/cmsis_gcc.h **** 
 537:../../Drivers/CMSIS/Include/cmsis_gcc.h **** #if (defined (__ARM_FEATURE_CMSE ) && (__ARM_FEATURE_CMSE == 3))
 538:../../Drivers/CMSIS/Include/cmsis_gcc.h **** /**
 539:../../Drivers/CMSIS/Include/cmsis_gcc.h ****   \brief   Get Base Priority (non-secure)
 540:../../Drivers/CMSIS/Include/cmsis_gcc.h ****   \details Returns the current value of the non-secure Base Priority register when in secure state.
 541:../../Drivers/CMSIS/Include/cmsis_gcc.h ****   \return               Base Priority register value
 542:../../Drivers/CMSIS/Include/cmsis_gcc.h ****  */
 543:../../Drivers/CMSIS/Include/cmsis_gcc.h **** __STATIC_FORCEINLINE uint32_t __TZ_get_BASEPRI_NS(void)
 544:../../Drivers/CMSIS/Include/cmsis_gcc.h **** {
 545:../../Drivers/CMSIS/Include/cmsis_gcc.h ****   uint32_t result;
 546:../../Drivers/CMSIS/Include/cmsis_gcc.h **** 
 547:../../Drivers/CMSIS/Include/cmsis_gcc.h ****   __ASM volatile ("MRS %0, basepri_ns" : "=r" (result) );
 548:../../Drivers/CMSIS/Include/cmsis_gcc.h ****   return(result);
 549:../../Drivers/CMSIS/Include/cmsis_gcc.h **** }
 550:../../Drivers/CMSIS/Include/cmsis_gcc.h **** #endif
 551:../../Drivers/CMSIS/Include/cmsis_gcc.h **** 
 552:../../Drivers/CMSIS/Include/cmsis_gcc.h **** 
 553:../../Drivers/CMSIS/Include/cmsis_gcc.h **** /**
 554:../../Drivers/CMSIS/Include/cmsis_gcc.h ****   \brief   Set Base Priority
 555:../../Drivers/CMSIS/Include/cmsis_gcc.h ****   \details Assigns the given value to the Base Priority register.
 556:../../Drivers/CMSIS/Include/cmsis_gcc.h ****   \param [in]    basePri  Base Priority value to set
 557:../../Drivers/CMSIS/Include/cmsis_gcc.h ****  */
 558:../../Drivers/CMSIS/Include/cmsis_gcc.h **** __STATIC_FORCEINLINE void __set_BASEPRI(uint32_t basePri)
 559:../../Drivers/CMSIS/Include/cmsis_gcc.h **** {
 560:../../Drivers/CMSIS/Include/cmsis_gcc.h ****   __ASM volatile ("MSR basepri, %0" : : "r" (basePri) : "memory");
 561:../../Drivers/CMSIS/Include/cmsis_gcc.h **** }
 562:../../Drivers/CMSIS/Include/cmsis_gcc.h **** 
 563:../../Drivers/CMSIS/Include/cmsis_gcc.h **** 
 564:../../Drivers/CMSIS/Include/cmsis_gcc.h **** #if (defined (__ARM_FEATURE_CMSE ) && (__ARM_FEATURE_CMSE == 3))
 565:../../Drivers/CMSIS/Include/cmsis_gcc.h **** /**
 566:../../Drivers/CMSIS/Include/cmsis_gcc.h ****   \brief   Set Base Priority (non-secure)
 567:../../Drivers/CMSIS/Include/cmsis_gcc.h ****   \details Assigns the given value to the non-secure Base Priority register when in secure state.
 568:../../Drivers/CMSIS/Include/cmsis_gcc.h ****   \param [in]    basePri  Base Priority value to set
 569:../../Drivers/CMSIS/Include/cmsis_gcc.h ****  */
 570:../../Drivers/CMSIS/Include/cmsis_gcc.h **** __STATIC_FORCEINLINE void __TZ_set_BASEPRI_NS(uint32_t basePri)
 571:../../Drivers/CMSIS/Include/cmsis_gcc.h **** {
 572:../../Drivers/CMSIS/Include/cmsis_gcc.h ****   __ASM volatile ("MSR basepri_ns, %0" : : "r" (basePri) : "memory");
 573:../../Drivers/CMSIS/Include/cmsis_gcc.h **** }
 574:../../Drivers/CMSIS/Include/cmsis_gcc.h **** #endif
 575:../../Drivers/CMSIS/Include/cmsis_gcc.h **** 
ARM GAS  C:\Users\minis\AppData\Local\Temp\cc4dDDks.s 			page 51


 576:../../Drivers/CMSIS/Include/cmsis_gcc.h **** 
 577:../../Drivers/CMSIS/Include/cmsis_gcc.h **** /**
 578:../../Drivers/CMSIS/Include/cmsis_gcc.h ****   \brief   Set Base Priority with condition
 579:../../Drivers/CMSIS/Include/cmsis_gcc.h ****   \details Assigns the given value to the Base Priority register only if BASEPRI masking is disable
 580:../../Drivers/CMSIS/Include/cmsis_gcc.h ****            or the new value increases the BASEPRI priority level.
 581:../../Drivers/CMSIS/Include/cmsis_gcc.h ****   \param [in]    basePri  Base Priority value to set
 582:../../Drivers/CMSIS/Include/cmsis_gcc.h ****  */
 583:../../Drivers/CMSIS/Include/cmsis_gcc.h **** __STATIC_FORCEINLINE void __set_BASEPRI_MAX(uint32_t basePri)
 584:../../Drivers/CMSIS/Include/cmsis_gcc.h **** {
 585:../../Drivers/CMSIS/Include/cmsis_gcc.h ****   __ASM volatile ("MSR basepri_max, %0" : : "r" (basePri) : "memory");
 586:../../Drivers/CMSIS/Include/cmsis_gcc.h **** }
 587:../../Drivers/CMSIS/Include/cmsis_gcc.h **** 
 588:../../Drivers/CMSIS/Include/cmsis_gcc.h **** 
 589:../../Drivers/CMSIS/Include/cmsis_gcc.h **** /**
 590:../../Drivers/CMSIS/Include/cmsis_gcc.h ****   \brief   Get Fault Mask
 591:../../Drivers/CMSIS/Include/cmsis_gcc.h ****   \details Returns the current value of the Fault Mask register.
 592:../../Drivers/CMSIS/Include/cmsis_gcc.h ****   \return               Fault Mask register value
 593:../../Drivers/CMSIS/Include/cmsis_gcc.h ****  */
 594:../../Drivers/CMSIS/Include/cmsis_gcc.h **** __STATIC_FORCEINLINE uint32_t __get_FAULTMASK(void)
 595:../../Drivers/CMSIS/Include/cmsis_gcc.h **** {
 596:../../Drivers/CMSIS/Include/cmsis_gcc.h ****   uint32_t result;
 597:../../Drivers/CMSIS/Include/cmsis_gcc.h **** 
 598:../../Drivers/CMSIS/Include/cmsis_gcc.h ****   __ASM volatile ("MRS %0, faultmask" : "=r" (result) );
 599:../../Drivers/CMSIS/Include/cmsis_gcc.h ****   return(result);
 600:../../Drivers/CMSIS/Include/cmsis_gcc.h **** }
 601:../../Drivers/CMSIS/Include/cmsis_gcc.h **** 
 602:../../Drivers/CMSIS/Include/cmsis_gcc.h **** 
 603:../../Drivers/CMSIS/Include/cmsis_gcc.h **** #if (defined (__ARM_FEATURE_CMSE ) && (__ARM_FEATURE_CMSE == 3))
 604:../../Drivers/CMSIS/Include/cmsis_gcc.h **** /**
 605:../../Drivers/CMSIS/Include/cmsis_gcc.h ****   \brief   Get Fault Mask (non-secure)
 606:../../Drivers/CMSIS/Include/cmsis_gcc.h ****   \details Returns the current value of the non-secure Fault Mask register when in secure state.
 607:../../Drivers/CMSIS/Include/cmsis_gcc.h ****   \return               Fault Mask register value
 608:../../Drivers/CMSIS/Include/cmsis_gcc.h ****  */
 609:../../Drivers/CMSIS/Include/cmsis_gcc.h **** __STATIC_FORCEINLINE uint32_t __TZ_get_FAULTMASK_NS(void)
 610:../../Drivers/CMSIS/Include/cmsis_gcc.h **** {
 611:../../Drivers/CMSIS/Include/cmsis_gcc.h ****   uint32_t result;
 612:../../Drivers/CMSIS/Include/cmsis_gcc.h **** 
 613:../../Drivers/CMSIS/Include/cmsis_gcc.h ****   __ASM volatile ("MRS %0, faultmask_ns" : "=r" (result) );
 614:../../Drivers/CMSIS/Include/cmsis_gcc.h ****   return(result);
 615:../../Drivers/CMSIS/Include/cmsis_gcc.h **** }
 616:../../Drivers/CMSIS/Include/cmsis_gcc.h **** #endif
 617:../../Drivers/CMSIS/Include/cmsis_gcc.h **** 
 618:../../Drivers/CMSIS/Include/cmsis_gcc.h **** 
 619:../../Drivers/CMSIS/Include/cmsis_gcc.h **** /**
 620:../../Drivers/CMSIS/Include/cmsis_gcc.h ****   \brief   Set Fault Mask
 621:../../Drivers/CMSIS/Include/cmsis_gcc.h ****   \details Assigns the given value to the Fault Mask register.
 622:../../Drivers/CMSIS/Include/cmsis_gcc.h ****   \param [in]    faultMask  Fault Mask value to set
 623:../../Drivers/CMSIS/Include/cmsis_gcc.h ****  */
 624:../../Drivers/CMSIS/Include/cmsis_gcc.h **** __STATIC_FORCEINLINE void __set_FAULTMASK(uint32_t faultMask)
 625:../../Drivers/CMSIS/Include/cmsis_gcc.h **** {
 626:../../Drivers/CMSIS/Include/cmsis_gcc.h ****   __ASM volatile ("MSR faultmask, %0" : : "r" (faultMask) : "memory");
 627:../../Drivers/CMSIS/Include/cmsis_gcc.h **** }
 628:../../Drivers/CMSIS/Include/cmsis_gcc.h **** 
 629:../../Drivers/CMSIS/Include/cmsis_gcc.h **** 
 630:../../Drivers/CMSIS/Include/cmsis_gcc.h **** #if (defined (__ARM_FEATURE_CMSE ) && (__ARM_FEATURE_CMSE == 3))
 631:../../Drivers/CMSIS/Include/cmsis_gcc.h **** /**
 632:../../Drivers/CMSIS/Include/cmsis_gcc.h ****   \brief   Set Fault Mask (non-secure)
ARM GAS  C:\Users\minis\AppData\Local\Temp\cc4dDDks.s 			page 52


 633:../../Drivers/CMSIS/Include/cmsis_gcc.h ****   \details Assigns the given value to the non-secure Fault Mask register when in secure state.
 634:../../Drivers/CMSIS/Include/cmsis_gcc.h ****   \param [in]    faultMask  Fault Mask value to set
 635:../../Drivers/CMSIS/Include/cmsis_gcc.h ****  */
 636:../../Drivers/CMSIS/Include/cmsis_gcc.h **** __STATIC_FORCEINLINE void __TZ_set_FAULTMASK_NS(uint32_t faultMask)
 637:../../Drivers/CMSIS/Include/cmsis_gcc.h **** {
 638:../../Drivers/CMSIS/Include/cmsis_gcc.h ****   __ASM volatile ("MSR faultmask_ns, %0" : : "r" (faultMask) : "memory");
 639:../../Drivers/CMSIS/Include/cmsis_gcc.h **** }
 640:../../Drivers/CMSIS/Include/cmsis_gcc.h **** #endif
 641:../../Drivers/CMSIS/Include/cmsis_gcc.h **** 
 642:../../Drivers/CMSIS/Include/cmsis_gcc.h **** #endif /* ((defined (__ARM_ARCH_7M__      ) && (__ARM_ARCH_7M__      == 1)) || \
 643:../../Drivers/CMSIS/Include/cmsis_gcc.h ****            (defined (__ARM_ARCH_7EM__     ) && (__ARM_ARCH_7EM__     == 1)) || \
 644:../../Drivers/CMSIS/Include/cmsis_gcc.h ****            (defined (__ARM_ARCH_8M_MAIN__ ) && (__ARM_ARCH_8M_MAIN__ == 1))    ) */
 645:../../Drivers/CMSIS/Include/cmsis_gcc.h **** 
 646:../../Drivers/CMSIS/Include/cmsis_gcc.h **** 
 647:../../Drivers/CMSIS/Include/cmsis_gcc.h **** #if ((defined (__ARM_ARCH_8M_MAIN__ ) && (__ARM_ARCH_8M_MAIN__ == 1)) || \
 648:../../Drivers/CMSIS/Include/cmsis_gcc.h ****      (defined (__ARM_ARCH_8M_BASE__ ) && (__ARM_ARCH_8M_BASE__ == 1))    )
 649:../../Drivers/CMSIS/Include/cmsis_gcc.h **** 
 650:../../Drivers/CMSIS/Include/cmsis_gcc.h **** /**
 651:../../Drivers/CMSIS/Include/cmsis_gcc.h ****   \brief   Get Process Stack Pointer Limit
 652:../../Drivers/CMSIS/Include/cmsis_gcc.h ****   Devices without ARMv8-M Main Extensions (i.e. Cortex-M23) lack the non-secure
 653:../../Drivers/CMSIS/Include/cmsis_gcc.h ****   Stack Pointer Limit register hence zero is returned always in non-secure
 654:../../Drivers/CMSIS/Include/cmsis_gcc.h ****   mode.
 655:../../Drivers/CMSIS/Include/cmsis_gcc.h ****   
 656:../../Drivers/CMSIS/Include/cmsis_gcc.h ****   \details Returns the current value of the Process Stack Pointer Limit (PSPLIM).
 657:../../Drivers/CMSIS/Include/cmsis_gcc.h ****   \return               PSPLIM Register value
 658:../../Drivers/CMSIS/Include/cmsis_gcc.h ****  */
 659:../../Drivers/CMSIS/Include/cmsis_gcc.h **** __STATIC_FORCEINLINE uint32_t __get_PSPLIM(void)
 660:../../Drivers/CMSIS/Include/cmsis_gcc.h **** {
 661:../../Drivers/CMSIS/Include/cmsis_gcc.h **** #if (!(defined (__ARM_ARCH_8M_MAIN__ ) && (__ARM_ARCH_8M_MAIN__ == 1)) && \
 662:../../Drivers/CMSIS/Include/cmsis_gcc.h ****     (!defined (__ARM_FEATURE_CMSE) || (__ARM_FEATURE_CMSE < 3)))
 663:../../Drivers/CMSIS/Include/cmsis_gcc.h ****     // without main extensions, the non-secure PSPLIM is RAZ/WI
 664:../../Drivers/CMSIS/Include/cmsis_gcc.h ****   return 0U;
 665:../../Drivers/CMSIS/Include/cmsis_gcc.h **** #else
 666:../../Drivers/CMSIS/Include/cmsis_gcc.h ****   uint32_t result;
 667:../../Drivers/CMSIS/Include/cmsis_gcc.h ****   __ASM volatile ("MRS %0, psplim"  : "=r" (result) );
 668:../../Drivers/CMSIS/Include/cmsis_gcc.h ****   return result;
 669:../../Drivers/CMSIS/Include/cmsis_gcc.h **** #endif
 670:../../Drivers/CMSIS/Include/cmsis_gcc.h **** }
 671:../../Drivers/CMSIS/Include/cmsis_gcc.h **** 
 672:../../Drivers/CMSIS/Include/cmsis_gcc.h **** #if (defined (__ARM_FEATURE_CMSE) && (__ARM_FEATURE_CMSE == 3))
 673:../../Drivers/CMSIS/Include/cmsis_gcc.h **** /**
 674:../../Drivers/CMSIS/Include/cmsis_gcc.h ****   \brief   Get Process Stack Pointer Limit (non-secure)
 675:../../Drivers/CMSIS/Include/cmsis_gcc.h ****   Devices without ARMv8-M Main Extensions (i.e. Cortex-M23) lack the non-secure
 676:../../Drivers/CMSIS/Include/cmsis_gcc.h ****   Stack Pointer Limit register hence zero is returned always.
 677:../../Drivers/CMSIS/Include/cmsis_gcc.h **** 
 678:../../Drivers/CMSIS/Include/cmsis_gcc.h ****   \details Returns the current value of the non-secure Process Stack Pointer Limit (PSPLIM) when in
 679:../../Drivers/CMSIS/Include/cmsis_gcc.h ****   \return               PSPLIM Register value
 680:../../Drivers/CMSIS/Include/cmsis_gcc.h ****  */
 681:../../Drivers/CMSIS/Include/cmsis_gcc.h **** __STATIC_FORCEINLINE uint32_t __TZ_get_PSPLIM_NS(void)
 682:../../Drivers/CMSIS/Include/cmsis_gcc.h **** {
 683:../../Drivers/CMSIS/Include/cmsis_gcc.h **** #if (!(defined (__ARM_ARCH_8M_MAIN__ ) && (__ARM_ARCH_8M_MAIN__ == 1)))
 684:../../Drivers/CMSIS/Include/cmsis_gcc.h ****   // without main extensions, the non-secure PSPLIM is RAZ/WI
 685:../../Drivers/CMSIS/Include/cmsis_gcc.h ****   return 0U;
 686:../../Drivers/CMSIS/Include/cmsis_gcc.h **** #else
 687:../../Drivers/CMSIS/Include/cmsis_gcc.h ****   uint32_t result;
 688:../../Drivers/CMSIS/Include/cmsis_gcc.h ****   __ASM volatile ("MRS %0, psplim_ns"  : "=r" (result) );
 689:../../Drivers/CMSIS/Include/cmsis_gcc.h ****   return result;
ARM GAS  C:\Users\minis\AppData\Local\Temp\cc4dDDks.s 			page 53


 690:../../Drivers/CMSIS/Include/cmsis_gcc.h **** #endif
 691:../../Drivers/CMSIS/Include/cmsis_gcc.h **** }
 692:../../Drivers/CMSIS/Include/cmsis_gcc.h **** #endif
 693:../../Drivers/CMSIS/Include/cmsis_gcc.h **** 
 694:../../Drivers/CMSIS/Include/cmsis_gcc.h **** 
 695:../../Drivers/CMSIS/Include/cmsis_gcc.h **** /**
 696:../../Drivers/CMSIS/Include/cmsis_gcc.h ****   \brief   Set Process Stack Pointer Limit
 697:../../Drivers/CMSIS/Include/cmsis_gcc.h ****   Devices without ARMv8-M Main Extensions (i.e. Cortex-M23) lack the non-secure
 698:../../Drivers/CMSIS/Include/cmsis_gcc.h ****   Stack Pointer Limit register hence the write is silently ignored in non-secure
 699:../../Drivers/CMSIS/Include/cmsis_gcc.h ****   mode.
 700:../../Drivers/CMSIS/Include/cmsis_gcc.h ****   
 701:../../Drivers/CMSIS/Include/cmsis_gcc.h ****   \details Assigns the given value to the Process Stack Pointer Limit (PSPLIM).
 702:../../Drivers/CMSIS/Include/cmsis_gcc.h ****   \param [in]    ProcStackPtrLimit  Process Stack Pointer Limit value to set
 703:../../Drivers/CMSIS/Include/cmsis_gcc.h ****  */
 704:../../Drivers/CMSIS/Include/cmsis_gcc.h **** __STATIC_FORCEINLINE void __set_PSPLIM(uint32_t ProcStackPtrLimit)
 705:../../Drivers/CMSIS/Include/cmsis_gcc.h **** {
 706:../../Drivers/CMSIS/Include/cmsis_gcc.h **** #if (!(defined (__ARM_ARCH_8M_MAIN__ ) && (__ARM_ARCH_8M_MAIN__ == 1)) && \
 707:../../Drivers/CMSIS/Include/cmsis_gcc.h ****     (!defined (__ARM_FEATURE_CMSE) || (__ARM_FEATURE_CMSE < 3)))
 708:../../Drivers/CMSIS/Include/cmsis_gcc.h ****   // without main extensions, the non-secure PSPLIM is RAZ/WI
 709:../../Drivers/CMSIS/Include/cmsis_gcc.h ****   (void)ProcStackPtrLimit;
 710:../../Drivers/CMSIS/Include/cmsis_gcc.h **** #else
 711:../../Drivers/CMSIS/Include/cmsis_gcc.h ****   __ASM volatile ("MSR psplim, %0" : : "r" (ProcStackPtrLimit));
 712:../../Drivers/CMSIS/Include/cmsis_gcc.h **** #endif
 713:../../Drivers/CMSIS/Include/cmsis_gcc.h **** }
 714:../../Drivers/CMSIS/Include/cmsis_gcc.h **** 
 715:../../Drivers/CMSIS/Include/cmsis_gcc.h **** 
 716:../../Drivers/CMSIS/Include/cmsis_gcc.h **** #if (defined (__ARM_FEATURE_CMSE  ) && (__ARM_FEATURE_CMSE   == 3))
 717:../../Drivers/CMSIS/Include/cmsis_gcc.h **** /**
 718:../../Drivers/CMSIS/Include/cmsis_gcc.h ****   \brief   Set Process Stack Pointer (non-secure)
 719:../../Drivers/CMSIS/Include/cmsis_gcc.h ****   Devices without ARMv8-M Main Extensions (i.e. Cortex-M23) lack the non-secure
 720:../../Drivers/CMSIS/Include/cmsis_gcc.h ****   Stack Pointer Limit register hence the write is silently ignored.
 721:../../Drivers/CMSIS/Include/cmsis_gcc.h **** 
 722:../../Drivers/CMSIS/Include/cmsis_gcc.h ****   \details Assigns the given value to the non-secure Process Stack Pointer Limit (PSPLIM) when in s
 723:../../Drivers/CMSIS/Include/cmsis_gcc.h ****   \param [in]    ProcStackPtrLimit  Process Stack Pointer Limit value to set
 724:../../Drivers/CMSIS/Include/cmsis_gcc.h ****  */
 725:../../Drivers/CMSIS/Include/cmsis_gcc.h **** __STATIC_FORCEINLINE void __TZ_set_PSPLIM_NS(uint32_t ProcStackPtrLimit)
 726:../../Drivers/CMSIS/Include/cmsis_gcc.h **** {
 727:../../Drivers/CMSIS/Include/cmsis_gcc.h **** #if (!(defined (__ARM_ARCH_8M_MAIN__ ) && (__ARM_ARCH_8M_MAIN__ == 1)))
 728:../../Drivers/CMSIS/Include/cmsis_gcc.h ****   // without main extensions, the non-secure PSPLIM is RAZ/WI
 729:../../Drivers/CMSIS/Include/cmsis_gcc.h ****   (void)ProcStackPtrLimit;
 730:../../Drivers/CMSIS/Include/cmsis_gcc.h **** #else
 731:../../Drivers/CMSIS/Include/cmsis_gcc.h ****   __ASM volatile ("MSR psplim_ns, %0\n" : : "r" (ProcStackPtrLimit));
 732:../../Drivers/CMSIS/Include/cmsis_gcc.h **** #endif
 733:../../Drivers/CMSIS/Include/cmsis_gcc.h **** }
 734:../../Drivers/CMSIS/Include/cmsis_gcc.h **** #endif
 735:../../Drivers/CMSIS/Include/cmsis_gcc.h **** 
 736:../../Drivers/CMSIS/Include/cmsis_gcc.h **** 
 737:../../Drivers/CMSIS/Include/cmsis_gcc.h **** /**
 738:../../Drivers/CMSIS/Include/cmsis_gcc.h ****   \brief   Get Main Stack Pointer Limit
 739:../../Drivers/CMSIS/Include/cmsis_gcc.h ****   Devices without ARMv8-M Main Extensions (i.e. Cortex-M23) lack the non-secure
 740:../../Drivers/CMSIS/Include/cmsis_gcc.h ****   Stack Pointer Limit register hence zero is returned always in non-secure
 741:../../Drivers/CMSIS/Include/cmsis_gcc.h ****   mode.
 742:../../Drivers/CMSIS/Include/cmsis_gcc.h **** 
 743:../../Drivers/CMSIS/Include/cmsis_gcc.h ****   \details Returns the current value of the Main Stack Pointer Limit (MSPLIM).
 744:../../Drivers/CMSIS/Include/cmsis_gcc.h ****   \return               MSPLIM Register value
 745:../../Drivers/CMSIS/Include/cmsis_gcc.h ****  */
 746:../../Drivers/CMSIS/Include/cmsis_gcc.h **** __STATIC_FORCEINLINE uint32_t __get_MSPLIM(void)
ARM GAS  C:\Users\minis\AppData\Local\Temp\cc4dDDks.s 			page 54


 747:../../Drivers/CMSIS/Include/cmsis_gcc.h **** {
 748:../../Drivers/CMSIS/Include/cmsis_gcc.h **** #if (!(defined (__ARM_ARCH_8M_MAIN__ ) && (__ARM_ARCH_8M_MAIN__ == 1)) && \
 749:../../Drivers/CMSIS/Include/cmsis_gcc.h ****     (!defined (__ARM_FEATURE_CMSE) || (__ARM_FEATURE_CMSE < 3)))
 750:../../Drivers/CMSIS/Include/cmsis_gcc.h ****   // without main extensions, the non-secure MSPLIM is RAZ/WI
 751:../../Drivers/CMSIS/Include/cmsis_gcc.h ****   return 0U;
 752:../../Drivers/CMSIS/Include/cmsis_gcc.h **** #else
 753:../../Drivers/CMSIS/Include/cmsis_gcc.h ****   uint32_t result;
 754:../../Drivers/CMSIS/Include/cmsis_gcc.h ****   __ASM volatile ("MRS %0, msplim" : "=r" (result) );
 755:../../Drivers/CMSIS/Include/cmsis_gcc.h ****   return result;
 756:../../Drivers/CMSIS/Include/cmsis_gcc.h **** #endif
 757:../../Drivers/CMSIS/Include/cmsis_gcc.h **** }
 758:../../Drivers/CMSIS/Include/cmsis_gcc.h **** 
 759:../../Drivers/CMSIS/Include/cmsis_gcc.h **** 
 760:../../Drivers/CMSIS/Include/cmsis_gcc.h **** #if (defined (__ARM_FEATURE_CMSE  ) && (__ARM_FEATURE_CMSE   == 3))
 761:../../Drivers/CMSIS/Include/cmsis_gcc.h **** /**
 762:../../Drivers/CMSIS/Include/cmsis_gcc.h ****   \brief   Get Main Stack Pointer Limit (non-secure)
 763:../../Drivers/CMSIS/Include/cmsis_gcc.h ****   Devices without ARMv8-M Main Extensions (i.e. Cortex-M23) lack the non-secure
 764:../../Drivers/CMSIS/Include/cmsis_gcc.h ****   Stack Pointer Limit register hence zero is returned always.
 765:../../Drivers/CMSIS/Include/cmsis_gcc.h **** 
 766:../../Drivers/CMSIS/Include/cmsis_gcc.h ****   \details Returns the current value of the non-secure Main Stack Pointer Limit(MSPLIM) when in sec
 767:../../Drivers/CMSIS/Include/cmsis_gcc.h ****   \return               MSPLIM Register value
 768:../../Drivers/CMSIS/Include/cmsis_gcc.h ****  */
 769:../../Drivers/CMSIS/Include/cmsis_gcc.h **** __STATIC_FORCEINLINE uint32_t __TZ_get_MSPLIM_NS(void)
 770:../../Drivers/CMSIS/Include/cmsis_gcc.h **** {
 771:../../Drivers/CMSIS/Include/cmsis_gcc.h **** #if (!(defined (__ARM_ARCH_8M_MAIN__ ) && (__ARM_ARCH_8M_MAIN__ == 1)))
 772:../../Drivers/CMSIS/Include/cmsis_gcc.h ****   // without main extensions, the non-secure MSPLIM is RAZ/WI
 773:../../Drivers/CMSIS/Include/cmsis_gcc.h ****   return 0U;
 774:../../Drivers/CMSIS/Include/cmsis_gcc.h **** #else
 775:../../Drivers/CMSIS/Include/cmsis_gcc.h ****   uint32_t result;
 776:../../Drivers/CMSIS/Include/cmsis_gcc.h ****   __ASM volatile ("MRS %0, msplim_ns" : "=r" (result) );
 777:../../Drivers/CMSIS/Include/cmsis_gcc.h ****   return result;
 778:../../Drivers/CMSIS/Include/cmsis_gcc.h **** #endif
 779:../../Drivers/CMSIS/Include/cmsis_gcc.h **** }
 780:../../Drivers/CMSIS/Include/cmsis_gcc.h **** #endif
 781:../../Drivers/CMSIS/Include/cmsis_gcc.h **** 
 782:../../Drivers/CMSIS/Include/cmsis_gcc.h **** 
 783:../../Drivers/CMSIS/Include/cmsis_gcc.h **** /**
 784:../../Drivers/CMSIS/Include/cmsis_gcc.h ****   \brief   Set Main Stack Pointer Limit
 785:../../Drivers/CMSIS/Include/cmsis_gcc.h ****   Devices without ARMv8-M Main Extensions (i.e. Cortex-M23) lack the non-secure
 786:../../Drivers/CMSIS/Include/cmsis_gcc.h ****   Stack Pointer Limit register hence the write is silently ignored in non-secure
 787:../../Drivers/CMSIS/Include/cmsis_gcc.h ****   mode.
 788:../../Drivers/CMSIS/Include/cmsis_gcc.h **** 
 789:../../Drivers/CMSIS/Include/cmsis_gcc.h ****   \details Assigns the given value to the Main Stack Pointer Limit (MSPLIM).
 790:../../Drivers/CMSIS/Include/cmsis_gcc.h ****   \param [in]    MainStackPtrLimit  Main Stack Pointer Limit value to set
 791:../../Drivers/CMSIS/Include/cmsis_gcc.h ****  */
 792:../../Drivers/CMSIS/Include/cmsis_gcc.h **** __STATIC_FORCEINLINE void __set_MSPLIM(uint32_t MainStackPtrLimit)
 793:../../Drivers/CMSIS/Include/cmsis_gcc.h **** {
 794:../../Drivers/CMSIS/Include/cmsis_gcc.h **** #if (!(defined (__ARM_ARCH_8M_MAIN__ ) && (__ARM_ARCH_8M_MAIN__ == 1)) && \
 795:../../Drivers/CMSIS/Include/cmsis_gcc.h ****     (!defined (__ARM_FEATURE_CMSE) || (__ARM_FEATURE_CMSE < 3)))
 796:../../Drivers/CMSIS/Include/cmsis_gcc.h ****   // without main extensions, the non-secure MSPLIM is RAZ/WI
 797:../../Drivers/CMSIS/Include/cmsis_gcc.h ****   (void)MainStackPtrLimit;
 798:../../Drivers/CMSIS/Include/cmsis_gcc.h **** #else
 799:../../Drivers/CMSIS/Include/cmsis_gcc.h ****   __ASM volatile ("MSR msplim, %0" : : "r" (MainStackPtrLimit));
 800:../../Drivers/CMSIS/Include/cmsis_gcc.h **** #endif
 801:../../Drivers/CMSIS/Include/cmsis_gcc.h **** }
 802:../../Drivers/CMSIS/Include/cmsis_gcc.h **** 
 803:../../Drivers/CMSIS/Include/cmsis_gcc.h **** 
ARM GAS  C:\Users\minis\AppData\Local\Temp\cc4dDDks.s 			page 55


 804:../../Drivers/CMSIS/Include/cmsis_gcc.h **** #if (defined (__ARM_FEATURE_CMSE  ) && (__ARM_FEATURE_CMSE   == 3))
 805:../../Drivers/CMSIS/Include/cmsis_gcc.h **** /**
 806:../../Drivers/CMSIS/Include/cmsis_gcc.h ****   \brief   Set Main Stack Pointer Limit (non-secure)
 807:../../Drivers/CMSIS/Include/cmsis_gcc.h ****   Devices without ARMv8-M Main Extensions (i.e. Cortex-M23) lack the non-secure
 808:../../Drivers/CMSIS/Include/cmsis_gcc.h ****   Stack Pointer Limit register hence the write is silently ignored.
 809:../../Drivers/CMSIS/Include/cmsis_gcc.h **** 
 810:../../Drivers/CMSIS/Include/cmsis_gcc.h ****   \details Assigns the given value to the non-secure Main Stack Pointer Limit (MSPLIM) when in secu
 811:../../Drivers/CMSIS/Include/cmsis_gcc.h ****   \param [in]    MainStackPtrLimit  Main Stack Pointer value to set
 812:../../Drivers/CMSIS/Include/cmsis_gcc.h ****  */
 813:../../Drivers/CMSIS/Include/cmsis_gcc.h **** __STATIC_FORCEINLINE void __TZ_set_MSPLIM_NS(uint32_t MainStackPtrLimit)
 814:../../Drivers/CMSIS/Include/cmsis_gcc.h **** {
 815:../../Drivers/CMSIS/Include/cmsis_gcc.h **** #if (!(defined (__ARM_ARCH_8M_MAIN__ ) && (__ARM_ARCH_8M_MAIN__ == 1)))
 816:../../Drivers/CMSIS/Include/cmsis_gcc.h ****   // without main extensions, the non-secure MSPLIM is RAZ/WI
 817:../../Drivers/CMSIS/Include/cmsis_gcc.h ****   (void)MainStackPtrLimit;
 818:../../Drivers/CMSIS/Include/cmsis_gcc.h **** #else
 819:../../Drivers/CMSIS/Include/cmsis_gcc.h ****   __ASM volatile ("MSR msplim_ns, %0" : : "r" (MainStackPtrLimit));
 820:../../Drivers/CMSIS/Include/cmsis_gcc.h **** #endif
 821:../../Drivers/CMSIS/Include/cmsis_gcc.h **** }
 822:../../Drivers/CMSIS/Include/cmsis_gcc.h **** #endif
 823:../../Drivers/CMSIS/Include/cmsis_gcc.h **** 
 824:../../Drivers/CMSIS/Include/cmsis_gcc.h **** #endif /* ((defined (__ARM_ARCH_8M_MAIN__ ) && (__ARM_ARCH_8M_MAIN__ == 1)) || \
 825:../../Drivers/CMSIS/Include/cmsis_gcc.h ****            (defined (__ARM_ARCH_8M_BASE__ ) && (__ARM_ARCH_8M_BASE__ == 1))    ) */
 826:../../Drivers/CMSIS/Include/cmsis_gcc.h **** 
 827:../../Drivers/CMSIS/Include/cmsis_gcc.h **** 
 828:../../Drivers/CMSIS/Include/cmsis_gcc.h **** /**
 829:../../Drivers/CMSIS/Include/cmsis_gcc.h ****   \brief   Get FPSCR
 830:../../Drivers/CMSIS/Include/cmsis_gcc.h ****   \details Returns the current value of the Floating Point Status/Control register.
 831:../../Drivers/CMSIS/Include/cmsis_gcc.h ****   \return               Floating Point Status/Control register value
 832:../../Drivers/CMSIS/Include/cmsis_gcc.h ****  */
 833:../../Drivers/CMSIS/Include/cmsis_gcc.h **** __STATIC_FORCEINLINE uint32_t __get_FPSCR(void)
 834:../../Drivers/CMSIS/Include/cmsis_gcc.h **** {
 835:../../Drivers/CMSIS/Include/cmsis_gcc.h **** #if ((defined (__FPU_PRESENT) && (__FPU_PRESENT == 1U)) && \
 836:../../Drivers/CMSIS/Include/cmsis_gcc.h ****      (defined (__FPU_USED   ) && (__FPU_USED    == 1U))     )
 837:../../Drivers/CMSIS/Include/cmsis_gcc.h **** #if __has_builtin(__builtin_arm_get_fpscr) 
 838:../../Drivers/CMSIS/Include/cmsis_gcc.h **** // Re-enable using built-in when GCC has been fixed
 839:../../Drivers/CMSIS/Include/cmsis_gcc.h **** // || (__GNUC__ > 7) || (__GNUC__ == 7 && __GNUC_MINOR__ >= 2)
 840:../../Drivers/CMSIS/Include/cmsis_gcc.h ****   /* see https://gcc.gnu.org/ml/gcc-patches/2017-04/msg00443.html */
 841:../../Drivers/CMSIS/Include/cmsis_gcc.h ****   return __builtin_arm_get_fpscr();
 842:../../Drivers/CMSIS/Include/cmsis_gcc.h **** #else
 843:../../Drivers/CMSIS/Include/cmsis_gcc.h ****   uint32_t result;
 844:../../Drivers/CMSIS/Include/cmsis_gcc.h **** 
 845:../../Drivers/CMSIS/Include/cmsis_gcc.h ****   __ASM volatile ("VMRS %0, fpscr" : "=r" (result) );
 846:../../Drivers/CMSIS/Include/cmsis_gcc.h ****   return(result);
 847:../../Drivers/CMSIS/Include/cmsis_gcc.h **** #endif
 848:../../Drivers/CMSIS/Include/cmsis_gcc.h **** #else
 849:../../Drivers/CMSIS/Include/cmsis_gcc.h ****   return(0U);
 850:../../Drivers/CMSIS/Include/cmsis_gcc.h **** #endif
 851:../../Drivers/CMSIS/Include/cmsis_gcc.h **** }
 852:../../Drivers/CMSIS/Include/cmsis_gcc.h **** 
 853:../../Drivers/CMSIS/Include/cmsis_gcc.h **** 
 854:../../Drivers/CMSIS/Include/cmsis_gcc.h **** /**
 855:../../Drivers/CMSIS/Include/cmsis_gcc.h ****   \brief   Set FPSCR
 856:../../Drivers/CMSIS/Include/cmsis_gcc.h ****   \details Assigns the given value to the Floating Point Status/Control register.
 857:../../Drivers/CMSIS/Include/cmsis_gcc.h ****   \param [in]    fpscr  Floating Point Status/Control value to set
 858:../../Drivers/CMSIS/Include/cmsis_gcc.h ****  */
 859:../../Drivers/CMSIS/Include/cmsis_gcc.h **** __STATIC_FORCEINLINE void __set_FPSCR(uint32_t fpscr)
 860:../../Drivers/CMSIS/Include/cmsis_gcc.h **** {
ARM GAS  C:\Users\minis\AppData\Local\Temp\cc4dDDks.s 			page 56


 861:../../Drivers/CMSIS/Include/cmsis_gcc.h **** #if ((defined (__FPU_PRESENT) && (__FPU_PRESENT == 1U)) && \
 862:../../Drivers/CMSIS/Include/cmsis_gcc.h ****      (defined (__FPU_USED   ) && (__FPU_USED    == 1U))     )
 863:../../Drivers/CMSIS/Include/cmsis_gcc.h **** #if __has_builtin(__builtin_arm_set_fpscr)
 864:../../Drivers/CMSIS/Include/cmsis_gcc.h **** // Re-enable using built-in when GCC has been fixed
 865:../../Drivers/CMSIS/Include/cmsis_gcc.h **** // || (__GNUC__ > 7) || (__GNUC__ == 7 && __GNUC_MINOR__ >= 2)
 866:../../Drivers/CMSIS/Include/cmsis_gcc.h ****   /* see https://gcc.gnu.org/ml/gcc-patches/2017-04/msg00443.html */
 867:../../Drivers/CMSIS/Include/cmsis_gcc.h ****   __builtin_arm_set_fpscr(fpscr);
 868:../../Drivers/CMSIS/Include/cmsis_gcc.h **** #else
 869:../../Drivers/CMSIS/Include/cmsis_gcc.h ****   __ASM volatile ("VMSR fpscr, %0" : : "r" (fpscr) : "vfpcc", "memory");
 870:../../Drivers/CMSIS/Include/cmsis_gcc.h **** #endif
 871:../../Drivers/CMSIS/Include/cmsis_gcc.h **** #else
 872:../../Drivers/CMSIS/Include/cmsis_gcc.h ****   (void)fpscr;
 873:../../Drivers/CMSIS/Include/cmsis_gcc.h **** #endif
 874:../../Drivers/CMSIS/Include/cmsis_gcc.h **** }
 875:../../Drivers/CMSIS/Include/cmsis_gcc.h **** 
 876:../../Drivers/CMSIS/Include/cmsis_gcc.h **** 
 877:../../Drivers/CMSIS/Include/cmsis_gcc.h **** /*@} end of CMSIS_Core_RegAccFunctions */
 878:../../Drivers/CMSIS/Include/cmsis_gcc.h **** 
 879:../../Drivers/CMSIS/Include/cmsis_gcc.h **** 
 880:../../Drivers/CMSIS/Include/cmsis_gcc.h **** /* ##########################  Core Instruction Access  ######################### */
 881:../../Drivers/CMSIS/Include/cmsis_gcc.h **** /** \defgroup CMSIS_Core_InstructionInterface CMSIS Core Instruction Interface
 882:../../Drivers/CMSIS/Include/cmsis_gcc.h ****   Access to dedicated instructions
 883:../../Drivers/CMSIS/Include/cmsis_gcc.h ****   @{
 884:../../Drivers/CMSIS/Include/cmsis_gcc.h **** */
 885:../../Drivers/CMSIS/Include/cmsis_gcc.h **** 
 886:../../Drivers/CMSIS/Include/cmsis_gcc.h **** /* Define macros for porting to both thumb1 and thumb2.
 887:../../Drivers/CMSIS/Include/cmsis_gcc.h ****  * For thumb1, use low register (r0-r7), specified by constraint "l"
 888:../../Drivers/CMSIS/Include/cmsis_gcc.h ****  * Otherwise, use general registers, specified by constraint "r" */
 889:../../Drivers/CMSIS/Include/cmsis_gcc.h **** #if defined (__thumb__) && !defined (__thumb2__)
 890:../../Drivers/CMSIS/Include/cmsis_gcc.h **** #define __CMSIS_GCC_OUT_REG(r) "=l" (r)
 891:../../Drivers/CMSIS/Include/cmsis_gcc.h **** #define __CMSIS_GCC_RW_REG(r) "+l" (r)
 892:../../Drivers/CMSIS/Include/cmsis_gcc.h **** #define __CMSIS_GCC_USE_REG(r) "l" (r)
 893:../../Drivers/CMSIS/Include/cmsis_gcc.h **** #else
 894:../../Drivers/CMSIS/Include/cmsis_gcc.h **** #define __CMSIS_GCC_OUT_REG(r) "=r" (r)
 895:../../Drivers/CMSIS/Include/cmsis_gcc.h **** #define __CMSIS_GCC_RW_REG(r) "+r" (r)
 896:../../Drivers/CMSIS/Include/cmsis_gcc.h **** #define __CMSIS_GCC_USE_REG(r) "r" (r)
 897:../../Drivers/CMSIS/Include/cmsis_gcc.h **** #endif
 898:../../Drivers/CMSIS/Include/cmsis_gcc.h **** 
 899:../../Drivers/CMSIS/Include/cmsis_gcc.h **** /**
 900:../../Drivers/CMSIS/Include/cmsis_gcc.h ****   \brief   No Operation
 901:../../Drivers/CMSIS/Include/cmsis_gcc.h ****   \details No Operation does nothing. This instruction can be used for code alignment purposes.
 902:../../Drivers/CMSIS/Include/cmsis_gcc.h ****  */
 903:../../Drivers/CMSIS/Include/cmsis_gcc.h **** #define __NOP()                             __ASM volatile ("nop")
 904:../../Drivers/CMSIS/Include/cmsis_gcc.h **** 
 905:../../Drivers/CMSIS/Include/cmsis_gcc.h **** /**
 906:../../Drivers/CMSIS/Include/cmsis_gcc.h ****   \brief   Wait For Interrupt
 907:../../Drivers/CMSIS/Include/cmsis_gcc.h ****   \details Wait For Interrupt is a hint instruction that suspends execution until one of a number o
 908:../../Drivers/CMSIS/Include/cmsis_gcc.h ****  */
 909:../../Drivers/CMSIS/Include/cmsis_gcc.h **** #define __WFI()                             __ASM volatile ("wfi")
 910:../../Drivers/CMSIS/Include/cmsis_gcc.h **** 
 911:../../Drivers/CMSIS/Include/cmsis_gcc.h **** 
 912:../../Drivers/CMSIS/Include/cmsis_gcc.h **** /**
 913:../../Drivers/CMSIS/Include/cmsis_gcc.h ****   \brief   Wait For Event
 914:../../Drivers/CMSIS/Include/cmsis_gcc.h ****   \details Wait For Event is a hint instruction that permits the processor to enter
 915:../../Drivers/CMSIS/Include/cmsis_gcc.h ****            a low-power state until one of a number of events occurs.
 916:../../Drivers/CMSIS/Include/cmsis_gcc.h ****  */
 917:../../Drivers/CMSIS/Include/cmsis_gcc.h **** #define __WFE()                             __ASM volatile ("wfe")
ARM GAS  C:\Users\minis\AppData\Local\Temp\cc4dDDks.s 			page 57


 918:../../Drivers/CMSIS/Include/cmsis_gcc.h **** 
 919:../../Drivers/CMSIS/Include/cmsis_gcc.h **** 
 920:../../Drivers/CMSIS/Include/cmsis_gcc.h **** /**
 921:../../Drivers/CMSIS/Include/cmsis_gcc.h ****   \brief   Send Event
 922:../../Drivers/CMSIS/Include/cmsis_gcc.h ****   \details Send Event is a hint instruction. It causes an event to be signaled to the CPU.
 923:../../Drivers/CMSIS/Include/cmsis_gcc.h ****  */
 924:../../Drivers/CMSIS/Include/cmsis_gcc.h **** #define __SEV()                             __ASM volatile ("sev")
 925:../../Drivers/CMSIS/Include/cmsis_gcc.h **** 
 926:../../Drivers/CMSIS/Include/cmsis_gcc.h **** 
 927:../../Drivers/CMSIS/Include/cmsis_gcc.h **** /**
 928:../../Drivers/CMSIS/Include/cmsis_gcc.h ****   \brief   Instruction Synchronization Barrier
 929:../../Drivers/CMSIS/Include/cmsis_gcc.h ****   \details Instruction Synchronization Barrier flushes the pipeline in the processor,
 930:../../Drivers/CMSIS/Include/cmsis_gcc.h ****            so that all instructions following the ISB are fetched from cache or memory,
 931:../../Drivers/CMSIS/Include/cmsis_gcc.h ****            after the instruction has been completed.
 932:../../Drivers/CMSIS/Include/cmsis_gcc.h ****  */
 933:../../Drivers/CMSIS/Include/cmsis_gcc.h **** __STATIC_FORCEINLINE void __ISB(void)
 934:../../Drivers/CMSIS/Include/cmsis_gcc.h **** {
 935:../../Drivers/CMSIS/Include/cmsis_gcc.h ****   __ASM volatile ("isb 0xF":::"memory");
 936:../../Drivers/CMSIS/Include/cmsis_gcc.h **** }
 937:../../Drivers/CMSIS/Include/cmsis_gcc.h **** 
 938:../../Drivers/CMSIS/Include/cmsis_gcc.h **** 
 939:../../Drivers/CMSIS/Include/cmsis_gcc.h **** /**
 940:../../Drivers/CMSIS/Include/cmsis_gcc.h ****   \brief   Data Synchronization Barrier
 941:../../Drivers/CMSIS/Include/cmsis_gcc.h ****   \details Acts as a special kind of Data Memory Barrier.
 942:../../Drivers/CMSIS/Include/cmsis_gcc.h ****            It completes when all explicit memory accesses before this instruction complete.
 943:../../Drivers/CMSIS/Include/cmsis_gcc.h ****  */
 944:../../Drivers/CMSIS/Include/cmsis_gcc.h **** __STATIC_FORCEINLINE void __DSB(void)
 1450              		.loc 2 944 27 view .LVU459
 1451              	.LBB49:
 945:../../Drivers/CMSIS/Include/cmsis_gcc.h **** {
 946:../../Drivers/CMSIS/Include/cmsis_gcc.h ****   __ASM volatile ("dsb 0xF":::"memory");
 1452              		.loc 2 946 3 view .LVU460
 1453              		.syntax unified
 1454              	@ 946 "../../Drivers/CMSIS/Include/cmsis_gcc.h" 1
 1455 036e BFF34F8F 		dsb 0xF
 1456              	@ 0 "" 2
 1457              		.thumb
 1458              		.syntax unified
 1459              	.LBE49:
 1460              	.LBE48:
 242:../../CM4/Core/Src/main.c ****   HAL_HSEM_Release(HSEM_ID_SENSOR, 0);
 1461              		.loc 1 242 3 view .LVU461
 1462 0372 2846     		mov	r0, r5
 1463 0374 FFF7FEFF 		bl	HAL_HSEM_FastTake
 1464              	.LVL104:
 243:../../CM4/Core/Src/main.c **** 
 1465              		.loc 1 243 3 view .LVU462
 1466 0378 0021     		movs	r1, #0
 1467 037a 2846     		mov	r0, r5
 1468 037c FFF7FEFF 		bl	HAL_HSEM_Release
 1469              	.LVL105:
 1470 0380 0CE0     		b	.L91
 1471              	.LVL106:
 1472              	.L85:
 1473              	.LBB50:
 267:../../CM4/Core/Src/main.c ****       uint32_t es = __HAL_TIM_GET_COUNTER(&htim2);
 1474              		.loc 1 267 5 view .LVU463
ARM GAS  C:\Users\minis\AppData\Local\Temp\cc4dDDks.s 			page 58


 267:../../CM4/Core/Src/main.c ****       uint32_t es = __HAL_TIM_GET_COUNTER(&htim2);
 1475              		.loc 1 267 9 is_stmt 0 view .LVU464
 1476 0382 0121     		movs	r1, #1
 1477 0384 2F48     		ldr	r0, .L101+4
 1478 0386 FFF7FEFF 		bl	HAL_GPIO_ReadPin
 1479              	.LVL107:
 267:../../CM4/Core/Src/main.c ****       uint32_t es = __HAL_TIM_GET_COUNTER(&htim2);
 1480              		.loc 1 267 8 discriminator 1 view .LVU465
 1481 038a 0128     		cmp	r0, #1
 1482 038c 3DD0     		beq	.L98
 1483              	.LVL108:
 1484              	.L87:
 280:../../CM4/Core/Src/main.c ****     SHARED_DATA->data_ready = 1U;
 1485              		.loc 1 280 5 is_stmt 1 view .LVU466
 280:../../CM4/Core/Src/main.c ****     SHARED_DATA->data_ready = 1U;
 1486              		.loc 1 280 30 is_stmt 0 view .LVU467
 1487 038e 4FF06053 		mov	r3, #939524096
 1488 0392 1C60     		str	r4, [r3]
 281:../../CM4/Core/Src/main.c ****     __DSB(); /* Forza la scrittura a raggiungere SRAM4 */
 1489              		.loc 1 281 5 is_stmt 1 view .LVU468
 281:../../CM4/Core/Src/main.c ****     __DSB(); /* Forza la scrittura a raggiungere SRAM4 */
 1490              		.loc 1 281 29 is_stmt 0 view .LVU469
 1491 0394 0122     		movs	r2, #1
 1492 0396 5A60     		str	r2, [r3, #4]
 282:../../CM4/Core/Src/main.c ****   }
 1493              		.loc 1 282 5 is_stmt 1 view .LVU470
 1494              	.LBB51:
 1495              	.LBI51:
 944:../../Drivers/CMSIS/Include/cmsis_gcc.h **** {
 1496              		.loc 2 944 27 view .LVU471
 1497              	.LBB52:
 1498              		.loc 2 946 3 view .LVU472
 1499              		.syntax unified
 1500              	@ 946 "../../Drivers/CMSIS/Include/cmsis_gcc.h" 1
 1501 0398 BFF34F8F 		dsb 0xF
 1502              	@ 0 "" 2
 1503              		.thumb
 1504              		.syntax unified
 1505              	.LBE52:
 1506              	.LBE51:
 1507              	.LBE50:
 245:../../CM4/Core/Src/main.c ****     printf("Misura rilevata: %lu cm\r\n", dist_cm);
 1508              		.loc 1 245 9 view .LVU473
 1509              	.LVL109:
 1510              	.L91:
 245:../../CM4/Core/Src/main.c ****     printf("Misura rilevata: %lu cm\r\n", dist_cm);
 1511              		.loc 1 245 3 view .LVU474
 1512              	.LBB54:
 246:../../CM4/Core/Src/main.c ****     HAL_Delay(500U); /* 500ms pause between updates */
 1513              		.loc 1 246 5 view .LVU475
 1514 039c 2146     		mov	r1, r4
 1515 039e 2B48     		ldr	r0, .L101+12
 1516 03a0 FFF7FEFF 		bl	printf
 1517              	.LVL110:
 247:../../CM4/Core/Src/main.c **** 
 1518              		.loc 1 247 5 view .LVU476
 1519 03a4 4FF4FA70 		mov	r0, #500
ARM GAS  C:\Users\minis\AppData\Local\Temp\cc4dDDks.s 			page 59


 1520 03a8 FFF7FEFF 		bl	HAL_Delay
 1521              	.LVL111:
 250:../../CM4/Core/Src/main.c ****     __HAL_TIM_SET_COUNTER(&htim2, 0);
 1522              		.loc 1 250 5 view .LVU477
 1523 03ac 0022     		movs	r2, #0
 1524 03ae 0221     		movs	r1, #2
 1525 03b0 2448     		ldr	r0, .L101+4
 1526 03b2 FFF7FEFF 		bl	HAL_GPIO_WritePin
 1527              	.LVL112:
 251:../../CM4/Core/Src/main.c ****     while (__HAL_TIM_GET_COUNTER(&htim2) < TRIG_RESET_TIME_US)
 1528              		.loc 1 251 5 view .LVU478
 1529 03b6 224B     		ldr	r3, .L101
 1530 03b8 1A68     		ldr	r2, [r3]
 1531 03ba 0023     		movs	r3, #0
 1532 03bc 5362     		str	r3, [r2, #36]
 252:../../CM4/Core/Src/main.c ****       ;
 1533              		.loc 1 252 5 view .LVU479
 1534              	.L82:
 252:../../CM4/Core/Src/main.c ****       ;
 1535              		.loc 1 252 42 discriminator 1 view .LVU480
 252:../../CM4/Core/Src/main.c ****       ;
 1536              		.loc 1 252 12 is_stmt 0 discriminator 1 view .LVU481
 1537 03be 536A     		ldr	r3, [r2, #36]
 252:../../CM4/Core/Src/main.c ****       ;
 1538              		.loc 1 252 42 discriminator 1 view .LVU482
 1539 03c0 012B     		cmp	r3, #1
 1540 03c2 FCD9     		bls	.L82
 254:../../CM4/Core/Src/main.c ****     __HAL_TIM_SET_COUNTER(&htim2, 0);
 1541              		.loc 1 254 5 is_stmt 1 view .LVU483
 1542 03c4 0122     		movs	r2, #1
 1543 03c6 0221     		movs	r1, #2
 1544 03c8 1E48     		ldr	r0, .L101+4
 1545 03ca FFF7FEFF 		bl	HAL_GPIO_WritePin
 1546              	.LVL113:
 255:../../CM4/Core/Src/main.c ****     while (__HAL_TIM_GET_COUNTER(&htim2) < TRIG_PULSE_TIME_US)
 1547              		.loc 1 255 5 view .LVU484
 1548 03ce 1C4B     		ldr	r3, .L101
 1549 03d0 1A68     		ldr	r2, [r3]
 1550 03d2 0023     		movs	r3, #0
 1551 03d4 5362     		str	r3, [r2, #36]
 256:../../CM4/Core/Src/main.c ****       ;
 1552              		.loc 1 256 5 view .LVU485
 1553              	.L83:
 256:../../CM4/Core/Src/main.c ****       ;
 1554              		.loc 1 256 42 discriminator 1 view .LVU486
 256:../../CM4/Core/Src/main.c ****       ;
 1555              		.loc 1 256 12 is_stmt 0 discriminator 1 view .LVU487
 1556 03d6 536A     		ldr	r3, [r2, #36]
 256:../../CM4/Core/Src/main.c ****       ;
 1557              		.loc 1 256 42 discriminator 1 view .LVU488
 1558 03d8 092B     		cmp	r3, #9
 1559 03da FCD9     		bls	.L83
 258:../../CM4/Core/Src/main.c **** 
 1560              		.loc 1 258 5 is_stmt 1 view .LVU489
 1561 03dc 0022     		movs	r2, #0
 1562 03de 0221     		movs	r1, #2
 1563 03e0 1848     		ldr	r0, .L101+4
ARM GAS  C:\Users\minis\AppData\Local\Temp\cc4dDDks.s 			page 60


 1564 03e2 FFF7FEFF 		bl	HAL_GPIO_WritePin
 1565              	.LVL114:
 260:../../CM4/Core/Src/main.c ****     while (HAL_GPIO_ReadPin(GPIOD, GPIO_PIN_0) == GPIO_PIN_RESET) {
 1566              		.loc 1 260 5 view .LVU490
 260:../../CM4/Core/Src/main.c ****     while (HAL_GPIO_ReadPin(GPIOD, GPIO_PIN_0) == GPIO_PIN_RESET) {
 1567              		.loc 1 260 19 is_stmt 0 view .LVU491
 1568 03e6 164B     		ldr	r3, .L101
 1569 03e8 1B68     		ldr	r3, [r3]
 260:../../CM4/Core/Src/main.c ****     while (HAL_GPIO_ReadPin(GPIOD, GPIO_PIN_0) == GPIO_PIN_RESET) {
 1570              		.loc 1 260 14 view .LVU492
 1571 03ea 5D6A     		ldr	r5, [r3, #36]
 1572              	.LVL115:
 261:../../CM4/Core/Src/main.c ****       if ((uint32_t)(__HAL_TIM_GET_COUNTER(&htim2) - ws) >
 1573              		.loc 1 261 5 is_stmt 1 view .LVU493
 1574              	.L84:
 261:../../CM4/Core/Src/main.c ****       if ((uint32_t)(__HAL_TIM_GET_COUNTER(&htim2) - ws) >
 1575              		.loc 1 261 48 view .LVU494
 261:../../CM4/Core/Src/main.c ****       if ((uint32_t)(__HAL_TIM_GET_COUNTER(&htim2) - ws) >
 1576              		.loc 1 261 12 is_stmt 0 view .LVU495
 1577 03ec 0121     		movs	r1, #1
 1578 03ee 1548     		ldr	r0, .L101+4
 1579 03f0 FFF7FEFF 		bl	HAL_GPIO_ReadPin
 1580              	.LVL116:
 261:../../CM4/Core/Src/main.c ****       if ((uint32_t)(__HAL_TIM_GET_COUNTER(&htim2) - ws) >
 1581              		.loc 1 261 48 discriminator 1 view .LVU496
 1582 03f4 0028     		cmp	r0, #0
 1583 03f6 C4D1     		bne	.L85
 262:../../CM4/Core/Src/main.c ****           ECHO_WAIT_TIMEOUT_US) {
 1584              		.loc 1 262 7 is_stmt 1 view .LVU497
 262:../../CM4/Core/Src/main.c ****           ECHO_WAIT_TIMEOUT_US) {
 1585              		.loc 1 262 22 is_stmt 0 view .LVU498
 1586 03f8 114B     		ldr	r3, .L101
 1587 03fa 1B68     		ldr	r3, [r3]
 1588 03fc 5B6A     		ldr	r3, [r3, #36]
 262:../../CM4/Core/Src/main.c ****           ECHO_WAIT_TIMEOUT_US) {
 1589              		.loc 1 262 52 view .LVU499
 1590 03fe 5B1B     		subs	r3, r3, r5
 262:../../CM4/Core/Src/main.c ****           ECHO_WAIT_TIMEOUT_US) {
 1591              		.loc 1 262 10 view .LVU500
 1592 0400 47F23052 		movw	r2, #30000
 1593 0404 9342     		cmp	r3, r2
 1594 0406 F1D9     		bls	.L84
 1595 0408 BBE7     		b	.L85
 1596              	.L98:
 1597              	.LBB53:
 268:../../CM4/Core/Src/main.c ****       while (HAL_GPIO_ReadPin(GPIOD, GPIO_PIN_0) == GPIO_PIN_SET) {
 1598              		.loc 1 268 7 is_stmt 1 view .LVU501
 268:../../CM4/Core/Src/main.c ****       while (HAL_GPIO_ReadPin(GPIOD, GPIO_PIN_0) == GPIO_PIN_SET) {
 1599              		.loc 1 268 21 is_stmt 0 view .LVU502
 1600 040a 0D4B     		ldr	r3, .L101
 1601 040c 1B68     		ldr	r3, [r3]
 268:../../CM4/Core/Src/main.c ****       while (HAL_GPIO_ReadPin(GPIOD, GPIO_PIN_0) == GPIO_PIN_SET) {
 1602              		.loc 1 268 16 view .LVU503
 1603 040e 5C6A     		ldr	r4, [r3, #36]
 1604              	.LVL117:
 269:../../CM4/Core/Src/main.c ****         if ((uint32_t)(__HAL_TIM_GET_COUNTER(&htim2) - es) >
 1605              		.loc 1 269 7 is_stmt 1 view .LVU504
ARM GAS  C:\Users\minis\AppData\Local\Temp\cc4dDDks.s 			page 61


 1606              	.L88:
 269:../../CM4/Core/Src/main.c ****         if ((uint32_t)(__HAL_TIM_GET_COUNTER(&htim2) - es) >
 1607              		.loc 1 269 50 view .LVU505
 269:../../CM4/Core/Src/main.c ****         if ((uint32_t)(__HAL_TIM_GET_COUNTER(&htim2) - es) >
 1608              		.loc 1 269 14 is_stmt 0 view .LVU506
 1609 0410 0121     		movs	r1, #1
 1610 0412 0C48     		ldr	r0, .L101+4
 1611 0414 FFF7FEFF 		bl	HAL_GPIO_ReadPin
 1612              	.LVL118:
 269:../../CM4/Core/Src/main.c ****         if ((uint32_t)(__HAL_TIM_GET_COUNTER(&htim2) - es) >
 1613              		.loc 1 269 50 discriminator 1 view .LVU507
 1614 0418 0128     		cmp	r0, #1
 1615 041a 07D1     		bne	.L89
 270:../../CM4/Core/Src/main.c ****             ECHO_PULSE_TIMEOUT_US) {
 1616              		.loc 1 270 9 is_stmt 1 view .LVU508
 270:../../CM4/Core/Src/main.c ****             ECHO_PULSE_TIMEOUT_US) {
 1617              		.loc 1 270 24 is_stmt 0 view .LVU509
 1618 041c 084B     		ldr	r3, .L101
 1619 041e 1B68     		ldr	r3, [r3]
 1620 0420 5B6A     		ldr	r3, [r3, #36]
 270:../../CM4/Core/Src/main.c ****             ECHO_PULSE_TIMEOUT_US) {
 1621              		.loc 1 270 54 view .LVU510
 1622 0422 1B1B     		subs	r3, r3, r4
 270:../../CM4/Core/Src/main.c ****             ECHO_PULSE_TIMEOUT_US) {
 1623              		.loc 1 270 12 view .LVU511
 1624 0424 46F29052 		movw	r2, #26000
 1625 0428 9342     		cmp	r3, r2
 1626 042a F1D9     		bls	.L88
 1627              	.L89:
 275:../../CM4/Core/Src/main.c ****       dist_cm = echo_time / 58U;
 1628              		.loc 1 275 7 is_stmt 1 view .LVU512
 275:../../CM4/Core/Src/main.c ****       dist_cm = echo_time / 58U;
 1629              		.loc 1 275 30 is_stmt 0 view .LVU513
 1630 042c 044B     		ldr	r3, .L101
 1631 042e 1B68     		ldr	r3, [r3]
 1632 0430 5B6A     		ldr	r3, [r3, #36]
 275:../../CM4/Core/Src/main.c ****       dist_cm = echo_time / 58U;
 1633              		.loc 1 275 17 view .LVU514
 1634 0432 1C1B     		subs	r4, r3, r4
 1635              	.LVL119:
 276:../../CM4/Core/Src/main.c ****     }
 1636              		.loc 1 276 7 is_stmt 1 view .LVU515
 276:../../CM4/Core/Src/main.c ****     }
 1637              		.loc 1 276 15 is_stmt 0 view .LVU516
 1638 0434 064B     		ldr	r3, .L101+16
 1639 0436 A3FB0434 		umull	r3, r4, r3, r4
 1640              	.LVL120:
 276:../../CM4/Core/Src/main.c ****     }
 1641              		.loc 1 276 15 view .LVU517
 1642 043a 6409     		lsrs	r4, r4, #5
 1643 043c A7E7     		b	.L87
 1644              	.L102:
 1645 043e 00BF     		.align	2
 1646              	.L101:
 1647 0440 00000000 		.word	htim2
 1648 0444 000C0258 		.word	1476529152
 1649 0448 00040258 		.word	1476527104
ARM GAS  C:\Users\minis\AppData\Local\Temp\cc4dDDks.s 			page 62


 1650 044c 00000000 		.word	.LC0
 1651 0450 09CB3D8D 		.word	-1925330167
 1652              	.LBE53:
 1653              	.LBE54:
 1654              		.cfi_endproc
 1655              	.LFE135:
 1657              		.section	.text._write,"ax",%progbits
 1658              		.align	1
 1659              		.global	_write
 1660              		.syntax unified
 1661              		.thumb
 1662              		.thumb_func
 1664              	_write:
 1665              	.LVL121:
 1666              	.LFB141:
 441:../../CM4/Core/Src/main.c ****   }
 442:../../CM4/Core/Src/main.c **** }
 443:../../CM4/Core/Src/main.c **** 
 444:../../CM4/Core/Src/main.c **** int _write(int file, char *ptr, int len) {
 1667              		.loc 1 444 42 is_stmt 1 view -0
 1668              		.cfi_startproc
 1669              		@ args = 0, pretend = 0, frame = 0
 1670              		@ frame_needed = 0, uses_anonymous_args = 0
 1671              		.loc 1 444 42 is_stmt 0 view .LVU519
 1672 0000 10B5     		push	{r4, lr}
 1673              	.LCFI15:
 1674              		.cfi_def_cfa_offset 8
 1675              		.cfi_offset 4, -8
 1676              		.cfi_offset 14, -4
 1677 0002 1446     		mov	r4, r2
 445:../../CM4/Core/Src/main.c ****   /* La funzione HAL_UART_Transmit è un algoritmo bloccante O(n).
 446:../../CM4/Core/Src/main.c ****    * Sospenderà l'esecuzione del core finché l'ultimo bit dell'intero
 447:../../CM4/Core/Src/main.c ****    * buffer non sarà fisicamente uscito dal pin TX.
 448:../../CM4/Core/Src/main.c ****    * Parametri: l'handle della UART, il puntatore ai dati, la lunghezza,
 449:../../CM4/Core/Src/main.c ****    * e un timeout di sicurezza (es. 1000 millisecondi).
 450:../../CM4/Core/Src/main.c ****    */
 451:../../CM4/Core/Src/main.c ****   HAL_UART_Transmit(&huart4, (uint8_t *)ptr, len, 1000);
 1678              		.loc 1 451 3 is_stmt 1 view .LVU520
 1679 0004 4FF47A73 		mov	r3, #1000
 1680 0008 92B2     		uxth	r2, r2
 1681              	.LVL122:
 1682              		.loc 1 451 3 is_stmt 0 view .LVU521
 1683 000a 0248     		ldr	r0, .L105
 1684              	.LVL123:
 1685              		.loc 1 451 3 view .LVU522
 1686 000c FFF7FEFF 		bl	HAL_UART_Transmit
 1687              	.LVL124:
 452:../../CM4/Core/Src/main.c ****   return len;
 1688              		.loc 1 452 3 is_stmt 1 view .LVU523
 453:../../CM4/Core/Src/main.c **** }...
 1689              		.loc 1 453 1 is_stmt 0 view .LVU524
 1690 0010 2046     		mov	r0, r4
 1691 0012 10BD     		pop	{r4, pc}
 1692              	.LVL125:
 1693              	.L106:
 1694              		.loc 1 453 1 view .LVU525
 1695              		.align	2
ARM GAS  C:\Users\minis\AppData\Local\Temp\cc4dDDks.s 			page 63


 1696              	.L105:
 1697 0014 00000000 		.word	huart4
 1698              		.cfi_endproc
 1699              	.LFE141:
 1701              		.global	huart4
 1702              		.section	.bss.huart4,"aw",%nobits
 1703              		.align	2
 1706              	huart4:
 1707 0000 00000000 		.space	148
 1707      00000000 
 1707      00000000 
 1707      00000000 
 1707      00000000 
 1708              		.global	htim2
 1709              		.section	.bss.htim2,"aw",%nobits
 1710              		.align	2
 1713              	htim2:
 1714 0000 00000000 		.space	76
 1714      00000000 
 1714      00000000 
 1714      00000000 
 1714      00000000 
 1715              		.text
 1716              	.Letext0:
 1717              		.file 3 "C:/Program Files (x86)/Arm GNU Toolchain arm-none-eabi/14.3 rel1/arm-none-eabi/include/ma
 1718              		.file 4 "C:/Program Files (x86)/Arm GNU Toolchain arm-none-eabi/14.3 rel1/arm-none-eabi/include/sy
 1719              		.file 5 "../../Drivers/CMSIS/Include/core_cm4.h"
 1720              		.file 6 "../../Drivers/CMSIS/Device/ST/STM32H7xx/Include/stm32h755xx.h"
 1721              		.file 7 "../../Drivers/STM32H7xx_HAL_Driver/Inc/stm32h7xx_hal_def.h"
 1722              		.file 8 "../../Drivers/STM32H7xx_HAL_Driver/Inc/stm32h7xx_hal_rcc.h"
 1723              		.file 9 "../../Drivers/STM32H7xx_HAL_Driver/Inc/stm32h7xx_hal_gpio.h"
 1724              		.file 10 "../../Drivers/STM32H7xx_HAL_Driver/Inc/stm32h7xx_hal_dma.h"
 1725              		.file 11 "../../Drivers/STM32H7xx_HAL_Driver/Inc/stm32h7xx_hal_tim.h"
 1726              		.file 12 "../../Drivers/STM32H7xx_HAL_Driver/Inc/stm32h7xx_hal_uart.h"
 1727              		.file 13 "../../Common/Inc/shared_data.h"
 1728              		.file 14 "../../Drivers/STM32H7xx_HAL_Driver/Inc/stm32h7xx_hal_uart_ex.h"
 1729              		.file 15 "../../Drivers/STM32H7xx_HAL_Driver/Inc/stm32h7xx_hal_tim_ex.h"
 1730              		.file 16 "../../Drivers/STM32H7xx_HAL_Driver/Inc/stm32h7xx_hal_pwr_ex.h"
 1731              		.file 17 "C:/Program Files (x86)/Arm GNU Toolchain arm-none-eabi/14.3 rel1/arm-none-eabi/include/s
 1732              		.file 18 "../../Drivers/STM32H7xx_HAL_Driver/Inc/stm32h7xx_hal_hsem.h"
 1733              		.file 19 "../../Drivers/STM32H7xx_HAL_Driver/Inc/stm32h7xx_hal.h"
 1734              		.file 20 "<built-in>"
ARM GAS  C:\Users\minis\AppData\Local\Temp\cc4dDDks.s 			page 64

