ARM GAS  C:\Users\minis\AppData\Local\Temp\ccmjWota.s 			page 1


   1              		.cpu cortex-m7
   2              		.arch armv7e-m
   3              		.fpu fpv4-sp-d16
   4              		.eabi_attribute 27, 1
   5              		.eabi_attribute 28, 1
   6              		.eabi_attribute 20, 1
   7              		.eabi_attribute 21, 1
   8              		.eabi_attribute 23, 3
   9              		.eabi_attribute 24, 1
  10              		.eabi_attribute 25, 1
  11              		.eabi_attribute 26, 1
  12              		.eabi_attribute 30, 1
  13              		.eabi_attribute 34, 1
  14              		.eabi_attribute 18, 4
  15              		.file	"stm32h7xx_nucleo.c"
  16              		.text
  17              	.Ltext0:
  18              		.cfi_sections	.debug_frame
  19              		.file 1 "../../Drivers/BSP/STM32H7xx_Nucleo/stm32h7xx_nucleo.c"
  20              		.section	.text.COM1_MspInit,"ax",%progbits
  21              		.align	1
  22              		.syntax unified
  23              		.thumb
  24              		.thumb_func
  26              	COM1_MspInit:
  27              	.LVL0:
  28              	.LFB150:
   1:../../Drivers/BSP/STM32H7xx_Nucleo/stm32h7xx_nucleo.c **** /**
   2:../../Drivers/BSP/STM32H7xx_Nucleo/stm32h7xx_nucleo.c ****   ******************************************************************************
   3:../../Drivers/BSP/STM32H7xx_Nucleo/stm32h7xx_nucleo.c ****   * @file    stm32h7xx_nucleo.c
   4:../../Drivers/BSP/STM32H7xx_Nucleo/stm32h7xx_nucleo.c ****   * @author  MCD Application Team
   5:../../Drivers/BSP/STM32H7xx_Nucleo/stm32h7xx_nucleo.c ****   * @brief   This file provides set of firmware functions to manage:
   6:../../Drivers/BSP/STM32H7xx_Nucleo/stm32h7xx_nucleo.c ****   *          - LEDs and push-button available on STM32H7xx-Nucleo Kit
   7:../../Drivers/BSP/STM32H7xx_Nucleo/stm32h7xx_nucleo.c ****   *            from STMicroelectronics
   8:../../Drivers/BSP/STM32H7xx_Nucleo/stm32h7xx_nucleo.c ****   ******************************************************************************
   9:../../Drivers/BSP/STM32H7xx_Nucleo/stm32h7xx_nucleo.c ****   * @attention
  10:../../Drivers/BSP/STM32H7xx_Nucleo/stm32h7xx_nucleo.c ****   *
  11:../../Drivers/BSP/STM32H7xx_Nucleo/stm32h7xx_nucleo.c ****   * Copyright (c) 2018 STMicroelectronics.
  12:../../Drivers/BSP/STM32H7xx_Nucleo/stm32h7xx_nucleo.c ****   * All rights reserved.
  13:../../Drivers/BSP/STM32H7xx_Nucleo/stm32h7xx_nucleo.c ****   *
  14:../../Drivers/BSP/STM32H7xx_Nucleo/stm32h7xx_nucleo.c ****   * This software is licensed under terms that can be found in the LICENSE file
  15:../../Drivers/BSP/STM32H7xx_Nucleo/stm32h7xx_nucleo.c ****   * in the root directory of this software component.
  16:../../Drivers/BSP/STM32H7xx_Nucleo/stm32h7xx_nucleo.c ****   * If no LICENSE file comes with this software, it is provided AS-IS.
  17:../../Drivers/BSP/STM32H7xx_Nucleo/stm32h7xx_nucleo.c ****   *
  18:../../Drivers/BSP/STM32H7xx_Nucleo/stm32h7xx_nucleo.c ****   ******************************************************************************
  19:../../Drivers/BSP/STM32H7xx_Nucleo/stm32h7xx_nucleo.c ****   */
  20:../../Drivers/BSP/STM32H7xx_Nucleo/stm32h7xx_nucleo.c **** 
  21:../../Drivers/BSP/STM32H7xx_Nucleo/stm32h7xx_nucleo.c **** /* Includes ------------------------------------------------------------------*/
  22:../../Drivers/BSP/STM32H7xx_Nucleo/stm32h7xx_nucleo.c **** #include "stm32h7xx_nucleo.h"
  23:../../Drivers/BSP/STM32H7xx_Nucleo/stm32h7xx_nucleo.c **** 
  24:../../Drivers/BSP/STM32H7xx_Nucleo/stm32h7xx_nucleo.c **** /** @addtogroup BSP
  25:../../Drivers/BSP/STM32H7xx_Nucleo/stm32h7xx_nucleo.c ****   * @{
  26:../../Drivers/BSP/STM32H7xx_Nucleo/stm32h7xx_nucleo.c ****   */
  27:../../Drivers/BSP/STM32H7xx_Nucleo/stm32h7xx_nucleo.c **** 
  28:../../Drivers/BSP/STM32H7xx_Nucleo/stm32h7xx_nucleo.c **** /** @addtogroup STM32H7XX_NUCLEO
  29:../../Drivers/BSP/STM32H7xx_Nucleo/stm32h7xx_nucleo.c ****   * @{
  30:../../Drivers/BSP/STM32H7xx_Nucleo/stm32h7xx_nucleo.c ****   */
ARM GAS  C:\Users\minis\AppData\Local\Temp\ccmjWota.s 			page 2


  31:../../Drivers/BSP/STM32H7xx_Nucleo/stm32h7xx_nucleo.c **** 
  32:../../Drivers/BSP/STM32H7xx_Nucleo/stm32h7xx_nucleo.c **** /** @addtogroup STM32H7XX_NUCLEO_LOW_LEVEL
  33:../../Drivers/BSP/STM32H7xx_Nucleo/stm32h7xx_nucleo.c ****   * @brief This file provides set of firmware functions to manage Leds and push-button
  34:../../Drivers/BSP/STM32H7xx_Nucleo/stm32h7xx_nucleo.c ****   *        available on STM32H7xx-Nucleo Kit from STMicroelectronics.
  35:../../Drivers/BSP/STM32H7xx_Nucleo/stm32h7xx_nucleo.c ****   * @{
  36:../../Drivers/BSP/STM32H7xx_Nucleo/stm32h7xx_nucleo.c ****   */
  37:../../Drivers/BSP/STM32H7xx_Nucleo/stm32h7xx_nucleo.c **** 
  38:../../Drivers/BSP/STM32H7xx_Nucleo/stm32h7xx_nucleo.c **** /** @defgroup STM32H7XX_NUCLEO_LOW_LEVEL_Private_Defines LOW LEVEL Private Defines
  39:../../Drivers/BSP/STM32H7xx_Nucleo/stm32h7xx_nucleo.c ****   * @{
  40:../../Drivers/BSP/STM32H7xx_Nucleo/stm32h7xx_nucleo.c ****   */
  41:../../Drivers/BSP/STM32H7xx_Nucleo/stm32h7xx_nucleo.c **** 
  42:../../Drivers/BSP/STM32H7xx_Nucleo/stm32h7xx_nucleo.c **** /**
  43:../../Drivers/BSP/STM32H7xx_Nucleo/stm32h7xx_nucleo.c ****   * @}
  44:../../Drivers/BSP/STM32H7xx_Nucleo/stm32h7xx_nucleo.c ****   */
  45:../../Drivers/BSP/STM32H7xx_Nucleo/stm32h7xx_nucleo.c **** 
  46:../../Drivers/BSP/STM32H7xx_Nucleo/stm32h7xx_nucleo.c **** /** @defgroup STM32H7XX_NUCLEO_LOW_LEVEL_Private_TypesDefinitions LOW LEVEL Private Typedef
  47:../../Drivers/BSP/STM32H7xx_Nucleo/stm32h7xx_nucleo.c ****   * @{
  48:../../Drivers/BSP/STM32H7xx_Nucleo/stm32h7xx_nucleo.c ****   */
  49:../../Drivers/BSP/STM32H7xx_Nucleo/stm32h7xx_nucleo.c **** typedef void (* BSP_EXTI_LineCallback) (void);
  50:../../Drivers/BSP/STM32H7xx_Nucleo/stm32h7xx_nucleo.c **** /**
  51:../../Drivers/BSP/STM32H7xx_Nucleo/stm32h7xx_nucleo.c ****   * @}
  52:../../Drivers/BSP/STM32H7xx_Nucleo/stm32h7xx_nucleo.c ****   */
  53:../../Drivers/BSP/STM32H7xx_Nucleo/stm32h7xx_nucleo.c **** 
  54:../../Drivers/BSP/STM32H7xx_Nucleo/stm32h7xx_nucleo.c **** /** @defgroup STM32H7XX_NUCLEO_LOW_LEVEL_Exported_Variables LOW LEVEL Exported Variables
  55:../../Drivers/BSP/STM32H7xx_Nucleo/stm32h7xx_nucleo.c ****   * @{
  56:../../Drivers/BSP/STM32H7xx_Nucleo/stm32h7xx_nucleo.c ****   */
  57:../../Drivers/BSP/STM32H7xx_Nucleo/stm32h7xx_nucleo.c **** EXTI_HandleTypeDef hpb_exti[BUTTONn];
  58:../../Drivers/BSP/STM32H7xx_Nucleo/stm32h7xx_nucleo.c **** #if (USE_BSP_COM_FEATURE > 0)
  59:../../Drivers/BSP/STM32H7xx_Nucleo/stm32h7xx_nucleo.c **** UART_HandleTypeDef hcom_uart[COMn];
  60:../../Drivers/BSP/STM32H7xx_Nucleo/stm32h7xx_nucleo.c **** USART_TypeDef* COM_USART[COMn]   = {COM1_UART};
  61:../../Drivers/BSP/STM32H7xx_Nucleo/stm32h7xx_nucleo.c **** #endif
  62:../../Drivers/BSP/STM32H7xx_Nucleo/stm32h7xx_nucleo.c **** /**
  63:../../Drivers/BSP/STM32H7xx_Nucleo/stm32h7xx_nucleo.c ****   * @}
  64:../../Drivers/BSP/STM32H7xx_Nucleo/stm32h7xx_nucleo.c ****   */
  65:../../Drivers/BSP/STM32H7xx_Nucleo/stm32h7xx_nucleo.c **** /** @defgroup STM32H7XX_NUCLEO_LOW_LEVEL_Private_Variables LOW LEVEL Private Variables
  66:../../Drivers/BSP/STM32H7xx_Nucleo/stm32h7xx_nucleo.c ****   * @{
  67:../../Drivers/BSP/STM32H7xx_Nucleo/stm32h7xx_nucleo.c ****   */
  68:../../Drivers/BSP/STM32H7xx_Nucleo/stm32h7xx_nucleo.c **** static GPIO_TypeDef* LED_PORT[LEDn] = {LED1_GPIO_PORT,
  69:../../Drivers/BSP/STM32H7xx_Nucleo/stm32h7xx_nucleo.c ****                                        LED2_GPIO_PORT,
  70:../../Drivers/BSP/STM32H7xx_Nucleo/stm32h7xx_nucleo.c ****                                        LED3_GPIO_PORT};
  71:../../Drivers/BSP/STM32H7xx_Nucleo/stm32h7xx_nucleo.c **** 
  72:../../Drivers/BSP/STM32H7xx_Nucleo/stm32h7xx_nucleo.c **** static const uint16_t LED_PIN[LEDn] = {LED1_PIN,
  73:../../Drivers/BSP/STM32H7xx_Nucleo/stm32h7xx_nucleo.c ****                                        LED2_PIN,
  74:../../Drivers/BSP/STM32H7xx_Nucleo/stm32h7xx_nucleo.c ****                                        LED3_PIN};
  75:../../Drivers/BSP/STM32H7xx_Nucleo/stm32h7xx_nucleo.c **** 
  76:../../Drivers/BSP/STM32H7xx_Nucleo/stm32h7xx_nucleo.c **** static GPIO_TypeDef* BUTTON_PORT[BUTTONn] = {BUTTON_USER_GPIO_PORT};
  77:../../Drivers/BSP/STM32H7xx_Nucleo/stm32h7xx_nucleo.c **** static const uint16_t BUTTON_PIN[BUTTONn] = {BUTTON_USER_PIN};
  78:../../Drivers/BSP/STM32H7xx_Nucleo/stm32h7xx_nucleo.c **** static const IRQn_Type BUTTON_IRQn[BUTTONn] = {BUTTON_USER_EXTI_IRQn};
  79:../../Drivers/BSP/STM32H7xx_Nucleo/stm32h7xx_nucleo.c **** 
  80:../../Drivers/BSP/STM32H7xx_Nucleo/stm32h7xx_nucleo.c **** 
  81:../../Drivers/BSP/STM32H7xx_Nucleo/stm32h7xx_nucleo.c **** 
  82:../../Drivers/BSP/STM32H7xx_Nucleo/stm32h7xx_nucleo.c **** #if (USE_BSP_COM_FEATURE > 0)
  83:../../Drivers/BSP/STM32H7xx_Nucleo/stm32h7xx_nucleo.c ****   #if (USE_COM_LOG > 0)
  84:../../Drivers/BSP/STM32H7xx_Nucleo/stm32h7xx_nucleo.c ****      static COM_TypeDef COM_ActiveLogPort = COM1;
  85:../../Drivers/BSP/STM32H7xx_Nucleo/stm32h7xx_nucleo.c ****   #endif
  86:../../Drivers/BSP/STM32H7xx_Nucleo/stm32h7xx_nucleo.c ****   #if (USE_HAL_UART_REGISTER_CALLBACKS == 1)
  87:../../Drivers/BSP/STM32H7xx_Nucleo/stm32h7xx_nucleo.c ****      static uint32_t IsComMspCbValid[COMn] = {0};
ARM GAS  C:\Users\minis\AppData\Local\Temp\ccmjWota.s 			page 3


  88:../../Drivers/BSP/STM32H7xx_Nucleo/stm32h7xx_nucleo.c ****   #endif
  89:../../Drivers/BSP/STM32H7xx_Nucleo/stm32h7xx_nucleo.c **** #endif
  90:../../Drivers/BSP/STM32H7xx_Nucleo/stm32h7xx_nucleo.c **** 
  91:../../Drivers/BSP/STM32H7xx_Nucleo/stm32h7xx_nucleo.c **** /**
  92:../../Drivers/BSP/STM32H7xx_Nucleo/stm32h7xx_nucleo.c ****   * @}
  93:../../Drivers/BSP/STM32H7xx_Nucleo/stm32h7xx_nucleo.c ****   */
  94:../../Drivers/BSP/STM32H7xx_Nucleo/stm32h7xx_nucleo.c **** 
  95:../../Drivers/BSP/STM32H7xx_Nucleo/stm32h7xx_nucleo.c **** /** @defgroup STM32H7XX_NUCLEO_LOW_LEVEL_Private_FunctionPrototypes LOW LEVEL Private functions Pro
  96:../../Drivers/BSP/STM32H7xx_Nucleo/stm32h7xx_nucleo.c ****   * @{
  97:../../Drivers/BSP/STM32H7xx_Nucleo/stm32h7xx_nucleo.c ****   */
  98:../../Drivers/BSP/STM32H7xx_Nucleo/stm32h7xx_nucleo.c **** static void BUTTON_USER_EXTI_Callback(void);
  99:../../Drivers/BSP/STM32H7xx_Nucleo/stm32h7xx_nucleo.c **** #if (USE_BSP_COM_FEATURE > 0)
 100:../../Drivers/BSP/STM32H7xx_Nucleo/stm32h7xx_nucleo.c **** static void COM1_MspInit(UART_HandleTypeDef *huart);
 101:../../Drivers/BSP/STM32H7xx_Nucleo/stm32h7xx_nucleo.c **** static void COM1_MspDeInit(UART_HandleTypeDef *huart);
 102:../../Drivers/BSP/STM32H7xx_Nucleo/stm32h7xx_nucleo.c **** #endif
 103:../../Drivers/BSP/STM32H7xx_Nucleo/stm32h7xx_nucleo.c **** /**
 104:../../Drivers/BSP/STM32H7xx_Nucleo/stm32h7xx_nucleo.c ****   * @}
 105:../../Drivers/BSP/STM32H7xx_Nucleo/stm32h7xx_nucleo.c ****   */
 106:../../Drivers/BSP/STM32H7xx_Nucleo/stm32h7xx_nucleo.c **** 
 107:../../Drivers/BSP/STM32H7xx_Nucleo/stm32h7xx_nucleo.c **** /** @defgroup STM32H7XX_NUCLEO_LOW_LEVEL_Exported_Functions LOW LEVEL Exported Functions
 108:../../Drivers/BSP/STM32H7xx_Nucleo/stm32h7xx_nucleo.c ****   * @{
 109:../../Drivers/BSP/STM32H7xx_Nucleo/stm32h7xx_nucleo.c ****   */
 110:../../Drivers/BSP/STM32H7xx_Nucleo/stm32h7xx_nucleo.c **** 
 111:../../Drivers/BSP/STM32H7xx_Nucleo/stm32h7xx_nucleo.c **** /**
 112:../../Drivers/BSP/STM32H7xx_Nucleo/stm32h7xx_nucleo.c ****   * @brief  This method returns the STM32H7XX NUCLEO BSP Driver revision
 113:../../Drivers/BSP/STM32H7xx_Nucleo/stm32h7xx_nucleo.c ****   * @retval version: 0xXYZR (8bits for each decimal, R for RC)
 114:../../Drivers/BSP/STM32H7xx_Nucleo/stm32h7xx_nucleo.c ****   */
 115:../../Drivers/BSP/STM32H7xx_Nucleo/stm32h7xx_nucleo.c **** int32_t BSP_GetVersion(void)
 116:../../Drivers/BSP/STM32H7xx_Nucleo/stm32h7xx_nucleo.c **** {
 117:../../Drivers/BSP/STM32H7xx_Nucleo/stm32h7xx_nucleo.c ****   return (int32_t)STM32H7XX_NUCLEO_BSP_VERSION;
 118:../../Drivers/BSP/STM32H7xx_Nucleo/stm32h7xx_nucleo.c **** }
 119:../../Drivers/BSP/STM32H7xx_Nucleo/stm32h7xx_nucleo.c **** 
 120:../../Drivers/BSP/STM32H7xx_Nucleo/stm32h7xx_nucleo.c **** /**
 121:../../Drivers/BSP/STM32H7xx_Nucleo/stm32h7xx_nucleo.c ****   * @brief  Configures LED GPIO.
 122:../../Drivers/BSP/STM32H7xx_Nucleo/stm32h7xx_nucleo.c ****   * @param  Led Specifies the Led to be configured.
 123:../../Drivers/BSP/STM32H7xx_Nucleo/stm32h7xx_nucleo.c ****   *   This parameter can be one of following parameters:
 124:../../Drivers/BSP/STM32H7xx_Nucleo/stm32h7xx_nucleo.c ****   *     @arg  LED1
 125:../../Drivers/BSP/STM32H7xx_Nucleo/stm32h7xx_nucleo.c ****   *     @arg  LED2
 126:../../Drivers/BSP/STM32H7xx_Nucleo/stm32h7xx_nucleo.c ****   *     @arg  LED3
 127:../../Drivers/BSP/STM32H7xx_Nucleo/stm32h7xx_nucleo.c ****   * @retval BSP status
 128:../../Drivers/BSP/STM32H7xx_Nucleo/stm32h7xx_nucleo.c ****   */
 129:../../Drivers/BSP/STM32H7xx_Nucleo/stm32h7xx_nucleo.c **** int32_t BSP_LED_Init(Led_TypeDef Led)
 130:../../Drivers/BSP/STM32H7xx_Nucleo/stm32h7xx_nucleo.c **** {
 131:../../Drivers/BSP/STM32H7xx_Nucleo/stm32h7xx_nucleo.c ****   int32_t ret = BSP_ERROR_NONE;
 132:../../Drivers/BSP/STM32H7xx_Nucleo/stm32h7xx_nucleo.c ****   GPIO_InitTypeDef  gpio_init_structure;
 133:../../Drivers/BSP/STM32H7xx_Nucleo/stm32h7xx_nucleo.c **** 
 134:../../Drivers/BSP/STM32H7xx_Nucleo/stm32h7xx_nucleo.c ****   if((Led != LED1) && (Led != LED2) && (Led != LED3))
 135:../../Drivers/BSP/STM32H7xx_Nucleo/stm32h7xx_nucleo.c ****   {
 136:../../Drivers/BSP/STM32H7xx_Nucleo/stm32h7xx_nucleo.c ****     ret = BSP_ERROR_WRONG_PARAM;
 137:../../Drivers/BSP/STM32H7xx_Nucleo/stm32h7xx_nucleo.c ****   }
 138:../../Drivers/BSP/STM32H7xx_Nucleo/stm32h7xx_nucleo.c ****   else
 139:../../Drivers/BSP/STM32H7xx_Nucleo/stm32h7xx_nucleo.c ****   {
 140:../../Drivers/BSP/STM32H7xx_Nucleo/stm32h7xx_nucleo.c ****     /* Enable the GPIO LED Clock */
 141:../../Drivers/BSP/STM32H7xx_Nucleo/stm32h7xx_nucleo.c ****     if(Led == LED1)
 142:../../Drivers/BSP/STM32H7xx_Nucleo/stm32h7xx_nucleo.c ****     {
 143:../../Drivers/BSP/STM32H7xx_Nucleo/stm32h7xx_nucleo.c ****       LED1_GPIO_CLK_ENABLE();
 144:../../Drivers/BSP/STM32H7xx_Nucleo/stm32h7xx_nucleo.c ****     }
ARM GAS  C:\Users\minis\AppData\Local\Temp\ccmjWota.s 			page 4


 145:../../Drivers/BSP/STM32H7xx_Nucleo/stm32h7xx_nucleo.c ****     else if(Led == LED2)
 146:../../Drivers/BSP/STM32H7xx_Nucleo/stm32h7xx_nucleo.c ****     {
 147:../../Drivers/BSP/STM32H7xx_Nucleo/stm32h7xx_nucleo.c ****       LED2_GPIO_CLK_ENABLE();
 148:../../Drivers/BSP/STM32H7xx_Nucleo/stm32h7xx_nucleo.c ****     }
 149:../../Drivers/BSP/STM32H7xx_Nucleo/stm32h7xx_nucleo.c ****     else
 150:../../Drivers/BSP/STM32H7xx_Nucleo/stm32h7xx_nucleo.c ****     {
 151:../../Drivers/BSP/STM32H7xx_Nucleo/stm32h7xx_nucleo.c ****       LED3_GPIO_CLK_ENABLE();
 152:../../Drivers/BSP/STM32H7xx_Nucleo/stm32h7xx_nucleo.c ****     }
 153:../../Drivers/BSP/STM32H7xx_Nucleo/stm32h7xx_nucleo.c ****     /* Configure the GPIO_LED pin */
 154:../../Drivers/BSP/STM32H7xx_Nucleo/stm32h7xx_nucleo.c ****     gpio_init_structure.Pin   = LED_PIN[Led];
 155:../../Drivers/BSP/STM32H7xx_Nucleo/stm32h7xx_nucleo.c ****     gpio_init_structure.Mode  = GPIO_MODE_OUTPUT_PP;
 156:../../Drivers/BSP/STM32H7xx_Nucleo/stm32h7xx_nucleo.c ****     gpio_init_structure.Pull  = GPIO_NOPULL;
 157:../../Drivers/BSP/STM32H7xx_Nucleo/stm32h7xx_nucleo.c ****     gpio_init_structure.Speed = GPIO_SPEED_FREQ_VERY_HIGH;
 158:../../Drivers/BSP/STM32H7xx_Nucleo/stm32h7xx_nucleo.c **** 
 159:../../Drivers/BSP/STM32H7xx_Nucleo/stm32h7xx_nucleo.c ****     HAL_GPIO_Init(LED_PORT[Led], &gpio_init_structure);
 160:../../Drivers/BSP/STM32H7xx_Nucleo/stm32h7xx_nucleo.c ****     HAL_GPIO_WritePin(LED_PORT[Led], LED_PIN[Led], GPIO_PIN_RESET);
 161:../../Drivers/BSP/STM32H7xx_Nucleo/stm32h7xx_nucleo.c ****   }
 162:../../Drivers/BSP/STM32H7xx_Nucleo/stm32h7xx_nucleo.c **** 
 163:../../Drivers/BSP/STM32H7xx_Nucleo/stm32h7xx_nucleo.c ****   return ret;
 164:../../Drivers/BSP/STM32H7xx_Nucleo/stm32h7xx_nucleo.c **** }
 165:../../Drivers/BSP/STM32H7xx_Nucleo/stm32h7xx_nucleo.c **** 
 166:../../Drivers/BSP/STM32H7xx_Nucleo/stm32h7xx_nucleo.c **** /**
 167:../../Drivers/BSP/STM32H7xx_Nucleo/stm32h7xx_nucleo.c ****   * @brief  DeInit LEDs.
 168:../../Drivers/BSP/STM32H7xx_Nucleo/stm32h7xx_nucleo.c ****   * @param  Led LED to be de-init.
 169:../../Drivers/BSP/STM32H7xx_Nucleo/stm32h7xx_nucleo.c ****   *   This parameter can be one of the following values:
 170:../../Drivers/BSP/STM32H7xx_Nucleo/stm32h7xx_nucleo.c ****   *     @arg  LED1
 171:../../Drivers/BSP/STM32H7xx_Nucleo/stm32h7xx_nucleo.c ****   *     @arg  LED2
 172:../../Drivers/BSP/STM32H7xx_Nucleo/stm32h7xx_nucleo.c ****   *     @arg  LED3
 173:../../Drivers/BSP/STM32H7xx_Nucleo/stm32h7xx_nucleo.c ****   * @note Led DeInit does not disable the GPIO clock nor disable the Mfx
 174:../../Drivers/BSP/STM32H7xx_Nucleo/stm32h7xx_nucleo.c ****   * @retval BSP status
 175:../../Drivers/BSP/STM32H7xx_Nucleo/stm32h7xx_nucleo.c ****   */
 176:../../Drivers/BSP/STM32H7xx_Nucleo/stm32h7xx_nucleo.c **** int32_t BSP_LED_DeInit(Led_TypeDef Led)
 177:../../Drivers/BSP/STM32H7xx_Nucleo/stm32h7xx_nucleo.c **** {
 178:../../Drivers/BSP/STM32H7xx_Nucleo/stm32h7xx_nucleo.c ****   int32_t ret = BSP_ERROR_NONE;
 179:../../Drivers/BSP/STM32H7xx_Nucleo/stm32h7xx_nucleo.c ****   GPIO_InitTypeDef  gpio_init_structure;
 180:../../Drivers/BSP/STM32H7xx_Nucleo/stm32h7xx_nucleo.c **** 
 181:../../Drivers/BSP/STM32H7xx_Nucleo/stm32h7xx_nucleo.c ****   if((Led != LED1) && (Led != LED2) && (Led != LED3))
 182:../../Drivers/BSP/STM32H7xx_Nucleo/stm32h7xx_nucleo.c ****   {
 183:../../Drivers/BSP/STM32H7xx_Nucleo/stm32h7xx_nucleo.c ****     ret = BSP_ERROR_WRONG_PARAM;
 184:../../Drivers/BSP/STM32H7xx_Nucleo/stm32h7xx_nucleo.c ****   }
 185:../../Drivers/BSP/STM32H7xx_Nucleo/stm32h7xx_nucleo.c ****   else
 186:../../Drivers/BSP/STM32H7xx_Nucleo/stm32h7xx_nucleo.c ****   {
 187:../../Drivers/BSP/STM32H7xx_Nucleo/stm32h7xx_nucleo.c ****     /* Turn off LED */
 188:../../Drivers/BSP/STM32H7xx_Nucleo/stm32h7xx_nucleo.c ****     HAL_GPIO_WritePin(LED_PORT[Led], LED_PIN[Led], GPIO_PIN_RESET);
 189:../../Drivers/BSP/STM32H7xx_Nucleo/stm32h7xx_nucleo.c ****     /* DeInit the GPIO_LED pin */
 190:../../Drivers/BSP/STM32H7xx_Nucleo/stm32h7xx_nucleo.c ****     gpio_init_structure.Pin = LED_PIN[Led];
 191:../../Drivers/BSP/STM32H7xx_Nucleo/stm32h7xx_nucleo.c ****     HAL_GPIO_DeInit(LED_PORT[Led], gpio_init_structure.Pin);
 192:../../Drivers/BSP/STM32H7xx_Nucleo/stm32h7xx_nucleo.c ****   }
 193:../../Drivers/BSP/STM32H7xx_Nucleo/stm32h7xx_nucleo.c **** 
 194:../../Drivers/BSP/STM32H7xx_Nucleo/stm32h7xx_nucleo.c ****   return ret;
 195:../../Drivers/BSP/STM32H7xx_Nucleo/stm32h7xx_nucleo.c **** }
 196:../../Drivers/BSP/STM32H7xx_Nucleo/stm32h7xx_nucleo.c **** 
 197:../../Drivers/BSP/STM32H7xx_Nucleo/stm32h7xx_nucleo.c **** /**
 198:../../Drivers/BSP/STM32H7xx_Nucleo/stm32h7xx_nucleo.c ****   * @brief  Turns selected LED On.
 199:../../Drivers/BSP/STM32H7xx_Nucleo/stm32h7xx_nucleo.c ****   * @param  Led Specifies the Led to be set on.
 200:../../Drivers/BSP/STM32H7xx_Nucleo/stm32h7xx_nucleo.c ****   *   This parameter can be one of following parameters:
 201:../../Drivers/BSP/STM32H7xx_Nucleo/stm32h7xx_nucleo.c ****   *     @arg  LED1
ARM GAS  C:\Users\minis\AppData\Local\Temp\ccmjWota.s 			page 5


 202:../../Drivers/BSP/STM32H7xx_Nucleo/stm32h7xx_nucleo.c ****   *     @arg  LED2
 203:../../Drivers/BSP/STM32H7xx_Nucleo/stm32h7xx_nucleo.c ****   *     @arg  LED3
 204:../../Drivers/BSP/STM32H7xx_Nucleo/stm32h7xx_nucleo.c ****   * @retval BSP status
 205:../../Drivers/BSP/STM32H7xx_Nucleo/stm32h7xx_nucleo.c ****   */
 206:../../Drivers/BSP/STM32H7xx_Nucleo/stm32h7xx_nucleo.c **** int32_t BSP_LED_On(Led_TypeDef Led)
 207:../../Drivers/BSP/STM32H7xx_Nucleo/stm32h7xx_nucleo.c **** {
 208:../../Drivers/BSP/STM32H7xx_Nucleo/stm32h7xx_nucleo.c ****   int32_t ret = BSP_ERROR_NONE;
 209:../../Drivers/BSP/STM32H7xx_Nucleo/stm32h7xx_nucleo.c **** 
 210:../../Drivers/BSP/STM32H7xx_Nucleo/stm32h7xx_nucleo.c ****   if((Led != LED1) && (Led != LED2) && (Led != LED3))
 211:../../Drivers/BSP/STM32H7xx_Nucleo/stm32h7xx_nucleo.c ****   {
 212:../../Drivers/BSP/STM32H7xx_Nucleo/stm32h7xx_nucleo.c ****     ret = BSP_ERROR_WRONG_PARAM;
 213:../../Drivers/BSP/STM32H7xx_Nucleo/stm32h7xx_nucleo.c ****   }
 214:../../Drivers/BSP/STM32H7xx_Nucleo/stm32h7xx_nucleo.c ****   else
 215:../../Drivers/BSP/STM32H7xx_Nucleo/stm32h7xx_nucleo.c ****   {
 216:../../Drivers/BSP/STM32H7xx_Nucleo/stm32h7xx_nucleo.c ****     HAL_GPIO_WritePin(LED_PORT[Led], LED_PIN[Led], GPIO_PIN_SET);
 217:../../Drivers/BSP/STM32H7xx_Nucleo/stm32h7xx_nucleo.c ****   }
 218:../../Drivers/BSP/STM32H7xx_Nucleo/stm32h7xx_nucleo.c **** 
 219:../../Drivers/BSP/STM32H7xx_Nucleo/stm32h7xx_nucleo.c ****   return ret;
 220:../../Drivers/BSP/STM32H7xx_Nucleo/stm32h7xx_nucleo.c **** }
 221:../../Drivers/BSP/STM32H7xx_Nucleo/stm32h7xx_nucleo.c **** 
 222:../../Drivers/BSP/STM32H7xx_Nucleo/stm32h7xx_nucleo.c **** /**
 223:../../Drivers/BSP/STM32H7xx_Nucleo/stm32h7xx_nucleo.c ****   * @brief  Turns selected LED Off.
 224:../../Drivers/BSP/STM32H7xx_Nucleo/stm32h7xx_nucleo.c ****   * @param  Led: Specifies the Led to be set off.
 225:../../Drivers/BSP/STM32H7xx_Nucleo/stm32h7xx_nucleo.c ****   *   This parameter can be one of following parameters:
 226:../../Drivers/BSP/STM32H7xx_Nucleo/stm32h7xx_nucleo.c ****   *     @arg  LED1
 227:../../Drivers/BSP/STM32H7xx_Nucleo/stm32h7xx_nucleo.c ****   *     @arg  LED2
 228:../../Drivers/BSP/STM32H7xx_Nucleo/stm32h7xx_nucleo.c ****   *     @arg  LED3
 229:../../Drivers/BSP/STM32H7xx_Nucleo/stm32h7xx_nucleo.c ****   * @retval BSP status
 230:../../Drivers/BSP/STM32H7xx_Nucleo/stm32h7xx_nucleo.c ****   */
 231:../../Drivers/BSP/STM32H7xx_Nucleo/stm32h7xx_nucleo.c **** int32_t BSP_LED_Off(Led_TypeDef Led)
 232:../../Drivers/BSP/STM32H7xx_Nucleo/stm32h7xx_nucleo.c **** {
 233:../../Drivers/BSP/STM32H7xx_Nucleo/stm32h7xx_nucleo.c ****   int32_t ret = BSP_ERROR_NONE;
 234:../../Drivers/BSP/STM32H7xx_Nucleo/stm32h7xx_nucleo.c **** 
 235:../../Drivers/BSP/STM32H7xx_Nucleo/stm32h7xx_nucleo.c ****   if((Led != LED1) && (Led != LED2) && (Led != LED3))
 236:../../Drivers/BSP/STM32H7xx_Nucleo/stm32h7xx_nucleo.c ****   {
 237:../../Drivers/BSP/STM32H7xx_Nucleo/stm32h7xx_nucleo.c ****     ret = BSP_ERROR_WRONG_PARAM;
 238:../../Drivers/BSP/STM32H7xx_Nucleo/stm32h7xx_nucleo.c ****   }
 239:../../Drivers/BSP/STM32H7xx_Nucleo/stm32h7xx_nucleo.c ****   else
 240:../../Drivers/BSP/STM32H7xx_Nucleo/stm32h7xx_nucleo.c ****   {
 241:../../Drivers/BSP/STM32H7xx_Nucleo/stm32h7xx_nucleo.c ****     HAL_GPIO_WritePin(LED_PORT[Led], LED_PIN[Led], GPIO_PIN_RESET);
 242:../../Drivers/BSP/STM32H7xx_Nucleo/stm32h7xx_nucleo.c ****   }
 243:../../Drivers/BSP/STM32H7xx_Nucleo/stm32h7xx_nucleo.c **** 
 244:../../Drivers/BSP/STM32H7xx_Nucleo/stm32h7xx_nucleo.c ****   return ret;
 245:../../Drivers/BSP/STM32H7xx_Nucleo/stm32h7xx_nucleo.c **** }
 246:../../Drivers/BSP/STM32H7xx_Nucleo/stm32h7xx_nucleo.c **** 
 247:../../Drivers/BSP/STM32H7xx_Nucleo/stm32h7xx_nucleo.c **** /**
 248:../../Drivers/BSP/STM32H7xx_Nucleo/stm32h7xx_nucleo.c ****   * @brief  Toggles the selected LED.
 249:../../Drivers/BSP/STM32H7xx_Nucleo/stm32h7xx_nucleo.c ****   * @param  Led Specifies the Led to be toggled.
 250:../../Drivers/BSP/STM32H7xx_Nucleo/stm32h7xx_nucleo.c ****   *   This parameter can be one of following parameters:
 251:../../Drivers/BSP/STM32H7xx_Nucleo/stm32h7xx_nucleo.c ****   *     @arg  LED1
 252:../../Drivers/BSP/STM32H7xx_Nucleo/stm32h7xx_nucleo.c ****   *     @arg  LED2
 253:../../Drivers/BSP/STM32H7xx_Nucleo/stm32h7xx_nucleo.c ****   *     @arg  LED3
 254:../../Drivers/BSP/STM32H7xx_Nucleo/stm32h7xx_nucleo.c ****   * @retval BSP status
 255:../../Drivers/BSP/STM32H7xx_Nucleo/stm32h7xx_nucleo.c ****   */
 256:../../Drivers/BSP/STM32H7xx_Nucleo/stm32h7xx_nucleo.c **** int32_t BSP_LED_Toggle(Led_TypeDef Led)
 257:../../Drivers/BSP/STM32H7xx_Nucleo/stm32h7xx_nucleo.c **** {
 258:../../Drivers/BSP/STM32H7xx_Nucleo/stm32h7xx_nucleo.c ****   int32_t ret = BSP_ERROR_NONE;
ARM GAS  C:\Users\minis\AppData\Local\Temp\ccmjWota.s 			page 6


 259:../../Drivers/BSP/STM32H7xx_Nucleo/stm32h7xx_nucleo.c **** 
 260:../../Drivers/BSP/STM32H7xx_Nucleo/stm32h7xx_nucleo.c ****   if((Led != LED1) && (Led != LED2) && (Led != LED3))
 261:../../Drivers/BSP/STM32H7xx_Nucleo/stm32h7xx_nucleo.c ****   {
 262:../../Drivers/BSP/STM32H7xx_Nucleo/stm32h7xx_nucleo.c ****     ret = BSP_ERROR_WRONG_PARAM;
 263:../../Drivers/BSP/STM32H7xx_Nucleo/stm32h7xx_nucleo.c ****   }
 264:../../Drivers/BSP/STM32H7xx_Nucleo/stm32h7xx_nucleo.c ****   else
 265:../../Drivers/BSP/STM32H7xx_Nucleo/stm32h7xx_nucleo.c ****   {
 266:../../Drivers/BSP/STM32H7xx_Nucleo/stm32h7xx_nucleo.c ****     HAL_GPIO_TogglePin(LED_PORT[Led], LED_PIN[Led]);
 267:../../Drivers/BSP/STM32H7xx_Nucleo/stm32h7xx_nucleo.c ****   }
 268:../../Drivers/BSP/STM32H7xx_Nucleo/stm32h7xx_nucleo.c **** 
 269:../../Drivers/BSP/STM32H7xx_Nucleo/stm32h7xx_nucleo.c ****   return ret;
 270:../../Drivers/BSP/STM32H7xx_Nucleo/stm32h7xx_nucleo.c **** }
 271:../../Drivers/BSP/STM32H7xx_Nucleo/stm32h7xx_nucleo.c **** 
 272:../../Drivers/BSP/STM32H7xx_Nucleo/stm32h7xx_nucleo.c **** /**
 273:../../Drivers/BSP/STM32H7xx_Nucleo/stm32h7xx_nucleo.c ****   * @brief  Get the state of the selected LED.
 274:../../Drivers/BSP/STM32H7xx_Nucleo/stm32h7xx_nucleo.c ****   * @param  Led LED to get its state
 275:../../Drivers/BSP/STM32H7xx_Nucleo/stm32h7xx_nucleo.c ****   *   This parameter can be one of following parameters:
 276:../../Drivers/BSP/STM32H7xx_Nucleo/stm32h7xx_nucleo.c ****   *     @arg  LED1
 277:../../Drivers/BSP/STM32H7xx_Nucleo/stm32h7xx_nucleo.c ****   *     @arg  LED2
 278:../../Drivers/BSP/STM32H7xx_Nucleo/stm32h7xx_nucleo.c ****   *     @arg  LED3
 279:../../Drivers/BSP/STM32H7xx_Nucleo/stm32h7xx_nucleo.c ****   * @retval LED status
 280:../../Drivers/BSP/STM32H7xx_Nucleo/stm32h7xx_nucleo.c ****   */
 281:../../Drivers/BSP/STM32H7xx_Nucleo/stm32h7xx_nucleo.c **** int32_t BSP_LED_GetState (Led_TypeDef Led)
 282:../../Drivers/BSP/STM32H7xx_Nucleo/stm32h7xx_nucleo.c **** {
 283:../../Drivers/BSP/STM32H7xx_Nucleo/stm32h7xx_nucleo.c ****   int32_t ret;
 284:../../Drivers/BSP/STM32H7xx_Nucleo/stm32h7xx_nucleo.c **** 
 285:../../Drivers/BSP/STM32H7xx_Nucleo/stm32h7xx_nucleo.c ****   if((Led != LED1) && (Led != LED2) && (Led != LED3))
 286:../../Drivers/BSP/STM32H7xx_Nucleo/stm32h7xx_nucleo.c ****   {
 287:../../Drivers/BSP/STM32H7xx_Nucleo/stm32h7xx_nucleo.c ****     ret = BSP_ERROR_WRONG_PARAM;
 288:../../Drivers/BSP/STM32H7xx_Nucleo/stm32h7xx_nucleo.c ****   }
 289:../../Drivers/BSP/STM32H7xx_Nucleo/stm32h7xx_nucleo.c ****   else
 290:../../Drivers/BSP/STM32H7xx_Nucleo/stm32h7xx_nucleo.c ****   {
 291:../../Drivers/BSP/STM32H7xx_Nucleo/stm32h7xx_nucleo.c ****     ret = (int32_t)HAL_GPIO_ReadPin (LED_PORT [Led], LED_PIN [Led]);
 292:../../Drivers/BSP/STM32H7xx_Nucleo/stm32h7xx_nucleo.c ****   }
 293:../../Drivers/BSP/STM32H7xx_Nucleo/stm32h7xx_nucleo.c **** 
 294:../../Drivers/BSP/STM32H7xx_Nucleo/stm32h7xx_nucleo.c ****   return ret;
 295:../../Drivers/BSP/STM32H7xx_Nucleo/stm32h7xx_nucleo.c **** }
 296:../../Drivers/BSP/STM32H7xx_Nucleo/stm32h7xx_nucleo.c **** 
 297:../../Drivers/BSP/STM32H7xx_Nucleo/stm32h7xx_nucleo.c **** /**
 298:../../Drivers/BSP/STM32H7xx_Nucleo/stm32h7xx_nucleo.c ****   * @brief  Configures button GPIO and EXTI Line.
 299:../../Drivers/BSP/STM32H7xx_Nucleo/stm32h7xx_nucleo.c ****   * @param  Button Button to be configured
 300:../../Drivers/BSP/STM32H7xx_Nucleo/stm32h7xx_nucleo.c ****   *          This parameter can be one of the following values:
 301:../../Drivers/BSP/STM32H7xx_Nucleo/stm32h7xx_nucleo.c ****   *            @arg  BUTTON_USER: Wakeup Push Button
 302:../../Drivers/BSP/STM32H7xx_Nucleo/stm32h7xx_nucleo.c ****   * @param  ButtonMode Button mode
 303:../../Drivers/BSP/STM32H7xx_Nucleo/stm32h7xx_nucleo.c ****   *          This parameter can be one of the following values:
 304:../../Drivers/BSP/STM32H7xx_Nucleo/stm32h7xx_nucleo.c ****   *            @arg  BUTTON_MODE_GPIO: Button will be used as simple IO
 305:../../Drivers/BSP/STM32H7xx_Nucleo/stm32h7xx_nucleo.c ****   *            @arg  BUTTON_MODE_EXTI: Button will be connected to EXTI line
 306:../../Drivers/BSP/STM32H7xx_Nucleo/stm32h7xx_nucleo.c ****   *                                    with interrupt generation capability
 307:../../Drivers/BSP/STM32H7xx_Nucleo/stm32h7xx_nucleo.c ****   */
 308:../../Drivers/BSP/STM32H7xx_Nucleo/stm32h7xx_nucleo.c **** int32_t BSP_PB_Init(Button_TypeDef Button, ButtonMode_TypeDef ButtonMode)
 309:../../Drivers/BSP/STM32H7xx_Nucleo/stm32h7xx_nucleo.c **** {
 310:../../Drivers/BSP/STM32H7xx_Nucleo/stm32h7xx_nucleo.c ****   GPIO_InitTypeDef gpio_init_structure;
 311:../../Drivers/BSP/STM32H7xx_Nucleo/stm32h7xx_nucleo.c ****   static BSP_EXTI_LineCallback ButtonCallback[BUTTONn] = {BUTTON_USER_EXTI_Callback};
 312:../../Drivers/BSP/STM32H7xx_Nucleo/stm32h7xx_nucleo.c ****   static uint32_t  BSP_BUTTON_PRIO [BUTTONn] = {BSP_BUTTON_USER_IT_PRIORITY};
 313:../../Drivers/BSP/STM32H7xx_Nucleo/stm32h7xx_nucleo.c ****   static const uint32_t BUTTON_EXTI_LINE[BUTTONn] = {BUTTON_USER_EXTI_LINE};
 314:../../Drivers/BSP/STM32H7xx_Nucleo/stm32h7xx_nucleo.c **** 
 315:../../Drivers/BSP/STM32H7xx_Nucleo/stm32h7xx_nucleo.c ****   /* Enable the BUTTON clock */
ARM GAS  C:\Users\minis\AppData\Local\Temp\ccmjWota.s 			page 7


 316:../../Drivers/BSP/STM32H7xx_Nucleo/stm32h7xx_nucleo.c ****   BUTTON_USER_GPIO_CLK_ENABLE();
 317:../../Drivers/BSP/STM32H7xx_Nucleo/stm32h7xx_nucleo.c **** 
 318:../../Drivers/BSP/STM32H7xx_Nucleo/stm32h7xx_nucleo.c ****   gpio_init_structure.Pin = BUTTON_PIN [Button];
 319:../../Drivers/BSP/STM32H7xx_Nucleo/stm32h7xx_nucleo.c ****   gpio_init_structure.Pull = GPIO_PULLDOWN;
 320:../../Drivers/BSP/STM32H7xx_Nucleo/stm32h7xx_nucleo.c ****   gpio_init_structure.Speed = GPIO_SPEED_FREQ_HIGH;
 321:../../Drivers/BSP/STM32H7xx_Nucleo/stm32h7xx_nucleo.c **** 
 322:../../Drivers/BSP/STM32H7xx_Nucleo/stm32h7xx_nucleo.c ****   if(ButtonMode == BUTTON_MODE_GPIO)
 323:../../Drivers/BSP/STM32H7xx_Nucleo/stm32h7xx_nucleo.c ****   {
 324:../../Drivers/BSP/STM32H7xx_Nucleo/stm32h7xx_nucleo.c ****     /* Configure Button pin as input */
 325:../../Drivers/BSP/STM32H7xx_Nucleo/stm32h7xx_nucleo.c ****     gpio_init_structure.Mode = GPIO_MODE_INPUT;
 326:../../Drivers/BSP/STM32H7xx_Nucleo/stm32h7xx_nucleo.c ****     HAL_GPIO_Init(BUTTON_PORT [Button], &gpio_init_structure);
 327:../../Drivers/BSP/STM32H7xx_Nucleo/stm32h7xx_nucleo.c ****   }
 328:../../Drivers/BSP/STM32H7xx_Nucleo/stm32h7xx_nucleo.c ****   else /* (ButtonMode == BUTTON_MODE_EXTI) */
 329:../../Drivers/BSP/STM32H7xx_Nucleo/stm32h7xx_nucleo.c ****   {
 330:../../Drivers/BSP/STM32H7xx_Nucleo/stm32h7xx_nucleo.c ****     /* Configure Button pin as input with External interrupt */
 331:../../Drivers/BSP/STM32H7xx_Nucleo/stm32h7xx_nucleo.c ****     gpio_init_structure.Mode = GPIO_MODE_IT_RISING;
 332:../../Drivers/BSP/STM32H7xx_Nucleo/stm32h7xx_nucleo.c **** 
 333:../../Drivers/BSP/STM32H7xx_Nucleo/stm32h7xx_nucleo.c ****     HAL_GPIO_Init(BUTTON_PORT[Button], &gpio_init_structure);
 334:../../Drivers/BSP/STM32H7xx_Nucleo/stm32h7xx_nucleo.c **** 
 335:../../Drivers/BSP/STM32H7xx_Nucleo/stm32h7xx_nucleo.c ****     (void)HAL_EXTI_GetHandle(&hpb_exti[Button], BUTTON_EXTI_LINE[Button]);
 336:../../Drivers/BSP/STM32H7xx_Nucleo/stm32h7xx_nucleo.c ****     (void)HAL_EXTI_RegisterCallback(&hpb_exti[Button],  HAL_EXTI_COMMON_CB_ID, ButtonCallback[Butto
 337:../../Drivers/BSP/STM32H7xx_Nucleo/stm32h7xx_nucleo.c **** 
 338:../../Drivers/BSP/STM32H7xx_Nucleo/stm32h7xx_nucleo.c ****     /* Enable and set Button EXTI Interrupt to the lowest priority */
 339:../../Drivers/BSP/STM32H7xx_Nucleo/stm32h7xx_nucleo.c ****     HAL_NVIC_SetPriority((BUTTON_IRQn[Button]), BSP_BUTTON_PRIO[Button], 0x00);
 340:../../Drivers/BSP/STM32H7xx_Nucleo/stm32h7xx_nucleo.c ****     HAL_NVIC_EnableIRQ((BUTTON_IRQn[Button]));
 341:../../Drivers/BSP/STM32H7xx_Nucleo/stm32h7xx_nucleo.c ****   }
 342:../../Drivers/BSP/STM32H7xx_Nucleo/stm32h7xx_nucleo.c **** 
 343:../../Drivers/BSP/STM32H7xx_Nucleo/stm32h7xx_nucleo.c ****   return BSP_ERROR_NONE;
 344:../../Drivers/BSP/STM32H7xx_Nucleo/stm32h7xx_nucleo.c **** }
 345:../../Drivers/BSP/STM32H7xx_Nucleo/stm32h7xx_nucleo.c **** 
 346:../../Drivers/BSP/STM32H7xx_Nucleo/stm32h7xx_nucleo.c **** /**
 347:../../Drivers/BSP/STM32H7xx_Nucleo/stm32h7xx_nucleo.c ****   * @brief  Push Button DeInit.
 348:../../Drivers/BSP/STM32H7xx_Nucleo/stm32h7xx_nucleo.c ****   * @param  Button Button to be configured
 349:../../Drivers/BSP/STM32H7xx_Nucleo/stm32h7xx_nucleo.c ****   *          This parameter can be one of the following values:
 350:../../Drivers/BSP/STM32H7xx_Nucleo/stm32h7xx_nucleo.c ****   *            @arg  BUTTON_USER: Wakeup Push Button
 351:../../Drivers/BSP/STM32H7xx_Nucleo/stm32h7xx_nucleo.c ****   * @note PB DeInit does not disable the GPIO clock
 352:../../Drivers/BSP/STM32H7xx_Nucleo/stm32h7xx_nucleo.c ****   */
 353:../../Drivers/BSP/STM32H7xx_Nucleo/stm32h7xx_nucleo.c **** int32_t BSP_PB_DeInit(Button_TypeDef Button)
 354:../../Drivers/BSP/STM32H7xx_Nucleo/stm32h7xx_nucleo.c **** {
 355:../../Drivers/BSP/STM32H7xx_Nucleo/stm32h7xx_nucleo.c ****   GPIO_InitTypeDef gpio_init_structure;
 356:../../Drivers/BSP/STM32H7xx_Nucleo/stm32h7xx_nucleo.c **** 
 357:../../Drivers/BSP/STM32H7xx_Nucleo/stm32h7xx_nucleo.c ****   gpio_init_structure.Pin = BUTTON_PIN[Button];
 358:../../Drivers/BSP/STM32H7xx_Nucleo/stm32h7xx_nucleo.c ****   HAL_NVIC_DisableIRQ((IRQn_Type)(BUTTON_IRQn[Button]));
 359:../../Drivers/BSP/STM32H7xx_Nucleo/stm32h7xx_nucleo.c ****   HAL_GPIO_DeInit(BUTTON_PORT[Button], gpio_init_structure.Pin);
 360:../../Drivers/BSP/STM32H7xx_Nucleo/stm32h7xx_nucleo.c **** 
 361:../../Drivers/BSP/STM32H7xx_Nucleo/stm32h7xx_nucleo.c ****   return BSP_ERROR_NONE;
 362:../../Drivers/BSP/STM32H7xx_Nucleo/stm32h7xx_nucleo.c **** }
 363:../../Drivers/BSP/STM32H7xx_Nucleo/stm32h7xx_nucleo.c **** 
 364:../../Drivers/BSP/STM32H7xx_Nucleo/stm32h7xx_nucleo.c **** /**
 365:../../Drivers/BSP/STM32H7xx_Nucleo/stm32h7xx_nucleo.c ****   * @brief  Returns the selected button state.
 366:../../Drivers/BSP/STM32H7xx_Nucleo/stm32h7xx_nucleo.c ****   * @param  Button Button to be checked
 367:../../Drivers/BSP/STM32H7xx_Nucleo/stm32h7xx_nucleo.c ****   *          This parameter can be one of the following values:
 368:../../Drivers/BSP/STM32H7xx_Nucleo/stm32h7xx_nucleo.c ****   *            @arg  BUTTON_USER: Wakeup Push Button
 369:../../Drivers/BSP/STM32H7xx_Nucleo/stm32h7xx_nucleo.c ****   * @retval The Button GPIO pin value (GPIO_PIN_RESET = button pressed)
 370:../../Drivers/BSP/STM32H7xx_Nucleo/stm32h7xx_nucleo.c ****   */
 371:../../Drivers/BSP/STM32H7xx_Nucleo/stm32h7xx_nucleo.c **** int32_t BSP_PB_GetState(Button_TypeDef Button)
 372:../../Drivers/BSP/STM32H7xx_Nucleo/stm32h7xx_nucleo.c **** {
ARM GAS  C:\Users\minis\AppData\Local\Temp\ccmjWota.s 			page 8


 373:../../Drivers/BSP/STM32H7xx_Nucleo/stm32h7xx_nucleo.c ****   return (int32_t)HAL_GPIO_ReadPin(BUTTON_PORT[Button], BUTTON_PIN[Button]);
 374:../../Drivers/BSP/STM32H7xx_Nucleo/stm32h7xx_nucleo.c **** }
 375:../../Drivers/BSP/STM32H7xx_Nucleo/stm32h7xx_nucleo.c **** 
 376:../../Drivers/BSP/STM32H7xx_Nucleo/stm32h7xx_nucleo.c **** /**
 377:../../Drivers/BSP/STM32H7xx_Nucleo/stm32h7xx_nucleo.c ****   * @brief  BSP Button IRQ handler
 378:../../Drivers/BSP/STM32H7xx_Nucleo/stm32h7xx_nucleo.c ****   * @param  Button Can only be BUTTON_USER
 379:../../Drivers/BSP/STM32H7xx_Nucleo/stm32h7xx_nucleo.c ****   * @retval None
 380:../../Drivers/BSP/STM32H7xx_Nucleo/stm32h7xx_nucleo.c ****   */
 381:../../Drivers/BSP/STM32H7xx_Nucleo/stm32h7xx_nucleo.c **** void BSP_PB_IRQHandler(Button_TypeDef Button)
 382:../../Drivers/BSP/STM32H7xx_Nucleo/stm32h7xx_nucleo.c **** {
 383:../../Drivers/BSP/STM32H7xx_Nucleo/stm32h7xx_nucleo.c ****   HAL_EXTI_IRQHandler(&hpb_exti[Button]);
 384:../../Drivers/BSP/STM32H7xx_Nucleo/stm32h7xx_nucleo.c **** }
 385:../../Drivers/BSP/STM32H7xx_Nucleo/stm32h7xx_nucleo.c **** 
 386:../../Drivers/BSP/STM32H7xx_Nucleo/stm32h7xx_nucleo.c **** /**
 387:../../Drivers/BSP/STM32H7xx_Nucleo/stm32h7xx_nucleo.c ****   * @brief  BSP Push Button callback
 388:../../Drivers/BSP/STM32H7xx_Nucleo/stm32h7xx_nucleo.c ****   * @param  Button Specifies the pin connected EXTI line
 389:../../Drivers/BSP/STM32H7xx_Nucleo/stm32h7xx_nucleo.c ****   * @retval None
 390:../../Drivers/BSP/STM32H7xx_Nucleo/stm32h7xx_nucleo.c ****   */
 391:../../Drivers/BSP/STM32H7xx_Nucleo/stm32h7xx_nucleo.c **** __weak void BSP_PB_Callback(Button_TypeDef Button)
 392:../../Drivers/BSP/STM32H7xx_Nucleo/stm32h7xx_nucleo.c **** {
 393:../../Drivers/BSP/STM32H7xx_Nucleo/stm32h7xx_nucleo.c ****   /* Prevent unused argument(s) compilation warning */
 394:../../Drivers/BSP/STM32H7xx_Nucleo/stm32h7xx_nucleo.c ****   UNUSED(Button);
 395:../../Drivers/BSP/STM32H7xx_Nucleo/stm32h7xx_nucleo.c **** 
 396:../../Drivers/BSP/STM32H7xx_Nucleo/stm32h7xx_nucleo.c ****   /* This function should be implemented by the user application.
 397:../../Drivers/BSP/STM32H7xx_Nucleo/stm32h7xx_nucleo.c ****      It is called into this driver when an event on Button is triggered. */
 398:../../Drivers/BSP/STM32H7xx_Nucleo/stm32h7xx_nucleo.c **** }
 399:../../Drivers/BSP/STM32H7xx_Nucleo/stm32h7xx_nucleo.c **** 
 400:../../Drivers/BSP/STM32H7xx_Nucleo/stm32h7xx_nucleo.c **** #if (USE_BSP_COM_FEATURE > 0)
 401:../../Drivers/BSP/STM32H7xx_Nucleo/stm32h7xx_nucleo.c **** /**
 402:../../Drivers/BSP/STM32H7xx_Nucleo/stm32h7xx_nucleo.c ****   * @brief  Configures COM port.
 403:../../Drivers/BSP/STM32H7xx_Nucleo/stm32h7xx_nucleo.c ****   * @param  COM COM port to be configured.
 404:../../Drivers/BSP/STM32H7xx_Nucleo/stm32h7xx_nucleo.c ****   *          This parameter can be COM1
 405:../../Drivers/BSP/STM32H7xx_Nucleo/stm32h7xx_nucleo.c ****   * @param  COM_Init Pointer to a UART_HandleTypeDef structure that contains the
 406:../../Drivers/BSP/STM32H7xx_Nucleo/stm32h7xx_nucleo.c ****   *                  configuration information for the specified USART peripheral.
 407:../../Drivers/BSP/STM32H7xx_Nucleo/stm32h7xx_nucleo.c ****   * @retval BSP error code
 408:../../Drivers/BSP/STM32H7xx_Nucleo/stm32h7xx_nucleo.c ****   */
 409:../../Drivers/BSP/STM32H7xx_Nucleo/stm32h7xx_nucleo.c **** int32_t BSP_COM_Init(COM_TypeDef COM, COM_InitTypeDef *COM_Init)
 410:../../Drivers/BSP/STM32H7xx_Nucleo/stm32h7xx_nucleo.c **** {
 411:../../Drivers/BSP/STM32H7xx_Nucleo/stm32h7xx_nucleo.c ****   int32_t ret = BSP_ERROR_NONE;
 412:../../Drivers/BSP/STM32H7xx_Nucleo/stm32h7xx_nucleo.c **** 
 413:../../Drivers/BSP/STM32H7xx_Nucleo/stm32h7xx_nucleo.c ****   if(COM >= COMn)
 414:../../Drivers/BSP/STM32H7xx_Nucleo/stm32h7xx_nucleo.c ****   {
 415:../../Drivers/BSP/STM32H7xx_Nucleo/stm32h7xx_nucleo.c ****     ret = BSP_ERROR_WRONG_PARAM;
 416:../../Drivers/BSP/STM32H7xx_Nucleo/stm32h7xx_nucleo.c ****   }
 417:../../Drivers/BSP/STM32H7xx_Nucleo/stm32h7xx_nucleo.c ****   else
 418:../../Drivers/BSP/STM32H7xx_Nucleo/stm32h7xx_nucleo.c ****   {
 419:../../Drivers/BSP/STM32H7xx_Nucleo/stm32h7xx_nucleo.c **** #if (USE_HAL_UART_REGISTER_CALLBACKS == 0)
 420:../../Drivers/BSP/STM32H7xx_Nucleo/stm32h7xx_nucleo.c ****     /* Init the UART Msp */
 421:../../Drivers/BSP/STM32H7xx_Nucleo/stm32h7xx_nucleo.c ****     COM1_MspInit(&hcom_uart[COM]);
 422:../../Drivers/BSP/STM32H7xx_Nucleo/stm32h7xx_nucleo.c **** #else
 423:../../Drivers/BSP/STM32H7xx_Nucleo/stm32h7xx_nucleo.c ****     if(IsComMspCbValid[COM] == 0U)
 424:../../Drivers/BSP/STM32H7xx_Nucleo/stm32h7xx_nucleo.c ****     {
 425:../../Drivers/BSP/STM32H7xx_Nucleo/stm32h7xx_nucleo.c ****       if(BSP_COM_RegisterDefaultMspCallbacks(COM) != BSP_ERROR_NONE)
 426:../../Drivers/BSP/STM32H7xx_Nucleo/stm32h7xx_nucleo.c ****       {
 427:../../Drivers/BSP/STM32H7xx_Nucleo/stm32h7xx_nucleo.c ****         return BSP_ERROR_MSP_FAILURE;
 428:../../Drivers/BSP/STM32H7xx_Nucleo/stm32h7xx_nucleo.c ****       }
 429:../../Drivers/BSP/STM32H7xx_Nucleo/stm32h7xx_nucleo.c ****     }
ARM GAS  C:\Users\minis\AppData\Local\Temp\ccmjWota.s 			page 9


 430:../../Drivers/BSP/STM32H7xx_Nucleo/stm32h7xx_nucleo.c **** #endif
 431:../../Drivers/BSP/STM32H7xx_Nucleo/stm32h7xx_nucleo.c **** 
 432:../../Drivers/BSP/STM32H7xx_Nucleo/stm32h7xx_nucleo.c ****     if(MX_USART3_Init(&hcom_uart[COM], COM_Init) != HAL_OK)
 433:../../Drivers/BSP/STM32H7xx_Nucleo/stm32h7xx_nucleo.c ****     {
 434:../../Drivers/BSP/STM32H7xx_Nucleo/stm32h7xx_nucleo.c ****       ret = BSP_ERROR_PERIPH_FAILURE;
 435:../../Drivers/BSP/STM32H7xx_Nucleo/stm32h7xx_nucleo.c ****     }
 436:../../Drivers/BSP/STM32H7xx_Nucleo/stm32h7xx_nucleo.c ****   }
 437:../../Drivers/BSP/STM32H7xx_Nucleo/stm32h7xx_nucleo.c **** 
 438:../../Drivers/BSP/STM32H7xx_Nucleo/stm32h7xx_nucleo.c ****   return ret;
 439:../../Drivers/BSP/STM32H7xx_Nucleo/stm32h7xx_nucleo.c **** }
 440:../../Drivers/BSP/STM32H7xx_Nucleo/stm32h7xx_nucleo.c **** 
 441:../../Drivers/BSP/STM32H7xx_Nucleo/stm32h7xx_nucleo.c **** /**
 442:../../Drivers/BSP/STM32H7xx_Nucleo/stm32h7xx_nucleo.c ****   * @brief  DeInit COM port.
 443:../../Drivers/BSP/STM32H7xx_Nucleo/stm32h7xx_nucleo.c ****   * @param  COM COM port to be configured.
 444:../../Drivers/BSP/STM32H7xx_Nucleo/stm32h7xx_nucleo.c ****   *          This parameter can be COM1
 445:../../Drivers/BSP/STM32H7xx_Nucleo/stm32h7xx_nucleo.c ****   * @retval BSP status
 446:../../Drivers/BSP/STM32H7xx_Nucleo/stm32h7xx_nucleo.c ****   */
 447:../../Drivers/BSP/STM32H7xx_Nucleo/stm32h7xx_nucleo.c **** int32_t BSP_COM_DeInit(COM_TypeDef COM)
 448:../../Drivers/BSP/STM32H7xx_Nucleo/stm32h7xx_nucleo.c **** {
 449:../../Drivers/BSP/STM32H7xx_Nucleo/stm32h7xx_nucleo.c ****   int32_t ret = BSP_ERROR_NONE;
 450:../../Drivers/BSP/STM32H7xx_Nucleo/stm32h7xx_nucleo.c **** 
 451:../../Drivers/BSP/STM32H7xx_Nucleo/stm32h7xx_nucleo.c ****   if(COM >= COMn)
 452:../../Drivers/BSP/STM32H7xx_Nucleo/stm32h7xx_nucleo.c ****   {
 453:../../Drivers/BSP/STM32H7xx_Nucleo/stm32h7xx_nucleo.c ****     ret = BSP_ERROR_WRONG_PARAM;
 454:../../Drivers/BSP/STM32H7xx_Nucleo/stm32h7xx_nucleo.c ****   }
 455:../../Drivers/BSP/STM32H7xx_Nucleo/stm32h7xx_nucleo.c ****   else
 456:../../Drivers/BSP/STM32H7xx_Nucleo/stm32h7xx_nucleo.c ****   {
 457:../../Drivers/BSP/STM32H7xx_Nucleo/stm32h7xx_nucleo.c ****     /* USART configuration */
 458:../../Drivers/BSP/STM32H7xx_Nucleo/stm32h7xx_nucleo.c ****     hcom_uart[COM].Instance = COM_USART[COM];
 459:../../Drivers/BSP/STM32H7xx_Nucleo/stm32h7xx_nucleo.c **** 
 460:../../Drivers/BSP/STM32H7xx_Nucleo/stm32h7xx_nucleo.c **** #if (USE_HAL_UART_REGISTER_CALLBACKS == 0)
 461:../../Drivers/BSP/STM32H7xx_Nucleo/stm32h7xx_nucleo.c ****     COM1_MspDeInit(&hcom_uart[COM]);
 462:../../Drivers/BSP/STM32H7xx_Nucleo/stm32h7xx_nucleo.c **** #endif /* (USE_HAL_UART_REGISTER_CALLBACKS == 0) */
 463:../../Drivers/BSP/STM32H7xx_Nucleo/stm32h7xx_nucleo.c **** 
 464:../../Drivers/BSP/STM32H7xx_Nucleo/stm32h7xx_nucleo.c ****     if(HAL_UART_DeInit(&hcom_uart[COM]) != HAL_OK)
 465:../../Drivers/BSP/STM32H7xx_Nucleo/stm32h7xx_nucleo.c ****     {
 466:../../Drivers/BSP/STM32H7xx_Nucleo/stm32h7xx_nucleo.c ****       ret = BSP_ERROR_PERIPH_FAILURE;
 467:../../Drivers/BSP/STM32H7xx_Nucleo/stm32h7xx_nucleo.c ****     }
 468:../../Drivers/BSP/STM32H7xx_Nucleo/stm32h7xx_nucleo.c ****   }
 469:../../Drivers/BSP/STM32H7xx_Nucleo/stm32h7xx_nucleo.c **** 
 470:../../Drivers/BSP/STM32H7xx_Nucleo/stm32h7xx_nucleo.c ****   return ret;
 471:../../Drivers/BSP/STM32H7xx_Nucleo/stm32h7xx_nucleo.c **** }
 472:../../Drivers/BSP/STM32H7xx_Nucleo/stm32h7xx_nucleo.c **** 
 473:../../Drivers/BSP/STM32H7xx_Nucleo/stm32h7xx_nucleo.c **** /**
 474:../../Drivers/BSP/STM32H7xx_Nucleo/stm32h7xx_nucleo.c ****   * @brief  Configures COM port.
 475:../../Drivers/BSP/STM32H7xx_Nucleo/stm32h7xx_nucleo.c ****   * @param  huart USART handle
 476:../../Drivers/BSP/STM32H7xx_Nucleo/stm32h7xx_nucleo.c ****   * @param  COM_Init Pointer to a UART_HandleTypeDef structure that contains the
 477:../../Drivers/BSP/STM32H7xx_Nucleo/stm32h7xx_nucleo.c ****   *                  configuration information for the specified USART peripheral.
 478:../../Drivers/BSP/STM32H7xx_Nucleo/stm32h7xx_nucleo.c ****   * @retval HAL error code
 479:../../Drivers/BSP/STM32H7xx_Nucleo/stm32h7xx_nucleo.c ****   */
 480:../../Drivers/BSP/STM32H7xx_Nucleo/stm32h7xx_nucleo.c **** __weak HAL_StatusTypeDef MX_USART3_Init(UART_HandleTypeDef *huart, MX_UART_InitTypeDef *COM_Init)
 481:../../Drivers/BSP/STM32H7xx_Nucleo/stm32h7xx_nucleo.c **** {
 482:../../Drivers/BSP/STM32H7xx_Nucleo/stm32h7xx_nucleo.c ****   /* USART configuration */
 483:../../Drivers/BSP/STM32H7xx_Nucleo/stm32h7xx_nucleo.c ****  huart->Instance          = COM_USART[COM1];
 484:../../Drivers/BSP/STM32H7xx_Nucleo/stm32h7xx_nucleo.c ****  huart->Init.BaudRate     = COM_Init->BaudRate;
 485:../../Drivers/BSP/STM32H7xx_Nucleo/stm32h7xx_nucleo.c ****  huart->Init.Mode         = UART_MODE_TX_RX;
 486:../../Drivers/BSP/STM32H7xx_Nucleo/stm32h7xx_nucleo.c ****  huart->Init.Parity       = (uint32_t)COM_Init->Parity;
ARM GAS  C:\Users\minis\AppData\Local\Temp\ccmjWota.s 			page 10


 487:../../Drivers/BSP/STM32H7xx_Nucleo/stm32h7xx_nucleo.c ****  huart->Init.WordLength   = (uint32_t)COM_Init->WordLength;
 488:../../Drivers/BSP/STM32H7xx_Nucleo/stm32h7xx_nucleo.c ****  huart->Init.StopBits     = (uint32_t)COM_Init->StopBits;
 489:../../Drivers/BSP/STM32H7xx_Nucleo/stm32h7xx_nucleo.c ****  huart->Init.HwFlowCtl    = (uint32_t)COM_Init->HwFlowCtl;
 490:../../Drivers/BSP/STM32H7xx_Nucleo/stm32h7xx_nucleo.c ****  huart->Init.OverSampling = UART_OVERSAMPLING_8;
 491:../../Drivers/BSP/STM32H7xx_Nucleo/stm32h7xx_nucleo.c **** 
 492:../../Drivers/BSP/STM32H7xx_Nucleo/stm32h7xx_nucleo.c ****  return HAL_UART_Init(huart);
 493:../../Drivers/BSP/STM32H7xx_Nucleo/stm32h7xx_nucleo.c **** }
 494:../../Drivers/BSP/STM32H7xx_Nucleo/stm32h7xx_nucleo.c **** 
 495:../../Drivers/BSP/STM32H7xx_Nucleo/stm32h7xx_nucleo.c **** #if (USE_HAL_UART_REGISTER_CALLBACKS == 1)
 496:../../Drivers/BSP/STM32H7xx_Nucleo/stm32h7xx_nucleo.c **** /**
 497:../../Drivers/BSP/STM32H7xx_Nucleo/stm32h7xx_nucleo.c ****   * @brief Register Default COM Msp Callbacks
 498:../../Drivers/BSP/STM32H7xx_Nucleo/stm32h7xx_nucleo.c ****   * @param  COM COM port to be configured.
 499:../../Drivers/BSP/STM32H7xx_Nucleo/stm32h7xx_nucleo.c ****   *          This parameter can be COM1
 500:../../Drivers/BSP/STM32H7xx_Nucleo/stm32h7xx_nucleo.c ****   * @retval BSP status
 501:../../Drivers/BSP/STM32H7xx_Nucleo/stm32h7xx_nucleo.c ****   */
 502:../../Drivers/BSP/STM32H7xx_Nucleo/stm32h7xx_nucleo.c **** int32_t BSP_COM_RegisterDefaultMspCallbacks(COM_TypeDef COM)
 503:../../Drivers/BSP/STM32H7xx_Nucleo/stm32h7xx_nucleo.c **** {
 504:../../Drivers/BSP/STM32H7xx_Nucleo/stm32h7xx_nucleo.c ****   int32_t ret = BSP_ERROR_NONE;
 505:../../Drivers/BSP/STM32H7xx_Nucleo/stm32h7xx_nucleo.c **** 
 506:../../Drivers/BSP/STM32H7xx_Nucleo/stm32h7xx_nucleo.c ****   if(COM >= COMn)
 507:../../Drivers/BSP/STM32H7xx_Nucleo/stm32h7xx_nucleo.c ****   {
 508:../../Drivers/BSP/STM32H7xx_Nucleo/stm32h7xx_nucleo.c ****     ret = BSP_ERROR_WRONG_PARAM;
 509:../../Drivers/BSP/STM32H7xx_Nucleo/stm32h7xx_nucleo.c ****   }
 510:../../Drivers/BSP/STM32H7xx_Nucleo/stm32h7xx_nucleo.c ****   else
 511:../../Drivers/BSP/STM32H7xx_Nucleo/stm32h7xx_nucleo.c ****   {
 512:../../Drivers/BSP/STM32H7xx_Nucleo/stm32h7xx_nucleo.c ****     __HAL_UART_RESET_HANDLE_STATE(&hcom_uart[COM]);
 513:../../Drivers/BSP/STM32H7xx_Nucleo/stm32h7xx_nucleo.c **** 
 514:../../Drivers/BSP/STM32H7xx_Nucleo/stm32h7xx_nucleo.c ****     /* Register default MspInit/MspDeInit Callback */
 515:../../Drivers/BSP/STM32H7xx_Nucleo/stm32h7xx_nucleo.c ****     if(HAL_UART_RegisterCallback(&hcom_uart[COM], HAL_UART_MSPINIT_CB_ID, COM1_MspInit) != HAL_OK)
 516:../../Drivers/BSP/STM32H7xx_Nucleo/stm32h7xx_nucleo.c ****     {
 517:../../Drivers/BSP/STM32H7xx_Nucleo/stm32h7xx_nucleo.c ****       ret = BSP_ERROR_PERIPH_FAILURE;
 518:../../Drivers/BSP/STM32H7xx_Nucleo/stm32h7xx_nucleo.c ****     }
 519:../../Drivers/BSP/STM32H7xx_Nucleo/stm32h7xx_nucleo.c ****     else if(HAL_UART_RegisterCallback(&hcom_uart[COM], HAL_UART_MSPDEINIT_CB_ID, COM1_MspDeInit) !=
 520:../../Drivers/BSP/STM32H7xx_Nucleo/stm32h7xx_nucleo.c ****     {
 521:../../Drivers/BSP/STM32H7xx_Nucleo/stm32h7xx_nucleo.c ****       ret = BSP_ERROR_PERIPH_FAILURE;
 522:../../Drivers/BSP/STM32H7xx_Nucleo/stm32h7xx_nucleo.c ****     }
 523:../../Drivers/BSP/STM32H7xx_Nucleo/stm32h7xx_nucleo.c ****     else
 524:../../Drivers/BSP/STM32H7xx_Nucleo/stm32h7xx_nucleo.c ****     {
 525:../../Drivers/BSP/STM32H7xx_Nucleo/stm32h7xx_nucleo.c ****       IsComMspCbValid[COM] = 1U;
 526:../../Drivers/BSP/STM32H7xx_Nucleo/stm32h7xx_nucleo.c ****     }
 527:../../Drivers/BSP/STM32H7xx_Nucleo/stm32h7xx_nucleo.c ****   }
 528:../../Drivers/BSP/STM32H7xx_Nucleo/stm32h7xx_nucleo.c **** 
 529:../../Drivers/BSP/STM32H7xx_Nucleo/stm32h7xx_nucleo.c ****   /* BSP status */
 530:../../Drivers/BSP/STM32H7xx_Nucleo/stm32h7xx_nucleo.c ****   return ret;
 531:../../Drivers/BSP/STM32H7xx_Nucleo/stm32h7xx_nucleo.c **** }
 532:../../Drivers/BSP/STM32H7xx_Nucleo/stm32h7xx_nucleo.c **** 
 533:../../Drivers/BSP/STM32H7xx_Nucleo/stm32h7xx_nucleo.c **** /**
 534:../../Drivers/BSP/STM32H7xx_Nucleo/stm32h7xx_nucleo.c ****   * @brief Register COM Msp Callback registering
 535:../../Drivers/BSP/STM32H7xx_Nucleo/stm32h7xx_nucleo.c ****   * @param  COM COM port to be configured.
 536:../../Drivers/BSP/STM32H7xx_Nucleo/stm32h7xx_nucleo.c ****   *          This parameter can be COM1
 537:../../Drivers/BSP/STM32H7xx_Nucleo/stm32h7xx_nucleo.c ****   * @param Callbacks     pointer to COM1 MspInit/MspDeInit callback functions
 538:../../Drivers/BSP/STM32H7xx_Nucleo/stm32h7xx_nucleo.c ****   * @retval BSP status
 539:../../Drivers/BSP/STM32H7xx_Nucleo/stm32h7xx_nucleo.c ****   */
 540:../../Drivers/BSP/STM32H7xx_Nucleo/stm32h7xx_nucleo.c **** int32_t BSP_COM_RegisterMspCallbacks(COM_TypeDef COM , BSP_COM_Cb_t *Callback)
 541:../../Drivers/BSP/STM32H7xx_Nucleo/stm32h7xx_nucleo.c **** {
 542:../../Drivers/BSP/STM32H7xx_Nucleo/stm32h7xx_nucleo.c ****   int32_t ret = BSP_ERROR_NONE;
 543:../../Drivers/BSP/STM32H7xx_Nucleo/stm32h7xx_nucleo.c **** 
ARM GAS  C:\Users\minis\AppData\Local\Temp\ccmjWota.s 			page 11


 544:../../Drivers/BSP/STM32H7xx_Nucleo/stm32h7xx_nucleo.c ****   if(COM >= COMn)
 545:../../Drivers/BSP/STM32H7xx_Nucleo/stm32h7xx_nucleo.c ****   {
 546:../../Drivers/BSP/STM32H7xx_Nucleo/stm32h7xx_nucleo.c ****     ret = BSP_ERROR_WRONG_PARAM;
 547:../../Drivers/BSP/STM32H7xx_Nucleo/stm32h7xx_nucleo.c ****   }
 548:../../Drivers/BSP/STM32H7xx_Nucleo/stm32h7xx_nucleo.c ****   else
 549:../../Drivers/BSP/STM32H7xx_Nucleo/stm32h7xx_nucleo.c ****   {
 550:../../Drivers/BSP/STM32H7xx_Nucleo/stm32h7xx_nucleo.c ****     __HAL_UART_RESET_HANDLE_STATE(&hcom_uart[COM]);
 551:../../Drivers/BSP/STM32H7xx_Nucleo/stm32h7xx_nucleo.c **** 
 552:../../Drivers/BSP/STM32H7xx_Nucleo/stm32h7xx_nucleo.c ****     /* Register MspInit/MspDeInit Callbacks */
 553:../../Drivers/BSP/STM32H7xx_Nucleo/stm32h7xx_nucleo.c ****     if(HAL_UART_RegisterCallback(&hcom_uart[COM], HAL_UART_MSPINIT_CB_ID, Callback->pMspInitCb) != 
 554:../../Drivers/BSP/STM32H7xx_Nucleo/stm32h7xx_nucleo.c ****     {
 555:../../Drivers/BSP/STM32H7xx_Nucleo/stm32h7xx_nucleo.c ****       ret = BSP_ERROR_PERIPH_FAILURE;
 556:../../Drivers/BSP/STM32H7xx_Nucleo/stm32h7xx_nucleo.c ****     }
 557:../../Drivers/BSP/STM32H7xx_Nucleo/stm32h7xx_nucleo.c ****     else if(HAL_UART_RegisterCallback(&hcom_uart[COM], HAL_UART_MSPDEINIT_CB_ID, Callback->pMspDeIn
 558:../../Drivers/BSP/STM32H7xx_Nucleo/stm32h7xx_nucleo.c ****     {
 559:../../Drivers/BSP/STM32H7xx_Nucleo/stm32h7xx_nucleo.c ****       ret = BSP_ERROR_PERIPH_FAILURE;
 560:../../Drivers/BSP/STM32H7xx_Nucleo/stm32h7xx_nucleo.c ****     }
 561:../../Drivers/BSP/STM32H7xx_Nucleo/stm32h7xx_nucleo.c ****     else
 562:../../Drivers/BSP/STM32H7xx_Nucleo/stm32h7xx_nucleo.c ****     {
 563:../../Drivers/BSP/STM32H7xx_Nucleo/stm32h7xx_nucleo.c ****       IsComMspCbValid[COM] = 1U;
 564:../../Drivers/BSP/STM32H7xx_Nucleo/stm32h7xx_nucleo.c ****     }
 565:../../Drivers/BSP/STM32H7xx_Nucleo/stm32h7xx_nucleo.c ****   }
 566:../../Drivers/BSP/STM32H7xx_Nucleo/stm32h7xx_nucleo.c ****   /* BSP status */
 567:../../Drivers/BSP/STM32H7xx_Nucleo/stm32h7xx_nucleo.c ****   return ret;
 568:../../Drivers/BSP/STM32H7xx_Nucleo/stm32h7xx_nucleo.c **** }
 569:../../Drivers/BSP/STM32H7xx_Nucleo/stm32h7xx_nucleo.c **** #endif /* USE_HAL_UART_REGISTER_CALLBACKS */
 570:../../Drivers/BSP/STM32H7xx_Nucleo/stm32h7xx_nucleo.c **** 
 571:../../Drivers/BSP/STM32H7xx_Nucleo/stm32h7xx_nucleo.c **** #if (USE_COM_LOG > 0)
 572:../../Drivers/BSP/STM32H7xx_Nucleo/stm32h7xx_nucleo.c **** /**
 573:../../Drivers/BSP/STM32H7xx_Nucleo/stm32h7xx_nucleo.c ****   * @brief  Select the active COM port.
 574:../../Drivers/BSP/STM32H7xx_Nucleo/stm32h7xx_nucleo.c ****   * @param  COM COM port to be activated.
 575:../../Drivers/BSP/STM32H7xx_Nucleo/stm32h7xx_nucleo.c ****   *          This parameter can be COM1
 576:../../Drivers/BSP/STM32H7xx_Nucleo/stm32h7xx_nucleo.c ****   * @retval BSP status
 577:../../Drivers/BSP/STM32H7xx_Nucleo/stm32h7xx_nucleo.c ****   */
 578:../../Drivers/BSP/STM32H7xx_Nucleo/stm32h7xx_nucleo.c **** int32_t BSP_COM_SelectLogPort(COM_TypeDef COM)
 579:../../Drivers/BSP/STM32H7xx_Nucleo/stm32h7xx_nucleo.c **** {
 580:../../Drivers/BSP/STM32H7xx_Nucleo/stm32h7xx_nucleo.c ****   if(COM_ActiveLogPort != COM)
 581:../../Drivers/BSP/STM32H7xx_Nucleo/stm32h7xx_nucleo.c ****   {
 582:../../Drivers/BSP/STM32H7xx_Nucleo/stm32h7xx_nucleo.c ****     COM_ActiveLogPort = COM;
 583:../../Drivers/BSP/STM32H7xx_Nucleo/stm32h7xx_nucleo.c ****   }
 584:../../Drivers/BSP/STM32H7xx_Nucleo/stm32h7xx_nucleo.c ****   return BSP_ERROR_NONE;
 585:../../Drivers/BSP/STM32H7xx_Nucleo/stm32h7xx_nucleo.c **** }
 586:../../Drivers/BSP/STM32H7xx_Nucleo/stm32h7xx_nucleo.c **** 
 587:../../Drivers/BSP/STM32H7xx_Nucleo/stm32h7xx_nucleo.c **** /**
 588:../../Drivers/BSP/STM32H7xx_Nucleo/stm32h7xx_nucleo.c ****   * @brief  Redirect console output to COM
 589:../../Drivers/BSP/STM32H7xx_Nucleo/stm32h7xx_nucleo.c ****   */
 590:../../Drivers/BSP/STM32H7xx_Nucleo/stm32h7xx_nucleo.c ****  #ifdef __GNUC__
 591:../../Drivers/BSP/STM32H7xx_Nucleo/stm32h7xx_nucleo.c ****  int __io_putchar (int ch)
 592:../../Drivers/BSP/STM32H7xx_Nucleo/stm32h7xx_nucleo.c ****  #else
 593:../../Drivers/BSP/STM32H7xx_Nucleo/stm32h7xx_nucleo.c ****  int fputc (int ch, FILE *f)
 594:../../Drivers/BSP/STM32H7xx_Nucleo/stm32h7xx_nucleo.c ****  #endif /* __GNUC__ */
 595:../../Drivers/BSP/STM32H7xx_Nucleo/stm32h7xx_nucleo.c **** {
 596:../../Drivers/BSP/STM32H7xx_Nucleo/stm32h7xx_nucleo.c ****   HAL_UART_Transmit (&hcom_uart [COM_ActiveLogPort], (uint8_t *) &ch, 1, COM_POLL_TIMEOUT);
 597:../../Drivers/BSP/STM32H7xx_Nucleo/stm32h7xx_nucleo.c ****   return ch;
 598:../../Drivers/BSP/STM32H7xx_Nucleo/stm32h7xx_nucleo.c **** }
 599:../../Drivers/BSP/STM32H7xx_Nucleo/stm32h7xx_nucleo.c **** #endif /* USE_COM_LOG */
 600:../../Drivers/BSP/STM32H7xx_Nucleo/stm32h7xx_nucleo.c **** #endif /* USE_BSP_COM_FEATURE */
ARM GAS  C:\Users\minis\AppData\Local\Temp\ccmjWota.s 			page 12


 601:../../Drivers/BSP/STM32H7xx_Nucleo/stm32h7xx_nucleo.c **** 
 602:../../Drivers/BSP/STM32H7xx_Nucleo/stm32h7xx_nucleo.c **** /**
 603:../../Drivers/BSP/STM32H7xx_Nucleo/stm32h7xx_nucleo.c ****   * @}
 604:../../Drivers/BSP/STM32H7xx_Nucleo/stm32h7xx_nucleo.c ****   */
 605:../../Drivers/BSP/STM32H7xx_Nucleo/stm32h7xx_nucleo.c **** 
 606:../../Drivers/BSP/STM32H7xx_Nucleo/stm32h7xx_nucleo.c **** /** @defgroup STM32H7XX_NUCLEO_LOW_LEVEL_Private_Functions LOW LEVEL Private functions
 607:../../Drivers/BSP/STM32H7xx_Nucleo/stm32h7xx_nucleo.c ****   * @{
 608:../../Drivers/BSP/STM32H7xx_Nucleo/stm32h7xx_nucleo.c ****   */
 609:../../Drivers/BSP/STM32H7xx_Nucleo/stm32h7xx_nucleo.c **** /**
 610:../../Drivers/BSP/STM32H7xx_Nucleo/stm32h7xx_nucleo.c ****   * @brief  Key EXTI line detection callbacks.
 611:../../Drivers/BSP/STM32H7xx_Nucleo/stm32h7xx_nucleo.c ****   * @retval BSP status
 612:../../Drivers/BSP/STM32H7xx_Nucleo/stm32h7xx_nucleo.c ****   */
 613:../../Drivers/BSP/STM32H7xx_Nucleo/stm32h7xx_nucleo.c **** static void BUTTON_USER_EXTI_Callback(void)
 614:../../Drivers/BSP/STM32H7xx_Nucleo/stm32h7xx_nucleo.c **** {
 615:../../Drivers/BSP/STM32H7xx_Nucleo/stm32h7xx_nucleo.c ****   BSP_PB_Callback(BUTTON_USER);
 616:../../Drivers/BSP/STM32H7xx_Nucleo/stm32h7xx_nucleo.c **** }
 617:../../Drivers/BSP/STM32H7xx_Nucleo/stm32h7xx_nucleo.c **** 
 618:../../Drivers/BSP/STM32H7xx_Nucleo/stm32h7xx_nucleo.c **** #if (USE_BSP_COM_FEATURE > 0)
 619:../../Drivers/BSP/STM32H7xx_Nucleo/stm32h7xx_nucleo.c **** /**
 620:../../Drivers/BSP/STM32H7xx_Nucleo/stm32h7xx_nucleo.c ****   * @brief  Initializes UART MSP.
 621:../../Drivers/BSP/STM32H7xx_Nucleo/stm32h7xx_nucleo.c ****   * @param  huart UART handle
 622:../../Drivers/BSP/STM32H7xx_Nucleo/stm32h7xx_nucleo.c ****   * @retval BSP status
 623:../../Drivers/BSP/STM32H7xx_Nucleo/stm32h7xx_nucleo.c ****   */
 624:../../Drivers/BSP/STM32H7xx_Nucleo/stm32h7xx_nucleo.c **** static void COM1_MspInit(UART_HandleTypeDef *huart)
 625:../../Drivers/BSP/STM32H7xx_Nucleo/stm32h7xx_nucleo.c **** {
  29              		.loc 1 625 1 view -0
  30              		.cfi_startproc
  31              		@ args = 0, pretend = 0, frame = 32
  32              		@ frame_needed = 0, uses_anonymous_args = 0
  33              		.loc 1 625 1 is_stmt 0 view .LVU1
  34 0000 F0B5     		push	{r4, r5, r6, r7, lr}
  35              	.LCFI0:
  36              		.cfi_def_cfa_offset 20
  37              		.cfi_offset 4, -20
  38              		.cfi_offset 5, -16
  39              		.cfi_offset 6, -12
  40              		.cfi_offset 7, -8
  41              		.cfi_offset 14, -4
  42 0002 89B0     		sub	sp, sp, #36
  43              	.LCFI1:
  44              		.cfi_def_cfa_offset 56
 626:../../Drivers/BSP/STM32H7xx_Nucleo/stm32h7xx_nucleo.c ****   GPIO_InitTypeDef gpio_init_structure;
  45              		.loc 1 626 3 is_stmt 1 view .LVU2
 627:../../Drivers/BSP/STM32H7xx_Nucleo/stm32h7xx_nucleo.c **** 
 628:../../Drivers/BSP/STM32H7xx_Nucleo/stm32h7xx_nucleo.c ****   /* Prevent unused argument(s) compilation warning */
 629:../../Drivers/BSP/STM32H7xx_Nucleo/stm32h7xx_nucleo.c ****   UNUSED(huart);
  46              		.loc 1 629 3 view .LVU3
 630:../../Drivers/BSP/STM32H7xx_Nucleo/stm32h7xx_nucleo.c **** 
 631:../../Drivers/BSP/STM32H7xx_Nucleo/stm32h7xx_nucleo.c ****   /* Enable GPIO clock */
 632:../../Drivers/BSP/STM32H7xx_Nucleo/stm32h7xx_nucleo.c ****   COM1_TX_GPIO_CLK_ENABLE();
  47              		.loc 1 632 3 view .LVU4
  48              	.LBB2:
  49              		.loc 1 632 3 view .LVU5
  50              		.loc 1 632 3 view .LVU6
  51 0004 1F4B     		ldr	r3, .L3
  52 0006 D3F8E020 		ldr	r2, [r3, #224]
  53 000a 42F00802 		orr	r2, r2, #8
ARM GAS  C:\Users\minis\AppData\Local\Temp\ccmjWota.s 			page 13


  54 000e C3F8E020 		str	r2, [r3, #224]
  55              		.loc 1 632 3 view .LVU7
  56 0012 D3F8E020 		ldr	r2, [r3, #224]
  57 0016 02F00802 		and	r2, r2, #8
  58 001a 0092     		str	r2, [sp]
  59              		.loc 1 632 3 view .LVU8
  60 001c 009A     		ldr	r2, [sp]
  61              	.LBE2:
  62              		.loc 1 632 3 view .LVU9
 633:../../Drivers/BSP/STM32H7xx_Nucleo/stm32h7xx_nucleo.c ****   COM1_RX_GPIO_CLK_ENABLE();
  63              		.loc 1 633 3 view .LVU10
  64              	.LBB3:
  65              		.loc 1 633 3 view .LVU11
  66              		.loc 1 633 3 view .LVU12
  67 001e D3F8E020 		ldr	r2, [r3, #224]
  68 0022 42F00802 		orr	r2, r2, #8
  69 0026 C3F8E020 		str	r2, [r3, #224]
  70              		.loc 1 633 3 view .LVU13
  71 002a D3F8E020 		ldr	r2, [r3, #224]
  72 002e 02F00802 		and	r2, r2, #8
  73 0032 0192     		str	r2, [sp, #4]
  74              		.loc 1 633 3 view .LVU14
  75 0034 019A     		ldr	r2, [sp, #4]
  76              	.LBE3:
  77              		.loc 1 633 3 view .LVU15
 634:../../Drivers/BSP/STM32H7xx_Nucleo/stm32h7xx_nucleo.c **** 
 635:../../Drivers/BSP/STM32H7xx_Nucleo/stm32h7xx_nucleo.c ****   /* Enable USART clock */
 636:../../Drivers/BSP/STM32H7xx_Nucleo/stm32h7xx_nucleo.c ****   COM1_CLK_ENABLE();
  78              		.loc 1 636 3 view .LVU16
  79              	.LBB4:
  80              		.loc 1 636 3 view .LVU17
  81              		.loc 1 636 3 view .LVU18
  82 0036 D3F8E820 		ldr	r2, [r3, #232]
  83 003a 42F48022 		orr	r2, r2, #262144
  84 003e C3F8E820 		str	r2, [r3, #232]
  85              		.loc 1 636 3 view .LVU19
  86 0042 D3F8E830 		ldr	r3, [r3, #232]
  87 0046 03F48023 		and	r3, r3, #262144
  88 004a 0293     		str	r3, [sp, #8]
  89              		.loc 1 636 3 view .LVU20
  90 004c 029B     		ldr	r3, [sp, #8]
  91              	.LBE4:
  92              		.loc 1 636 3 view .LVU21
 637:../../Drivers/BSP/STM32H7xx_Nucleo/stm32h7xx_nucleo.c **** 
 638:../../Drivers/BSP/STM32H7xx_Nucleo/stm32h7xx_nucleo.c ****   /* Configure USART Tx as alternate function */
 639:../../Drivers/BSP/STM32H7xx_Nucleo/stm32h7xx_nucleo.c ****   gpio_init_structure.Pin = COM1_TX_PIN;
  93              		.loc 1 639 3 view .LVU22
  94              		.loc 1 639 27 is_stmt 0 view .LVU23
  95 004e 4FF48073 		mov	r3, #256
  96 0052 0393     		str	r3, [sp, #12]
 640:../../Drivers/BSP/STM32H7xx_Nucleo/stm32h7xx_nucleo.c ****   gpio_init_structure.Mode = GPIO_MODE_AF_PP;
  97              		.loc 1 640 3 is_stmt 1 view .LVU24
  98              		.loc 1 640 28 is_stmt 0 view .LVU25
  99 0054 0224     		movs	r4, #2
 100 0056 0494     		str	r4, [sp, #16]
 641:../../Drivers/BSP/STM32H7xx_Nucleo/stm32h7xx_nucleo.c ****   gpio_init_structure.Speed = GPIO_SPEED_FREQ_HIGH;
 101              		.loc 1 641 3 is_stmt 1 view .LVU26
ARM GAS  C:\Users\minis\AppData\Local\Temp\ccmjWota.s 			page 14


 102              		.loc 1 641 29 is_stmt 0 view .LVU27
 103 0058 0694     		str	r4, [sp, #24]
 642:../../Drivers/BSP/STM32H7xx_Nucleo/stm32h7xx_nucleo.c ****   gpio_init_structure.Pull = GPIO_PULLUP;
 104              		.loc 1 642 3 is_stmt 1 view .LVU28
 105              		.loc 1 642 28 is_stmt 0 view .LVU29
 106 005a 0123     		movs	r3, #1
 107 005c 0593     		str	r3, [sp, #20]
 643:../../Drivers/BSP/STM32H7xx_Nucleo/stm32h7xx_nucleo.c ****   gpio_init_structure.Alternate = COM1_TX_AF;
 108              		.loc 1 643 3 is_stmt 1 view .LVU30
 109              		.loc 1 643 33 is_stmt 0 view .LVU31
 110 005e 0727     		movs	r7, #7
 111 0060 0797     		str	r7, [sp, #28]
 644:../../Drivers/BSP/STM32H7xx_Nucleo/stm32h7xx_nucleo.c ****   HAL_GPIO_Init(COM1_TX_GPIO_PORT, &gpio_init_structure);
 112              		.loc 1 644 3 is_stmt 1 view .LVU32
 113 0062 03AE     		add	r6, sp, #12
 114 0064 084D     		ldr	r5, .L3+4
 115 0066 3146     		mov	r1, r6
 116 0068 2846     		mov	r0, r5
 117              	.LVL1:
 118              		.loc 1 644 3 is_stmt 0 view .LVU33
 119 006a FFF7FEFF 		bl	HAL_GPIO_Init
 120              	.LVL2:
 645:../../Drivers/BSP/STM32H7xx_Nucleo/stm32h7xx_nucleo.c **** 
 646:../../Drivers/BSP/STM32H7xx_Nucleo/stm32h7xx_nucleo.c ****   /* Configure USART Rx as alternate function */
 647:../../Drivers/BSP/STM32H7xx_Nucleo/stm32h7xx_nucleo.c ****   gpio_init_structure.Pin = COM1_RX_PIN;
 121              		.loc 1 647 3 is_stmt 1 view .LVU34
 122              		.loc 1 647 27 is_stmt 0 view .LVU35
 123 006e 4FF40073 		mov	r3, #512
 124 0072 0393     		str	r3, [sp, #12]
 648:../../Drivers/BSP/STM32H7xx_Nucleo/stm32h7xx_nucleo.c ****   gpio_init_structure.Mode = GPIO_MODE_AF_PP;
 125              		.loc 1 648 3 is_stmt 1 view .LVU36
 126              		.loc 1 648 28 is_stmt 0 view .LVU37
 127 0074 0494     		str	r4, [sp, #16]
 649:../../Drivers/BSP/STM32H7xx_Nucleo/stm32h7xx_nucleo.c ****   gpio_init_structure.Alternate = COM1_RX_AF;
 128              		.loc 1 649 3 is_stmt 1 view .LVU38
 129              		.loc 1 649 33 is_stmt 0 view .LVU39
 130 0076 0797     		str	r7, [sp, #28]
 650:../../Drivers/BSP/STM32H7xx_Nucleo/stm32h7xx_nucleo.c ****   HAL_GPIO_Init(COM1_RX_GPIO_PORT, &gpio_init_structure);
 131              		.loc 1 650 3 is_stmt 1 view .LVU40
 132 0078 3146     		mov	r1, r6
 133 007a 2846     		mov	r0, r5
 134 007c FFF7FEFF 		bl	HAL_GPIO_Init
 135              	.LVL3:
 651:../../Drivers/BSP/STM32H7xx_Nucleo/stm32h7xx_nucleo.c **** }
 136              		.loc 1 651 1 is_stmt 0 view .LVU41
 137 0080 09B0     		add	sp, sp, #36
 138              	.LCFI2:
 139              		.cfi_def_cfa_offset 20
 140              		@ sp needed
 141 0082 F0BD     		pop	{r4, r5, r6, r7, pc}
 142              	.L4:
 143              		.align	2
 144              	.L3:
 145 0084 00440258 		.word	1476543488
 146 0088 000C0258 		.word	1476529152
 147              		.cfi_endproc
 148              	.LFE150:
ARM GAS  C:\Users\minis\AppData\Local\Temp\ccmjWota.s 			page 15


 150              		.section	.text.COM1_MspDeInit,"ax",%progbits
 151              		.align	1
 152              		.syntax unified
 153              		.thumb
 154              		.thumb_func
 156              	COM1_MspDeInit:
 157              	.LVL4:
 158              	.LFB151:
 652:../../Drivers/BSP/STM32H7xx_Nucleo/stm32h7xx_nucleo.c **** 
 653:../../Drivers/BSP/STM32H7xx_Nucleo/stm32h7xx_nucleo.c **** /**
 654:../../Drivers/BSP/STM32H7xx_Nucleo/stm32h7xx_nucleo.c ****   * @brief  Initialize USART3 Msp part
 655:../../Drivers/BSP/STM32H7xx_Nucleo/stm32h7xx_nucleo.c ****   * @param  huart UART handle
 656:../../Drivers/BSP/STM32H7xx_Nucleo/stm32h7xx_nucleo.c ****   * @retval BSP status
 657:../../Drivers/BSP/STM32H7xx_Nucleo/stm32h7xx_nucleo.c ****   */
 658:../../Drivers/BSP/STM32H7xx_Nucleo/stm32h7xx_nucleo.c **** static void COM1_MspDeInit(UART_HandleTypeDef *huart)
 659:../../Drivers/BSP/STM32H7xx_Nucleo/stm32h7xx_nucleo.c **** {
 159              		.loc 1 659 1 is_stmt 1 view -0
 160              		.cfi_startproc
 161              		@ args = 0, pretend = 0, frame = 24
 162              		@ frame_needed = 0, uses_anonymous_args = 0
 163              		.loc 1 659 1 is_stmt 0 view .LVU43
 164 0000 10B5     		push	{r4, lr}
 165              	.LCFI3:
 166              		.cfi_def_cfa_offset 8
 167              		.cfi_offset 4, -8
 168              		.cfi_offset 14, -4
 169 0002 86B0     		sub	sp, sp, #24
 170              	.LCFI4:
 171              		.cfi_def_cfa_offset 32
 660:../../Drivers/BSP/STM32H7xx_Nucleo/stm32h7xx_nucleo.c ****   GPIO_InitTypeDef          gpio_init_structure;
 172              		.loc 1 660 3 is_stmt 1 view .LVU44
 661:../../Drivers/BSP/STM32H7xx_Nucleo/stm32h7xx_nucleo.c **** 
 662:../../Drivers/BSP/STM32H7xx_Nucleo/stm32h7xx_nucleo.c ****   /* Prevent unused argument(s) compilation warning */
 663:../../Drivers/BSP/STM32H7xx_Nucleo/stm32h7xx_nucleo.c ****   UNUSED(huart);
 173              		.loc 1 663 3 view .LVU45
 664:../../Drivers/BSP/STM32H7xx_Nucleo/stm32h7xx_nucleo.c **** 
 665:../../Drivers/BSP/STM32H7xx_Nucleo/stm32h7xx_nucleo.c ****   /* COM GPIO pin configuration */
 666:../../Drivers/BSP/STM32H7xx_Nucleo/stm32h7xx_nucleo.c ****   gpio_init_structure.Pin  = COM1_TX_PIN;
 174              		.loc 1 666 3 view .LVU46
 175              		.loc 1 666 28 is_stmt 0 view .LVU47
 176 0004 4FF48071 		mov	r1, #256
 177 0008 0191     		str	r1, [sp, #4]
 667:../../Drivers/BSP/STM32H7xx_Nucleo/stm32h7xx_nucleo.c ****   HAL_GPIO_DeInit(COM1_TX_GPIO_PORT, gpio_init_structure.Pin);
 178              		.loc 1 667 3 is_stmt 1 view .LVU48
 179 000a 094C     		ldr	r4, .L7
 180 000c 2046     		mov	r0, r4
 181              	.LVL5:
 182              		.loc 1 667 3 is_stmt 0 view .LVU49
 183 000e FFF7FEFF 		bl	HAL_GPIO_DeInit
 184              	.LVL6:
 668:../../Drivers/BSP/STM32H7xx_Nucleo/stm32h7xx_nucleo.c **** 
 669:../../Drivers/BSP/STM32H7xx_Nucleo/stm32h7xx_nucleo.c ****   gpio_init_structure.Pin  = COM1_RX_PIN;
 185              		.loc 1 669 3 is_stmt 1 view .LVU50
 186              		.loc 1 669 28 is_stmt 0 view .LVU51
 187 0012 4FF40071 		mov	r1, #512
 188 0016 0191     		str	r1, [sp, #4]
 670:../../Drivers/BSP/STM32H7xx_Nucleo/stm32h7xx_nucleo.c ****   HAL_GPIO_DeInit(COM1_RX_GPIO_PORT, gpio_init_structure.Pin);
ARM GAS  C:\Users\minis\AppData\Local\Temp\ccmjWota.s 			page 16


 189              		.loc 1 670 3 is_stmt 1 view .LVU52
 190 0018 2046     		mov	r0, r4
 191 001a FFF7FEFF 		bl	HAL_GPIO_DeInit
 192              	.LVL7:
 671:../../Drivers/BSP/STM32H7xx_Nucleo/stm32h7xx_nucleo.c **** 
 672:../../Drivers/BSP/STM32H7xx_Nucleo/stm32h7xx_nucleo.c ****   /* Disable USART clock */
 673:../../Drivers/BSP/STM32H7xx_Nucleo/stm32h7xx_nucleo.c ****   COM1_CLK_DISABLE();
 193              		.loc 1 673 3 view .LVU53
 194 001e 054A     		ldr	r2, .L7+4
 195 0020 D2F8E830 		ldr	r3, [r2, #232]
 196 0024 23F48023 		bic	r3, r3, #262144
 197 0028 C2F8E830 		str	r3, [r2, #232]
 674:../../Drivers/BSP/STM32H7xx_Nucleo/stm32h7xx_nucleo.c **** }
 198              		.loc 1 674 1 is_stmt 0 view .LVU54
 199 002c 06B0     		add	sp, sp, #24
 200              	.LCFI5:
 201              		.cfi_def_cfa_offset 8
 202              		@ sp needed
 203 002e 10BD     		pop	{r4, pc}
 204              	.L8:
 205              		.align	2
 206              	.L7:
 207 0030 000C0258 		.word	1476529152
 208 0034 00440258 		.word	1476543488
 209              		.cfi_endproc
 210              	.LFE151:
 212              		.section	.text.BSP_GetVersion,"ax",%progbits
 213              		.align	1
 214              		.global	BSP_GetVersion
 215              		.syntax unified
 216              		.thumb
 217              		.thumb_func
 219              	BSP_GetVersion:
 220              	.LFB132:
 116:../../Drivers/BSP/STM32H7xx_Nucleo/stm32h7xx_nucleo.c ****   return (int32_t)STM32H7XX_NUCLEO_BSP_VERSION;
 221              		.loc 1 116 1 is_stmt 1 view -0
 222              		.cfi_startproc
 223              		@ args = 0, pretend = 0, frame = 0
 224              		@ frame_needed = 0, uses_anonymous_args = 0
 225              		@ link register save eliminated.
 117:../../Drivers/BSP/STM32H7xx_Nucleo/stm32h7xx_nucleo.c **** }
 226              		.loc 1 117 3 view .LVU56
 118:../../Drivers/BSP/STM32H7xx_Nucleo/stm32h7xx_nucleo.c **** 
 227              		.loc 1 118 1 is_stmt 0 view .LVU57
 228 0000 0048     		ldr	r0, .L10
 229 0002 7047     		bx	lr
 230              	.L11:
 231              		.align	2
 232              	.L10:
 233 0004 00030301 		.word	16974592
 234              		.cfi_endproc
 235              	.LFE132:
 237              		.section	.text.BSP_LED_Init,"ax",%progbits
 238              		.align	1
 239              		.global	BSP_LED_Init
 240              		.syntax unified
 241              		.thumb
ARM GAS  C:\Users\minis\AppData\Local\Temp\ccmjWota.s 			page 17


 242              		.thumb_func
 244              	BSP_LED_Init:
 245              	.LVL8:
 246              	.LFB133:
 130:../../Drivers/BSP/STM32H7xx_Nucleo/stm32h7xx_nucleo.c ****   int32_t ret = BSP_ERROR_NONE;
 247              		.loc 1 130 1 is_stmt 1 view -0
 248              		.cfi_startproc
 249              		@ args = 0, pretend = 0, frame = 32
 250              		@ frame_needed = 0, uses_anonymous_args = 0
 131:../../Drivers/BSP/STM32H7xx_Nucleo/stm32h7xx_nucleo.c ****   GPIO_InitTypeDef  gpio_init_structure;
 251              		.loc 1 131 3 view .LVU59
 132:../../Drivers/BSP/STM32H7xx_Nucleo/stm32h7xx_nucleo.c **** 
 252              		.loc 1 132 3 view .LVU60
 134:../../Drivers/BSP/STM32H7xx_Nucleo/stm32h7xx_nucleo.c ****   {
 253              		.loc 1 134 3 view .LVU61
 134:../../Drivers/BSP/STM32H7xx_Nucleo/stm32h7xx_nucleo.c ****   {
 254              		.loc 1 134 5 is_stmt 0 view .LVU62
 255 0000 0228     		cmp	r0, #2
 256 0002 46D8     		bhi	.L17
 130:../../Drivers/BSP/STM32H7xx_Nucleo/stm32h7xx_nucleo.c ****   int32_t ret = BSP_ERROR_NONE;
 257              		.loc 1 130 1 view .LVU63
 258 0004 70B5     		push	{r4, r5, r6, lr}
 259              	.LCFI6:
 260              		.cfi_def_cfa_offset 16
 261              		.cfi_offset 4, -16
 262              		.cfi_offset 5, -12
 263              		.cfi_offset 6, -8
 264              		.cfi_offset 14, -4
 265 0006 88B0     		sub	sp, sp, #32
 266              	.LCFI7:
 267              		.cfi_def_cfa_offset 48
 141:../../Drivers/BSP/STM32H7xx_Nucleo/stm32h7xx_nucleo.c ****     {
 268              		.loc 1 141 5 is_stmt 1 view .LVU64
 141:../../Drivers/BSP/STM32H7xx_Nucleo/stm32h7xx_nucleo.c ****     {
 269              		.loc 1 141 7 is_stmt 0 view .LVU65
 270 0008 28BB     		cbnz	r0, .L14
 143:../../Drivers/BSP/STM32H7xx_Nucleo/stm32h7xx_nucleo.c ****     }
 271              		.loc 1 143 7 is_stmt 1 view .LVU66
 272              	.LBB5:
 143:../../Drivers/BSP/STM32H7xx_Nucleo/stm32h7xx_nucleo.c ****     }
 273              		.loc 1 143 7 view .LVU67
 143:../../Drivers/BSP/STM32H7xx_Nucleo/stm32h7xx_nucleo.c ****     }
 274              		.loc 1 143 7 view .LVU68
 275 000a 234B     		ldr	r3, .L23
 276 000c D3F8E020 		ldr	r2, [r3, #224]
 277 0010 42F00202 		orr	r2, r2, #2
 278 0014 C3F8E020 		str	r2, [r3, #224]
 143:../../Drivers/BSP/STM32H7xx_Nucleo/stm32h7xx_nucleo.c ****     }
 279              		.loc 1 143 7 view .LVU69
 280 0018 D3F8E030 		ldr	r3, [r3, #224]
 281 001c 03F00203 		and	r3, r3, #2
 282 0020 0093     		str	r3, [sp]
 143:../../Drivers/BSP/STM32H7xx_Nucleo/stm32h7xx_nucleo.c ****     }
 283              		.loc 1 143 7 view .LVU70
 284 0022 009B     		ldr	r3, [sp]
 285              	.LBE5:
 143:../../Drivers/BSP/STM32H7xx_Nucleo/stm32h7xx_nucleo.c ****     }
ARM GAS  C:\Users\minis\AppData\Local\Temp\ccmjWota.s 			page 18


 286              		.loc 1 143 7 view .LVU71
 287              	.L15:
 151:../../Drivers/BSP/STM32H7xx_Nucleo/stm32h7xx_nucleo.c ****     }
 288              		.loc 1 151 7 view .LVU72
 154:../../Drivers/BSP/STM32H7xx_Nucleo/stm32h7xx_nucleo.c ****     gpio_init_structure.Mode  = GPIO_MODE_OUTPUT_PP;
 289              		.loc 1 154 5 view .LVU73
 154:../../Drivers/BSP/STM32H7xx_Nucleo/stm32h7xx_nucleo.c ****     gpio_init_structure.Mode  = GPIO_MODE_OUTPUT_PP;
 290              		.loc 1 154 40 is_stmt 0 view .LVU74
 291 0024 1D4B     		ldr	r3, .L23+4
 292 0026 33F81060 		ldrh	r6, [r3, r0, lsl #1]
 154:../../Drivers/BSP/STM32H7xx_Nucleo/stm32h7xx_nucleo.c ****     gpio_init_structure.Mode  = GPIO_MODE_OUTPUT_PP;
 293              		.loc 1 154 31 view .LVU75
 294 002a 0396     		str	r6, [sp, #12]
 155:../../Drivers/BSP/STM32H7xx_Nucleo/stm32h7xx_nucleo.c ****     gpio_init_structure.Pull  = GPIO_NOPULL;
 295              		.loc 1 155 5 is_stmt 1 view .LVU76
 155:../../Drivers/BSP/STM32H7xx_Nucleo/stm32h7xx_nucleo.c ****     gpio_init_structure.Pull  = GPIO_NOPULL;
 296              		.loc 1 155 31 is_stmt 0 view .LVU77
 297 002c 0123     		movs	r3, #1
 298 002e 0493     		str	r3, [sp, #16]
 156:../../Drivers/BSP/STM32H7xx_Nucleo/stm32h7xx_nucleo.c ****     gpio_init_structure.Speed = GPIO_SPEED_FREQ_VERY_HIGH;
 299              		.loc 1 156 5 is_stmt 1 view .LVU78
 156:../../Drivers/BSP/STM32H7xx_Nucleo/stm32h7xx_nucleo.c ****     gpio_init_structure.Speed = GPIO_SPEED_FREQ_VERY_HIGH;
 300              		.loc 1 156 31 is_stmt 0 view .LVU79
 301 0030 0024     		movs	r4, #0
 302 0032 0594     		str	r4, [sp, #20]
 157:../../Drivers/BSP/STM32H7xx_Nucleo/stm32h7xx_nucleo.c **** 
 303              		.loc 1 157 5 is_stmt 1 view .LVU80
 157:../../Drivers/BSP/STM32H7xx_Nucleo/stm32h7xx_nucleo.c **** 
 304              		.loc 1 157 31 is_stmt 0 view .LVU81
 305 0034 0323     		movs	r3, #3
 306 0036 0693     		str	r3, [sp, #24]
 159:../../Drivers/BSP/STM32H7xx_Nucleo/stm32h7xx_nucleo.c ****     HAL_GPIO_WritePin(LED_PORT[Led], LED_PIN[Led], GPIO_PIN_RESET);
 307              		.loc 1 159 5 is_stmt 1 view .LVU82
 308 0038 194B     		ldr	r3, .L23+8
 309 003a 53F82050 		ldr	r5, [r3, r0, lsl #2]
 310 003e 03A9     		add	r1, sp, #12
 311 0040 2846     		mov	r0, r5
 312              	.LVL9:
 159:../../Drivers/BSP/STM32H7xx_Nucleo/stm32h7xx_nucleo.c ****     HAL_GPIO_WritePin(LED_PORT[Led], LED_PIN[Led], GPIO_PIN_RESET);
 313              		.loc 1 159 5 is_stmt 0 view .LVU83
 314 0042 FFF7FEFF 		bl	HAL_GPIO_Init
 315              	.LVL10:
 160:../../Drivers/BSP/STM32H7xx_Nucleo/stm32h7xx_nucleo.c ****   }
 316              		.loc 1 160 5 is_stmt 1 view .LVU84
 317 0046 2246     		mov	r2, r4
 318 0048 3146     		mov	r1, r6
 319 004a 2846     		mov	r0, r5
 320 004c FFF7FEFF 		bl	HAL_GPIO_WritePin
 321              	.LVL11:
 131:../../Drivers/BSP/STM32H7xx_Nucleo/stm32h7xx_nucleo.c ****   GPIO_InitTypeDef  gpio_init_structure;
 322              		.loc 1 131 11 is_stmt 0 view .LVU85
 323 0050 2046     		mov	r0, r4
 164:../../Drivers/BSP/STM32H7xx_Nucleo/stm32h7xx_nucleo.c **** 
 324              		.loc 1 164 1 view .LVU86
 325 0052 08B0     		add	sp, sp, #32
 326              	.LCFI8:
 327              		.cfi_remember_state
ARM GAS  C:\Users\minis\AppData\Local\Temp\ccmjWota.s 			page 19


 328              		.cfi_def_cfa_offset 16
 329              		@ sp needed
 330 0054 70BD     		pop	{r4, r5, r6, pc}
 331              	.LVL12:
 332              	.L14:
 333              	.LCFI9:
 334              		.cfi_restore_state
 145:../../Drivers/BSP/STM32H7xx_Nucleo/stm32h7xx_nucleo.c ****     {
 335              		.loc 1 145 10 is_stmt 1 view .LVU87
 145:../../Drivers/BSP/STM32H7xx_Nucleo/stm32h7xx_nucleo.c ****     {
 336              		.loc 1 145 12 is_stmt 0 view .LVU88
 337 0056 0128     		cmp	r0, #1
 338 0058 0DD0     		beq	.L22
 151:../../Drivers/BSP/STM32H7xx_Nucleo/stm32h7xx_nucleo.c ****     }
 339              		.loc 1 151 7 is_stmt 1 view .LVU89
 340              	.LBB6:
 151:../../Drivers/BSP/STM32H7xx_Nucleo/stm32h7xx_nucleo.c ****     }
 341              		.loc 1 151 7 view .LVU90
 151:../../Drivers/BSP/STM32H7xx_Nucleo/stm32h7xx_nucleo.c ****     }
 342              		.loc 1 151 7 view .LVU91
 343 005a 0F4B     		ldr	r3, .L23
 344 005c D3F8E020 		ldr	r2, [r3, #224]
 345 0060 42F00202 		orr	r2, r2, #2
 346 0064 C3F8E020 		str	r2, [r3, #224]
 151:../../Drivers/BSP/STM32H7xx_Nucleo/stm32h7xx_nucleo.c ****     }
 347              		.loc 1 151 7 view .LVU92
 348 0068 D3F8E030 		ldr	r3, [r3, #224]
 349 006c 03F00203 		and	r3, r3, #2
 350 0070 0293     		str	r3, [sp, #8]
 151:../../Drivers/BSP/STM32H7xx_Nucleo/stm32h7xx_nucleo.c ****     }
 351              		.loc 1 151 7 view .LVU93
 352 0072 029B     		ldr	r3, [sp, #8]
 353 0074 D6E7     		b	.L15
 354              	.L22:
 355              	.LBE6:
 147:../../Drivers/BSP/STM32H7xx_Nucleo/stm32h7xx_nucleo.c ****     }
 356              		.loc 1 147 7 view .LVU94
 357              	.LBB7:
 147:../../Drivers/BSP/STM32H7xx_Nucleo/stm32h7xx_nucleo.c ****     }
 358              		.loc 1 147 7 view .LVU95
 147:../../Drivers/BSP/STM32H7xx_Nucleo/stm32h7xx_nucleo.c ****     }
 359              		.loc 1 147 7 view .LVU96
 360 0076 084B     		ldr	r3, .L23
 361 0078 D3F8E020 		ldr	r2, [r3, #224]
 362 007c 42F01002 		orr	r2, r2, #16
 363 0080 C3F8E020 		str	r2, [r3, #224]
 147:../../Drivers/BSP/STM32H7xx_Nucleo/stm32h7xx_nucleo.c ****     }
 364              		.loc 1 147 7 view .LVU97
 365 0084 D3F8E030 		ldr	r3, [r3, #224]
 366 0088 03F01003 		and	r3, r3, #16
 367 008c 0193     		str	r3, [sp, #4]
 147:../../Drivers/BSP/STM32H7xx_Nucleo/stm32h7xx_nucleo.c ****     }
 368              		.loc 1 147 7 view .LVU98
 369 008e 019B     		ldr	r3, [sp, #4]
 370              	.LBE7:
 147:../../Drivers/BSP/STM32H7xx_Nucleo/stm32h7xx_nucleo.c ****     }
 371              		.loc 1 147 7 view .LVU99
ARM GAS  C:\Users\minis\AppData\Local\Temp\ccmjWota.s 			page 20


 372 0090 C8E7     		b	.L15
 373              	.L17:
 374              	.LCFI10:
 375              		.cfi_def_cfa_offset 0
 376              		.cfi_restore 4
 377              		.cfi_restore 5
 378              		.cfi_restore 6
 379              		.cfi_restore 14
 136:../../Drivers/BSP/STM32H7xx_Nucleo/stm32h7xx_nucleo.c ****   }
 380              		.loc 1 136 9 is_stmt 0 view .LVU100
 381 0092 6FF00100 		mvn	r0, #1
 382              	.LVL13:
 163:../../Drivers/BSP/STM32H7xx_Nucleo/stm32h7xx_nucleo.c **** }
 383              		.loc 1 163 3 is_stmt 1 view .LVU101
 164:../../Drivers/BSP/STM32H7xx_Nucleo/stm32h7xx_nucleo.c **** 
 384              		.loc 1 164 1 is_stmt 0 view .LVU102
 385 0096 7047     		bx	lr
 386              	.L24:
 387              		.align	2
 388              	.L23:
 389 0098 00440258 		.word	1476543488
 390 009c 00000000 		.word	LED_PIN
 391 00a0 00000000 		.word	LED_PORT
 392              		.cfi_endproc
 393              	.LFE133:
 395              		.section	.text.BSP_LED_DeInit,"ax",%progbits
 396              		.align	1
 397              		.global	BSP_LED_DeInit
 398              		.syntax unified
 399              		.thumb
 400              		.thumb_func
 402              	BSP_LED_DeInit:
 403              	.LVL14:
 404              	.LFB134:
 177:../../Drivers/BSP/STM32H7xx_Nucleo/stm32h7xx_nucleo.c ****   int32_t ret = BSP_ERROR_NONE;
 405              		.loc 1 177 1 is_stmt 1 view -0
 406              		.cfi_startproc
 407              		@ args = 0, pretend = 0, frame = 24
 408              		@ frame_needed = 0, uses_anonymous_args = 0
 178:../../Drivers/BSP/STM32H7xx_Nucleo/stm32h7xx_nucleo.c ****   GPIO_InitTypeDef  gpio_init_structure;
 409              		.loc 1 178 3 view .LVU104
 179:../../Drivers/BSP/STM32H7xx_Nucleo/stm32h7xx_nucleo.c **** 
 410              		.loc 1 179 3 view .LVU105
 181:../../Drivers/BSP/STM32H7xx_Nucleo/stm32h7xx_nucleo.c ****   {
 411              		.loc 1 181 3 view .LVU106
 181:../../Drivers/BSP/STM32H7xx_Nucleo/stm32h7xx_nucleo.c ****   {
 412              		.loc 1 181 5 is_stmt 0 view .LVU107
 413 0000 0228     		cmp	r0, #2
 414 0002 14D8     		bhi	.L27
 177:../../Drivers/BSP/STM32H7xx_Nucleo/stm32h7xx_nucleo.c ****   int32_t ret = BSP_ERROR_NONE;
 415              		.loc 1 177 1 view .LVU108
 416 0004 30B5     		push	{r4, r5, lr}
 417              	.LCFI11:
 418              		.cfi_def_cfa_offset 12
 419              		.cfi_offset 4, -12
 420              		.cfi_offset 5, -8
 421              		.cfi_offset 14, -4
ARM GAS  C:\Users\minis\AppData\Local\Temp\ccmjWota.s 			page 21


 422 0006 87B0     		sub	sp, sp, #28
 423              	.LCFI12:
 424              		.cfi_def_cfa_offset 40
 188:../../Drivers/BSP/STM32H7xx_Nucleo/stm32h7xx_nucleo.c ****     /* DeInit the GPIO_LED pin */
 425              		.loc 1 188 5 is_stmt 1 view .LVU109
 188:../../Drivers/BSP/STM32H7xx_Nucleo/stm32h7xx_nucleo.c ****     /* DeInit the GPIO_LED pin */
 426              		.loc 1 188 45 is_stmt 0 view .LVU110
 427 0008 0A4B     		ldr	r3, .L32
 428 000a 33F81040 		ldrh	r4, [r3, r0, lsl #1]
 188:../../Drivers/BSP/STM32H7xx_Nucleo/stm32h7xx_nucleo.c ****     /* DeInit the GPIO_LED pin */
 429              		.loc 1 188 5 view .LVU111
 430 000e 0A4B     		ldr	r3, .L32+4
 431 0010 53F82050 		ldr	r5, [r3, r0, lsl #2]
 432 0014 0022     		movs	r2, #0
 433 0016 2146     		mov	r1, r4
 434 0018 2846     		mov	r0, r5
 435              	.LVL15:
 188:../../Drivers/BSP/STM32H7xx_Nucleo/stm32h7xx_nucleo.c ****     /* DeInit the GPIO_LED pin */
 436              		.loc 1 188 5 view .LVU112
 437 001a FFF7FEFF 		bl	HAL_GPIO_WritePin
 438              	.LVL16:
 190:../../Drivers/BSP/STM32H7xx_Nucleo/stm32h7xx_nucleo.c ****     HAL_GPIO_DeInit(LED_PORT[Led], gpio_init_structure.Pin);
 439              		.loc 1 190 5 is_stmt 1 view .LVU113
 190:../../Drivers/BSP/STM32H7xx_Nucleo/stm32h7xx_nucleo.c ****     HAL_GPIO_DeInit(LED_PORT[Led], gpio_init_structure.Pin);
 440              		.loc 1 190 29 is_stmt 0 view .LVU114
 441 001e 0194     		str	r4, [sp, #4]
 191:../../Drivers/BSP/STM32H7xx_Nucleo/stm32h7xx_nucleo.c ****   }
 442              		.loc 1 191 5 is_stmt 1 view .LVU115
 443 0020 2146     		mov	r1, r4
 444 0022 2846     		mov	r0, r5
 445 0024 FFF7FEFF 		bl	HAL_GPIO_DeInit
 446              	.LVL17:
 178:../../Drivers/BSP/STM32H7xx_Nucleo/stm32h7xx_nucleo.c ****   GPIO_InitTypeDef  gpio_init_structure;
 447              		.loc 1 178 11 is_stmt 0 view .LVU116
 448 0028 0020     		movs	r0, #0
 195:../../Drivers/BSP/STM32H7xx_Nucleo/stm32h7xx_nucleo.c **** 
 449              		.loc 1 195 1 view .LVU117
 450 002a 07B0     		add	sp, sp, #28
 451              	.LCFI13:
 452              		.cfi_def_cfa_offset 12
 453              		@ sp needed
 454 002c 30BD     		pop	{r4, r5, pc}
 455              	.LVL18:
 456              	.L27:
 457              	.LCFI14:
 458              		.cfi_def_cfa_offset 0
 459              		.cfi_restore 4
 460              		.cfi_restore 5
 461              		.cfi_restore 14
 183:../../Drivers/BSP/STM32H7xx_Nucleo/stm32h7xx_nucleo.c ****   }
 462              		.loc 1 183 9 view .LVU118
 463 002e 6FF00100 		mvn	r0, #1
 464              	.LVL19:
 194:../../Drivers/BSP/STM32H7xx_Nucleo/stm32h7xx_nucleo.c **** }
 465              		.loc 1 194 3 is_stmt 1 view .LVU119
 195:../../Drivers/BSP/STM32H7xx_Nucleo/stm32h7xx_nucleo.c **** 
 466              		.loc 1 195 1 is_stmt 0 view .LVU120
ARM GAS  C:\Users\minis\AppData\Local\Temp\ccmjWota.s 			page 22


 467 0032 7047     		bx	lr
 468              	.L33:
 469              		.align	2
 470              	.L32:
 471 0034 00000000 		.word	LED_PIN
 472 0038 00000000 		.word	LED_PORT
 473              		.cfi_endproc
 474              	.LFE134:
 476              		.section	.text.BSP_LED_On,"ax",%progbits
 477              		.align	1
 478              		.global	BSP_LED_On
 479              		.syntax unified
 480              		.thumb
 481              		.thumb_func
 483              	BSP_LED_On:
 484              	.LVL20:
 485              	.LFB135:
 207:../../Drivers/BSP/STM32H7xx_Nucleo/stm32h7xx_nucleo.c ****   int32_t ret = BSP_ERROR_NONE;
 486              		.loc 1 207 1 is_stmt 1 view -0
 487              		.cfi_startproc
 488              		@ args = 0, pretend = 0, frame = 0
 489              		@ frame_needed = 0, uses_anonymous_args = 0
 208:../../Drivers/BSP/STM32H7xx_Nucleo/stm32h7xx_nucleo.c **** 
 490              		.loc 1 208 3 view .LVU122
 210:../../Drivers/BSP/STM32H7xx_Nucleo/stm32h7xx_nucleo.c ****   {
 491              		.loc 1 210 3 view .LVU123
 210:../../Drivers/BSP/STM32H7xx_Nucleo/stm32h7xx_nucleo.c ****   {
 492              		.loc 1 210 5 is_stmt 0 view .LVU124
 493 0000 0228     		cmp	r0, #2
 494 0002 0BD8     		bhi	.L36
 207:../../Drivers/BSP/STM32H7xx_Nucleo/stm32h7xx_nucleo.c ****   int32_t ret = BSP_ERROR_NONE;
 495              		.loc 1 207 1 view .LVU125
 496 0004 08B5     		push	{r3, lr}
 497              	.LCFI15:
 498              		.cfi_def_cfa_offset 8
 499              		.cfi_offset 3, -8
 500              		.cfi_offset 14, -4
 216:../../Drivers/BSP/STM32H7xx_Nucleo/stm32h7xx_nucleo.c ****   }
 501              		.loc 1 216 5 is_stmt 1 view .LVU126
 502 0006 0122     		movs	r2, #1
 503 0008 064B     		ldr	r3, .L41
 504 000a 33F81010 		ldrh	r1, [r3, r0, lsl #1]
 505 000e 064B     		ldr	r3, .L41+4
 506 0010 53F82000 		ldr	r0, [r3, r0, lsl #2]
 507              	.LVL21:
 216:../../Drivers/BSP/STM32H7xx_Nucleo/stm32h7xx_nucleo.c ****   }
 508              		.loc 1 216 5 is_stmt 0 view .LVU127
 509 0014 FFF7FEFF 		bl	HAL_GPIO_WritePin
 510              	.LVL22:
 208:../../Drivers/BSP/STM32H7xx_Nucleo/stm32h7xx_nucleo.c **** 
 511              		.loc 1 208 11 view .LVU128
 512 0018 0020     		movs	r0, #0
 220:../../Drivers/BSP/STM32H7xx_Nucleo/stm32h7xx_nucleo.c **** 
 513              		.loc 1 220 1 view .LVU129
 514 001a 08BD     		pop	{r3, pc}
 515              	.LVL23:
 516              	.L36:
ARM GAS  C:\Users\minis\AppData\Local\Temp\ccmjWota.s 			page 23


 517              	.LCFI16:
 518              		.cfi_def_cfa_offset 0
 519              		.cfi_restore 3
 520              		.cfi_restore 14
 212:../../Drivers/BSP/STM32H7xx_Nucleo/stm32h7xx_nucleo.c ****   }
 521              		.loc 1 212 9 view .LVU130
 522 001c 6FF00100 		mvn	r0, #1
 523              	.LVL24:
 219:../../Drivers/BSP/STM32H7xx_Nucleo/stm32h7xx_nucleo.c **** }
 524              		.loc 1 219 3 is_stmt 1 view .LVU131
 220:../../Drivers/BSP/STM32H7xx_Nucleo/stm32h7xx_nucleo.c **** 
 525              		.loc 1 220 1 is_stmt 0 view .LVU132
 526 0020 7047     		bx	lr
 527              	.L42:
 528 0022 00BF     		.align	2
 529              	.L41:
 530 0024 00000000 		.word	LED_PIN
 531 0028 00000000 		.word	LED_PORT
 532              		.cfi_endproc
 533              	.LFE135:
 535              		.section	.text.BSP_LED_Off,"ax",%progbits
 536              		.align	1
 537              		.global	BSP_LED_Off
 538              		.syntax unified
 539              		.thumb
 540              		.thumb_func
 542              	BSP_LED_Off:
 543              	.LVL25:
 544              	.LFB136:
 232:../../Drivers/BSP/STM32H7xx_Nucleo/stm32h7xx_nucleo.c ****   int32_t ret = BSP_ERROR_NONE;
 545              		.loc 1 232 1 is_stmt 1 view -0
 546              		.cfi_startproc
 547              		@ args = 0, pretend = 0, frame = 0
 548              		@ frame_needed = 0, uses_anonymous_args = 0
 233:../../Drivers/BSP/STM32H7xx_Nucleo/stm32h7xx_nucleo.c **** 
 549              		.loc 1 233 3 view .LVU134
 235:../../Drivers/BSP/STM32H7xx_Nucleo/stm32h7xx_nucleo.c ****   {
 550              		.loc 1 235 3 view .LVU135
 235:../../Drivers/BSP/STM32H7xx_Nucleo/stm32h7xx_nucleo.c ****   {
 551              		.loc 1 235 5 is_stmt 0 view .LVU136
 552 0000 0228     		cmp	r0, #2
 553 0002 0BD8     		bhi	.L45
 232:../../Drivers/BSP/STM32H7xx_Nucleo/stm32h7xx_nucleo.c ****   int32_t ret = BSP_ERROR_NONE;
 554              		.loc 1 232 1 view .LVU137
 555 0004 08B5     		push	{r3, lr}
 556              	.LCFI17:
 557              		.cfi_def_cfa_offset 8
 558              		.cfi_offset 3, -8
 559              		.cfi_offset 14, -4
 241:../../Drivers/BSP/STM32H7xx_Nucleo/stm32h7xx_nucleo.c ****   }
 560              		.loc 1 241 5 is_stmt 1 view .LVU138
 561 0006 0022     		movs	r2, #0
 562 0008 064B     		ldr	r3, .L50
 563 000a 33F81010 		ldrh	r1, [r3, r0, lsl #1]
 564 000e 064B     		ldr	r3, .L50+4
 565 0010 53F82000 		ldr	r0, [r3, r0, lsl #2]
 566              	.LVL26:
ARM GAS  C:\Users\minis\AppData\Local\Temp\ccmjWota.s 			page 24


 241:../../Drivers/BSP/STM32H7xx_Nucleo/stm32h7xx_nucleo.c ****   }
 567              		.loc 1 241 5 is_stmt 0 view .LVU139
 568 0014 FFF7FEFF 		bl	HAL_GPIO_WritePin
 569              	.LVL27:
 233:../../Drivers/BSP/STM32H7xx_Nucleo/stm32h7xx_nucleo.c **** 
 570              		.loc 1 233 11 view .LVU140
 571 0018 0020     		movs	r0, #0
 245:../../Drivers/BSP/STM32H7xx_Nucleo/stm32h7xx_nucleo.c **** 
 572              		.loc 1 245 1 view .LVU141
 573 001a 08BD     		pop	{r3, pc}
 574              	.LVL28:
 575              	.L45:
 576              	.LCFI18:
 577              		.cfi_def_cfa_offset 0
 578              		.cfi_restore 3
 579              		.cfi_restore 14
 237:../../Drivers/BSP/STM32H7xx_Nucleo/stm32h7xx_nucleo.c ****   }
 580              		.loc 1 237 9 view .LVU142
 581 001c 6FF00100 		mvn	r0, #1
 582              	.LVL29:
 244:../../Drivers/BSP/STM32H7xx_Nucleo/stm32h7xx_nucleo.c **** }
 583              		.loc 1 244 3 is_stmt 1 view .LVU143
 245:../../Drivers/BSP/STM32H7xx_Nucleo/stm32h7xx_nucleo.c **** 
 584              		.loc 1 245 1 is_stmt 0 view .LVU144
 585 0020 7047     		bx	lr
 586              	.L51:
 587 0022 00BF     		.align	2
 588              	.L50:
 589 0024 00000000 		.word	LED_PIN
 590 0028 00000000 		.word	LED_PORT
 591              		.cfi_endproc
 592              	.LFE136:
 594              		.section	.text.BSP_LED_Toggle,"ax",%progbits
 595              		.align	1
 596              		.global	BSP_LED_Toggle
 597              		.syntax unified
 598              		.thumb
 599              		.thumb_func
 601              	BSP_LED_Toggle:
 602              	.LVL30:
 603              	.LFB137:
 257:../../Drivers/BSP/STM32H7xx_Nucleo/stm32h7xx_nucleo.c ****   int32_t ret = BSP_ERROR_NONE;
 604              		.loc 1 257 1 is_stmt 1 view -0
 605              		.cfi_startproc
 606              		@ args = 0, pretend = 0, frame = 0
 607              		@ frame_needed = 0, uses_anonymous_args = 0
 258:../../Drivers/BSP/STM32H7xx_Nucleo/stm32h7xx_nucleo.c **** 
 608              		.loc 1 258 3 view .LVU146
 260:../../Drivers/BSP/STM32H7xx_Nucleo/stm32h7xx_nucleo.c ****   {
 609              		.loc 1 260 3 view .LVU147
 260:../../Drivers/BSP/STM32H7xx_Nucleo/stm32h7xx_nucleo.c ****   {
 610              		.loc 1 260 5 is_stmt 0 view .LVU148
 611 0000 0228     		cmp	r0, #2
 612 0002 0AD8     		bhi	.L54
 257:../../Drivers/BSP/STM32H7xx_Nucleo/stm32h7xx_nucleo.c ****   int32_t ret = BSP_ERROR_NONE;
 613              		.loc 1 257 1 view .LVU149
 614 0004 08B5     		push	{r3, lr}
ARM GAS  C:\Users\minis\AppData\Local\Temp\ccmjWota.s 			page 25


 615              	.LCFI19:
 616              		.cfi_def_cfa_offset 8
 617              		.cfi_offset 3, -8
 618              		.cfi_offset 14, -4
 266:../../Drivers/BSP/STM32H7xx_Nucleo/stm32h7xx_nucleo.c ****   }
 619              		.loc 1 266 5 is_stmt 1 view .LVU150
 620 0006 064B     		ldr	r3, .L59
 621 0008 33F81010 		ldrh	r1, [r3, r0, lsl #1]
 622 000c 054B     		ldr	r3, .L59+4
 623 000e 53F82000 		ldr	r0, [r3, r0, lsl #2]
 624              	.LVL31:
 266:../../Drivers/BSP/STM32H7xx_Nucleo/stm32h7xx_nucleo.c ****   }
 625              		.loc 1 266 5 is_stmt 0 view .LVU151
 626 0012 FFF7FEFF 		bl	HAL_GPIO_TogglePin
 627              	.LVL32:
 258:../../Drivers/BSP/STM32H7xx_Nucleo/stm32h7xx_nucleo.c **** 
 628              		.loc 1 258 11 view .LVU152
 629 0016 0020     		movs	r0, #0
 270:../../Drivers/BSP/STM32H7xx_Nucleo/stm32h7xx_nucleo.c **** 
 630              		.loc 1 270 1 view .LVU153
 631 0018 08BD     		pop	{r3, pc}
 632              	.LVL33:
 633              	.L54:
 634              	.LCFI20:
 635              		.cfi_def_cfa_offset 0
 636              		.cfi_restore 3
 637              		.cfi_restore 14
 262:../../Drivers/BSP/STM32H7xx_Nucleo/stm32h7xx_nucleo.c ****   }
 638              		.loc 1 262 9 view .LVU154
 639 001a 6FF00100 		mvn	r0, #1
 640              	.LVL34:
 269:../../Drivers/BSP/STM32H7xx_Nucleo/stm32h7xx_nucleo.c **** }
 641              		.loc 1 269 3 is_stmt 1 view .LVU155
 270:../../Drivers/BSP/STM32H7xx_Nucleo/stm32h7xx_nucleo.c **** 
 642              		.loc 1 270 1 is_stmt 0 view .LVU156
 643 001e 7047     		bx	lr
 644              	.L60:
 645              		.align	2
 646              	.L59:
 647 0020 00000000 		.word	LED_PIN
 648 0024 00000000 		.word	LED_PORT
 649              		.cfi_endproc
 650              	.LFE137:
 652              		.section	.text.BSP_LED_GetState,"ax",%progbits
 653              		.align	1
 654              		.global	BSP_LED_GetState
 655              		.syntax unified
 656              		.thumb
 657              		.thumb_func
 659              	BSP_LED_GetState:
 660              	.LVL35:
 661              	.LFB138:
 282:../../Drivers/BSP/STM32H7xx_Nucleo/stm32h7xx_nucleo.c ****   int32_t ret;
 662              		.loc 1 282 1 is_stmt 1 view -0
 663              		.cfi_startproc
 664              		@ args = 0, pretend = 0, frame = 0
 665              		@ frame_needed = 0, uses_anonymous_args = 0
ARM GAS  C:\Users\minis\AppData\Local\Temp\ccmjWota.s 			page 26


 283:../../Drivers/BSP/STM32H7xx_Nucleo/stm32h7xx_nucleo.c **** 
 666              		.loc 1 283 3 view .LVU158
 285:../../Drivers/BSP/STM32H7xx_Nucleo/stm32h7xx_nucleo.c ****   {
 667              		.loc 1 285 3 view .LVU159
 285:../../Drivers/BSP/STM32H7xx_Nucleo/stm32h7xx_nucleo.c ****   {
 668              		.loc 1 285 5 is_stmt 0 view .LVU160
 669 0000 0228     		cmp	r0, #2
 670 0002 09D8     		bhi	.L63
 282:../../Drivers/BSP/STM32H7xx_Nucleo/stm32h7xx_nucleo.c ****   int32_t ret;
 671              		.loc 1 282 1 view .LVU161
 672 0004 08B5     		push	{r3, lr}
 673              	.LCFI21:
 674              		.cfi_def_cfa_offset 8
 675              		.cfi_offset 3, -8
 676              		.cfi_offset 14, -4
 291:../../Drivers/BSP/STM32H7xx_Nucleo/stm32h7xx_nucleo.c ****   }
 677              		.loc 1 291 5 is_stmt 1 view .LVU162
 291:../../Drivers/BSP/STM32H7xx_Nucleo/stm32h7xx_nucleo.c ****   }
 678              		.loc 1 291 20 is_stmt 0 view .LVU163
 679 0006 064B     		ldr	r3, .L68
 680 0008 33F81010 		ldrh	r1, [r3, r0, lsl #1]
 681 000c 054B     		ldr	r3, .L68+4
 682 000e 53F82000 		ldr	r0, [r3, r0, lsl #2]
 683              	.LVL36:
 291:../../Drivers/BSP/STM32H7xx_Nucleo/stm32h7xx_nucleo.c ****   }
 684              		.loc 1 291 20 view .LVU164
 685 0012 FFF7FEFF 		bl	HAL_GPIO_ReadPin
 686              	.LVL37:
 295:../../Drivers/BSP/STM32H7xx_Nucleo/stm32h7xx_nucleo.c **** 
 687              		.loc 1 295 1 view .LVU165
 688 0016 08BD     		pop	{r3, pc}
 689              	.LVL38:
 690              	.L63:
 691              	.LCFI22:
 692              		.cfi_def_cfa_offset 0
 693              		.cfi_restore 3
 694              		.cfi_restore 14
 287:../../Drivers/BSP/STM32H7xx_Nucleo/stm32h7xx_nucleo.c ****   }
 695              		.loc 1 287 9 view .LVU166
 696 0018 6FF00100 		mvn	r0, #1
 697              	.LVL39:
 294:../../Drivers/BSP/STM32H7xx_Nucleo/stm32h7xx_nucleo.c **** }
 698              		.loc 1 294 3 is_stmt 1 view .LVU167
 295:../../Drivers/BSP/STM32H7xx_Nucleo/stm32h7xx_nucleo.c **** 
 699              		.loc 1 295 1 is_stmt 0 view .LVU168
 700 001c 7047     		bx	lr
 701              	.L69:
 702 001e 00BF     		.align	2
 703              	.L68:
 704 0020 00000000 		.word	LED_PIN
 705 0024 00000000 		.word	LED_PORT
 706              		.cfi_endproc
 707              	.LFE138:
 709              		.section	.text.BSP_PB_Init,"ax",%progbits
 710              		.align	1
 711              		.global	BSP_PB_Init
 712              		.syntax unified
ARM GAS  C:\Users\minis\AppData\Local\Temp\ccmjWota.s 			page 27


 713              		.thumb
 714              		.thumb_func
 716              	BSP_PB_Init:
 717              	.LVL40:
 718              	.LFB139:
 309:../../Drivers/BSP/STM32H7xx_Nucleo/stm32h7xx_nucleo.c ****   GPIO_InitTypeDef gpio_init_structure;
 719              		.loc 1 309 1 is_stmt 1 view -0
 720              		.cfi_startproc
 721              		@ args = 0, pretend = 0, frame = 24
 722              		@ frame_needed = 0, uses_anonymous_args = 0
 309:../../Drivers/BSP/STM32H7xx_Nucleo/stm32h7xx_nucleo.c ****   GPIO_InitTypeDef gpio_init_structure;
 723              		.loc 1 309 1 is_stmt 0 view .LVU170
 724 0000 10B5     		push	{r4, lr}
 725              	.LCFI23:
 726              		.cfi_def_cfa_offset 8
 727              		.cfi_offset 4, -8
 728              		.cfi_offset 14, -4
 729 0002 86B0     		sub	sp, sp, #24
 730              	.LCFI24:
 731              		.cfi_def_cfa_offset 32
 310:../../Drivers/BSP/STM32H7xx_Nucleo/stm32h7xx_nucleo.c ****   static BSP_EXTI_LineCallback ButtonCallback[BUTTONn] = {BUTTON_USER_EXTI_Callback};
 732              		.loc 1 310 3 is_stmt 1 view .LVU171
 311:../../Drivers/BSP/STM32H7xx_Nucleo/stm32h7xx_nucleo.c ****   static uint32_t  BSP_BUTTON_PRIO [BUTTONn] = {BSP_BUTTON_USER_IT_PRIORITY};
 733              		.loc 1 311 3 view .LVU172
 312:../../Drivers/BSP/STM32H7xx_Nucleo/stm32h7xx_nucleo.c ****   static const uint32_t BUTTON_EXTI_LINE[BUTTONn] = {BUTTON_USER_EXTI_LINE};
 734              		.loc 1 312 3 view .LVU173
 313:../../Drivers/BSP/STM32H7xx_Nucleo/stm32h7xx_nucleo.c **** 
 735              		.loc 1 313 3 view .LVU174
 316:../../Drivers/BSP/STM32H7xx_Nucleo/stm32h7xx_nucleo.c **** 
 736              		.loc 1 316 3 view .LVU175
 737              	.LBB8:
 316:../../Drivers/BSP/STM32H7xx_Nucleo/stm32h7xx_nucleo.c **** 
 738              		.loc 1 316 3 view .LVU176
 316:../../Drivers/BSP/STM32H7xx_Nucleo/stm32h7xx_nucleo.c **** 
 739              		.loc 1 316 3 view .LVU177
 740 0004 1C4B     		ldr	r3, .L74
 741 0006 D3F8E020 		ldr	r2, [r3, #224]
 742 000a 42F00402 		orr	r2, r2, #4
 743 000e C3F8E020 		str	r2, [r3, #224]
 316:../../Drivers/BSP/STM32H7xx_Nucleo/stm32h7xx_nucleo.c **** 
 744              		.loc 1 316 3 view .LVU178
 745 0012 D3F8E030 		ldr	r3, [r3, #224]
 746 0016 03F00403 		and	r3, r3, #4
 747 001a 0093     		str	r3, [sp]
 316:../../Drivers/BSP/STM32H7xx_Nucleo/stm32h7xx_nucleo.c **** 
 748              		.loc 1 316 3 view .LVU179
 749 001c 009B     		ldr	r3, [sp]
 750              	.LBE8:
 316:../../Drivers/BSP/STM32H7xx_Nucleo/stm32h7xx_nucleo.c **** 
 751              		.loc 1 316 3 view .LVU180
 318:../../Drivers/BSP/STM32H7xx_Nucleo/stm32h7xx_nucleo.c ****   gpio_init_structure.Pull = GPIO_PULLDOWN;
 752              		.loc 1 318 3 view .LVU181
 318:../../Drivers/BSP/STM32H7xx_Nucleo/stm32h7xx_nucleo.c ****   gpio_init_structure.Pull = GPIO_PULLDOWN;
 753              		.loc 1 318 27 is_stmt 0 view .LVU182
 754 001e 4FF40053 		mov	r3, #8192
 755 0022 0193     		str	r3, [sp, #4]
 319:../../Drivers/BSP/STM32H7xx_Nucleo/stm32h7xx_nucleo.c ****   gpio_init_structure.Speed = GPIO_SPEED_FREQ_HIGH;
ARM GAS  C:\Users\minis\AppData\Local\Temp\ccmjWota.s 			page 28


 756              		.loc 1 319 3 is_stmt 1 view .LVU183
 319:../../Drivers/BSP/STM32H7xx_Nucleo/stm32h7xx_nucleo.c ****   gpio_init_structure.Speed = GPIO_SPEED_FREQ_HIGH;
 757              		.loc 1 319 28 is_stmt 0 view .LVU184
 758 0024 0223     		movs	r3, #2
 759 0026 0393     		str	r3, [sp, #12]
 320:../../Drivers/BSP/STM32H7xx_Nucleo/stm32h7xx_nucleo.c **** 
 760              		.loc 1 320 3 is_stmt 1 view .LVU185
 320:../../Drivers/BSP/STM32H7xx_Nucleo/stm32h7xx_nucleo.c **** 
 761              		.loc 1 320 29 is_stmt 0 view .LVU186
 762 0028 0493     		str	r3, [sp, #16]
 322:../../Drivers/BSP/STM32H7xx_Nucleo/stm32h7xx_nucleo.c ****   {
 763              		.loc 1 322 3 is_stmt 1 view .LVU187
 322:../../Drivers/BSP/STM32H7xx_Nucleo/stm32h7xx_nucleo.c ****   {
 764              		.loc 1 322 5 is_stmt 0 view .LVU188
 765 002a 41B9     		cbnz	r1, .L71
 325:../../Drivers/BSP/STM32H7xx_Nucleo/stm32h7xx_nucleo.c ****     HAL_GPIO_Init(BUTTON_PORT [Button], &gpio_init_structure);
 766              		.loc 1 325 5 is_stmt 1 view .LVU189
 325:../../Drivers/BSP/STM32H7xx_Nucleo/stm32h7xx_nucleo.c ****     HAL_GPIO_Init(BUTTON_PORT [Button], &gpio_init_structure);
 767              		.loc 1 325 30 is_stmt 0 view .LVU190
 768 002c 0023     		movs	r3, #0
 769 002e 0293     		str	r3, [sp, #8]
 326:../../Drivers/BSP/STM32H7xx_Nucleo/stm32h7xx_nucleo.c ****   }
 770              		.loc 1 326 5 is_stmt 1 view .LVU191
 771 0030 01A9     		add	r1, sp, #4
 772              	.LVL41:
 326:../../Drivers/BSP/STM32H7xx_Nucleo/stm32h7xx_nucleo.c ****   }
 773              		.loc 1 326 5 is_stmt 0 view .LVU192
 774 0032 1248     		ldr	r0, .L74+4
 775              	.LVL42:
 326:../../Drivers/BSP/STM32H7xx_Nucleo/stm32h7xx_nucleo.c ****   }
 776              		.loc 1 326 5 view .LVU193
 777 0034 FFF7FEFF 		bl	HAL_GPIO_Init
 778              	.LVL43:
 779              	.L72:
 343:../../Drivers/BSP/STM32H7xx_Nucleo/stm32h7xx_nucleo.c **** }
 780              		.loc 1 343 3 is_stmt 1 view .LVU194
 344:../../Drivers/BSP/STM32H7xx_Nucleo/stm32h7xx_nucleo.c **** 
 781              		.loc 1 344 1 is_stmt 0 view .LVU195
 782 0038 0020     		movs	r0, #0
 783 003a 06B0     		add	sp, sp, #24
 784              	.LCFI25:
 785              		.cfi_remember_state
 786              		.cfi_def_cfa_offset 8
 787              		@ sp needed
 788 003c 10BD     		pop	{r4, pc}
 789              	.LVL44:
 790              	.L71:
 791              	.LCFI26:
 792              		.cfi_restore_state
 344:../../Drivers/BSP/STM32H7xx_Nucleo/stm32h7xx_nucleo.c **** 
 793              		.loc 1 344 1 view .LVU196
 794 003e 0446     		mov	r4, r0
 331:../../Drivers/BSP/STM32H7xx_Nucleo/stm32h7xx_nucleo.c **** 
 795              		.loc 1 331 5 is_stmt 1 view .LVU197
 331:../../Drivers/BSP/STM32H7xx_Nucleo/stm32h7xx_nucleo.c **** 
 796              		.loc 1 331 30 is_stmt 0 view .LVU198
 797 0040 4FF48813 		mov	r3, #1114112
ARM GAS  C:\Users\minis\AppData\Local\Temp\ccmjWota.s 			page 29


 798 0044 0293     		str	r3, [sp, #8]
 333:../../Drivers/BSP/STM32H7xx_Nucleo/stm32h7xx_nucleo.c **** 
 799              		.loc 1 333 5 is_stmt 1 view .LVU199
 800 0046 01A9     		add	r1, sp, #4
 801              	.LVL45:
 333:../../Drivers/BSP/STM32H7xx_Nucleo/stm32h7xx_nucleo.c **** 
 802              		.loc 1 333 5 is_stmt 0 view .LVU200
 803 0048 0C48     		ldr	r0, .L74+4
 804              	.LVL46:
 333:../../Drivers/BSP/STM32H7xx_Nucleo/stm32h7xx_nucleo.c **** 
 805              		.loc 1 333 5 view .LVU201
 806 004a FFF7FEFF 		bl	HAL_GPIO_Init
 807              	.LVL47:
 335:../../Drivers/BSP/STM32H7xx_Nucleo/stm32h7xx_nucleo.c ****     (void)HAL_EXTI_RegisterCallback(&hpb_exti[Button],  HAL_EXTI_COMMON_CB_ID, ButtonCallback[Butto
 808              		.loc 1 335 5 is_stmt 1 view .LVU202
 335:../../Drivers/BSP/STM32H7xx_Nucleo/stm32h7xx_nucleo.c ****     (void)HAL_EXTI_RegisterCallback(&hpb_exti[Button],  HAL_EXTI_COMMON_CB_ID, ButtonCallback[Butto
 809              		.loc 1 335 11 is_stmt 0 view .LVU203
 810 004e 0C4B     		ldr	r3, .L74+8
 811 0050 03EBC404 		add	r4, r3, r4, lsl #3
 812 0054 0B49     		ldr	r1, .L74+12
 813 0056 2046     		mov	r0, r4
 814 0058 FFF7FEFF 		bl	HAL_EXTI_GetHandle
 815              	.LVL48:
 336:../../Drivers/BSP/STM32H7xx_Nucleo/stm32h7xx_nucleo.c **** 
 816              		.loc 1 336 5 is_stmt 1 view .LVU204
 336:../../Drivers/BSP/STM32H7xx_Nucleo/stm32h7xx_nucleo.c **** 
 817              		.loc 1 336 11 is_stmt 0 view .LVU205
 818 005c 0A4A     		ldr	r2, .L74+16
 819 005e 0021     		movs	r1, #0
 820 0060 2046     		mov	r0, r4
 821 0062 FFF7FEFF 		bl	HAL_EXTI_RegisterCallback
 822              	.LVL49:
 339:../../Drivers/BSP/STM32H7xx_Nucleo/stm32h7xx_nucleo.c ****     HAL_NVIC_EnableIRQ((BUTTON_IRQn[Button]));
 823              		.loc 1 339 5 is_stmt 1 view .LVU206
 824 0066 0022     		movs	r2, #0
 825 0068 0F21     		movs	r1, #15
 826 006a 2820     		movs	r0, #40
 827 006c FFF7FEFF 		bl	HAL_NVIC_SetPriority
 828              	.LVL50:
 340:../../Drivers/BSP/STM32H7xx_Nucleo/stm32h7xx_nucleo.c ****   }
 829              		.loc 1 340 5 view .LVU207
 830 0070 2820     		movs	r0, #40
 831 0072 FFF7FEFF 		bl	HAL_NVIC_EnableIRQ
 832              	.LVL51:
 833 0076 DFE7     		b	.L72
 834              	.L75:
 835              		.align	2
 836              	.L74:
 837 0078 00440258 		.word	1476543488
 838 007c 00080258 		.word	1476528128
 839 0080 00000000 		.word	hpb_exti
 840 0084 0D007016 		.word	376438797
 841 0088 00000000 		.word	BUTTON_USER_EXTI_Callback
 842              		.cfi_endproc
 843              	.LFE139:
 845              		.section	.text.BSP_PB_DeInit,"ax",%progbits
 846              		.align	1
ARM GAS  C:\Users\minis\AppData\Local\Temp\ccmjWota.s 			page 30


 847              		.global	BSP_PB_DeInit
 848              		.syntax unified
 849              		.thumb
 850              		.thumb_func
 852              	BSP_PB_DeInit:
 853              	.LVL52:
 854              	.LFB140:
 354:../../Drivers/BSP/STM32H7xx_Nucleo/stm32h7xx_nucleo.c ****   GPIO_InitTypeDef gpio_init_structure;
 855              		.loc 1 354 1 view -0
 856              		.cfi_startproc
 857              		@ args = 0, pretend = 0, frame = 24
 858              		@ frame_needed = 0, uses_anonymous_args = 0
 354:../../Drivers/BSP/STM32H7xx_Nucleo/stm32h7xx_nucleo.c ****   GPIO_InitTypeDef gpio_init_structure;
 859              		.loc 1 354 1 is_stmt 0 view .LVU209
 860 0000 10B5     		push	{r4, lr}
 861              	.LCFI27:
 862              		.cfi_def_cfa_offset 8
 863              		.cfi_offset 4, -8
 864              		.cfi_offset 14, -4
 865 0002 86B0     		sub	sp, sp, #24
 866              	.LCFI28:
 867              		.cfi_def_cfa_offset 32
 355:../../Drivers/BSP/STM32H7xx_Nucleo/stm32h7xx_nucleo.c **** 
 868              		.loc 1 355 3 is_stmt 1 view .LVU210
 357:../../Drivers/BSP/STM32H7xx_Nucleo/stm32h7xx_nucleo.c ****   HAL_NVIC_DisableIRQ((IRQn_Type)(BUTTON_IRQn[Button]));
 869              		.loc 1 357 3 view .LVU211
 357:../../Drivers/BSP/STM32H7xx_Nucleo/stm32h7xx_nucleo.c ****   HAL_NVIC_DisableIRQ((IRQn_Type)(BUTTON_IRQn[Button]));
 870              		.loc 1 357 27 is_stmt 0 view .LVU212
 871 0004 4FF40054 		mov	r4, #8192
 872 0008 0194     		str	r4, [sp, #4]
 358:../../Drivers/BSP/STM32H7xx_Nucleo/stm32h7xx_nucleo.c ****   HAL_GPIO_DeInit(BUTTON_PORT[Button], gpio_init_structure.Pin);
 873              		.loc 1 358 3 is_stmt 1 view .LVU213
 874 000a 2820     		movs	r0, #40
 875              	.LVL53:
 358:../../Drivers/BSP/STM32H7xx_Nucleo/stm32h7xx_nucleo.c ****   HAL_GPIO_DeInit(BUTTON_PORT[Button], gpio_init_structure.Pin);
 876              		.loc 1 358 3 is_stmt 0 view .LVU214
 877 000c FFF7FEFF 		bl	HAL_NVIC_DisableIRQ
 878              	.LVL54:
 359:../../Drivers/BSP/STM32H7xx_Nucleo/stm32h7xx_nucleo.c **** 
 879              		.loc 1 359 3 is_stmt 1 view .LVU215
 880 0010 2146     		mov	r1, r4
 881 0012 0348     		ldr	r0, .L78
 882 0014 FFF7FEFF 		bl	HAL_GPIO_DeInit
 883              	.LVL55:
 361:../../Drivers/BSP/STM32H7xx_Nucleo/stm32h7xx_nucleo.c **** }
 884              		.loc 1 361 3 view .LVU216
 362:../../Drivers/BSP/STM32H7xx_Nucleo/stm32h7xx_nucleo.c **** 
 885              		.loc 1 362 1 is_stmt 0 view .LVU217
 886 0018 0020     		movs	r0, #0
 887 001a 06B0     		add	sp, sp, #24
 888              	.LCFI29:
 889              		.cfi_def_cfa_offset 8
 890              		@ sp needed
 891 001c 10BD     		pop	{r4, pc}
 892              	.L79:
 893 001e 00BF     		.align	2
 894              	.L78:
ARM GAS  C:\Users\minis\AppData\Local\Temp\ccmjWota.s 			page 31


 895 0020 00080258 		.word	1476528128
 896              		.cfi_endproc
 897              	.LFE140:
 899              		.section	.text.BSP_PB_GetState,"ax",%progbits
 900              		.align	1
 901              		.global	BSP_PB_GetState
 902              		.syntax unified
 903              		.thumb
 904              		.thumb_func
 906              	BSP_PB_GetState:
 907              	.LVL56:
 908              	.LFB141:
 372:../../Drivers/BSP/STM32H7xx_Nucleo/stm32h7xx_nucleo.c ****   return (int32_t)HAL_GPIO_ReadPin(BUTTON_PORT[Button], BUTTON_PIN[Button]);
 909              		.loc 1 372 1 is_stmt 1 view -0
 910              		.cfi_startproc
 911              		@ args = 0, pretend = 0, frame = 0
 912              		@ frame_needed = 0, uses_anonymous_args = 0
 372:../../Drivers/BSP/STM32H7xx_Nucleo/stm32h7xx_nucleo.c ****   return (int32_t)HAL_GPIO_ReadPin(BUTTON_PORT[Button], BUTTON_PIN[Button]);
 913              		.loc 1 372 1 is_stmt 0 view .LVU219
 914 0000 08B5     		push	{r3, lr}
 915              	.LCFI30:
 916              		.cfi_def_cfa_offset 8
 917              		.cfi_offset 3, -8
 918              		.cfi_offset 14, -4
 373:../../Drivers/BSP/STM32H7xx_Nucleo/stm32h7xx_nucleo.c **** }
 919              		.loc 1 373 3 is_stmt 1 view .LVU220
 373:../../Drivers/BSP/STM32H7xx_Nucleo/stm32h7xx_nucleo.c **** }
 920              		.loc 1 373 19 is_stmt 0 view .LVU221
 921 0002 4FF40051 		mov	r1, #8192
 922 0006 0248     		ldr	r0, .L82
 923              	.LVL57:
 373:../../Drivers/BSP/STM32H7xx_Nucleo/stm32h7xx_nucleo.c **** }
 924              		.loc 1 373 19 view .LVU222
 925 0008 FFF7FEFF 		bl	HAL_GPIO_ReadPin
 926              	.LVL58:
 374:../../Drivers/BSP/STM32H7xx_Nucleo/stm32h7xx_nucleo.c **** 
 927              		.loc 1 374 1 view .LVU223
 928 000c 08BD     		pop	{r3, pc}
 929              	.L83:
 930 000e 00BF     		.align	2
 931              	.L82:
 932 0010 00080258 		.word	1476528128
 933              		.cfi_endproc
 934              	.LFE141:
 936              		.section	.text.BSP_PB_IRQHandler,"ax",%progbits
 937              		.align	1
 938              		.global	BSP_PB_IRQHandler
 939              		.syntax unified
 940              		.thumb
 941              		.thumb_func
 943              	BSP_PB_IRQHandler:
 944              	.LVL59:
 945              	.LFB142:
 382:../../Drivers/BSP/STM32H7xx_Nucleo/stm32h7xx_nucleo.c ****   HAL_EXTI_IRQHandler(&hpb_exti[Button]);
 946              		.loc 1 382 1 is_stmt 1 view -0
 947              		.cfi_startproc
 948              		@ args = 0, pretend = 0, frame = 0
ARM GAS  C:\Users\minis\AppData\Local\Temp\ccmjWota.s 			page 32


 949              		@ frame_needed = 0, uses_anonymous_args = 0
 382:../../Drivers/BSP/STM32H7xx_Nucleo/stm32h7xx_nucleo.c ****   HAL_EXTI_IRQHandler(&hpb_exti[Button]);
 950              		.loc 1 382 1 is_stmt 0 view .LVU225
 951 0000 08B5     		push	{r3, lr}
 952              	.LCFI31:
 953              		.cfi_def_cfa_offset 8
 954              		.cfi_offset 3, -8
 955              		.cfi_offset 14, -4
 383:../../Drivers/BSP/STM32H7xx_Nucleo/stm32h7xx_nucleo.c **** }
 956              		.loc 1 383 3 is_stmt 1 view .LVU226
 957 0002 034B     		ldr	r3, .L86
 958 0004 03EBC000 		add	r0, r3, r0, lsl #3
 959              	.LVL60:
 383:../../Drivers/BSP/STM32H7xx_Nucleo/stm32h7xx_nucleo.c **** }
 960              		.loc 1 383 3 is_stmt 0 view .LVU227
 961 0008 FFF7FEFF 		bl	HAL_EXTI_IRQHandler
 962              	.LVL61:
 384:../../Drivers/BSP/STM32H7xx_Nucleo/stm32h7xx_nucleo.c **** 
 963              		.loc 1 384 1 view .LVU228
 964 000c 08BD     		pop	{r3, pc}
 965              	.L87:
 966 000e 00BF     		.align	2
 967              	.L86:
 968 0010 00000000 		.word	hpb_exti
 969              		.cfi_endproc
 970              	.LFE142:
 972              		.section	.text.BSP_PB_Callback,"ax",%progbits
 973              		.align	1
 974              		.weak	BSP_PB_Callback
 975              		.syntax unified
 976              		.thumb
 977              		.thumb_func
 979              	BSP_PB_Callback:
 980              	.LVL62:
 981              	.LFB143:
 392:../../Drivers/BSP/STM32H7xx_Nucleo/stm32h7xx_nucleo.c ****   /* Prevent unused argument(s) compilation warning */
 982              		.loc 1 392 1 is_stmt 1 view -0
 983              		.cfi_startproc
 984              		@ args = 0, pretend = 0, frame = 0
 985              		@ frame_needed = 0, uses_anonymous_args = 0
 986              		@ link register save eliminated.
 394:../../Drivers/BSP/STM32H7xx_Nucleo/stm32h7xx_nucleo.c **** 
 987              		.loc 1 394 3 view .LVU230
 398:../../Drivers/BSP/STM32H7xx_Nucleo/stm32h7xx_nucleo.c **** 
 988              		.loc 1 398 1 is_stmt 0 view .LVU231
 989 0000 7047     		bx	lr
 990              		.cfi_endproc
 991              	.LFE143:
 993              		.section	.text.BUTTON_USER_EXTI_Callback,"ax",%progbits
 994              		.align	1
 995              		.syntax unified
 996              		.thumb
 997              		.thumb_func
 999              	BUTTON_USER_EXTI_Callback:
 1000              	.LFB149:
 614:../../Drivers/BSP/STM32H7xx_Nucleo/stm32h7xx_nucleo.c ****   BSP_PB_Callback(BUTTON_USER);
 1001              		.loc 1 614 1 is_stmt 1 view -0
ARM GAS  C:\Users\minis\AppData\Local\Temp\ccmjWota.s 			page 33


 1002              		.cfi_startproc
 1003              		@ args = 0, pretend = 0, frame = 0
 1004              		@ frame_needed = 0, uses_anonymous_args = 0
 1005 0000 08B5     		push	{r3, lr}
 1006              	.LCFI32:
 1007              		.cfi_def_cfa_offset 8
 1008              		.cfi_offset 3, -8
 1009              		.cfi_offset 14, -4
 615:../../Drivers/BSP/STM32H7xx_Nucleo/stm32h7xx_nucleo.c **** }
 1010              		.loc 1 615 3 view .LVU233
 1011 0002 0020     		movs	r0, #0
 1012 0004 FFF7FEFF 		bl	BSP_PB_Callback
 1013              	.LVL63:
 616:../../Drivers/BSP/STM32H7xx_Nucleo/stm32h7xx_nucleo.c **** 
 1014              		.loc 1 616 1 is_stmt 0 view .LVU234
 1015 0008 08BD     		pop	{r3, pc}
 1016              		.cfi_endproc
 1017              	.LFE149:
 1019              		.section	.text.BSP_COM_DeInit,"ax",%progbits
 1020              		.align	1
 1021              		.global	BSP_COM_DeInit
 1022              		.syntax unified
 1023              		.thumb
 1024              		.thumb_func
 1026              	BSP_COM_DeInit:
 1027              	.LVL64:
 1028              	.LFB145:
 448:../../Drivers/BSP/STM32H7xx_Nucleo/stm32h7xx_nucleo.c ****   int32_t ret = BSP_ERROR_NONE;
 1029              		.loc 1 448 1 is_stmt 1 view -0
 1030              		.cfi_startproc
 1031              		@ args = 0, pretend = 0, frame = 0
 1032              		@ frame_needed = 0, uses_anonymous_args = 0
 449:../../Drivers/BSP/STM32H7xx_Nucleo/stm32h7xx_nucleo.c **** 
 1033              		.loc 1 449 3 view .LVU236
 451:../../Drivers/BSP/STM32H7xx_Nucleo/stm32h7xx_nucleo.c ****   {
 1034              		.loc 1 451 3 view .LVU237
 451:../../Drivers/BSP/STM32H7xx_Nucleo/stm32h7xx_nucleo.c ****   {
 1035              		.loc 1 451 5 is_stmt 0 view .LVU238
 1036 0000 90B9     		cbnz	r0, .L93
 448:../../Drivers/BSP/STM32H7xx_Nucleo/stm32h7xx_nucleo.c ****   int32_t ret = BSP_ERROR_NONE;
 1037              		.loc 1 448 1 view .LVU239
 1038 0002 10B5     		push	{r4, lr}
 1039              	.LCFI33:
 1040              		.cfi_def_cfa_offset 8
 1041              		.cfi_offset 4, -8
 1042              		.cfi_offset 14, -4
 1043 0004 0346     		mov	r3, r0
 458:../../Drivers/BSP/STM32H7xx_Nucleo/stm32h7xx_nucleo.c **** 
 1044              		.loc 1 458 5 is_stmt 1 view .LVU240
 458:../../Drivers/BSP/STM32H7xx_Nucleo/stm32h7xx_nucleo.c **** 
 1045              		.loc 1 458 40 is_stmt 0 view .LVU241
 1046 0006 0B4A     		ldr	r2, .L99
 1047 0008 52F82010 		ldr	r1, [r2, r0, lsl #2]
 458:../../Drivers/BSP/STM32H7xx_Nucleo/stm32h7xx_nucleo.c **** 
 1048              		.loc 1 458 29 view .LVU242
 1049 000c 0A4A     		ldr	r2, .L99+4
 1050 000e 9420     		movs	r0, #148
ARM GAS  C:\Users\minis\AppData\Local\Temp\ccmjWota.s 			page 34


 1051              	.LVL65:
 458:../../Drivers/BSP/STM32H7xx_Nucleo/stm32h7xx_nucleo.c **** 
 1052              		.loc 1 458 29 view .LVU243
 1053 0010 00FB03F3 		mul	r3, r0, r3
 1054              	.LVL66:
 458:../../Drivers/BSP/STM32H7xx_Nucleo/stm32h7xx_nucleo.c **** 
 1055              		.loc 1 458 29 view .LVU244
 1056 0014 D418     		adds	r4, r2, r3
 1057 0016 D150     		str	r1, [r2, r3]
 461:../../Drivers/BSP/STM32H7xx_Nucleo/stm32h7xx_nucleo.c **** #endif /* (USE_HAL_UART_REGISTER_CALLBACKS == 0) */
 1058              		.loc 1 461 5 is_stmt 1 view .LVU245
 1059 0018 2046     		mov	r0, r4
 1060 001a FFF7FEFF 		bl	COM1_MspDeInit
 1061              	.LVL67:
 464:../../Drivers/BSP/STM32H7xx_Nucleo/stm32h7xx_nucleo.c ****     {
 1062              		.loc 1 464 5 view .LVU246
 464:../../Drivers/BSP/STM32H7xx_Nucleo/stm32h7xx_nucleo.c ****     {
 1063              		.loc 1 464 8 is_stmt 0 view .LVU247
 1064 001e 2046     		mov	r0, r4
 1065 0020 FFF7FEFF 		bl	HAL_UART_DeInit
 1066              	.LVL68:
 464:../../Drivers/BSP/STM32H7xx_Nucleo/stm32h7xx_nucleo.c ****     {
 1067              		.loc 1 464 7 discriminator 1 view .LVU248
 1068 0024 18B9     		cbnz	r0, .L94
 1069              	.LVL69:
 1070              	.L91:
 471:../../Drivers/BSP/STM32H7xx_Nucleo/stm32h7xx_nucleo.c **** 
 1071              		.loc 1 471 1 view .LVU249
 1072 0026 10BD     		pop	{r4, pc}
 1073              	.LVL70:
 1074              	.L93:
 1075              	.LCFI34:
 1076              		.cfi_def_cfa_offset 0
 1077              		.cfi_restore 4
 1078              		.cfi_restore 14
 453:../../Drivers/BSP/STM32H7xx_Nucleo/stm32h7xx_nucleo.c ****   }
 1079              		.loc 1 453 9 view .LVU250
 1080 0028 6FF00100 		mvn	r0, #1
 1081              	.LVL71:
 471:../../Drivers/BSP/STM32H7xx_Nucleo/stm32h7xx_nucleo.c **** 
 1082              		.loc 1 471 1 view .LVU251
 1083 002c 7047     		bx	lr
 1084              	.L94:
 1085              	.LCFI35:
 1086              		.cfi_def_cfa_offset 8
 1087              		.cfi_offset 4, -8
 1088              		.cfi_offset 14, -4
 466:../../Drivers/BSP/STM32H7xx_Nucleo/stm32h7xx_nucleo.c ****     }
 1089              		.loc 1 466 11 view .LVU252
 1090 002e 6FF00300 		mvn	r0, #3
 1091              	.LVL72:
 470:../../Drivers/BSP/STM32H7xx_Nucleo/stm32h7xx_nucleo.c **** }
 1092              		.loc 1 470 3 is_stmt 1 view .LVU253
 470:../../Drivers/BSP/STM32H7xx_Nucleo/stm32h7xx_nucleo.c **** }
 1093              		.loc 1 470 10 is_stmt 0 view .LVU254
 1094 0032 F8E7     		b	.L91
 1095              	.L100:
ARM GAS  C:\Users\minis\AppData\Local\Temp\ccmjWota.s 			page 35


 1096              		.align	2
 1097              	.L99:
 1098 0034 00000000 		.word	COM_USART
 1099 0038 00000000 		.word	hcom_uart
 1100              		.cfi_endproc
 1101              	.LFE145:
 1103              		.section	.text.MX_USART3_Init,"ax",%progbits
 1104              		.align	1
 1105              		.weak	MX_USART3_Init
 1106              		.syntax unified
 1107              		.thumb
 1108              		.thumb_func
 1110              	MX_USART3_Init:
 1111              	.LVL73:
 1112              	.LFB146:
 481:../../Drivers/BSP/STM32H7xx_Nucleo/stm32h7xx_nucleo.c ****   /* USART configuration */
 1113              		.loc 1 481 1 is_stmt 1 view -0
 1114              		.cfi_startproc
 1115              		@ args = 0, pretend = 0, frame = 0
 1116              		@ frame_needed = 0, uses_anonymous_args = 0
 481:../../Drivers/BSP/STM32H7xx_Nucleo/stm32h7xx_nucleo.c ****   /* USART configuration */
 1117              		.loc 1 481 1 is_stmt 0 view .LVU256
 1118 0000 08B5     		push	{r3, lr}
 1119              	.LCFI36:
 1120              		.cfi_def_cfa_offset 8
 1121              		.cfi_offset 3, -8
 1122              		.cfi_offset 14, -4
 483:../../Drivers/BSP/STM32H7xx_Nucleo/stm32h7xx_nucleo.c ****  huart->Init.BaudRate     = COM_Init->BaudRate;
 1123              		.loc 1 483 2 is_stmt 1 view .LVU257
 483:../../Drivers/BSP/STM32H7xx_Nucleo/stm32h7xx_nucleo.c ****  huart->Init.BaudRate     = COM_Init->BaudRate;
 1124              		.loc 1 483 38 is_stmt 0 view .LVU258
 1125 0002 0A4A     		ldr	r2, .L103
 1126 0004 1268     		ldr	r2, [r2]
 483:../../Drivers/BSP/STM32H7xx_Nucleo/stm32h7xx_nucleo.c ****  huart->Init.BaudRate     = COM_Init->BaudRate;
 1127              		.loc 1 483 27 view .LVU259
 1128 0006 0260     		str	r2, [r0]
 484:../../Drivers/BSP/STM32H7xx_Nucleo/stm32h7xx_nucleo.c ****  huart->Init.Mode         = UART_MODE_TX_RX;
 1129              		.loc 1 484 2 is_stmt 1 view .LVU260
 484:../../Drivers/BSP/STM32H7xx_Nucleo/stm32h7xx_nucleo.c ****  huart->Init.Mode         = UART_MODE_TX_RX;
 1130              		.loc 1 484 37 is_stmt 0 view .LVU261
 1131 0008 0A68     		ldr	r2, [r1]
 484:../../Drivers/BSP/STM32H7xx_Nucleo/stm32h7xx_nucleo.c ****  huart->Init.Mode         = UART_MODE_TX_RX;
 1132              		.loc 1 484 27 view .LVU262
 1133 000a 4260     		str	r2, [r0, #4]
 485:../../Drivers/BSP/STM32H7xx_Nucleo/stm32h7xx_nucleo.c ****  huart->Init.Parity       = (uint32_t)COM_Init->Parity;
 1134              		.loc 1 485 2 is_stmt 1 view .LVU263
 485:../../Drivers/BSP/STM32H7xx_Nucleo/stm32h7xx_nucleo.c ****  huart->Init.Parity       = (uint32_t)COM_Init->Parity;
 1135              		.loc 1 485 27 is_stmt 0 view .LVU264
 1136 000c 0C22     		movs	r2, #12
 1137 000e 4261     		str	r2, [r0, #20]
 486:../../Drivers/BSP/STM32H7xx_Nucleo/stm32h7xx_nucleo.c ****  huart->Init.WordLength   = (uint32_t)COM_Init->WordLength;
 1138              		.loc 1 486 2 is_stmt 1 view .LVU265
 486:../../Drivers/BSP/STM32H7xx_Nucleo/stm32h7xx_nucleo.c ****  huart->Init.WordLength   = (uint32_t)COM_Init->WordLength;
 1139              		.loc 1 486 47 is_stmt 0 view .LVU266
 1140 0010 4A89     		ldrh	r2, [r1, #10]
 486:../../Drivers/BSP/STM32H7xx_Nucleo/stm32h7xx_nucleo.c ****  huart->Init.WordLength   = (uint32_t)COM_Init->WordLength;
 1141              		.loc 1 486 27 view .LVU267
ARM GAS  C:\Users\minis\AppData\Local\Temp\ccmjWota.s 			page 36


 1142 0012 0261     		str	r2, [r0, #16]
 487:../../Drivers/BSP/STM32H7xx_Nucleo/stm32h7xx_nucleo.c ****  huart->Init.StopBits     = (uint32_t)COM_Init->StopBits;
 1143              		.loc 1 487 2 is_stmt 1 view .LVU268
 487:../../Drivers/BSP/STM32H7xx_Nucleo/stm32h7xx_nucleo.c ****  huart->Init.StopBits     = (uint32_t)COM_Init->StopBits;
 1144              		.loc 1 487 47 is_stmt 0 view .LVU269
 1145 0014 4A68     		ldr	r2, [r1, #4]
 487:../../Drivers/BSP/STM32H7xx_Nucleo/stm32h7xx_nucleo.c ****  huart->Init.StopBits     = (uint32_t)COM_Init->StopBits;
 1146              		.loc 1 487 27 view .LVU270
 1147 0016 8260     		str	r2, [r0, #8]
 488:../../Drivers/BSP/STM32H7xx_Nucleo/stm32h7xx_nucleo.c ****  huart->Init.HwFlowCtl    = (uint32_t)COM_Init->HwFlowCtl;
 1148              		.loc 1 488 2 is_stmt 1 view .LVU271
 488:../../Drivers/BSP/STM32H7xx_Nucleo/stm32h7xx_nucleo.c ****  huart->Init.HwFlowCtl    = (uint32_t)COM_Init->HwFlowCtl;
 1149              		.loc 1 488 47 is_stmt 0 view .LVU272
 1150 0018 0A89     		ldrh	r2, [r1, #8]
 488:../../Drivers/BSP/STM32H7xx_Nucleo/stm32h7xx_nucleo.c ****  huart->Init.HwFlowCtl    = (uint32_t)COM_Init->HwFlowCtl;
 1151              		.loc 1 488 27 view .LVU273
 1152 001a C260     		str	r2, [r0, #12]
 489:../../Drivers/BSP/STM32H7xx_Nucleo/stm32h7xx_nucleo.c ****  huart->Init.OverSampling = UART_OVERSAMPLING_8;
 1153              		.loc 1 489 2 is_stmt 1 view .LVU274
 489:../../Drivers/BSP/STM32H7xx_Nucleo/stm32h7xx_nucleo.c ****  huart->Init.OverSampling = UART_OVERSAMPLING_8;
 1154              		.loc 1 489 47 is_stmt 0 view .LVU275
 1155 001c 8A89     		ldrh	r2, [r1, #12]
 489:../../Drivers/BSP/STM32H7xx_Nucleo/stm32h7xx_nucleo.c ****  huart->Init.OverSampling = UART_OVERSAMPLING_8;
 1156              		.loc 1 489 27 view .LVU276
 1157 001e 8261     		str	r2, [r0, #24]
 490:../../Drivers/BSP/STM32H7xx_Nucleo/stm32h7xx_nucleo.c **** 
 1158              		.loc 1 490 2 is_stmt 1 view .LVU277
 490:../../Drivers/BSP/STM32H7xx_Nucleo/stm32h7xx_nucleo.c **** 
 1159              		.loc 1 490 27 is_stmt 0 view .LVU278
 1160 0020 4FF40042 		mov	r2, #32768
 1161 0024 C261     		str	r2, [r0, #28]
 492:../../Drivers/BSP/STM32H7xx_Nucleo/stm32h7xx_nucleo.c **** }
 1162              		.loc 1 492 2 is_stmt 1 view .LVU279
 492:../../Drivers/BSP/STM32H7xx_Nucleo/stm32h7xx_nucleo.c **** }
 1163              		.loc 1 492 9 is_stmt 0 view .LVU280
 1164 0026 FFF7FEFF 		bl	HAL_UART_Init
 1165              	.LVL74:
 493:../../Drivers/BSP/STM32H7xx_Nucleo/stm32h7xx_nucleo.c **** 
 1166              		.loc 1 493 1 view .LVU281
 1167 002a 08BD     		pop	{r3, pc}
 1168              	.L104:
 1169              		.align	2
 1170              	.L103:
 1171 002c 00000000 		.word	COM_USART
 1172              		.cfi_endproc
 1173              	.LFE146:
 1175              		.section	.text.BSP_COM_Init,"ax",%progbits
 1176              		.align	1
 1177              		.global	BSP_COM_Init
 1178              		.syntax unified
 1179              		.thumb
 1180              		.thumb_func
 1182              	BSP_COM_Init:
 1183              	.LVL75:
 1184              	.LFB144:
 410:../../Drivers/BSP/STM32H7xx_Nucleo/stm32h7xx_nucleo.c ****   int32_t ret = BSP_ERROR_NONE;
 1185              		.loc 1 410 1 is_stmt 1 view -0
ARM GAS  C:\Users\minis\AppData\Local\Temp\ccmjWota.s 			page 37


 1186              		.cfi_startproc
 1187              		@ args = 0, pretend = 0, frame = 0
 1188              		@ frame_needed = 0, uses_anonymous_args = 0
 411:../../Drivers/BSP/STM32H7xx_Nucleo/stm32h7xx_nucleo.c **** 
 1189              		.loc 1 411 3 view .LVU283
 413:../../Drivers/BSP/STM32H7xx_Nucleo/stm32h7xx_nucleo.c ****   {
 1190              		.loc 1 413 3 view .LVU284
 413:../../Drivers/BSP/STM32H7xx_Nucleo/stm32h7xx_nucleo.c ****   {
 1191              		.loc 1 413 5 is_stmt 0 view .LVU285
 1192 0000 70B9     		cbnz	r0, .L107
 410:../../Drivers/BSP/STM32H7xx_Nucleo/stm32h7xx_nucleo.c ****   int32_t ret = BSP_ERROR_NONE;
 1193              		.loc 1 410 1 view .LVU286
 1194 0002 38B5     		push	{r3, r4, r5, lr}
 1195              	.LCFI37:
 1196              		.cfi_def_cfa_offset 16
 1197              		.cfi_offset 3, -16
 1198              		.cfi_offset 4, -12
 1199              		.cfi_offset 5, -8
 1200              		.cfi_offset 14, -4
 1201 0004 0D46     		mov	r5, r1
 421:../../Drivers/BSP/STM32H7xx_Nucleo/stm32h7xx_nucleo.c **** #else
 1202              		.loc 1 421 5 is_stmt 1 view .LVU287
 1203 0006 9422     		movs	r2, #148
 1204 0008 084C     		ldr	r4, .L113
 1205 000a 02FB0044 		mla	r4, r2, r0, r4
 1206 000e 2046     		mov	r0, r4
 1207              	.LVL76:
 421:../../Drivers/BSP/STM32H7xx_Nucleo/stm32h7xx_nucleo.c **** #else
 1208              		.loc 1 421 5 is_stmt 0 view .LVU288
 1209 0010 FFF7FEFF 		bl	COM1_MspInit
 1210              	.LVL77:
 432:../../Drivers/BSP/STM32H7xx_Nucleo/stm32h7xx_nucleo.c ****     {
 1211              		.loc 1 432 5 is_stmt 1 view .LVU289
 432:../../Drivers/BSP/STM32H7xx_Nucleo/stm32h7xx_nucleo.c ****     {
 1212              		.loc 1 432 8 is_stmt 0 view .LVU290
 1213 0014 2946     		mov	r1, r5
 1214 0016 2046     		mov	r0, r4
 1215 0018 FFF7FEFF 		bl	MX_USART3_Init
 1216              	.LVL78:
 432:../../Drivers/BSP/STM32H7xx_Nucleo/stm32h7xx_nucleo.c ****     {
 1217              		.loc 1 432 7 discriminator 1 view .LVU291
 1218 001c 18B9     		cbnz	r0, .L108
 1219              	.LVL79:
 1220              	.L105:
 439:../../Drivers/BSP/STM32H7xx_Nucleo/stm32h7xx_nucleo.c **** 
 1221              		.loc 1 439 1 view .LVU292
 1222 001e 38BD     		pop	{r3, r4, r5, pc}
 1223              	.LVL80:
 1224              	.L107:
 1225              	.LCFI38:
 1226              		.cfi_def_cfa_offset 0
 1227              		.cfi_restore 3
 1228              		.cfi_restore 4
 1229              		.cfi_restore 5
 1230              		.cfi_restore 14
 415:../../Drivers/BSP/STM32H7xx_Nucleo/stm32h7xx_nucleo.c ****   }
 1231              		.loc 1 415 9 view .LVU293
ARM GAS  C:\Users\minis\AppData\Local\Temp\ccmjWota.s 			page 38


 1232 0020 6FF00100 		mvn	r0, #1
 1233              	.LVL81:
 439:../../Drivers/BSP/STM32H7xx_Nucleo/stm32h7xx_nucleo.c **** 
 1234              		.loc 1 439 1 view .LVU294
 1235 0024 7047     		bx	lr
 1236              	.LVL82:
 1237              	.L108:
 1238              	.LCFI39:
 1239              		.cfi_def_cfa_offset 16
 1240              		.cfi_offset 3, -16
 1241              		.cfi_offset 4, -12
 1242              		.cfi_offset 5, -8
 1243              		.cfi_offset 14, -4
 434:../../Drivers/BSP/STM32H7xx_Nucleo/stm32h7xx_nucleo.c ****     }
 1244              		.loc 1 434 11 view .LVU295
 1245 0026 6FF00300 		mvn	r0, #3
 1246              	.LVL83:
 438:../../Drivers/BSP/STM32H7xx_Nucleo/stm32h7xx_nucleo.c **** }
 1247              		.loc 1 438 3 is_stmt 1 view .LVU296
 438:../../Drivers/BSP/STM32H7xx_Nucleo/stm32h7xx_nucleo.c **** }
 1248              		.loc 1 438 10 is_stmt 0 view .LVU297
 1249 002a F8E7     		b	.L105
 1250              	.L114:
 1251              		.align	2
 1252              	.L113:
 1253 002c 00000000 		.word	hcom_uart
 1254              		.cfi_endproc
 1255              	.LFE144:
 1257              		.section	.text.BSP_COM_SelectLogPort,"ax",%progbits
 1258              		.align	1
 1259              		.global	BSP_COM_SelectLogPort
 1260              		.syntax unified
 1261              		.thumb
 1262              		.thumb_func
 1264              	BSP_COM_SelectLogPort:
 1265              	.LVL84:
 1266              	.LFB147:
 579:../../Drivers/BSP/STM32H7xx_Nucleo/stm32h7xx_nucleo.c ****   if(COM_ActiveLogPort != COM)
 1267              		.loc 1 579 1 is_stmt 1 view -0
 1268              		.cfi_startproc
 1269              		@ args = 0, pretend = 0, frame = 0
 1270              		@ frame_needed = 0, uses_anonymous_args = 0
 1271              		@ link register save eliminated.
 580:../../Drivers/BSP/STM32H7xx_Nucleo/stm32h7xx_nucleo.c ****   {
 1272              		.loc 1 580 3 view .LVU299
 580:../../Drivers/BSP/STM32H7xx_Nucleo/stm32h7xx_nucleo.c ****   {
 1273              		.loc 1 580 24 is_stmt 0 view .LVU300
 1274 0000 034B     		ldr	r3, .L117
 1275 0002 1B78     		ldrb	r3, [r3]	@ zero_extendqisi2
 580:../../Drivers/BSP/STM32H7xx_Nucleo/stm32h7xx_nucleo.c ****   {
 1276              		.loc 1 580 5 view .LVU301
 1277 0004 8342     		cmp	r3, r0
 1278 0006 01D0     		beq	.L116
 582:../../Drivers/BSP/STM32H7xx_Nucleo/stm32h7xx_nucleo.c ****   }
 1279              		.loc 1 582 5 is_stmt 1 view .LVU302
 582:../../Drivers/BSP/STM32H7xx_Nucleo/stm32h7xx_nucleo.c ****   }
 1280              		.loc 1 582 23 is_stmt 0 view .LVU303
ARM GAS  C:\Users\minis\AppData\Local\Temp\ccmjWota.s 			page 39


 1281 0008 014B     		ldr	r3, .L117
 1282 000a 1870     		strb	r0, [r3]
 1283              	.L116:
 584:../../Drivers/BSP/STM32H7xx_Nucleo/stm32h7xx_nucleo.c **** }
 1284              		.loc 1 584 3 is_stmt 1 view .LVU304
 585:../../Drivers/BSP/STM32H7xx_Nucleo/stm32h7xx_nucleo.c **** 
 1285              		.loc 1 585 1 is_stmt 0 view .LVU305
 1286 000c 0020     		movs	r0, #0
 1287              	.LVL85:
 585:../../Drivers/BSP/STM32H7xx_Nucleo/stm32h7xx_nucleo.c **** 
 1288              		.loc 1 585 1 view .LVU306
 1289 000e 7047     		bx	lr
 1290              	.L118:
 1291              		.align	2
 1292              	.L117:
 1293 0010 00000000 		.word	COM_ActiveLogPort
 1294              		.cfi_endproc
 1295              	.LFE147:
 1297              		.section	.text.__io_putchar,"ax",%progbits
 1298              		.align	1
 1299              		.global	__io_putchar
 1300              		.syntax unified
 1301              		.thumb
 1302              		.thumb_func
 1304              	__io_putchar:
 1305              	.LVL86:
 1306              	.LFB148:
 595:../../Drivers/BSP/STM32H7xx_Nucleo/stm32h7xx_nucleo.c ****   HAL_UART_Transmit (&hcom_uart [COM_ActiveLogPort], (uint8_t *) &ch, 1, COM_POLL_TIMEOUT);
 1307              		.loc 1 595 1 is_stmt 1 view -0
 1308              		.cfi_startproc
 1309              		@ args = 0, pretend = 0, frame = 8
 1310              		@ frame_needed = 0, uses_anonymous_args = 0
 595:../../Drivers/BSP/STM32H7xx_Nucleo/stm32h7xx_nucleo.c ****   HAL_UART_Transmit (&hcom_uart [COM_ActiveLogPort], (uint8_t *) &ch, 1, COM_POLL_TIMEOUT);
 1311              		.loc 1 595 1 is_stmt 0 view .LVU308
 1312 0000 10B5     		push	{r4, lr}
 1313              	.LCFI40:
 1314              		.cfi_def_cfa_offset 8
 1315              		.cfi_offset 4, -8
 1316              		.cfi_offset 14, -4
 1317 0002 82B0     		sub	sp, sp, #8
 1318              	.LCFI41:
 1319              		.cfi_def_cfa_offset 16
 1320 0004 0190     		str	r0, [sp, #4]
 596:../../Drivers/BSP/STM32H7xx_Nucleo/stm32h7xx_nucleo.c ****   return ch;
 1321              		.loc 1 596 3 is_stmt 1 view .LVU309
 596:../../Drivers/BSP/STM32H7xx_Nucleo/stm32h7xx_nucleo.c ****   return ch;
 1322              		.loc 1 596 33 is_stmt 0 view .LVU310
 1323 0006 084B     		ldr	r3, .L121
 1324 0008 1878     		ldrb	r0, [r3]	@ zero_extendqisi2
 1325              	.LVL87:
 596:../../Drivers/BSP/STM32H7xx_Nucleo/stm32h7xx_nucleo.c ****   return ch;
 1326              		.loc 1 596 3 view .LVU311
 1327 000a 4FF47A73 		mov	r3, #1000
 1328 000e 0122     		movs	r2, #1
 1329 0010 01A9     		add	r1, sp, #4
 1330              	.LVL88:
 596:../../Drivers/BSP/STM32H7xx_Nucleo/stm32h7xx_nucleo.c ****   return ch;
ARM GAS  C:\Users\minis\AppData\Local\Temp\ccmjWota.s 			page 40


 1331              		.loc 1 596 3 view .LVU312
 1332 0012 4FF0940C 		mov	ip, #148
 1333 0016 054C     		ldr	r4, .L121+4
 1334 0018 0CFB0040 		mla	r0, ip, r0, r4
 1335 001c FFF7FEFF 		bl	HAL_UART_Transmit
 1336              	.LVL89:
 597:../../Drivers/BSP/STM32H7xx_Nucleo/stm32h7xx_nucleo.c **** }
 1337              		.loc 1 597 3 is_stmt 1 view .LVU313
 598:../../Drivers/BSP/STM32H7xx_Nucleo/stm32h7xx_nucleo.c **** #endif /* USE_COM_LOG */
 1338              		.loc 1 598 1 is_stmt 0 view .LVU314
 1339 0020 0198     		ldr	r0, [sp, #4]
 1340 0022 02B0     		add	sp, sp, #8
 1341              	.LCFI42:
 1342              		.cfi_def_cfa_offset 8
 1343              		@ sp needed
 1344 0024 10BD     		pop	{r4, pc}
 1345              	.L122:
 1346 0026 00BF     		.align	2
 1347              	.L121:
 1348 0028 00000000 		.word	COM_ActiveLogPort
 1349 002c 00000000 		.word	hcom_uart
 1350              		.cfi_endproc
 1351              	.LFE148:
 1353              		.section	.bss.COM_ActiveLogPort,"aw",%nobits
 1356              	COM_ActiveLogPort:
 1357 0000 00       		.space	1
 1358              		.section	.rodata.LED_PIN,"a"
 1359              		.align	2
 1362              	LED_PIN:
 1363 0000 0100     		.short	1
 1364 0002 0200     		.short	2
 1365 0004 0040     		.short	16384
 1366              		.section	.rodata.LED_PORT,"a"
 1367              		.align	2
 1370              	LED_PORT:
 1371 0000 00040258 		.word	1476527104
 1372 0004 00100258 		.word	1476530176
 1373 0008 00040258 		.word	1476527104
 1374              		.global	COM_USART
 1375              		.section	.data.COM_USART,"aw"
 1376              		.align	2
 1379              	COM_USART:
 1380 0000 00480040 		.word	1073760256
 1381              		.global	hcom_uart
 1382              		.section	.bss.hcom_uart,"aw",%nobits
 1383              		.align	2
 1386              	hcom_uart:
 1387 0000 00000000 		.space	148
 1387      00000000 
 1387      00000000 
 1387      00000000 
 1387      00000000 
 1388              		.global	hpb_exti
 1389              		.section	.bss.hpb_exti,"aw",%nobits
 1390              		.align	2
 1393              	hpb_exti:
 1394 0000 00000000 		.space	8
ARM GAS  C:\Users\minis\AppData\Local\Temp\ccmjWota.s 			page 41


 1394      00000000 
 1395              		.text
 1396              	.Letext0:
 1397              		.file 2 "../../Drivers/CMSIS/Device/ST/STM32H7xx/Include/stm32h755xx.h"
 1398              		.file 3 "C:/Program Files (x86)/Arm GNU Toolchain arm-none-eabi/14.3 rel1/arm-none-eabi/include/ma
 1399              		.file 4 "C:/Program Files (x86)/Arm GNU Toolchain arm-none-eabi/14.3 rel1/arm-none-eabi/include/sy
 1400              		.file 5 "../../Drivers/STM32H7xx_HAL_Driver/Inc/stm32h7xx_hal_def.h"
 1401              		.file 6 "../../Drivers/STM32H7xx_HAL_Driver/Inc/stm32h7xx_hal_gpio.h"
 1402              		.file 7 "../../Drivers/STM32H7xx_HAL_Driver/Inc/stm32h7xx_hal_dma.h"
 1403              		.file 8 "../../Drivers/STM32H7xx_HAL_Driver/Inc/stm32h7xx_hal_exti.h"
 1404              		.file 9 "../../Drivers/STM32H7xx_HAL_Driver/Inc/stm32h7xx_hal_uart.h"
 1405              		.file 10 "../../Drivers/BSP/STM32H7xx_Nucleo/stm32h7xx_nucleo.h"
 1406              		.file 11 "../../Drivers/STM32H7xx_HAL_Driver/Inc/stm32h7xx_hal_cortex.h"
ARM GAS  C:\Users\minis\AppData\Local\Temp\ccmjWota.s 			page 42

