ARM GAS  C:\Users\minis\AppData\Local\Temp\ccdTeXRF.s 			page 1


   1              		.cpu cortex-m7
   2              		.arch armv7e-m
   3              		.fpu fpv5-d16
   4              		.eabi_attribute 20, 1
   5              		.eabi_attribute 21, 1
   6              		.eabi_attribute 23, 3
   7              		.eabi_attribute 24, 1
   8              		.eabi_attribute 25, 1
   9              		.eabi_attribute 26, 1
  10              		.eabi_attribute 30, 1
  11              		.eabi_attribute 34, 1
  12              		.eabi_attribute 18, 4
  13              		.file	"eth.c"
  14              		.text
  15              	.Ltext0:
  16              		.cfi_sections	.debug_frame
  17              		.file 1 "../../CM7/Core/Src/eth.c"
  18              		.section	.text.MX_ETH_Init,"ax",%progbits
  19              		.align	1
  20              		.global	MX_ETH_Init
  21              		.syntax unified
  22              		.thumb
  23              		.thumb_func
  25              	MX_ETH_Init:
  26              	.LFB147:
   1:../../CM7/Core/Src/eth.c **** /* USER CODE BEGIN Header */
   2:../../CM7/Core/Src/eth.c **** /**
   3:../../CM7/Core/Src/eth.c ****   ******************************************************************************
   4:../../CM7/Core/Src/eth.c ****   * @file    eth.c
   5:../../CM7/Core/Src/eth.c ****   * @brief   This file provides code for the configuration
   6:../../CM7/Core/Src/eth.c ****   *          of the ETH instances.
   7:../../CM7/Core/Src/eth.c ****   ******************************************************************************
   8:../../CM7/Core/Src/eth.c ****   */
   9:../../CM7/Core/Src/eth.c **** /* USER CODE END Header */
  10:../../CM7/Core/Src/eth.c **** 
  11:../../CM7/Core/Src/eth.c **** /* Includes ------------------------------------------------------------------*/
  12:../../CM7/Core/Src/eth.c **** #include "main.h"
  13:../../CM7/Core/Src/eth.c **** #include "string.h"
  14:../../CM7/Core/Src/eth.c **** 
  15:../../CM7/Core/Src/eth.c **** /* USER CODE BEGIN 0 */
  16:../../CM7/Core/Src/eth.c **** 
  17:../../CM7/Core/Src/eth.c **** /* USER CODE END 0 */
  18:../../CM7/Core/Src/eth.c **** 
  19:../../CM7/Core/Src/eth.c **** /* External variables from ethernetif.c */
  20:../../CM7/Core/Src/eth.c **** extern ETH_HandleTypeDef heth;
  21:../../CM7/Core/Src/eth.c **** extern ETH_DMADescTypeDef DMARxDscrTab[];
  22:../../CM7/Core/Src/eth.c **** extern ETH_DMADescTypeDef DMATxDscrTab[];
  23:../../CM7/Core/Src/eth.c **** extern ETH_TxPacketConfig TxConfig;
  24:../../CM7/Core/Src/eth.c **** 
  25:../../CM7/Core/Src/eth.c **** /* ETH init function */
  26:../../CM7/Core/Src/eth.c **** void MX_ETH_Init(void)
  27:../../CM7/Core/Src/eth.c **** {
  27              		.loc 1 27 1 view -0
  28              		.cfi_startproc
  29              		@ args = 0, pretend = 0, frame = 0
  30              		@ frame_needed = 0, uses_anonymous_args = 0
  31 0000 10B5     		push	{r4, lr}
ARM GAS  C:\Users\minis\AppData\Local\Temp\ccdTeXRF.s 			page 2


  32              	.LCFI0:
  33              		.cfi_def_cfa_offset 8
  34              		.cfi_offset 4, -8
  35              		.cfi_offset 14, -4
  28:../../CM7/Core/Src/eth.c ****   static uint8_t MACAddr[6];
  36              		.loc 1 28 3 view .LVU1
  29:../../CM7/Core/Src/eth.c **** 
  30:../../CM7/Core/Src/eth.c ****   heth.Instance = ETH;
  37              		.loc 1 30 3 view .LVU2
  38              		.loc 1 30 17 is_stmt 0 view .LVU3
  39 0002 1448     		ldr	r0, .L5
  40 0004 144B     		ldr	r3, .L5+4
  41 0006 0360     		str	r3, [r0]
  31:../../CM7/Core/Src/eth.c ****   MACAddr[0] = 0x00;
  42              		.loc 1 31 3 is_stmt 1 view .LVU4
  43              		.loc 1 31 14 is_stmt 0 view .LVU5
  44 0008 144B     		ldr	r3, .L5+8
  45 000a 0022     		movs	r2, #0
  46 000c 1A70     		strb	r2, [r3]
  32:../../CM7/Core/Src/eth.c ****   MACAddr[1] = 0x80;
  47              		.loc 1 32 3 is_stmt 1 view .LVU6
  48              		.loc 1 32 14 is_stmt 0 view .LVU7
  49 000e 8021     		movs	r1, #128
  50 0010 5970     		strb	r1, [r3, #1]
  33:../../CM7/Core/Src/eth.c ****   MACAddr[2] = 0xE1;
  51              		.loc 1 33 3 is_stmt 1 view .LVU8
  52              		.loc 1 33 14 is_stmt 0 view .LVU9
  53 0012 E121     		movs	r1, #225
  54 0014 9970     		strb	r1, [r3, #2]
  34:../../CM7/Core/Src/eth.c ****   MACAddr[3] = 0x00;
  55              		.loc 1 34 3 is_stmt 1 view .LVU10
  56              		.loc 1 34 14 is_stmt 0 view .LVU11
  57 0016 DA70     		strb	r2, [r3, #3]
  35:../../CM7/Core/Src/eth.c ****   MACAddr[4] = 0x00;
  58              		.loc 1 35 3 is_stmt 1 view .LVU12
  59              		.loc 1 35 14 is_stmt 0 view .LVU13
  60 0018 1A71     		strb	r2, [r3, #4]
  36:../../CM7/Core/Src/eth.c ****   MACAddr[5] = 0x00;
  61              		.loc 1 36 3 is_stmt 1 view .LVU14
  62              		.loc 1 36 14 is_stmt 0 view .LVU15
  63 001a 5A71     		strb	r2, [r3, #5]
  37:../../CM7/Core/Src/eth.c ****   heth.Init.MACAddr = &MACAddr[0];
  64              		.loc 1 37 3 is_stmt 1 view .LVU16
  65              		.loc 1 37 21 is_stmt 0 view .LVU17
  66 001c 4360     		str	r3, [r0, #4]
  38:../../CM7/Core/Src/eth.c ****   heth.Init.MediaInterface = HAL_ETH_RMII_MODE;
  67              		.loc 1 38 3 is_stmt 1 view .LVU18
  68              		.loc 1 38 28 is_stmt 0 view .LVU19
  69 001e 0123     		movs	r3, #1
  70 0020 0372     		strb	r3, [r0, #8]
  39:../../CM7/Core/Src/eth.c ****   heth.Init.TxDesc = DMATxDscrTab;
  71              		.loc 1 39 3 is_stmt 1 view .LVU20
  72              		.loc 1 39 20 is_stmt 0 view .LVU21
  73 0022 0F4B     		ldr	r3, .L5+12
  74 0024 C360     		str	r3, [r0, #12]
  40:../../CM7/Core/Src/eth.c ****   heth.Init.RxDesc = DMARxDscrTab;
  75              		.loc 1 40 3 is_stmt 1 view .LVU22
ARM GAS  C:\Users\minis\AppData\Local\Temp\ccdTeXRF.s 			page 3


  76              		.loc 1 40 20 is_stmt 0 view .LVU23
  77 0026 0F4B     		ldr	r3, .L5+16
  78 0028 0361     		str	r3, [r0, #16]
  41:../../CM7/Core/Src/eth.c ****   heth.Init.RxBuffLen = 1524;
  79              		.loc 1 41 3 is_stmt 1 view .LVU24
  80              		.loc 1 41 23 is_stmt 0 view .LVU25
  81 002a 40F2F453 		movw	r3, #1524
  82 002e 4361     		str	r3, [r0, #20]
  42:../../CM7/Core/Src/eth.c **** 
  43:../../CM7/Core/Src/eth.c ****   /* USER CODE BEGIN MACADDRESS */
  44:../../CM7/Core/Src/eth.c ****   /* USER CODE END MACADDRESS */
  45:../../CM7/Core/Src/eth.c **** 
  46:../../CM7/Core/Src/eth.c ****   if (HAL_ETH_Init(&heth) != HAL_OK)
  83              		.loc 1 46 3 is_stmt 1 view .LVU26
  84              		.loc 1 46 7 is_stmt 0 view .LVU27
  85 0030 FFF7FEFF 		bl	HAL_ETH_Init
  86              	.LVL0:
  87              		.loc 1 46 6 discriminator 1 view .LVU28
  88 0034 58B9     		cbnz	r0, .L4
  89              	.L2:
  47:../../CM7/Core/Src/eth.c ****   {
  48:../../CM7/Core/Src/eth.c ****     Error_Handler();
  49:../../CM7/Core/Src/eth.c ****   }
  50:../../CM7/Core/Src/eth.c **** 
  51:../../CM7/Core/Src/eth.c ****   memset(&TxConfig, 0 , sizeof(ETH_TxPacketConfig));
  90              		.loc 1 51 3 is_stmt 1 view .LVU29
  91 0036 0C4C     		ldr	r4, .L5+20
  92 0038 3822     		movs	r2, #56
  93 003a 0021     		movs	r1, #0
  94 003c 2046     		mov	r0, r4
  95 003e FFF7FEFF 		bl	memset
  96              	.LVL1:
  52:../../CM7/Core/Src/eth.c ****   TxConfig.Attributes = ETH_TX_PACKETS_FEATURES_CSUM | ETH_TX_PACKETS_FEATURES_CRCPAD;
  97              		.loc 1 52 3 view .LVU30
  98              		.loc 1 52 23 is_stmt 0 view .LVU31
  99 0042 2123     		movs	r3, #33
 100 0044 2360     		str	r3, [r4]
  53:../../CM7/Core/Src/eth.c ****   TxConfig.ChecksumCtrl = ETH_CHECKSUM_IPHDR_PAYLOAD_INSERT_PHDR_CALC;
 101              		.loc 1 53 3 is_stmt 1 view .LVU32
 102              		.loc 1 53 25 is_stmt 0 view .LVU33
 103 0046 4FF44033 		mov	r3, #196608
 104 004a 6361     		str	r3, [r4, #20]
  54:../../CM7/Core/Src/eth.c ****   TxConfig.CRCPadCtrl = ETH_CRC_PAD_INSERT;
 105              		.loc 1 54 3 is_stmt 1 view .LVU34
  55:../../CM7/Core/Src/eth.c **** }
 106              		.loc 1 55 1 is_stmt 0 view .LVU35
 107 004c 10BD     		pop	{r4, pc}
 108              	.L4:
  48:../../CM7/Core/Src/eth.c ****   }
 109              		.loc 1 48 5 is_stmt 1 view .LVU36
 110 004e FFF7FEFF 		bl	Error_Handler
 111              	.LVL2:
 112 0052 F0E7     		b	.L2
 113              	.L6:
 114              		.align	2
 115              	.L5:
 116 0054 00000000 		.word	heth
ARM GAS  C:\Users\minis\AppData\Local\Temp\ccdTeXRF.s 			page 4


 117 0058 00800240 		.word	1073905664
 118 005c 00000000 		.word	MACAddr.0
 119 0060 00000000 		.word	DMATxDscrTab
 120 0064 00000000 		.word	DMARxDscrTab
 121 0068 00000000 		.word	TxConfig
 122              		.cfi_endproc
 123              	.LFE147:
 125              		.section	.bss.MACAddr.0,"aw",%nobits
 126              		.align	2
 129              	MACAddr.0:
 130 0000 00000000 		.space	6
 130      0000
 131              		.text
 132              	.Letext0:
 133              		.file 2 "C:/Program Files (x86)/Arm GNU Toolchain arm-none-eabi/14.3 rel1/arm-none-eabi/include/ma
 134              		.file 3 "C:/Program Files (x86)/Arm GNU Toolchain arm-none-eabi/14.3 rel1/arm-none-eabi/include/sy
 135              		.file 4 "../../Drivers/CMSIS/Device/ST/STM32H7xx/Include/stm32h755xx.h"
 136              		.file 5 "../../Drivers/STM32H7xx_HAL_Driver/Inc/stm32h7xx_hal_def.h"
 137              		.file 6 "../../Drivers/STM32H7xx_HAL_Driver/Inc/stm32h7xx_hal_eth.h"
 138              		.file 7 "../../CM7/Core/Inc/main.h"
 139              		.file 8 "C:/Program Files (x86)/Arm GNU Toolchain arm-none-eabi/14.3 rel1/arm-none-eabi/include/st
 140              		.file 9 "<built-in>"
ARM GAS  C:\Users\minis\AppData\Local\Temp\ccdTeXRF.s 			page 5


DEFINED SYMBOLS
                            *ABS*:00000000 eth.c
C:\Users\minis\AppData\Local\Temp\ccdTeXRF.s:19     .text.MX_ETH_Init:00000000 $t
C:\Users\minis\AppData\Local\Temp\ccdTeXRF.s:25     .text.MX_ETH_Init:00000000 MX_ETH_Init
C:\Users\minis\AppData\Local\Temp\ccdTeXRF.s:116    .text.MX_ETH_Init:00000054 $d
C:\Users\minis\AppData\Local\Temp\ccdTeXRF.s:129    .bss.MACAddr.0:00000000 MACAddr.0
C:\Users\minis\AppData\Local\Temp\ccdTeXRF.s:126    .bss.MACAddr.0:00000000 $d

UNDEFINED SYMBOLS
HAL_ETH_Init
memset
Error_Handler
heth
DMATxDscrTab
DMARxDscrTab
TxConfig
