ARM GAS  C:\Users\minis\AppData\Local\Temp\ccY56pkX.s 			page 1


   1              		.cpu cortex-m7
   2              		.arch armv7e-m
   3              		.fpu fpv5-d16
   4              		.eabi_attribute 20, 1
   5              		.eabi_attribute 21, 1
   6              		.eabi_attribute 23, 3
   7              		.eabi_attribute 24, 1
   8              		.eabi_attribute 25, 1
   9              		.eabi_attribute 26, 1
  10              		.eabi_attribute 30, 1
  11              		.eabi_attribute 34, 1
  12              		.eabi_attribute 18, 4
  13              		.file	"etharp.c"
  14              		.text
  15              	.Ltext0:
  16              		.cfi_sections	.debug_frame
  17              		.file 1 "../../Middlewares/Third_Party/LwIP/src/core/ipv4/etharp.c"
  18              		.section	.rodata.free_etharp_q.str1.4,"aMS",%progbits,1
  19              		.align	2
  20              	.LC0:
  21 0000 2E2E2F2E 		.ascii	"../../Middlewares/Third_Party/LwIP/src/core/ipv4/et"
  21      2E2F4D69 
  21      64646C65 
  21      77617265 
  21      732F5468 
  22 0033 68617270 		.ascii	"harp.c\000"
  22      2E6300
  23 003a 0000     		.align	2
  24              	.LC1:
  25 003c 7120213D 		.ascii	"q != NULL\000"
  25      204E554C 
  25      4C00
  26 0046 0000     		.align	2
  27              	.LC2:
  28 0048 41737365 		.ascii	"Assertion \"%s\" failed at line %d in %s\012\000"
  28      7274696F 
  28      6E202225 
  28      73222066 
  28      61696C65 
  29              		.align	2
  30              	.LC3:
  31 0070 722D3E70 		.ascii	"r->p != NULL\000"
  31      20213D20 
  31      4E554C4C 
  31      00
  32              		.section	.text.free_etharp_q,"ax",%progbits
  33              		.align	1
  34              		.syntax unified
  35              		.thumb
  36              		.thumb_func
  38              	free_etharp_q:
  39              	.LVL0:
  40              	.LFB170:
   1:../../Middlewares/Third_Party/LwIP/src/core/ipv4/etharp.c **** /**
   2:../../Middlewares/Third_Party/LwIP/src/core/ipv4/etharp.c ****  * @file
   3:../../Middlewares/Third_Party/LwIP/src/core/ipv4/etharp.c ****  * Address Resolution Protocol module for IP over Ethernet
   4:../../Middlewares/Third_Party/LwIP/src/core/ipv4/etharp.c ****  *
ARM GAS  C:\Users\minis\AppData\Local\Temp\ccY56pkX.s 			page 2


   5:../../Middlewares/Third_Party/LwIP/src/core/ipv4/etharp.c ****  * Functionally, ARP is divided into two parts. The first maps an IP address
   6:../../Middlewares/Third_Party/LwIP/src/core/ipv4/etharp.c ****  * to a physical address when sending a packet, and the second part answers
   7:../../Middlewares/Third_Party/LwIP/src/core/ipv4/etharp.c ****  * requests from other machines for our physical address.
   8:../../Middlewares/Third_Party/LwIP/src/core/ipv4/etharp.c ****  *
   9:../../Middlewares/Third_Party/LwIP/src/core/ipv4/etharp.c ****  * This implementation complies with RFC 826 (Ethernet ARP). It supports
  10:../../Middlewares/Third_Party/LwIP/src/core/ipv4/etharp.c ****  * Gratuitious ARP from RFC3220 (IP Mobility Support for IPv4) section 4.6
  11:../../Middlewares/Third_Party/LwIP/src/core/ipv4/etharp.c ****  * if an interface calls etharp_gratuitous(our_netif) upon address change.
  12:../../Middlewares/Third_Party/LwIP/src/core/ipv4/etharp.c ****  */
  13:../../Middlewares/Third_Party/LwIP/src/core/ipv4/etharp.c **** 
  14:../../Middlewares/Third_Party/LwIP/src/core/ipv4/etharp.c **** /*
  15:../../Middlewares/Third_Party/LwIP/src/core/ipv4/etharp.c ****  * Copyright (c) 2001-2003 Swedish Institute of Computer Science.
  16:../../Middlewares/Third_Party/LwIP/src/core/ipv4/etharp.c ****  * Copyright (c) 2003-2004 Leon Woestenberg <leon.woestenberg@axon.tv>
  17:../../Middlewares/Third_Party/LwIP/src/core/ipv4/etharp.c ****  * Copyright (c) 2003-2004 Axon Digital Design B.V., The Netherlands.
  18:../../Middlewares/Third_Party/LwIP/src/core/ipv4/etharp.c ****  * All rights reserved.
  19:../../Middlewares/Third_Party/LwIP/src/core/ipv4/etharp.c ****  *
  20:../../Middlewares/Third_Party/LwIP/src/core/ipv4/etharp.c ****  * Redistribution and use in source and binary forms, with or without modification,
  21:../../Middlewares/Third_Party/LwIP/src/core/ipv4/etharp.c ****  * are permitted provided that the following conditions are met:
  22:../../Middlewares/Third_Party/LwIP/src/core/ipv4/etharp.c ****  *
  23:../../Middlewares/Third_Party/LwIP/src/core/ipv4/etharp.c ****  * 1. Redistributions of source code must retain the above copyright notice,
  24:../../Middlewares/Third_Party/LwIP/src/core/ipv4/etharp.c ****  *    this list of conditions and the following disclaimer.
  25:../../Middlewares/Third_Party/LwIP/src/core/ipv4/etharp.c ****  * 2. Redistributions in binary form must reproduce the above copyright notice,
  26:../../Middlewares/Third_Party/LwIP/src/core/ipv4/etharp.c ****  *    this list of conditions and the following disclaimer in the documentation
  27:../../Middlewares/Third_Party/LwIP/src/core/ipv4/etharp.c ****  *    and/or other materials provided with the distribution.
  28:../../Middlewares/Third_Party/LwIP/src/core/ipv4/etharp.c ****  * 3. The name of the author may not be used to endorse or promote products
  29:../../Middlewares/Third_Party/LwIP/src/core/ipv4/etharp.c ****  *    derived from this software without specific prior written permission.
  30:../../Middlewares/Third_Party/LwIP/src/core/ipv4/etharp.c ****  *
  31:../../Middlewares/Third_Party/LwIP/src/core/ipv4/etharp.c ****  * THIS SOFTWARE IS PROVIDED BY THE AUTHOR ``AS IS'' AND ANY EXPRESS OR IMPLIED
  32:../../Middlewares/Third_Party/LwIP/src/core/ipv4/etharp.c ****  * WARRANTIES, INCLUDING, BUT NOT LIMITED TO, THE IMPLIED WARRANTIES OF
  33:../../Middlewares/Third_Party/LwIP/src/core/ipv4/etharp.c ****  * MERCHANTABILITY AND FITNESS FOR A PARTICULAR PURPOSE ARE DISCLAIMED. IN NO EVENT
  34:../../Middlewares/Third_Party/LwIP/src/core/ipv4/etharp.c ****  * SHALL THE AUTHOR BE LIABLE FOR ANY DIRECT, INDIRECT, INCIDENTAL, SPECIAL,
  35:../../Middlewares/Third_Party/LwIP/src/core/ipv4/etharp.c ****  * EXEMPLARY, OR CONSEQUENTIAL DAMAGES (INCLUDING, BUT NOT LIMITED TO, PROCUREMENT
  36:../../Middlewares/Third_Party/LwIP/src/core/ipv4/etharp.c ****  * OF SUBSTITUTE GOODS OR SERVICES; LOSS OF USE, DATA, OR PROFITS; OR BUSINESS
  37:../../Middlewares/Third_Party/LwIP/src/core/ipv4/etharp.c ****  * INTERRUPTION) HOWEVER CAUSED AND ON ANY THEORY OF LIABILITY, WHETHER IN
  38:../../Middlewares/Third_Party/LwIP/src/core/ipv4/etharp.c ****  * CONTRACT, STRICT LIABILITY, OR TORT (INCLUDING NEGLIGENCE OR OTHERWISE) ARISING
  39:../../Middlewares/Third_Party/LwIP/src/core/ipv4/etharp.c ****  * IN ANY WAY OUT OF THE USE OF THIS SOFTWARE, EVEN IF ADVISED OF THE POSSIBILITY
  40:../../Middlewares/Third_Party/LwIP/src/core/ipv4/etharp.c ****  * OF SUCH DAMAGE.
  41:../../Middlewares/Third_Party/LwIP/src/core/ipv4/etharp.c ****  *
  42:../../Middlewares/Third_Party/LwIP/src/core/ipv4/etharp.c ****  * This file is part of the lwIP TCP/IP stack.
  43:../../Middlewares/Third_Party/LwIP/src/core/ipv4/etharp.c ****  *
  44:../../Middlewares/Third_Party/LwIP/src/core/ipv4/etharp.c ****  */
  45:../../Middlewares/Third_Party/LwIP/src/core/ipv4/etharp.c **** 
  46:../../Middlewares/Third_Party/LwIP/src/core/ipv4/etharp.c **** #include "lwip/opt.h"
  47:../../Middlewares/Third_Party/LwIP/src/core/ipv4/etharp.c **** 
  48:../../Middlewares/Third_Party/LwIP/src/core/ipv4/etharp.c **** #if LWIP_IPV4 && LWIP_ARP /* don't build if not configured for use in lwipopts.h */
  49:../../Middlewares/Third_Party/LwIP/src/core/ipv4/etharp.c **** 
  50:../../Middlewares/Third_Party/LwIP/src/core/ipv4/etharp.c **** #include "lwip/etharp.h"
  51:../../Middlewares/Third_Party/LwIP/src/core/ipv4/etharp.c **** #include "lwip/stats.h"
  52:../../Middlewares/Third_Party/LwIP/src/core/ipv4/etharp.c **** #include "lwip/snmp.h"
  53:../../Middlewares/Third_Party/LwIP/src/core/ipv4/etharp.c **** #include "lwip/dhcp.h"
  54:../../Middlewares/Third_Party/LwIP/src/core/ipv4/etharp.c **** #include "lwip/autoip.h"
  55:../../Middlewares/Third_Party/LwIP/src/core/ipv4/etharp.c **** #include "lwip/prot/iana.h"
  56:../../Middlewares/Third_Party/LwIP/src/core/ipv4/etharp.c **** #include "netif/ethernet.h"
  57:../../Middlewares/Third_Party/LwIP/src/core/ipv4/etharp.c **** 
  58:../../Middlewares/Third_Party/LwIP/src/core/ipv4/etharp.c **** #include <string.h>
  59:../../Middlewares/Third_Party/LwIP/src/core/ipv4/etharp.c **** 
  60:../../Middlewares/Third_Party/LwIP/src/core/ipv4/etharp.c **** #ifdef LWIP_HOOK_FILENAME
  61:../../Middlewares/Third_Party/LwIP/src/core/ipv4/etharp.c **** #include LWIP_HOOK_FILENAME
ARM GAS  C:\Users\minis\AppData\Local\Temp\ccY56pkX.s 			page 3


  62:../../Middlewares/Third_Party/LwIP/src/core/ipv4/etharp.c **** #endif
  63:../../Middlewares/Third_Party/LwIP/src/core/ipv4/etharp.c **** 
  64:../../Middlewares/Third_Party/LwIP/src/core/ipv4/etharp.c **** /** Re-request a used ARP entry 1 minute before it would expire to prevent
  65:../../Middlewares/Third_Party/LwIP/src/core/ipv4/etharp.c ****  *  breaking a steadily used connection because the ARP entry timed out. */
  66:../../Middlewares/Third_Party/LwIP/src/core/ipv4/etharp.c **** #define ARP_AGE_REREQUEST_USED_UNICAST   (ARP_MAXAGE - 30)
  67:../../Middlewares/Third_Party/LwIP/src/core/ipv4/etharp.c **** #define ARP_AGE_REREQUEST_USED_BROADCAST (ARP_MAXAGE - 15)
  68:../../Middlewares/Third_Party/LwIP/src/core/ipv4/etharp.c **** 
  69:../../Middlewares/Third_Party/LwIP/src/core/ipv4/etharp.c **** /** the time an ARP entry stays pending after first request,
  70:../../Middlewares/Third_Party/LwIP/src/core/ipv4/etharp.c ****  *  for ARP_TMR_INTERVAL = 1000, this is
  71:../../Middlewares/Third_Party/LwIP/src/core/ipv4/etharp.c ****  *  10 seconds.
  72:../../Middlewares/Third_Party/LwIP/src/core/ipv4/etharp.c ****  *
  73:../../Middlewares/Third_Party/LwIP/src/core/ipv4/etharp.c ****  *  @internal Keep this number at least 2, otherwise it might
  74:../../Middlewares/Third_Party/LwIP/src/core/ipv4/etharp.c ****  *  run out instantly if the timeout occurs directly after a request.
  75:../../Middlewares/Third_Party/LwIP/src/core/ipv4/etharp.c ****  */
  76:../../Middlewares/Third_Party/LwIP/src/core/ipv4/etharp.c **** #define ARP_MAXPENDING 5
  77:../../Middlewares/Third_Party/LwIP/src/core/ipv4/etharp.c **** 
  78:../../Middlewares/Third_Party/LwIP/src/core/ipv4/etharp.c **** /** ARP states */
  79:../../Middlewares/Third_Party/LwIP/src/core/ipv4/etharp.c **** enum etharp_state {
  80:../../Middlewares/Third_Party/LwIP/src/core/ipv4/etharp.c ****   ETHARP_STATE_EMPTY = 0,
  81:../../Middlewares/Third_Party/LwIP/src/core/ipv4/etharp.c ****   ETHARP_STATE_PENDING,
  82:../../Middlewares/Third_Party/LwIP/src/core/ipv4/etharp.c ****   ETHARP_STATE_STABLE,
  83:../../Middlewares/Third_Party/LwIP/src/core/ipv4/etharp.c ****   ETHARP_STATE_STABLE_REREQUESTING_1,
  84:../../Middlewares/Third_Party/LwIP/src/core/ipv4/etharp.c ****   ETHARP_STATE_STABLE_REREQUESTING_2
  85:../../Middlewares/Third_Party/LwIP/src/core/ipv4/etharp.c **** #if ETHARP_SUPPORT_STATIC_ENTRIES
  86:../../Middlewares/Third_Party/LwIP/src/core/ipv4/etharp.c ****   , ETHARP_STATE_STATIC
  87:../../Middlewares/Third_Party/LwIP/src/core/ipv4/etharp.c **** #endif /* ETHARP_SUPPORT_STATIC_ENTRIES */
  88:../../Middlewares/Third_Party/LwIP/src/core/ipv4/etharp.c **** };
  89:../../Middlewares/Third_Party/LwIP/src/core/ipv4/etharp.c **** 
  90:../../Middlewares/Third_Party/LwIP/src/core/ipv4/etharp.c **** struct etharp_entry {
  91:../../Middlewares/Third_Party/LwIP/src/core/ipv4/etharp.c **** #if ARP_QUEUEING
  92:../../Middlewares/Third_Party/LwIP/src/core/ipv4/etharp.c ****   /** Pointer to queue of pending outgoing packets on this ARP entry. */
  93:../../Middlewares/Third_Party/LwIP/src/core/ipv4/etharp.c ****   struct etharp_q_entry *q;
  94:../../Middlewares/Third_Party/LwIP/src/core/ipv4/etharp.c **** #else /* ARP_QUEUEING */
  95:../../Middlewares/Third_Party/LwIP/src/core/ipv4/etharp.c ****   /** Pointer to a single pending outgoing packet on this ARP entry. */
  96:../../Middlewares/Third_Party/LwIP/src/core/ipv4/etharp.c ****   struct pbuf *q;
  97:../../Middlewares/Third_Party/LwIP/src/core/ipv4/etharp.c **** #endif /* ARP_QUEUEING */
  98:../../Middlewares/Third_Party/LwIP/src/core/ipv4/etharp.c ****   ip4_addr_t ipaddr;
  99:../../Middlewares/Third_Party/LwIP/src/core/ipv4/etharp.c ****   struct netif *netif;
 100:../../Middlewares/Third_Party/LwIP/src/core/ipv4/etharp.c ****   struct eth_addr ethaddr;
 101:../../Middlewares/Third_Party/LwIP/src/core/ipv4/etharp.c ****   u16_t ctime;
 102:../../Middlewares/Third_Party/LwIP/src/core/ipv4/etharp.c ****   u8_t state;
 103:../../Middlewares/Third_Party/LwIP/src/core/ipv4/etharp.c **** };
 104:../../Middlewares/Third_Party/LwIP/src/core/ipv4/etharp.c **** 
 105:../../Middlewares/Third_Party/LwIP/src/core/ipv4/etharp.c **** static struct etharp_entry arp_table[ARP_TABLE_SIZE];
 106:../../Middlewares/Third_Party/LwIP/src/core/ipv4/etharp.c **** 
 107:../../Middlewares/Third_Party/LwIP/src/core/ipv4/etharp.c **** #if !LWIP_NETIF_HWADDRHINT
 108:../../Middlewares/Third_Party/LwIP/src/core/ipv4/etharp.c **** static netif_addr_idx_t etharp_cached_entry;
 109:../../Middlewares/Third_Party/LwIP/src/core/ipv4/etharp.c **** #endif /* !LWIP_NETIF_HWADDRHINT */
 110:../../Middlewares/Third_Party/LwIP/src/core/ipv4/etharp.c **** 
 111:../../Middlewares/Third_Party/LwIP/src/core/ipv4/etharp.c **** /** Try hard to create a new entry - we want the IP address to appear in
 112:../../Middlewares/Third_Party/LwIP/src/core/ipv4/etharp.c ****     the cache (even if this means removing an active entry or so). */
 113:../../Middlewares/Third_Party/LwIP/src/core/ipv4/etharp.c **** #define ETHARP_FLAG_TRY_HARD     1
 114:../../Middlewares/Third_Party/LwIP/src/core/ipv4/etharp.c **** #define ETHARP_FLAG_FIND_ONLY    2
 115:../../Middlewares/Third_Party/LwIP/src/core/ipv4/etharp.c **** #if ETHARP_SUPPORT_STATIC_ENTRIES
 116:../../Middlewares/Third_Party/LwIP/src/core/ipv4/etharp.c **** #define ETHARP_FLAG_STATIC_ENTRY 4
 117:../../Middlewares/Third_Party/LwIP/src/core/ipv4/etharp.c **** #endif /* ETHARP_SUPPORT_STATIC_ENTRIES */
 118:../../Middlewares/Third_Party/LwIP/src/core/ipv4/etharp.c **** 
ARM GAS  C:\Users\minis\AppData\Local\Temp\ccY56pkX.s 			page 4


 119:../../Middlewares/Third_Party/LwIP/src/core/ipv4/etharp.c **** #if LWIP_NETIF_HWADDRHINT
 120:../../Middlewares/Third_Party/LwIP/src/core/ipv4/etharp.c **** #define ETHARP_SET_ADDRHINT(netif, addrhint)  do { if (((netif) != NULL) && ((netif)->hints != NULL
 121:../../Middlewares/Third_Party/LwIP/src/core/ipv4/etharp.c ****                                               (netif)->hints->addr_hint = (addrhint); }} while(0)
 122:../../Middlewares/Third_Party/LwIP/src/core/ipv4/etharp.c **** #else /* LWIP_NETIF_HWADDRHINT */
 123:../../Middlewares/Third_Party/LwIP/src/core/ipv4/etharp.c **** #define ETHARP_SET_ADDRHINT(netif, addrhint)  (etharp_cached_entry = (addrhint))
 124:../../Middlewares/Third_Party/LwIP/src/core/ipv4/etharp.c **** #endif /* LWIP_NETIF_HWADDRHINT */
 125:../../Middlewares/Third_Party/LwIP/src/core/ipv4/etharp.c **** 
 126:../../Middlewares/Third_Party/LwIP/src/core/ipv4/etharp.c **** 
 127:../../Middlewares/Third_Party/LwIP/src/core/ipv4/etharp.c **** /* Check for maximum ARP_TABLE_SIZE */
 128:../../Middlewares/Third_Party/LwIP/src/core/ipv4/etharp.c **** #if (ARP_TABLE_SIZE > NETIF_ADDR_IDX_MAX)
 129:../../Middlewares/Third_Party/LwIP/src/core/ipv4/etharp.c **** #error "ARP_TABLE_SIZE must fit in an s16_t, you have to reduce it in your lwipopts.h"
 130:../../Middlewares/Third_Party/LwIP/src/core/ipv4/etharp.c **** #endif
 131:../../Middlewares/Third_Party/LwIP/src/core/ipv4/etharp.c **** 
 132:../../Middlewares/Third_Party/LwIP/src/core/ipv4/etharp.c **** 
 133:../../Middlewares/Third_Party/LwIP/src/core/ipv4/etharp.c **** static err_t etharp_request_dst(struct netif *netif, const ip4_addr_t *ipaddr, const struct eth_add
 134:../../Middlewares/Third_Party/LwIP/src/core/ipv4/etharp.c **** static err_t etharp_raw(struct netif *netif,
 135:../../Middlewares/Third_Party/LwIP/src/core/ipv4/etharp.c ****                         const struct eth_addr *ethsrc_addr, const struct eth_addr *ethdst_addr,
 136:../../Middlewares/Third_Party/LwIP/src/core/ipv4/etharp.c ****                         const struct eth_addr *hwsrc_addr, const ip4_addr_t *ipsrc_addr,
 137:../../Middlewares/Third_Party/LwIP/src/core/ipv4/etharp.c ****                         const struct eth_addr *hwdst_addr, const ip4_addr_t *ipdst_addr,
 138:../../Middlewares/Third_Party/LwIP/src/core/ipv4/etharp.c ****                         const u16_t opcode);
 139:../../Middlewares/Third_Party/LwIP/src/core/ipv4/etharp.c **** 
 140:../../Middlewares/Third_Party/LwIP/src/core/ipv4/etharp.c **** #if ARP_QUEUEING
 141:../../Middlewares/Third_Party/LwIP/src/core/ipv4/etharp.c **** /**
 142:../../Middlewares/Third_Party/LwIP/src/core/ipv4/etharp.c ****  * Free a complete queue of etharp entries
 143:../../Middlewares/Third_Party/LwIP/src/core/ipv4/etharp.c ****  *
 144:../../Middlewares/Third_Party/LwIP/src/core/ipv4/etharp.c ****  * @param q a qeueue of etharp_q_entry's to free
 145:../../Middlewares/Third_Party/LwIP/src/core/ipv4/etharp.c ****  */
 146:../../Middlewares/Third_Party/LwIP/src/core/ipv4/etharp.c **** static void
 147:../../Middlewares/Third_Party/LwIP/src/core/ipv4/etharp.c **** free_etharp_q(struct etharp_q_entry *q)
 148:../../Middlewares/Third_Party/LwIP/src/core/ipv4/etharp.c **** {
  41              		.loc 1 148 1 view -0
  42              		.cfi_startproc
  43              		@ args = 0, pretend = 0, frame = 0
  44              		@ frame_needed = 0, uses_anonymous_args = 0
  45              		.loc 1 148 1 is_stmt 0 view .LVU1
  46 0000 38B5     		push	{r3, r4, r5, lr}
  47              	.LCFI0:
  48              		.cfi_def_cfa_offset 16
  49              		.cfi_offset 3, -16
  50              		.cfi_offset 4, -12
  51              		.cfi_offset 5, -8
  52              		.cfi_offset 14, -4
 149:../../Middlewares/Third_Party/LwIP/src/core/ipv4/etharp.c ****   struct etharp_q_entry *r;
  53              		.loc 1 149 3 is_stmt 1 view .LVU2
 150:../../Middlewares/Third_Party/LwIP/src/core/ipv4/etharp.c ****   LWIP_ASSERT("q != NULL", q != NULL);
  54              		.loc 1 150 3 view .LVU3
  55              		.loc 1 150 3 view .LVU4
  56 0002 0446     		mov	r4, r0
  57 0004 70B9     		cbnz	r0, .L4
  58              		.loc 1 150 3 discriminator 1 view .LVU5
  59              		.loc 1 150 3 discriminator 1 view .LVU6
  60 0006 0E4B     		ldr	r3, .L8
  61 0008 9622     		movs	r2, #150
  62 000a 0E49     		ldr	r1, .L8+4
  63 000c 0E48     		ldr	r0, .L8+8
  64              	.LVL1:
  65              		.loc 1 150 3 is_stmt 0 discriminator 1 view .LVU7
ARM GAS  C:\Users\minis\AppData\Local\Temp\ccY56pkX.s 			page 5


  66 000e FFF7FEFF 		bl	printf
  67              	.LVL2:
  68 0012 07E0     		b	.L4
  69              	.LVL3:
  70              	.L3:
 151:../../Middlewares/Third_Party/LwIP/src/core/ipv4/etharp.c ****   while (q) {
 152:../../Middlewares/Third_Party/LwIP/src/core/ipv4/etharp.c ****     r = q;
 153:../../Middlewares/Third_Party/LwIP/src/core/ipv4/etharp.c ****     q = q->next;
 154:../../Middlewares/Third_Party/LwIP/src/core/ipv4/etharp.c ****     LWIP_ASSERT("r->p != NULL", (r->p != NULL));
  71              		.loc 1 154 5 is_stmt 1 view .LVU8
  72              		.loc 1 154 5 view .LVU9
 155:../../Middlewares/Third_Party/LwIP/src/core/ipv4/etharp.c ****     pbuf_free(r->p);
  73              		.loc 1 155 5 view .LVU10
  74 0014 6068     		ldr	r0, [r4, #4]
  75 0016 FFF7FEFF 		bl	pbuf_free
  76              	.LVL4:
 156:../../Middlewares/Third_Party/LwIP/src/core/ipv4/etharp.c ****     memp_free(MEMP_ARP_QUEUE, r);
  77              		.loc 1 156 5 view .LVU11
  78 001a 2146     		mov	r1, r4
  79 001c 0A20     		movs	r0, #10
  80 001e FFF7FEFF 		bl	memp_free
  81              	.LVL5:
 153:../../Middlewares/Third_Party/LwIP/src/core/ipv4/etharp.c ****     LWIP_ASSERT("r->p != NULL", (r->p != NULL));
  82              		.loc 1 153 7 is_stmt 0 view .LVU12
  83 0022 2C46     		mov	r4, r5
  84              	.LVL6:
  85              	.L4:
 151:../../Middlewares/Third_Party/LwIP/src/core/ipv4/etharp.c ****     r = q;
  86              		.loc 1 151 10 is_stmt 1 view .LVU13
  87 0024 54B1     		cbz	r4, .L7
 152:../../Middlewares/Third_Party/LwIP/src/core/ipv4/etharp.c ****     q = q->next;
  88              		.loc 1 152 5 view .LVU14
  89              	.LVL7:
 153:../../Middlewares/Third_Party/LwIP/src/core/ipv4/etharp.c ****     LWIP_ASSERT("r->p != NULL", (r->p != NULL));
  90              		.loc 1 153 5 view .LVU15
 153:../../Middlewares/Third_Party/LwIP/src/core/ipv4/etharp.c ****     LWIP_ASSERT("r->p != NULL", (r->p != NULL));
  91              		.loc 1 153 7 is_stmt 0 view .LVU16
  92 0026 2568     		ldr	r5, [r4]
  93              	.LVL8:
 154:../../Middlewares/Third_Party/LwIP/src/core/ipv4/etharp.c ****     pbuf_free(r->p);
  94              		.loc 1 154 5 is_stmt 1 view .LVU17
 154:../../Middlewares/Third_Party/LwIP/src/core/ipv4/etharp.c ****     pbuf_free(r->p);
  95              		.loc 1 154 5 view .LVU18
  96 0028 6368     		ldr	r3, [r4, #4]
  97 002a 002B     		cmp	r3, #0
  98 002c F2D1     		bne	.L3
 154:../../Middlewares/Third_Party/LwIP/src/core/ipv4/etharp.c ****     pbuf_free(r->p);
  99              		.loc 1 154 5 discriminator 1 view .LVU19
 154:../../Middlewares/Third_Party/LwIP/src/core/ipv4/etharp.c ****     pbuf_free(r->p);
 100              		.loc 1 154 5 discriminator 1 view .LVU20
 101 002e 044B     		ldr	r3, .L8
 102 0030 9A22     		movs	r2, #154
 103 0032 0649     		ldr	r1, .L8+12
 104 0034 0448     		ldr	r0, .L8+8
 105 0036 FFF7FEFF 		bl	printf
 106              	.LVL9:
 107 003a EBE7     		b	.L3
ARM GAS  C:\Users\minis\AppData\Local\Temp\ccY56pkX.s 			page 6


 108              	.LVL10:
 109              	.L7:
 157:../../Middlewares/Third_Party/LwIP/src/core/ipv4/etharp.c ****   }
 158:../../Middlewares/Third_Party/LwIP/src/core/ipv4/etharp.c **** }
 110              		.loc 1 158 1 is_stmt 0 view .LVU21
 111 003c 38BD     		pop	{r3, r4, r5, pc}
 112              	.LVL11:
 113              	.L9:
 114              		.loc 1 158 1 view .LVU22
 115 003e 00BF     		.align	2
 116              	.L8:
 117 0040 00000000 		.word	.LC0
 118 0044 3C000000 		.word	.LC1
 119 0048 48000000 		.word	.LC2
 120 004c 70000000 		.word	.LC3
 121              		.cfi_endproc
 122              	.LFE170:
 124              		.section	.text.etharp_free_entry,"ax",%progbits
 125              		.align	1
 126              		.syntax unified
 127              		.thumb
 128              		.thumb_func
 130              	etharp_free_entry:
 131              	.LVL12:
 132              	.LFB171:
 159:../../Middlewares/Third_Party/LwIP/src/core/ipv4/etharp.c **** #else /* ARP_QUEUEING */
 160:../../Middlewares/Third_Party/LwIP/src/core/ipv4/etharp.c **** 
 161:../../Middlewares/Third_Party/LwIP/src/core/ipv4/etharp.c **** /** Compatibility define: free the queued pbuf */
 162:../../Middlewares/Third_Party/LwIP/src/core/ipv4/etharp.c **** #define free_etharp_q(q) pbuf_free(q)
 163:../../Middlewares/Third_Party/LwIP/src/core/ipv4/etharp.c **** 
 164:../../Middlewares/Third_Party/LwIP/src/core/ipv4/etharp.c **** #endif /* ARP_QUEUEING */
 165:../../Middlewares/Third_Party/LwIP/src/core/ipv4/etharp.c **** 
 166:../../Middlewares/Third_Party/LwIP/src/core/ipv4/etharp.c **** /** Clean up ARP table entries */
 167:../../Middlewares/Third_Party/LwIP/src/core/ipv4/etharp.c **** static void
 168:../../Middlewares/Third_Party/LwIP/src/core/ipv4/etharp.c **** etharp_free_entry(int i)
 169:../../Middlewares/Third_Party/LwIP/src/core/ipv4/etharp.c **** {
 133              		.loc 1 169 1 is_stmt 1 view -0
 134              		.cfi_startproc
 135              		@ args = 0, pretend = 0, frame = 0
 136              		@ frame_needed = 0, uses_anonymous_args = 0
 137              		.loc 1 169 1 is_stmt 0 view .LVU24
 138 0000 10B5     		push	{r4, lr}
 139              	.LCFI1:
 140              		.cfi_def_cfa_offset 8
 141              		.cfi_offset 4, -8
 142              		.cfi_offset 14, -4
 143 0002 0446     		mov	r4, r0
 170:../../Middlewares/Third_Party/LwIP/src/core/ipv4/etharp.c ****   /* remove from SNMP ARP index tree */
 171:../../Middlewares/Third_Party/LwIP/src/core/ipv4/etharp.c ****   mib2_remove_arp_entry(arp_table[i].netif, &arp_table[i].ipaddr);
 144              		.loc 1 171 66 is_stmt 1 view .LVU25
 172:../../Middlewares/Third_Party/LwIP/src/core/ipv4/etharp.c ****   /* and empty packet queue */
 173:../../Middlewares/Third_Party/LwIP/src/core/ipv4/etharp.c ****   if (arp_table[i].q != NULL) {
 145              		.loc 1 173 3 view .LVU26
 146              		.loc 1 173 19 is_stmt 0 view .LVU27
 147 0004 00EB4002 		add	r2, r0, r0, lsl #1
 148 0008 094B     		ldr	r3, .L13
 149 000a 53F83200 		ldr	r0, [r3, r2, lsl #3]
ARM GAS  C:\Users\minis\AppData\Local\Temp\ccY56pkX.s 			page 7


 150              	.LVL13:
 151              		.loc 1 173 6 view .LVU28
 152 000e 38B1     		cbz	r0, .L11
 174:../../Middlewares/Third_Party/LwIP/src/core/ipv4/etharp.c ****     /* remove all queued packets */
 175:../../Middlewares/Third_Party/LwIP/src/core/ipv4/etharp.c ****     LWIP_DEBUGF(ETHARP_DEBUG, ("etharp_free_entry: freeing entry %"U16_F", packet queue %p.\n", (u1
 153              		.loc 1 175 133 is_stmt 1 view .LVU29
 176:../../Middlewares/Third_Party/LwIP/src/core/ipv4/etharp.c ****     free_etharp_q(arp_table[i].q);
 154              		.loc 1 176 5 view .LVU30
 155 0010 FFF7FEFF 		bl	free_etharp_q
 156              	.LVL14:
 177:../../Middlewares/Third_Party/LwIP/src/core/ipv4/etharp.c ****     arp_table[i].q = NULL;
 157              		.loc 1 177 5 view .LVU31
 158              		.loc 1 177 20 is_stmt 0 view .LVU32
 159 0014 04EB4403 		add	r3, r4, r4, lsl #1
 160 0018 DB00     		lsls	r3, r3, #3
 161 001a 054A     		ldr	r2, .L13
 162 001c 0021     		movs	r1, #0
 163 001e D150     		str	r1, [r2, r3]
 164              	.L11:
 178:../../Middlewares/Third_Party/LwIP/src/core/ipv4/etharp.c ****   }
 179:../../Middlewares/Third_Party/LwIP/src/core/ipv4/etharp.c ****   /* recycle entry for re-use */
 180:../../Middlewares/Third_Party/LwIP/src/core/ipv4/etharp.c ****   arp_table[i].state = ETHARP_STATE_EMPTY;
 165              		.loc 1 180 3 is_stmt 1 view .LVU33
 166              		.loc 1 180 22 is_stmt 0 view .LVU34
 167 0020 04EB4404 		add	r4, r4, r4, lsl #1
 168              	.LVL15:
 169              		.loc 1 180 22 view .LVU35
 170 0024 024B     		ldr	r3, .L13
 171 0026 03EBC403 		add	r3, r3, r4, lsl #3
 172 002a 0022     		movs	r2, #0
 173 002c 1A75     		strb	r2, [r3, #20]
 181:../../Middlewares/Third_Party/LwIP/src/core/ipv4/etharp.c **** #ifdef LWIP_DEBUG
 182:../../Middlewares/Third_Party/LwIP/src/core/ipv4/etharp.c ****   /* for debugging, clean out the complete entry */
 183:../../Middlewares/Third_Party/LwIP/src/core/ipv4/etharp.c ****   arp_table[i].ctime = 0;
 184:../../Middlewares/Third_Party/LwIP/src/core/ipv4/etharp.c ****   arp_table[i].netif = NULL;
 185:../../Middlewares/Third_Party/LwIP/src/core/ipv4/etharp.c ****   ip4_addr_set_zero(&arp_table[i].ipaddr);
 186:../../Middlewares/Third_Party/LwIP/src/core/ipv4/etharp.c ****   arp_table[i].ethaddr = ethzero;
 187:../../Middlewares/Third_Party/LwIP/src/core/ipv4/etharp.c **** #endif /* LWIP_DEBUG */
 188:../../Middlewares/Third_Party/LwIP/src/core/ipv4/etharp.c **** }
 174              		.loc 1 188 1 view .LVU36
 175 002e 10BD     		pop	{r4, pc}
 176              	.L14:
 177              		.align	2
 178              	.L13:
 179 0030 00000000 		.word	arp_table
 180              		.cfi_endproc
 181              	.LFE171:
 183              		.section	.rodata.etharp_find_entry.str1.4,"aMS",%progbits,1
 184              		.align	2
 185              	.LC4:
 186 0000 6172705F 		.ascii	"arp_table[i].q == NULL\000"
 186      7461626C 
 186      655B695D 
 186      2E71203D 
 186      3D204E55 
 187 0017 00       		.align	2
 188              	.LC5:
ARM GAS  C:\Users\minis\AppData\Local\Temp\ccY56pkX.s 			page 8


 189 0018 69203C20 		.ascii	"i < ARP_TABLE_SIZE\000"
 189      4152505F 
 189      5441424C 
 189      455F5349 
 189      5A4500
 190 002b 00       		.align	2
 191              	.LC6:
 192 002c 6172705F 		.ascii	"arp_table[i].state == ETHARP_STATE_EMPTY\000"
 192      7461626C 
 192      655B695D 
 192      2E737461 
 192      7465203D 
 193              		.section	.text.etharp_find_entry,"ax",%progbits
 194              		.align	1
 195              		.syntax unified
 196              		.thumb
 197              		.thumb_func
 199              	etharp_find_entry:
 200              	.LVL16:
 201              	.LFB173:
 189:../../Middlewares/Third_Party/LwIP/src/core/ipv4/etharp.c **** 
 190:../../Middlewares/Third_Party/LwIP/src/core/ipv4/etharp.c **** /**
 191:../../Middlewares/Third_Party/LwIP/src/core/ipv4/etharp.c ****  * Clears expired entries in the ARP table.
 192:../../Middlewares/Third_Party/LwIP/src/core/ipv4/etharp.c ****  *
 193:../../Middlewares/Third_Party/LwIP/src/core/ipv4/etharp.c ****  * This function should be called every ARP_TMR_INTERVAL milliseconds (1 second),
 194:../../Middlewares/Third_Party/LwIP/src/core/ipv4/etharp.c ****  * in order to expire entries in the ARP table.
 195:../../Middlewares/Third_Party/LwIP/src/core/ipv4/etharp.c ****  */
 196:../../Middlewares/Third_Party/LwIP/src/core/ipv4/etharp.c **** void
 197:../../Middlewares/Third_Party/LwIP/src/core/ipv4/etharp.c **** etharp_tmr(void)
 198:../../Middlewares/Third_Party/LwIP/src/core/ipv4/etharp.c **** {
 199:../../Middlewares/Third_Party/LwIP/src/core/ipv4/etharp.c ****   int i;
 200:../../Middlewares/Third_Party/LwIP/src/core/ipv4/etharp.c **** 
 201:../../Middlewares/Third_Party/LwIP/src/core/ipv4/etharp.c ****   LWIP_DEBUGF(ETHARP_DEBUG, ("etharp_timer\n"));
 202:../../Middlewares/Third_Party/LwIP/src/core/ipv4/etharp.c ****   /* remove expired entries from the ARP table */
 203:../../Middlewares/Third_Party/LwIP/src/core/ipv4/etharp.c ****   for (i = 0; i < ARP_TABLE_SIZE; ++i) {
 204:../../Middlewares/Third_Party/LwIP/src/core/ipv4/etharp.c ****     u8_t state = arp_table[i].state;
 205:../../Middlewares/Third_Party/LwIP/src/core/ipv4/etharp.c ****     if (state != ETHARP_STATE_EMPTY
 206:../../Middlewares/Third_Party/LwIP/src/core/ipv4/etharp.c **** #if ETHARP_SUPPORT_STATIC_ENTRIES
 207:../../Middlewares/Third_Party/LwIP/src/core/ipv4/etharp.c ****         && (state != ETHARP_STATE_STATIC)
 208:../../Middlewares/Third_Party/LwIP/src/core/ipv4/etharp.c **** #endif /* ETHARP_SUPPORT_STATIC_ENTRIES */
 209:../../Middlewares/Third_Party/LwIP/src/core/ipv4/etharp.c ****        ) {
 210:../../Middlewares/Third_Party/LwIP/src/core/ipv4/etharp.c ****       arp_table[i].ctime++;
 211:../../Middlewares/Third_Party/LwIP/src/core/ipv4/etharp.c ****       if ((arp_table[i].ctime >= ARP_MAXAGE) ||
 212:../../Middlewares/Third_Party/LwIP/src/core/ipv4/etharp.c ****           ((arp_table[i].state == ETHARP_STATE_PENDING)  &&
 213:../../Middlewares/Third_Party/LwIP/src/core/ipv4/etharp.c ****            (arp_table[i].ctime >= ARP_MAXPENDING))) {
 214:../../Middlewares/Third_Party/LwIP/src/core/ipv4/etharp.c ****         /* pending or stable entry has become old! */
 215:../../Middlewares/Third_Party/LwIP/src/core/ipv4/etharp.c ****         LWIP_DEBUGF(ETHARP_DEBUG, ("etharp_timer: expired %s entry %d.\n",
 216:../../Middlewares/Third_Party/LwIP/src/core/ipv4/etharp.c ****                                    arp_table[i].state >= ETHARP_STATE_STABLE ? "stable" : "pending"
 217:../../Middlewares/Third_Party/LwIP/src/core/ipv4/etharp.c ****         /* clean up entries that have just been expired */
 218:../../Middlewares/Third_Party/LwIP/src/core/ipv4/etharp.c ****         etharp_free_entry(i);
 219:../../Middlewares/Third_Party/LwIP/src/core/ipv4/etharp.c ****       } else if (arp_table[i].state == ETHARP_STATE_STABLE_REREQUESTING_1) {
 220:../../Middlewares/Third_Party/LwIP/src/core/ipv4/etharp.c ****         /* Don't send more than one request every 2 seconds. */
 221:../../Middlewares/Third_Party/LwIP/src/core/ipv4/etharp.c ****         arp_table[i].state = ETHARP_STATE_STABLE_REREQUESTING_2;
 222:../../Middlewares/Third_Party/LwIP/src/core/ipv4/etharp.c ****       } else if (arp_table[i].state == ETHARP_STATE_STABLE_REREQUESTING_2) {
 223:../../Middlewares/Third_Party/LwIP/src/core/ipv4/etharp.c ****         /* Reset state to stable, so that the next transmitted packet will
 224:../../Middlewares/Third_Party/LwIP/src/core/ipv4/etharp.c ****            re-send an ARP request. */
 225:../../Middlewares/Third_Party/LwIP/src/core/ipv4/etharp.c ****         arp_table[i].state = ETHARP_STATE_STABLE;
ARM GAS  C:\Users\minis\AppData\Local\Temp\ccY56pkX.s 			page 9


 226:../../Middlewares/Third_Party/LwIP/src/core/ipv4/etharp.c ****       } else if (arp_table[i].state == ETHARP_STATE_PENDING) {
 227:../../Middlewares/Third_Party/LwIP/src/core/ipv4/etharp.c ****         /* still pending, resend an ARP query */
 228:../../Middlewares/Third_Party/LwIP/src/core/ipv4/etharp.c ****         etharp_request(arp_table[i].netif, &arp_table[i].ipaddr);
 229:../../Middlewares/Third_Party/LwIP/src/core/ipv4/etharp.c ****       }
 230:../../Middlewares/Third_Party/LwIP/src/core/ipv4/etharp.c ****     }
 231:../../Middlewares/Third_Party/LwIP/src/core/ipv4/etharp.c ****   }
 232:../../Middlewares/Third_Party/LwIP/src/core/ipv4/etharp.c **** }
 233:../../Middlewares/Third_Party/LwIP/src/core/ipv4/etharp.c **** 
 234:../../Middlewares/Third_Party/LwIP/src/core/ipv4/etharp.c **** /**
 235:../../Middlewares/Third_Party/LwIP/src/core/ipv4/etharp.c ****  * Search the ARP table for a matching or new entry.
 236:../../Middlewares/Third_Party/LwIP/src/core/ipv4/etharp.c ****  *
 237:../../Middlewares/Third_Party/LwIP/src/core/ipv4/etharp.c ****  * If an IP address is given, return a pending or stable ARP entry that matches
 238:../../Middlewares/Third_Party/LwIP/src/core/ipv4/etharp.c ****  * the address. If no match is found, create a new entry with this address set,
 239:../../Middlewares/Third_Party/LwIP/src/core/ipv4/etharp.c ****  * but in state ETHARP_EMPTY. The caller must check and possibly change the
 240:../../Middlewares/Third_Party/LwIP/src/core/ipv4/etharp.c ****  * state of the returned entry.
 241:../../Middlewares/Third_Party/LwIP/src/core/ipv4/etharp.c ****  *
 242:../../Middlewares/Third_Party/LwIP/src/core/ipv4/etharp.c ****  * If ipaddr is NULL, return a initialized new entry in state ETHARP_EMPTY.
 243:../../Middlewares/Third_Party/LwIP/src/core/ipv4/etharp.c ****  *
 244:../../Middlewares/Third_Party/LwIP/src/core/ipv4/etharp.c ****  * In all cases, attempt to create new entries from an empty entry. If no
 245:../../Middlewares/Third_Party/LwIP/src/core/ipv4/etharp.c ****  * empty entries are available and ETHARP_FLAG_TRY_HARD flag is set, recycle
 246:../../Middlewares/Third_Party/LwIP/src/core/ipv4/etharp.c ****  * old entries. Heuristic choose the least important entry for recycling.
 247:../../Middlewares/Third_Party/LwIP/src/core/ipv4/etharp.c ****  *
 248:../../Middlewares/Third_Party/LwIP/src/core/ipv4/etharp.c ****  * @param ipaddr IP address to find in ARP cache, or to add if not found.
 249:../../Middlewares/Third_Party/LwIP/src/core/ipv4/etharp.c ****  * @param flags See @ref etharp_state
 250:../../Middlewares/Third_Party/LwIP/src/core/ipv4/etharp.c ****  * @param netif netif related to this address (used for NETIF_HWADDRHINT)
 251:../../Middlewares/Third_Party/LwIP/src/core/ipv4/etharp.c ****  *
 252:../../Middlewares/Third_Party/LwIP/src/core/ipv4/etharp.c ****  * @return The ARP entry index that matched or is created, ERR_MEM if no
 253:../../Middlewares/Third_Party/LwIP/src/core/ipv4/etharp.c ****  * entry is found or could be recycled.
 254:../../Middlewares/Third_Party/LwIP/src/core/ipv4/etharp.c ****  */
 255:../../Middlewares/Third_Party/LwIP/src/core/ipv4/etharp.c **** static s16_t
 256:../../Middlewares/Third_Party/LwIP/src/core/ipv4/etharp.c **** etharp_find_entry(const ip4_addr_t *ipaddr, u8_t flags, struct netif *netif)
 257:../../Middlewares/Third_Party/LwIP/src/core/ipv4/etharp.c **** {
 202              		.loc 1 257 1 is_stmt 1 view -0
 203              		.cfi_startproc
 204              		@ args = 0, pretend = 0, frame = 16
 205              		@ frame_needed = 0, uses_anonymous_args = 0
 206              		.loc 1 257 1 is_stmt 0 view .LVU38
 207 0000 2DE9F04F 		push	{r4, r5, r6, r7, r8, r9, r10, fp, lr}
 208              	.LCFI2:
 209              		.cfi_def_cfa_offset 36
 210              		.cfi_offset 4, -36
 211              		.cfi_offset 5, -32
 212              		.cfi_offset 6, -28
 213              		.cfi_offset 7, -24
 214              		.cfi_offset 8, -20
 215              		.cfi_offset 9, -16
 216              		.cfi_offset 10, -12
 217              		.cfi_offset 11, -8
 218              		.cfi_offset 14, -4
 219 0004 85B0     		sub	sp, sp, #20
 220              	.LCFI3:
 221              		.cfi_def_cfa_offset 56
 222 0006 0646     		mov	r6, r0
 223 0008 1746     		mov	r7, r2
 258:../../Middlewares/Third_Party/LwIP/src/core/ipv4/etharp.c ****   s16_t old_pending = ARP_TABLE_SIZE, old_stable = ARP_TABLE_SIZE;
 224              		.loc 1 258 3 is_stmt 1 view .LVU39
 225              	.LVL17:
ARM GAS  C:\Users\minis\AppData\Local\Temp\ccY56pkX.s 			page 10


 259:../../Middlewares/Third_Party/LwIP/src/core/ipv4/etharp.c ****   s16_t empty = ARP_TABLE_SIZE;
 226              		.loc 1 259 3 view .LVU40
 260:../../Middlewares/Third_Party/LwIP/src/core/ipv4/etharp.c ****   s16_t i = 0;
 227              		.loc 1 260 3 view .LVU41
 261:../../Middlewares/Third_Party/LwIP/src/core/ipv4/etharp.c ****   /* oldest entry with packets on queue */
 262:../../Middlewares/Third_Party/LwIP/src/core/ipv4/etharp.c ****   s16_t old_queue = ARP_TABLE_SIZE;
 228              		.loc 1 262 3 view .LVU42
 263:../../Middlewares/Third_Party/LwIP/src/core/ipv4/etharp.c ****   /* its age */
 264:../../Middlewares/Third_Party/LwIP/src/core/ipv4/etharp.c ****   u16_t age_queue = 0, age_pending = 0, age_stable = 0;
 229              		.loc 1 264 3 view .LVU43
 265:../../Middlewares/Third_Party/LwIP/src/core/ipv4/etharp.c **** 
 266:../../Middlewares/Third_Party/LwIP/src/core/ipv4/etharp.c ****   LWIP_UNUSED_ARG(netif);
 230              		.loc 1 266 3 view .LVU44
 267:../../Middlewares/Third_Party/LwIP/src/core/ipv4/etharp.c **** 
 268:../../Middlewares/Third_Party/LwIP/src/core/ipv4/etharp.c ****   /**
 269:../../Middlewares/Third_Party/LwIP/src/core/ipv4/etharp.c ****    * a) do a search through the cache, remember candidates
 270:../../Middlewares/Third_Party/LwIP/src/core/ipv4/etharp.c ****    * b) select candidate entry
 271:../../Middlewares/Third_Party/LwIP/src/core/ipv4/etharp.c ****    * c) create new entry
 272:../../Middlewares/Third_Party/LwIP/src/core/ipv4/etharp.c ****    */
 273:../../Middlewares/Third_Party/LwIP/src/core/ipv4/etharp.c **** 
 274:../../Middlewares/Third_Party/LwIP/src/core/ipv4/etharp.c ****   /* a) in a single search sweep, do all of this
 275:../../Middlewares/Third_Party/LwIP/src/core/ipv4/etharp.c ****    * 1) remember the first empty entry (if any)
 276:../../Middlewares/Third_Party/LwIP/src/core/ipv4/etharp.c ****    * 2) remember the oldest stable entry (if any)
 277:../../Middlewares/Third_Party/LwIP/src/core/ipv4/etharp.c ****    * 3) remember the oldest pending entry without queued packets (if any)
 278:../../Middlewares/Third_Party/LwIP/src/core/ipv4/etharp.c ****    * 4) remember the oldest pending entry with queued packets (if any)
 279:../../Middlewares/Third_Party/LwIP/src/core/ipv4/etharp.c ****    * 5) search for a matching IP entry, either pending or stable
 280:../../Middlewares/Third_Party/LwIP/src/core/ipv4/etharp.c ****    *    until 5 matches, or all entries are searched for.
 281:../../Middlewares/Third_Party/LwIP/src/core/ipv4/etharp.c ****    */
 282:../../Middlewares/Third_Party/LwIP/src/core/ipv4/etharp.c **** 
 283:../../Middlewares/Third_Party/LwIP/src/core/ipv4/etharp.c ****   for (i = 0; i < ARP_TABLE_SIZE; ++i) {
 231              		.loc 1 283 3 view .LVU45
 264:../../Middlewares/Third_Party/LwIP/src/core/ipv4/etharp.c **** 
 232              		.loc 1 264 41 is_stmt 0 view .LVU46
 233 000a 4FF00009 		mov	r9, #0
 264:../../Middlewares/Third_Party/LwIP/src/core/ipv4/etharp.c **** 
 234              		.loc 1 264 24 view .LVU47
 235 000e CDF80C90 		str	r9, [sp, #12]
 264:../../Middlewares/Third_Party/LwIP/src/core/ipv4/etharp.c **** 
 236              		.loc 1 264 9 view .LVU48
 237 0012 CB46     		mov	fp, r9
 262:../../Middlewares/Third_Party/LwIP/src/core/ipv4/etharp.c ****   /* its age */
 238              		.loc 1 262 9 view .LVU49
 239 0014 4FF00A0A 		mov	r10, #10
 240              		.loc 1 283 10 view .LVU50
 241 0018 4B46     		mov	r3, r9
 259:../../Middlewares/Third_Party/LwIP/src/core/ipv4/etharp.c ****   s16_t i = 0;
 242              		.loc 1 259 9 view .LVU51
 243 001a 5546     		mov	r5, r10
 258:../../Middlewares/Third_Party/LwIP/src/core/ipv4/etharp.c ****   s16_t empty = ARP_TABLE_SIZE;
 244              		.loc 1 258 39 view .LVU52
 245 001c D046     		mov	r8, r10
 258:../../Middlewares/Third_Party/LwIP/src/core/ipv4/etharp.c ****   s16_t empty = ARP_TABLE_SIZE;
 246              		.loc 1 258 9 view .LVU53
 247 001e CDF808A0 		str	r10, [sp, #8]
 248 0022 0191     		str	r1, [sp, #4]
 249              		.loc 1 283 3 view .LVU54
 250 0024 29E0     		b	.L16
ARM GAS  C:\Users\minis\AppData\Local\Temp\ccY56pkX.s 			page 11


 251              	.LVL18:
 252              	.L42:
 253              	.LBB2:
 284:../../Middlewares/Third_Party/LwIP/src/core/ipv4/etharp.c ****     u8_t state = arp_table[i].state;
 285:../../Middlewares/Third_Party/LwIP/src/core/ipv4/etharp.c ****     /* no empty entry found yet and now we do find one? */
 286:../../Middlewares/Third_Party/LwIP/src/core/ipv4/etharp.c ****     if ((empty == ARP_TABLE_SIZE) && (state == ETHARP_STATE_EMPTY)) {
 287:../../Middlewares/Third_Party/LwIP/src/core/ipv4/etharp.c ****       LWIP_DEBUGF(ETHARP_DEBUG, ("etharp_find_entry: found empty entry %d\n", (int)i));
 288:../../Middlewares/Third_Party/LwIP/src/core/ipv4/etharp.c ****       /* remember first empty entry */
 289:../../Middlewares/Third_Party/LwIP/src/core/ipv4/etharp.c ****       empty = i;
 290:../../Middlewares/Third_Party/LwIP/src/core/ipv4/etharp.c ****     } else if (state != ETHARP_STATE_EMPTY) {
 291:../../Middlewares/Third_Party/LwIP/src/core/ipv4/etharp.c ****       LWIP_ASSERT("state == ETHARP_STATE_PENDING || state >= ETHARP_STATE_STABLE",
 292:../../Middlewares/Third_Party/LwIP/src/core/ipv4/etharp.c ****                   state == ETHARP_STATE_PENDING || state >= ETHARP_STATE_STABLE);
 293:../../Middlewares/Third_Party/LwIP/src/core/ipv4/etharp.c ****       /* if given, does IP address match IP address in ARP entry? */
 294:../../Middlewares/Third_Party/LwIP/src/core/ipv4/etharp.c ****       if (ipaddr && ip4_addr_cmp(ipaddr, &arp_table[i].ipaddr)
 295:../../Middlewares/Third_Party/LwIP/src/core/ipv4/etharp.c **** #if ETHARP_TABLE_MATCH_NETIF
 296:../../Middlewares/Third_Party/LwIP/src/core/ipv4/etharp.c ****           && ((netif == NULL) || (netif == arp_table[i].netif))
 254              		.loc 1 296 11 view .LVU55
 255 0026 002F     		cmp	r7, #0
 256 0028 00F0AD80 		beq	.L30
 257              		.loc 1 296 56 discriminator 1 view .LVU56
 258 002c 5A4A     		ldr	r2, .L47
 259 002e 02EBCE02 		add	r2, r2, lr, lsl #3
 260 0032 9268     		ldr	r2, [r2, #8]
 261              		.loc 1 296 31 discriminator 1 view .LVU57
 262 0034 BA42     		cmp	r2, r7
 263 0036 3AD1     		bne	.L18
 297:../../Middlewares/Third_Party/LwIP/src/core/ipv4/etharp.c **** #endif /* ETHARP_TABLE_MATCH_NETIF */
 298:../../Middlewares/Third_Party/LwIP/src/core/ipv4/etharp.c ****          ) {
 299:../../Middlewares/Third_Party/LwIP/src/core/ipv4/etharp.c ****         LWIP_DEBUGF(ETHARP_DEBUG | LWIP_DBG_TRACE, ("etharp_find_entry: found matching entry %d\n",
 300:../../Middlewares/Third_Party/LwIP/src/core/ipv4/etharp.c ****         /* found exact IP address match, simply bail out */
 301:../../Middlewares/Third_Party/LwIP/src/core/ipv4/etharp.c ****         return i;
 264              		.loc 1 301 16 view .LVU58
 265 0038 1D46     		mov	r5, r3
 266              	.LVL19:
 267              		.loc 1 301 16 view .LVU59
 268 003a 7EE0     		b	.L19
 269              	.LVL20:
 270              	.L43:
 302:../../Middlewares/Third_Party/LwIP/src/core/ipv4/etharp.c ****       }
 303:../../Middlewares/Third_Party/LwIP/src/core/ipv4/etharp.c ****       /* pending entry? */
 304:../../Middlewares/Third_Party/LwIP/src/core/ipv4/etharp.c ****       if (state == ETHARP_STATE_PENDING) {
 305:../../Middlewares/Third_Party/LwIP/src/core/ipv4/etharp.c ****         /* pending with queued packets? */
 306:../../Middlewares/Third_Party/LwIP/src/core/ipv4/etharp.c ****         if (arp_table[i].q != NULL) {
 271              		.loc 1 306 9 is_stmt 1 view .LVU60
 272              		.loc 1 306 25 is_stmt 0 view .LVU61
 273 003c 04EB4402 		add	r2, r4, r4, lsl #1
 274 0040 5548     		ldr	r0, .L47
 275              	.LVL21:
 276              		.loc 1 306 25 view .LVU62
 277 0042 50F83220 		ldr	r2, [r0, r2, lsl #3]
 278              		.loc 1 306 12 view .LVU63
 279 0046 4AB1     		cbz	r2, .L21
 307:../../Middlewares/Third_Party/LwIP/src/core/ipv4/etharp.c ****           if (arp_table[i].ctime >= age_queue) {
 280              		.loc 1 307 11 is_stmt 1 view .LVU64
 281              		.loc 1 307 27 is_stmt 0 view .LVU65
 282 0048 04EB4404 		add	r4, r4, r4, lsl #1
 283 004c 00EBC402 		add	r2, r0, r4, lsl #3
ARM GAS  C:\Users\minis\AppData\Local\Temp\ccY56pkX.s 			page 12


 284 0050 528A     		ldrh	r2, [r2, #18]
 285              		.loc 1 307 14 view .LVU66
 286 0052 5A45     		cmp	r2, fp
 287 0054 0FD3     		bcc	.L17
 308:../../Middlewares/Third_Party/LwIP/src/core/ipv4/etharp.c ****             old_queue = i;
 309:../../Middlewares/Third_Party/LwIP/src/core/ipv4/etharp.c ****             age_queue = arp_table[i].ctime;
 288              		.loc 1 309 23 view .LVU67
 289 0056 9346     		mov	fp, r2
 290              	.LVL22:
 308:../../Middlewares/Third_Party/LwIP/src/core/ipv4/etharp.c ****             old_queue = i;
 291              		.loc 1 308 23 view .LVU68
 292 0058 9A46     		mov	r10, r3
 293              	.LVL23:
 308:../../Middlewares/Third_Party/LwIP/src/core/ipv4/etharp.c ****             old_queue = i;
 294              		.loc 1 308 23 view .LVU69
 295 005a 0CE0     		b	.L17
 296              	.LVL24:
 297              	.L21:
 310:../../Middlewares/Third_Party/LwIP/src/core/ipv4/etharp.c ****           }
 311:../../Middlewares/Third_Party/LwIP/src/core/ipv4/etharp.c ****         } else
 312:../../Middlewares/Third_Party/LwIP/src/core/ipv4/etharp.c ****           /* pending without queued packets? */
 313:../../Middlewares/Third_Party/LwIP/src/core/ipv4/etharp.c ****         {
 314:../../Middlewares/Third_Party/LwIP/src/core/ipv4/etharp.c ****           if (arp_table[i].ctime >= age_pending) {
 298              		.loc 1 314 11 is_stmt 1 view .LVU70
 299              		.loc 1 314 27 is_stmt 0 view .LVU71
 300 005c 04EB4404 		add	r4, r4, r4, lsl #1
 301 0060 4D4A     		ldr	r2, .L47
 302 0062 02EBC402 		add	r2, r2, r4, lsl #3
 303 0066 528A     		ldrh	r2, [r2, #18]
 304              		.loc 1 314 14 view .LVU72
 305 0068 0399     		ldr	r1, [sp, #12]
 306 006a 8A42     		cmp	r2, r1
 307 006c 03D3     		bcc	.L17
 315:../../Middlewares/Third_Party/LwIP/src/core/ipv4/etharp.c ****             old_pending = i;
 316:../../Middlewares/Third_Party/LwIP/src/core/ipv4/etharp.c ****             age_pending = arp_table[i].ctime;
 308              		.loc 1 316 25 view .LVU73
 309 006e 0392     		str	r2, [sp, #12]
 310              	.LVL25:
 315:../../Middlewares/Third_Party/LwIP/src/core/ipv4/etharp.c ****             old_pending = i;
 311              		.loc 1 315 25 view .LVU74
 312 0070 0293     		str	r3, [sp, #8]
 313              	.LVL26:
 315:../../Middlewares/Third_Party/LwIP/src/core/ipv4/etharp.c ****             old_pending = i;
 314              		.loc 1 315 25 view .LVU75
 315 0072 00E0     		b	.L17
 316              	.LVL27:
 317              	.L29:
 289:../../Middlewares/Third_Party/LwIP/src/core/ipv4/etharp.c ****     } else if (state != ETHARP_STATE_EMPTY) {
 318              		.loc 1 289 13 view .LVU76
 319 0074 1D46     		mov	r5, r3
 320              	.LVL28:
 321              	.L17:
 289:../../Middlewares/Third_Party/LwIP/src/core/ipv4/etharp.c ****     } else if (state != ETHARP_STATE_EMPTY) {
 322              		.loc 1 289 13 view .LVU77
 323              	.LBE2:
 283:../../Middlewares/Third_Party/LwIP/src/core/ipv4/etharp.c ****     u8_t state = arp_table[i].state;
 324              		.loc 1 283 35 is_stmt 1 discriminator 2 view .LVU78
ARM GAS  C:\Users\minis\AppData\Local\Temp\ccY56pkX.s 			page 13


 325 0076 0133     		adds	r3, r3, #1
 326              	.LVL29:
 283:../../Middlewares/Third_Party/LwIP/src/core/ipv4/etharp.c ****     u8_t state = arp_table[i].state;
 327              		.loc 1 283 35 is_stmt 0 discriminator 2 view .LVU79
 328 0078 1BB2     		sxth	r3, r3
 329              	.LVL30:
 330              	.L16:
 283:../../Middlewares/Third_Party/LwIP/src/core/ipv4/etharp.c ****     u8_t state = arp_table[i].state;
 331              		.loc 1 283 17 is_stmt 1 discriminator 1 view .LVU80
 332 007a 092B     		cmp	r3, #9
 333 007c 26DC     		bgt	.L41
 334              	.LBB3:
 284:../../Middlewares/Third_Party/LwIP/src/core/ipv4/etharp.c ****     /* no empty entry found yet and now we do find one? */
 335              		.loc 1 284 5 view .LVU81
 284:../../Middlewares/Third_Party/LwIP/src/core/ipv4/etharp.c ****     /* no empty entry found yet and now we do find one? */
 336              		.loc 1 284 30 is_stmt 0 view .LVU82
 337 007e 1C46     		mov	r4, r3
 284:../../Middlewares/Third_Party/LwIP/src/core/ipv4/etharp.c ****     /* no empty entry found yet and now we do find one? */
 338              		.loc 1 284 10 view .LVU83
 339 0080 03EB4300 		add	r0, r3, r3, lsl #1
 340 0084 444A     		ldr	r2, .L47
 341 0086 02EBC002 		add	r2, r2, r0, lsl #3
 342 008a 107D     		ldrb	r0, [r2, #20]	@ zero_extendqisi2
 343              	.LVL31:
 286:../../Middlewares/Third_Party/LwIP/src/core/ipv4/etharp.c ****       LWIP_DEBUGF(ETHARP_DEBUG, ("etharp_find_entry: found empty entry %d\n", (int)i));
 344              		.loc 1 286 5 is_stmt 1 view .LVU84
 286:../../Middlewares/Third_Party/LwIP/src/core/ipv4/etharp.c ****       LWIP_DEBUGF(ETHARP_DEBUG, ("etharp_find_entry: found empty entry %d\n", (int)i));
 345              		.loc 1 286 8 is_stmt 0 view .LVU85
 346 008c 0A2D     		cmp	r5, #10
 347 008e 08BF     		it	eq
 348 0090 0028     		cmpeq	r0, #0
 349 0092 EFD0     		beq	.L29
 290:../../Middlewares/Third_Party/LwIP/src/core/ipv4/etharp.c ****       LWIP_ASSERT("state == ETHARP_STATE_PENDING || state >= ETHARP_STATE_STABLE",
 350              		.loc 1 290 12 is_stmt 1 view .LVU86
 290:../../Middlewares/Third_Party/LwIP/src/core/ipv4/etharp.c ****       LWIP_ASSERT("state == ETHARP_STATE_PENDING || state >= ETHARP_STATE_STABLE",
 351              		.loc 1 290 15 is_stmt 0 view .LVU87
 352 0094 0028     		cmp	r0, #0
 353 0096 EED0     		beq	.L17
 291:../../Middlewares/Third_Party/LwIP/src/core/ipv4/etharp.c ****                   state == ETHARP_STATE_PENDING || state >= ETHARP_STATE_STABLE);
 354              		.loc 1 291 7 is_stmt 1 view .LVU88
 291:../../Middlewares/Third_Party/LwIP/src/core/ipv4/etharp.c ****                   state == ETHARP_STATE_PENDING || state >= ETHARP_STATE_STABLE);
 355              		.loc 1 291 7 view .LVU89
 291:../../Middlewares/Third_Party/LwIP/src/core/ipv4/etharp.c ****                   state == ETHARP_STATE_PENDING || state >= ETHARP_STATE_STABLE);
 356              		.loc 1 291 7 view .LVU90
 291:../../Middlewares/Third_Party/LwIP/src/core/ipv4/etharp.c ****                   state == ETHARP_STATE_PENDING || state >= ETHARP_STATE_STABLE);
 357              		.loc 1 291 7 view .LVU91
 294:../../Middlewares/Third_Party/LwIP/src/core/ipv4/etharp.c **** #if ETHARP_TABLE_MATCH_NETIF
 358              		.loc 1 294 7 view .LVU92
 294:../../Middlewares/Third_Party/LwIP/src/core/ipv4/etharp.c **** #if ETHARP_TABLE_MATCH_NETIF
 359              		.loc 1 294 10 is_stmt 0 view .LVU93
 360 0098 4EB1     		cbz	r6, .L18
 294:../../Middlewares/Third_Party/LwIP/src/core/ipv4/etharp.c **** #if ETHARP_TABLE_MATCH_NETIF
 361              		.loc 1 294 21 discriminator 1 view .LVU94
 362 009a 03EB430E 		add	lr, r3, r3, lsl #1
 363 009e 3E4A     		ldr	r2, .L47
 364 00a0 02EBCE0C 		add	ip, r2, lr, lsl #3
 365 00a4 DCF80420 		ldr	r2, [ip, #4]
ARM GAS  C:\Users\minis\AppData\Local\Temp\ccY56pkX.s 			page 14


 294:../../Middlewares/Third_Party/LwIP/src/core/ipv4/etharp.c **** #if ETHARP_TABLE_MATCH_NETIF
 366              		.loc 1 294 18 discriminator 1 view .LVU95
 367 00a8 3168     		ldr	r1, [r6]
 368 00aa 9142     		cmp	r1, r2
 369 00ac BBD0     		beq	.L42
 370              	.L18:
 304:../../Middlewares/Third_Party/LwIP/src/core/ipv4/etharp.c ****         /* pending with queued packets? */
 371              		.loc 1 304 7 is_stmt 1 view .LVU96
 304:../../Middlewares/Third_Party/LwIP/src/core/ipv4/etharp.c ****         /* pending with queued packets? */
 372              		.loc 1 304 10 is_stmt 0 view .LVU97
 373 00ae 0128     		cmp	r0, #1
 374 00b0 C4D0     		beq	.L43
 317:../../Middlewares/Third_Party/LwIP/src/core/ipv4/etharp.c ****           }
 318:../../Middlewares/Third_Party/LwIP/src/core/ipv4/etharp.c ****         }
 319:../../Middlewares/Third_Party/LwIP/src/core/ipv4/etharp.c ****         /* stable entry? */
 320:../../Middlewares/Third_Party/LwIP/src/core/ipv4/etharp.c ****       } else if (state >= ETHARP_STATE_STABLE) {
 375              		.loc 1 320 14 is_stmt 1 view .LVU98
 376              		.loc 1 320 17 is_stmt 0 view .LVU99
 377 00b2 0128     		cmp	r0, #1
 378 00b4 DFD9     		bls	.L17
 321:../../Middlewares/Third_Party/LwIP/src/core/ipv4/etharp.c **** #if ETHARP_SUPPORT_STATIC_ENTRIES
 322:../../Middlewares/Third_Party/LwIP/src/core/ipv4/etharp.c ****         /* don't record old_stable for static entries since they never expire */
 323:../../Middlewares/Third_Party/LwIP/src/core/ipv4/etharp.c ****         if (state < ETHARP_STATE_STATIC)
 324:../../Middlewares/Third_Party/LwIP/src/core/ipv4/etharp.c **** #endif /* ETHARP_SUPPORT_STATIC_ENTRIES */
 325:../../Middlewares/Third_Party/LwIP/src/core/ipv4/etharp.c ****         {
 326:../../Middlewares/Third_Party/LwIP/src/core/ipv4/etharp.c ****           /* remember entry with oldest stable entry in oldest, its age in maxtime */
 327:../../Middlewares/Third_Party/LwIP/src/core/ipv4/etharp.c ****           if (arp_table[i].ctime >= age_stable) {
 379              		.loc 1 327 11 is_stmt 1 view .LVU100
 380              		.loc 1 327 27 is_stmt 0 view .LVU101
 381 00b6 04EB4404 		add	r4, r4, r4, lsl #1
 382 00ba 374A     		ldr	r2, .L47
 383 00bc 02EBC402 		add	r2, r2, r4, lsl #3
 384 00c0 528A     		ldrh	r2, [r2, #18]
 385              		.loc 1 327 14 view .LVU102
 386 00c2 4A45     		cmp	r2, r9
 387 00c4 D7D3     		bcc	.L17
 328:../../Middlewares/Third_Party/LwIP/src/core/ipv4/etharp.c ****             old_stable = i;
 329:../../Middlewares/Third_Party/LwIP/src/core/ipv4/etharp.c ****             age_stable = arp_table[i].ctime;
 388              		.loc 1 329 24 view .LVU103
 389 00c6 9146     		mov	r9, r2
 390              	.LVL32:
 328:../../Middlewares/Third_Party/LwIP/src/core/ipv4/etharp.c ****             old_stable = i;
 391              		.loc 1 328 24 view .LVU104
 392 00c8 9846     		mov	r8, r3
 393              	.LVL33:
 328:../../Middlewares/Third_Party/LwIP/src/core/ipv4/etharp.c ****             old_stable = i;
 394              		.loc 1 328 24 view .LVU105
 395 00ca D4E7     		b	.L17
 396              	.LVL34:
 397              	.L41:
 328:../../Middlewares/Third_Party/LwIP/src/core/ipv4/etharp.c ****             old_stable = i;
 398              		.loc 1 328 24 view .LVU106
 399              	.LBE3:
 330:../../Middlewares/Third_Party/LwIP/src/core/ipv4/etharp.c ****           }
 331:../../Middlewares/Third_Party/LwIP/src/core/ipv4/etharp.c ****         }
 332:../../Middlewares/Third_Party/LwIP/src/core/ipv4/etharp.c ****       }
 333:../../Middlewares/Third_Party/LwIP/src/core/ipv4/etharp.c ****     }
ARM GAS  C:\Users\minis\AppData\Local\Temp\ccY56pkX.s 			page 15


 334:../../Middlewares/Third_Party/LwIP/src/core/ipv4/etharp.c ****   }
 335:../../Middlewares/Third_Party/LwIP/src/core/ipv4/etharp.c ****   /* { we have no match } => try to create a new entry */
 336:../../Middlewares/Third_Party/LwIP/src/core/ipv4/etharp.c **** 
 337:../../Middlewares/Third_Party/LwIP/src/core/ipv4/etharp.c ****   /* don't create new entry, only search? */
 338:../../Middlewares/Third_Party/LwIP/src/core/ipv4/etharp.c ****   if (((flags & ETHARP_FLAG_FIND_ONLY) != 0) ||
 400              		.loc 1 338 6 view .LVU107
 401 00cc 0199     		ldr	r1, [sp, #4]
 402              		.loc 1 338 3 is_stmt 1 view .LVU108
 403              		.loc 1 338 6 is_stmt 0 view .LVU109
 404 00ce 11F0020F 		tst	r1, #2
 405 00d2 5AD1     		bne	.L35
 406              		.loc 1 338 46 discriminator 1 view .LVU110
 407 00d4 0A2D     		cmp	r5, #10
 408 00d6 34D0     		beq	.L44
 409              	.L23:
 339:../../Middlewares/Third_Party/LwIP/src/core/ipv4/etharp.c ****       /* or no empty entry found and not allowed to recycle? */
 340:../../Middlewares/Third_Party/LwIP/src/core/ipv4/etharp.c ****       ((empty == ARP_TABLE_SIZE) && ((flags & ETHARP_FLAG_TRY_HARD) == 0))) {
 341:../../Middlewares/Third_Party/LwIP/src/core/ipv4/etharp.c ****     LWIP_DEBUGF(ETHARP_DEBUG | LWIP_DBG_TRACE, ("etharp_find_entry: no empty entry found and not al
 342:../../Middlewares/Third_Party/LwIP/src/core/ipv4/etharp.c ****     return (s16_t)ERR_MEM;
 343:../../Middlewares/Third_Party/LwIP/src/core/ipv4/etharp.c ****   }
 344:../../Middlewares/Third_Party/LwIP/src/core/ipv4/etharp.c **** 
 345:../../Middlewares/Third_Party/LwIP/src/core/ipv4/etharp.c ****   /* b) choose the least destructive entry to recycle:
 346:../../Middlewares/Third_Party/LwIP/src/core/ipv4/etharp.c ****    * 1) empty entry
 347:../../Middlewares/Third_Party/LwIP/src/core/ipv4/etharp.c ****    * 2) oldest stable entry
 348:../../Middlewares/Third_Party/LwIP/src/core/ipv4/etharp.c ****    * 3) oldest pending entry without queued packets
 349:../../Middlewares/Third_Party/LwIP/src/core/ipv4/etharp.c ****    * 4) oldest pending entry with queued packets
 350:../../Middlewares/Third_Party/LwIP/src/core/ipv4/etharp.c ****    *
 351:../../Middlewares/Third_Party/LwIP/src/core/ipv4/etharp.c ****    * { ETHARP_FLAG_TRY_HARD is set at this point }
 352:../../Middlewares/Third_Party/LwIP/src/core/ipv4/etharp.c ****    */
 353:../../Middlewares/Third_Party/LwIP/src/core/ipv4/etharp.c **** 
 354:../../Middlewares/Third_Party/LwIP/src/core/ipv4/etharp.c ****   /* 1) empty entry available? */
 355:../../Middlewares/Third_Party/LwIP/src/core/ipv4/etharp.c ****   if (empty < ARP_TABLE_SIZE) {
 410              		.loc 1 355 3 is_stmt 1 view .LVU111
 411              		.loc 1 355 6 is_stmt 0 view .LVU112
 412 00d8 092D     		cmp	r5, #9
 413 00da 16DD     		ble	.L24
 356:../../Middlewares/Third_Party/LwIP/src/core/ipv4/etharp.c ****     i = empty;
 357:../../Middlewares/Third_Party/LwIP/src/core/ipv4/etharp.c ****     LWIP_DEBUGF(ETHARP_DEBUG | LWIP_DBG_TRACE, ("etharp_find_entry: selecting empty entry %d\n", (i
 358:../../Middlewares/Third_Party/LwIP/src/core/ipv4/etharp.c ****   } else {
 359:../../Middlewares/Third_Party/LwIP/src/core/ipv4/etharp.c ****     /* 2) found recyclable stable entry? */
 360:../../Middlewares/Third_Party/LwIP/src/core/ipv4/etharp.c ****     if (old_stable < ARP_TABLE_SIZE) {
 414              		.loc 1 360 5 is_stmt 1 view .LVU113
 415              		.loc 1 360 8 is_stmt 0 view .LVU114
 416 00dc B8F1090F 		cmp	r8, #9
 417 00e0 35DC     		bgt	.L25
 361:../../Middlewares/Third_Party/LwIP/src/core/ipv4/etharp.c ****       /* recycle oldest stable*/
 362:../../Middlewares/Third_Party/LwIP/src/core/ipv4/etharp.c ****       i = old_stable;
 418              		.loc 1 362 7 is_stmt 1 view .LVU115
 419              	.LVL35:
 363:../../Middlewares/Third_Party/LwIP/src/core/ipv4/etharp.c ****       LWIP_DEBUGF(ETHARP_DEBUG | LWIP_DBG_TRACE, ("etharp_find_entry: selecting oldest stable entry
 420              		.loc 1 363 116 view .LVU116
 364:../../Middlewares/Third_Party/LwIP/src/core/ipv4/etharp.c ****       /* no queued packets should exist on stable entries */
 365:../../Middlewares/Third_Party/LwIP/src/core/ipv4/etharp.c ****       LWIP_ASSERT("arp_table[i].q == NULL", arp_table[i].q == NULL);
 421              		.loc 1 365 7 view .LVU117
 422              		.loc 1 365 7 view .LVU118
 423 00e2 08EB4803 		add	r3, r8, r8, lsl #1
 424 00e6 2C4A     		ldr	r2, .L47
ARM GAS  C:\Users\minis\AppData\Local\Temp\ccY56pkX.s 			page 16


 425 00e8 52F83330 		ldr	r3, [r2, r3, lsl #3]
 426 00ec 002B     		cmp	r3, #0
 427 00ee 36D0     		beq	.L37
 428              		.loc 1 365 7 discriminator 1 view .LVU119
 429              		.loc 1 365 7 discriminator 1 view .LVU120
 430 00f0 2A4B     		ldr	r3, .L47+4
 431 00f2 40F26D12 		movw	r2, #365
 432 00f6 2A49     		ldr	r1, .L47+8
 433 00f8 2A48     		ldr	r0, .L47+12
 434 00fa FFF7FEFF 		bl	printf
 435              	.LVL36:
 436 00fe 4546     		mov	r5, r8
 437              	.LVL37:
 438              	.L26:
 366:../../Middlewares/Third_Party/LwIP/src/core/ipv4/etharp.c ****       /* 3) found recyclable pending entry without queued packets? */
 367:../../Middlewares/Third_Party/LwIP/src/core/ipv4/etharp.c ****     } else if (old_pending < ARP_TABLE_SIZE) {
 368:../../Middlewares/Third_Party/LwIP/src/core/ipv4/etharp.c ****       /* recycle oldest pending */
 369:../../Middlewares/Third_Party/LwIP/src/core/ipv4/etharp.c ****       i = old_pending;
 370:../../Middlewares/Third_Party/LwIP/src/core/ipv4/etharp.c ****       LWIP_DEBUGF(ETHARP_DEBUG | LWIP_DBG_TRACE, ("etharp_find_entry: selecting oldest pending entr
 371:../../Middlewares/Third_Party/LwIP/src/core/ipv4/etharp.c ****       /* 4) found recyclable pending entry with queued packets? */
 372:../../Middlewares/Third_Party/LwIP/src/core/ipv4/etharp.c ****     } else if (old_queue < ARP_TABLE_SIZE) {
 373:../../Middlewares/Third_Party/LwIP/src/core/ipv4/etharp.c ****       /* recycle oldest pending (queued packets are free in etharp_free_entry) */
 374:../../Middlewares/Third_Party/LwIP/src/core/ipv4/etharp.c ****       i = old_queue;
 375:../../Middlewares/Third_Party/LwIP/src/core/ipv4/etharp.c ****       LWIP_DEBUGF(ETHARP_DEBUG | LWIP_DBG_TRACE, ("etharp_find_entry: selecting oldest pending entr
 376:../../Middlewares/Third_Party/LwIP/src/core/ipv4/etharp.c ****       /* no empty or recyclable entries found */
 377:../../Middlewares/Third_Party/LwIP/src/core/ipv4/etharp.c ****     } else {
 378:../../Middlewares/Third_Party/LwIP/src/core/ipv4/etharp.c ****       LWIP_DEBUGF(ETHARP_DEBUG | LWIP_DBG_TRACE, ("etharp_find_entry: no empty or recyclable entrie
 379:../../Middlewares/Third_Party/LwIP/src/core/ipv4/etharp.c ****       return (s16_t)ERR_MEM;
 380:../../Middlewares/Third_Party/LwIP/src/core/ipv4/etharp.c ****     }
 381:../../Middlewares/Third_Party/LwIP/src/core/ipv4/etharp.c **** 
 382:../../Middlewares/Third_Party/LwIP/src/core/ipv4/etharp.c ****     /* { empty or recyclable entry found } */
 383:../../Middlewares/Third_Party/LwIP/src/core/ipv4/etharp.c ****     LWIP_ASSERT("i < ARP_TABLE_SIZE", i < ARP_TABLE_SIZE);
 439              		.loc 1 383 5 view .LVU121
 440              		.loc 1 383 5 view .LVU122
 384:../../Middlewares/Third_Party/LwIP/src/core/ipv4/etharp.c ****     etharp_free_entry(i);
 441              		.loc 1 384 5 view .LVU123
 442 0100 2846     		mov	r0, r5
 443 0102 FFF7FEFF 		bl	etharp_free_entry
 444              	.LVL38:
 385:../../Middlewares/Third_Party/LwIP/src/core/ipv4/etharp.c ****   }
 386:../../Middlewares/Third_Party/LwIP/src/core/ipv4/etharp.c **** 
 387:../../Middlewares/Third_Party/LwIP/src/core/ipv4/etharp.c ****   LWIP_ASSERT("i < ARP_TABLE_SIZE", i < ARP_TABLE_SIZE);
 445              		.loc 1 387 3 view .LVU124
 446              		.loc 1 387 3 view .LVU125
 447 0106 092D     		cmp	r5, #9
 448 0108 2DDC     		bgt	.L45
 449              	.LVL39:
 450              	.L24:
 451              		.loc 1 387 3 view .LVU126
 452              		.loc 1 387 3 view .LVU127
 388:../../Middlewares/Third_Party/LwIP/src/core/ipv4/etharp.c ****   LWIP_ASSERT("arp_table[i].state == ETHARP_STATE_EMPTY",
 453              		.loc 1 388 3 view .LVU128
 454              		.loc 1 388 3 view .LVU129
 455 010a 2C46     		mov	r4, r5
 456 010c 05EB4502 		add	r2, r5, r5, lsl #1
 457 0110 214B     		ldr	r3, .L47
 458 0112 03EBC203 		add	r3, r3, r2, lsl #3
ARM GAS  C:\Users\minis\AppData\Local\Temp\ccY56pkX.s 			page 17


 459 0116 1B7D     		ldrb	r3, [r3, #20]	@ zero_extendqisi2
 460 0118 6BBB     		cbnz	r3, .L46
 461              	.L27:
 462              		.loc 1 388 3 view .LVU130
 463              		.loc 1 388 3 view .LVU131
 389:../../Middlewares/Third_Party/LwIP/src/core/ipv4/etharp.c ****               arp_table[i].state == ETHARP_STATE_EMPTY);
 390:../../Middlewares/Third_Party/LwIP/src/core/ipv4/etharp.c **** 
 391:../../Middlewares/Third_Party/LwIP/src/core/ipv4/etharp.c ****   /* IP address given? */
 392:../../Middlewares/Third_Party/LwIP/src/core/ipv4/etharp.c ****   if (ipaddr != NULL) {
 464              		.loc 1 392 3 view .LVU132
 465              		.loc 1 392 6 is_stmt 0 view .LVU133
 466 011a 36B1     		cbz	r6, .L28
 393:../../Middlewares/Third_Party/LwIP/src/core/ipv4/etharp.c ****     /* set IP address */
 394:../../Middlewares/Third_Party/LwIP/src/core/ipv4/etharp.c ****     ip4_addr_copy(arp_table[i].ipaddr, *ipaddr);
 467              		.loc 1 394 5 is_stmt 1 view .LVU134
 468 011c 3168     		ldr	r1, [r6]
 469 011e 04EB4402 		add	r2, r4, r4, lsl #1
 470 0122 1D4B     		ldr	r3, .L47
 471 0124 03EBC203 		add	r3, r3, r2, lsl #3
 472 0128 5960     		str	r1, [r3, #4]
 473              	.L28:
 395:../../Middlewares/Third_Party/LwIP/src/core/ipv4/etharp.c ****   }
 396:../../Middlewares/Third_Party/LwIP/src/core/ipv4/etharp.c ****   arp_table[i].ctime = 0;
 474              		.loc 1 396 3 view .LVU135
 475              		.loc 1 396 22 is_stmt 0 view .LVU136
 476 012a 1B4B     		ldr	r3, .L47
 477 012c 04EB4402 		add	r2, r4, r4, lsl #1
 478 0130 03EBC202 		add	r2, r3, r2, lsl #3
 479 0134 0021     		movs	r1, #0
 480 0136 5182     		strh	r1, [r2, #18]	@ movhi
 397:../../Middlewares/Third_Party/LwIP/src/core/ipv4/etharp.c **** #if ETHARP_TABLE_MATCH_NETIF
 398:../../Middlewares/Third_Party/LwIP/src/core/ipv4/etharp.c ****   arp_table[i].netif = netif;
 481              		.loc 1 398 3 is_stmt 1 view .LVU137
 482              		.loc 1 398 22 is_stmt 0 view .LVU138
 483 0138 9760     		str	r7, [r2, #8]
 399:../../Middlewares/Third_Party/LwIP/src/core/ipv4/etharp.c **** #endif /* ETHARP_TABLE_MATCH_NETIF */
 400:../../Middlewares/Third_Party/LwIP/src/core/ipv4/etharp.c ****   return (s16_t)i;
 484              		.loc 1 400 3 is_stmt 1 view .LVU139
 485              	.L19:
 401:../../Middlewares/Third_Party/LwIP/src/core/ipv4/etharp.c **** }
 486              		.loc 1 401 1 is_stmt 0 view .LVU140
 487 013a 2846     		mov	r0, r5
 488 013c 05B0     		add	sp, sp, #20
 489              	.LCFI4:
 490              		.cfi_remember_state
 491              		.cfi_def_cfa_offset 36
 492              		@ sp needed
 493 013e BDE8F08F 		pop	{r4, r5, r6, r7, r8, r9, r10, fp, pc}
 494              	.LVL40:
 495              	.L44:
 496              	.LCFI5:
 497              		.cfi_restore_state
 340:../../Middlewares/Third_Party/LwIP/src/core/ipv4/etharp.c ****     LWIP_DEBUGF(ETHARP_DEBUG | LWIP_DBG_TRACE, ("etharp_find_entry: no empty entry found and not al
 498              		.loc 1 340 34 view .LVU141
 499 0142 11F0010F 		tst	r1, #1
 500 0146 C7D1     		bne	.L23
 342:../../Middlewares/Third_Party/LwIP/src/core/ipv4/etharp.c ****   }
ARM GAS  C:\Users\minis\AppData\Local\Temp\ccY56pkX.s 			page 18


 501              		.loc 1 342 12 view .LVU142
 502 0148 4FF0FF35 		mov	r5, #-1
 503              	.LVL41:
 342:../../Middlewares/Third_Party/LwIP/src/core/ipv4/etharp.c ****   }
 504              		.loc 1 342 12 view .LVU143
 505 014c F5E7     		b	.L19
 506              	.LVL42:
 507              	.L25:
 367:../../Middlewares/Third_Party/LwIP/src/core/ipv4/etharp.c ****       /* recycle oldest pending */
 508              		.loc 1 367 12 is_stmt 1 view .LVU144
 367:../../Middlewares/Third_Party/LwIP/src/core/ipv4/etharp.c ****       /* recycle oldest pending */
 509              		.loc 1 367 15 is_stmt 0 view .LVU145
 510 014e 029B     		ldr	r3, [sp, #8]
 511              	.LVL43:
 367:../../Middlewares/Third_Party/LwIP/src/core/ipv4/etharp.c ****       /* recycle oldest pending */
 512              		.loc 1 367 15 view .LVU146
 513 0150 092B     		cmp	r3, #9
 514 0152 06DD     		ble	.L38
 372:../../Middlewares/Third_Party/LwIP/src/core/ipv4/etharp.c ****       /* recycle oldest pending (queued packets are free in etharp_free_entry) */
 515              		.loc 1 372 12 is_stmt 1 view .LVU147
 372:../../Middlewares/Third_Party/LwIP/src/core/ipv4/etharp.c ****       /* recycle oldest pending (queued packets are free in etharp_free_entry) */
 516              		.loc 1 372 15 is_stmt 0 view .LVU148
 517 0154 BAF1090F 		cmp	r10, #9
 518 0158 1ADC     		bgt	.L39
 374:../../Middlewares/Third_Party/LwIP/src/core/ipv4/etharp.c ****       LWIP_DEBUGF(ETHARP_DEBUG | LWIP_DBG_TRACE, ("etharp_find_entry: selecting oldest pending entr
 519              		.loc 1 374 9 view .LVU149
 520 015a 5546     		mov	r5, r10
 521              	.LVL44:
 374:../../Middlewares/Third_Party/LwIP/src/core/ipv4/etharp.c ****       LWIP_DEBUGF(ETHARP_DEBUG | LWIP_DBG_TRACE, ("etharp_find_entry: selecting oldest pending entr
 522              		.loc 1 374 9 view .LVU150
 523 015c D0E7     		b	.L26
 524              	.LVL45:
 525              	.L37:
 374:../../Middlewares/Third_Party/LwIP/src/core/ipv4/etharp.c ****       LWIP_DEBUGF(ETHARP_DEBUG | LWIP_DBG_TRACE, ("etharp_find_entry: selecting oldest pending entr
 526              		.loc 1 374 9 view .LVU151
 527 015e 4546     		mov	r5, r8
 528              	.LVL46:
 374:../../Middlewares/Third_Party/LwIP/src/core/ipv4/etharp.c ****       LWIP_DEBUGF(ETHARP_DEBUG | LWIP_DBG_TRACE, ("etharp_find_entry: selecting oldest pending entr
 529              		.loc 1 374 9 view .LVU152
 530 0160 CEE7     		b	.L26
 531              	.LVL47:
 532              	.L38:
 369:../../Middlewares/Third_Party/LwIP/src/core/ipv4/etharp.c ****       LWIP_DEBUGF(ETHARP_DEBUG | LWIP_DBG_TRACE, ("etharp_find_entry: selecting oldest pending entr
 533              		.loc 1 369 9 view .LVU153
 534 0162 029D     		ldr	r5, [sp, #8]
 535              	.LVL48:
 369:../../Middlewares/Third_Party/LwIP/src/core/ipv4/etharp.c ****       LWIP_DEBUGF(ETHARP_DEBUG | LWIP_DBG_TRACE, ("etharp_find_entry: selecting oldest pending entr
 536              		.loc 1 369 9 view .LVU154
 537 0164 CCE7     		b	.L26
 538              	.LVL49:
 539              	.L45:
 387:../../Middlewares/Third_Party/LwIP/src/core/ipv4/etharp.c ****   LWIP_ASSERT("arp_table[i].state == ETHARP_STATE_EMPTY",
 540              		.loc 1 387 3 is_stmt 1 discriminator 1 view .LVU155
 387:../../Middlewares/Third_Party/LwIP/src/core/ipv4/etharp.c ****   LWIP_ASSERT("arp_table[i].state == ETHARP_STATE_EMPTY",
 541              		.loc 1 387 3 discriminator 1 view .LVU156
 542 0166 0D4B     		ldr	r3, .L47+4
 543 0168 40F28312 		movw	r2, #387
ARM GAS  C:\Users\minis\AppData\Local\Temp\ccY56pkX.s 			page 19


 544 016c 0E49     		ldr	r1, .L47+16
 545 016e 0D48     		ldr	r0, .L47+12
 546 0170 FFF7FEFF 		bl	printf
 547              	.LVL50:
 548 0174 C9E7     		b	.L24
 549              	.LVL51:
 550              	.L46:
 388:../../Middlewares/Third_Party/LwIP/src/core/ipv4/etharp.c ****               arp_table[i].state == ETHARP_STATE_EMPTY);
 551              		.loc 1 388 3 discriminator 1 view .LVU157
 388:../../Middlewares/Third_Party/LwIP/src/core/ipv4/etharp.c ****               arp_table[i].state == ETHARP_STATE_EMPTY);
 552              		.loc 1 388 3 discriminator 1 view .LVU158
 553 0176 094B     		ldr	r3, .L47+4
 554 0178 4FF4C272 		mov	r2, #388
 555 017c 0B49     		ldr	r1, .L47+20
 556 017e 0948     		ldr	r0, .L47+12
 557 0180 FFF7FEFF 		bl	printf
 558              	.LVL52:
 559 0184 C9E7     		b	.L27
 560              	.LVL53:
 561              	.L30:
 562              	.LBB4:
 301:../../Middlewares/Third_Party/LwIP/src/core/ipv4/etharp.c ****       }
 563              		.loc 1 301 16 is_stmt 0 view .LVU159
 564 0186 1D46     		mov	r5, r3
 565              	.LVL54:
 301:../../Middlewares/Third_Party/LwIP/src/core/ipv4/etharp.c ****       }
 566              		.loc 1 301 16 view .LVU160
 567 0188 D7E7     		b	.L19
 568              	.LVL55:
 569              	.L35:
 301:../../Middlewares/Third_Party/LwIP/src/core/ipv4/etharp.c ****       }
 570              		.loc 1 301 16 view .LVU161
 571              	.LBE4:
 342:../../Middlewares/Third_Party/LwIP/src/core/ipv4/etharp.c ****   }
 572              		.loc 1 342 12 view .LVU162
 573 018a 4FF0FF35 		mov	r5, #-1
 574              	.LVL56:
 342:../../Middlewares/Third_Party/LwIP/src/core/ipv4/etharp.c ****   }
 575              		.loc 1 342 12 view .LVU163
 576 018e D4E7     		b	.L19
 577              	.LVL57:
 578              	.L39:
 379:../../Middlewares/Third_Party/LwIP/src/core/ipv4/etharp.c ****     }
 579              		.loc 1 379 14 view .LVU164
 580 0190 4FF0FF35 		mov	r5, #-1
 581              	.LVL58:
 379:../../Middlewares/Third_Party/LwIP/src/core/ipv4/etharp.c ****     }
 582              		.loc 1 379 14 view .LVU165
 583 0194 D1E7     		b	.L19
 584              	.L48:
 585 0196 00BF     		.align	2
 586              	.L47:
 587 0198 00000000 		.word	arp_table
 588 019c 00000000 		.word	.LC0
 589 01a0 00000000 		.word	.LC4
 590 01a4 48000000 		.word	.LC2
 591 01a8 18000000 		.word	.LC5
ARM GAS  C:\Users\minis\AppData\Local\Temp\ccY56pkX.s 			page 20


 592 01ac 2C000000 		.word	.LC6
 593              		.cfi_endproc
 594              	.LFE173:
 596              		.section	.rodata.etharp_update_arp_entry.str1.4,"aMS",%progbits,1
 597              		.align	2
 598              	.LC7:
 599 0000 6E657469 		.ascii	"netif->hwaddr_len == ETH_HWADDR_LEN\000"
 599      662D3E68 
 599      77616464 
 599      725F6C65 
 599      6E203D3D 
 600              		.section	.text.etharp_update_arp_entry,"ax",%progbits
 601              		.align	1
 602              		.syntax unified
 603              		.thumb
 604              		.thumb_func
 606              	etharp_update_arp_entry:
 607              	.LVL59:
 608              	.LFB174:
 402:../../Middlewares/Third_Party/LwIP/src/core/ipv4/etharp.c **** 
 403:../../Middlewares/Third_Party/LwIP/src/core/ipv4/etharp.c **** /**
 404:../../Middlewares/Third_Party/LwIP/src/core/ipv4/etharp.c ****  * Update (or insert) a IP/MAC address pair in the ARP cache.
 405:../../Middlewares/Third_Party/LwIP/src/core/ipv4/etharp.c ****  *
 406:../../Middlewares/Third_Party/LwIP/src/core/ipv4/etharp.c ****  * If a pending entry is resolved, any queued packets will be sent
 407:../../Middlewares/Third_Party/LwIP/src/core/ipv4/etharp.c ****  * at this point.
 408:../../Middlewares/Third_Party/LwIP/src/core/ipv4/etharp.c ****  *
 409:../../Middlewares/Third_Party/LwIP/src/core/ipv4/etharp.c ****  * @param netif netif related to this entry (used for NETIF_ADDRHINT)
 410:../../Middlewares/Third_Party/LwIP/src/core/ipv4/etharp.c ****  * @param ipaddr IP address of the inserted ARP entry.
 411:../../Middlewares/Third_Party/LwIP/src/core/ipv4/etharp.c ****  * @param ethaddr Ethernet address of the inserted ARP entry.
 412:../../Middlewares/Third_Party/LwIP/src/core/ipv4/etharp.c ****  * @param flags See @ref etharp_state
 413:../../Middlewares/Third_Party/LwIP/src/core/ipv4/etharp.c ****  *
 414:../../Middlewares/Third_Party/LwIP/src/core/ipv4/etharp.c ****  * @return
 415:../../Middlewares/Third_Party/LwIP/src/core/ipv4/etharp.c ****  * - ERR_OK Successfully updated ARP cache.
 416:../../Middlewares/Third_Party/LwIP/src/core/ipv4/etharp.c ****  * - ERR_MEM If we could not add a new ARP entry when ETHARP_FLAG_TRY_HARD was set.
 417:../../Middlewares/Third_Party/LwIP/src/core/ipv4/etharp.c ****  * - ERR_ARG Non-unicast address given, those will not appear in ARP cache.
 418:../../Middlewares/Third_Party/LwIP/src/core/ipv4/etharp.c ****  *
 419:../../Middlewares/Third_Party/LwIP/src/core/ipv4/etharp.c ****  * @see pbuf_free()
 420:../../Middlewares/Third_Party/LwIP/src/core/ipv4/etharp.c ****  */
 421:../../Middlewares/Third_Party/LwIP/src/core/ipv4/etharp.c **** static err_t
 422:../../Middlewares/Third_Party/LwIP/src/core/ipv4/etharp.c **** etharp_update_arp_entry(struct netif *netif, const ip4_addr_t *ipaddr, struct eth_addr *ethaddr, u8
 423:../../Middlewares/Third_Party/LwIP/src/core/ipv4/etharp.c **** {
 609              		.loc 1 423 1 is_stmt 1 view -0
 610              		.cfi_startproc
 611              		@ args = 0, pretend = 0, frame = 0
 612              		@ frame_needed = 0, uses_anonymous_args = 0
 613              		.loc 1 423 1 is_stmt 0 view .LVU167
 614 0000 F0B5     		push	{r4, r5, r6, r7, lr}
 615              	.LCFI6:
 616              		.cfi_def_cfa_offset 20
 617              		.cfi_offset 4, -20
 618              		.cfi_offset 5, -16
 619              		.cfi_offset 6, -12
 620              		.cfi_offset 7, -8
 621              		.cfi_offset 14, -4
 622 0002 83B0     		sub	sp, sp, #12
 623              	.LCFI7:
 624              		.cfi_def_cfa_offset 32
ARM GAS  C:\Users\minis\AppData\Local\Temp\ccY56pkX.s 			page 21


 625 0004 0546     		mov	r5, r0
 626 0006 0C46     		mov	r4, r1
 627 0008 1646     		mov	r6, r2
 628 000a 1F46     		mov	r7, r3
 424:../../Middlewares/Third_Party/LwIP/src/core/ipv4/etharp.c ****   s16_t i;
 629              		.loc 1 424 3 is_stmt 1 view .LVU168
 425:../../Middlewares/Third_Party/LwIP/src/core/ipv4/etharp.c ****   LWIP_ASSERT("netif->hwaddr_len == ETH_HWADDR_LEN", netif->hwaddr_len == ETH_HWADDR_LEN);
 630              		.loc 1 425 3 view .LVU169
 631              		.loc 1 425 3 view .LVU170
 632 000c 90F82C20 		ldrb	r2, [r0, #44]	@ zero_extendqisi2
 633              	.LVL60:
 634              		.loc 1 425 3 is_stmt 0 view .LVU171
 635 0010 062A     		cmp	r2, #6
 636 0012 26D1     		bne	.L58
 637              	.LVL61:
 638              	.L50:
 639              		.loc 1 425 3 is_stmt 1 view .LVU172
 640              		.loc 1 425 3 view .LVU173
 426:../../Middlewares/Third_Party/LwIP/src/core/ipv4/etharp.c ****   LWIP_DEBUGF(ETHARP_DEBUG | LWIP_DBG_TRACE, ("etharp_update_arp_entry: %"U16_F".%"U16_F".%"U16_F".
 427:../../Middlewares/Third_Party/LwIP/src/core/ipv4/etharp.c ****               ip4_addr1_16(ipaddr), ip4_addr2_16(ipaddr), ip4_addr3_16(ipaddr), ip4_addr4_16(ipaddr
 428:../../Middlewares/Third_Party/LwIP/src/core/ipv4/etharp.c ****               (u16_t)ethaddr->addr[0], (u16_t)ethaddr->addr[1], (u16_t)ethaddr->addr[2],
 429:../../Middlewares/Third_Party/LwIP/src/core/ipv4/etharp.c ****               (u16_t)ethaddr->addr[3], (u16_t)ethaddr->addr[4], (u16_t)ethaddr->addr[5]));
 641              		.loc 1 429 90 view .LVU174
 430:../../Middlewares/Third_Party/LwIP/src/core/ipv4/etharp.c ****   /* non-unicast address? */
 431:../../Middlewares/Third_Party/LwIP/src/core/ipv4/etharp.c ****   if (ip4_addr_isany(ipaddr) ||
 642              		.loc 1 431 3 view .LVU175
 643              		.loc 1 431 6 is_stmt 0 view .LVU176
 644 0014 6CB3     		cbz	r4, .L51
 645              		.loc 1 431 7 discriminator 1 view .LVU177
 646 0016 2068     		ldr	r0, [r4]
 647 0018 58B3     		cbz	r0, .L51
 432:../../Middlewares/Third_Party/LwIP/src/core/ipv4/etharp.c ****       ip4_addr_isbroadcast(ipaddr, netif) ||
 648              		.loc 1 432 7 view .LVU178
 649 001a 2946     		mov	r1, r5
 650 001c FFF7FEFF 		bl	ip4_addr_isbroadcast_u32
 651              	.LVL62:
 431:../../Middlewares/Third_Party/LwIP/src/core/ipv4/etharp.c ****       ip4_addr_isbroadcast(ipaddr, netif) ||
 652              		.loc 1 431 30 discriminator 2 view .LVU179
 653 0020 38BB     		cbnz	r0, .L51
 433:../../Middlewares/Third_Party/LwIP/src/core/ipv4/etharp.c ****       ip4_addr_ismulticast(ipaddr)) {
 654              		.loc 1 433 7 view .LVU180
 655 0022 2268     		ldr	r2, [r4]
 656 0024 02F0F002 		and	r2, r2, #240
 432:../../Middlewares/Third_Party/LwIP/src/core/ipv4/etharp.c ****       ip4_addr_isbroadcast(ipaddr, netif) ||
 657              		.loc 1 432 43 view .LVU181
 658 0028 E02A     		cmp	r2, #224
 659 002a 22D0     		beq	.L51
 434:../../Middlewares/Third_Party/LwIP/src/core/ipv4/etharp.c ****     LWIP_DEBUGF(ETHARP_DEBUG | LWIP_DBG_TRACE, ("etharp_update_arp_entry: will not add non-unicast 
 435:../../Middlewares/Third_Party/LwIP/src/core/ipv4/etharp.c ****     return ERR_ARG;
 436:../../Middlewares/Third_Party/LwIP/src/core/ipv4/etharp.c ****   }
 437:../../Middlewares/Third_Party/LwIP/src/core/ipv4/etharp.c ****   /* find or create ARP entry */
 438:../../Middlewares/Third_Party/LwIP/src/core/ipv4/etharp.c ****   i = etharp_find_entry(ipaddr, flags, netif);
 660              		.loc 1 438 3 is_stmt 1 view .LVU182
 661              		.loc 1 438 7 is_stmt 0 view .LVU183
 662 002c 2A46     		mov	r2, r5
 663 002e 3946     		mov	r1, r7
 664 0030 2046     		mov	r0, r4
ARM GAS  C:\Users\minis\AppData\Local\Temp\ccY56pkX.s 			page 22


 665 0032 FFF7FEFF 		bl	etharp_find_entry
 666              	.LVL63:
 439:../../Middlewares/Third_Party/LwIP/src/core/ipv4/etharp.c ****   /* bail out if no entry could be found */
 440:../../Middlewares/Third_Party/LwIP/src/core/ipv4/etharp.c ****   if (i < 0) {
 667              		.loc 1 440 3 is_stmt 1 view .LVU184
 668              		.loc 1 440 6 is_stmt 0 view .LVU185
 669 0036 041E     		subs	r4, r0, #0
 670              	.LVL64:
 671              		.loc 1 440 6 view .LVU186
 672 0038 1EDB     		blt	.L59
 441:../../Middlewares/Third_Party/LwIP/src/core/ipv4/etharp.c ****     return (err_t)i;
 442:../../Middlewares/Third_Party/LwIP/src/core/ipv4/etharp.c ****   }
 443:../../Middlewares/Third_Party/LwIP/src/core/ipv4/etharp.c **** 
 444:../../Middlewares/Third_Party/LwIP/src/core/ipv4/etharp.c **** #if ETHARP_SUPPORT_STATIC_ENTRIES
 445:../../Middlewares/Third_Party/LwIP/src/core/ipv4/etharp.c ****   if (flags & ETHARP_FLAG_STATIC_ENTRY) {
 446:../../Middlewares/Third_Party/LwIP/src/core/ipv4/etharp.c ****     /* record static type */
 447:../../Middlewares/Third_Party/LwIP/src/core/ipv4/etharp.c ****     arp_table[i].state = ETHARP_STATE_STATIC;
 448:../../Middlewares/Third_Party/LwIP/src/core/ipv4/etharp.c ****   } else if (arp_table[i].state == ETHARP_STATE_STATIC) {
 449:../../Middlewares/Third_Party/LwIP/src/core/ipv4/etharp.c ****     /* found entry is a static type, don't overwrite it */
 450:../../Middlewares/Third_Party/LwIP/src/core/ipv4/etharp.c ****     return ERR_VAL;
 451:../../Middlewares/Third_Party/LwIP/src/core/ipv4/etharp.c ****   } else
 452:../../Middlewares/Third_Party/LwIP/src/core/ipv4/etharp.c **** #endif /* ETHARP_SUPPORT_STATIC_ENTRIES */
 453:../../Middlewares/Third_Party/LwIP/src/core/ipv4/etharp.c ****   {
 454:../../Middlewares/Third_Party/LwIP/src/core/ipv4/etharp.c ****     /* mark it stable */
 455:../../Middlewares/Third_Party/LwIP/src/core/ipv4/etharp.c ****     arp_table[i].state = ETHARP_STATE_STABLE;
 673              		.loc 1 455 5 is_stmt 1 view .LVU187
 674              		.loc 1 455 24 is_stmt 0 view .LVU188
 675 003a 2149     		ldr	r1, .L60
 676 003c 04EB4402 		add	r2, r4, r4, lsl #1
 677 0040 01EBC202 		add	r2, r1, r2, lsl #3
 678 0044 0223     		movs	r3, #2
 679 0046 1375     		strb	r3, [r2, #20]
 456:../../Middlewares/Third_Party/LwIP/src/core/ipv4/etharp.c ****   }
 457:../../Middlewares/Third_Party/LwIP/src/core/ipv4/etharp.c **** 
 458:../../Middlewares/Third_Party/LwIP/src/core/ipv4/etharp.c ****   /* record network interface */
 459:../../Middlewares/Third_Party/LwIP/src/core/ipv4/etharp.c ****   arp_table[i].netif = netif;
 680              		.loc 1 459 3 is_stmt 1 view .LVU189
 681              		.loc 1 459 22 is_stmt 0 view .LVU190
 682 0048 9560     		str	r5, [r2, #8]
 460:../../Middlewares/Third_Party/LwIP/src/core/ipv4/etharp.c ****   /* insert in SNMP ARP index tree */
 461:../../Middlewares/Third_Party/LwIP/src/core/ipv4/etharp.c ****   mib2_add_arp_entry(netif, &arp_table[i].ipaddr);
 683              		.loc 1 461 50 is_stmt 1 view .LVU191
 462:../../Middlewares/Third_Party/LwIP/src/core/ipv4/etharp.c **** 
 463:../../Middlewares/Third_Party/LwIP/src/core/ipv4/etharp.c ****   LWIP_DEBUGF(ETHARP_DEBUG | LWIP_DBG_TRACE, ("etharp_update_arp_entry: updating stable entry %"S16
 684              		.loc 1 463 111 view .LVU192
 464:../../Middlewares/Third_Party/LwIP/src/core/ipv4/etharp.c ****   /* update address */
 465:../../Middlewares/Third_Party/LwIP/src/core/ipv4/etharp.c ****   SMEMCPY(&arp_table[i].ethaddr, ethaddr, ETH_HWADDR_LEN);
 685              		.loc 1 465 3 view .LVU193
 686 004a 04EB4403 		add	r3, r4, r4, lsl #1
 687 004e DB00     		lsls	r3, r3, #3
 688 0050 0833     		adds	r3, r3, #8
 689 0052 0B44     		add	r3, r3, r1
 690 0054 3168     		ldr	r1, [r6]	@ unaligned
 691 0056 5960     		str	r1, [r3, #4]	@ unaligned
 692 0058 B188     		ldrh	r1, [r6, #4]	@ unaligned
 693 005a 1981     		strh	r1, [r3, #8]	@ unaligned
 466:../../Middlewares/Third_Party/LwIP/src/core/ipv4/etharp.c ****   /* reset time stamp */
ARM GAS  C:\Users\minis\AppData\Local\Temp\ccY56pkX.s 			page 23


 467:../../Middlewares/Third_Party/LwIP/src/core/ipv4/etharp.c ****   arp_table[i].ctime = 0;
 694              		.loc 1 467 3 view .LVU194
 695              		.loc 1 467 22 is_stmt 0 view .LVU195
 696 005c 0023     		movs	r3, #0
 697 005e 5382     		strh	r3, [r2, #18]	@ movhi
 468:../../Middlewares/Third_Party/LwIP/src/core/ipv4/etharp.c ****   /* this is where we will send out queued packets! */
 469:../../Middlewares/Third_Party/LwIP/src/core/ipv4/etharp.c **** #if ARP_QUEUEING
 470:../../Middlewares/Third_Party/LwIP/src/core/ipv4/etharp.c ****   while (arp_table[i].q != NULL) {
 698              		.loc 1 470 3 is_stmt 1 view .LVU196
 699              		.loc 1 470 9 is_stmt 0 view .LVU197
 700 0060 23E0     		b	.L55
 701              	.LVL65:
 702              	.L58:
 425:../../Middlewares/Third_Party/LwIP/src/core/ipv4/etharp.c ****   LWIP_DEBUGF(ETHARP_DEBUG | LWIP_DBG_TRACE, ("etharp_update_arp_entry: %"U16_F".%"U16_F".%"U16_F".
 703              		.loc 1 425 3 is_stmt 1 discriminator 1 view .LVU198
 425:../../Middlewares/Third_Party/LwIP/src/core/ipv4/etharp.c ****   LWIP_DEBUGF(ETHARP_DEBUG | LWIP_DBG_TRACE, ("etharp_update_arp_entry: %"U16_F".%"U16_F".%"U16_F".
 704              		.loc 1 425 3 discriminator 1 view .LVU199
 705 0062 184B     		ldr	r3, .L60+4
 706              	.LVL66:
 425:../../Middlewares/Third_Party/LwIP/src/core/ipv4/etharp.c ****   LWIP_DEBUGF(ETHARP_DEBUG | LWIP_DBG_TRACE, ("etharp_update_arp_entry: %"U16_F".%"U16_F".%"U16_F".
 707              		.loc 1 425 3 is_stmt 0 discriminator 1 view .LVU200
 708 0064 40F2A912 		movw	r2, #425
 709 0068 1749     		ldr	r1, .L60+8
 710              	.LVL67:
 425:../../Middlewares/Third_Party/LwIP/src/core/ipv4/etharp.c ****   LWIP_DEBUGF(ETHARP_DEBUG | LWIP_DBG_TRACE, ("etharp_update_arp_entry: %"U16_F".%"U16_F".%"U16_F".
 711              		.loc 1 425 3 discriminator 1 view .LVU201
 712 006a 1848     		ldr	r0, .L60+12
 713              	.LVL68:
 425:../../Middlewares/Third_Party/LwIP/src/core/ipv4/etharp.c ****   LWIP_DEBUGF(ETHARP_DEBUG | LWIP_DBG_TRACE, ("etharp_update_arp_entry: %"U16_F".%"U16_F".%"U16_F".
 714              		.loc 1 425 3 discriminator 1 view .LVU202
 715 006c FFF7FEFF 		bl	printf
 716              	.LVL69:
 717 0070 D0E7     		b	.L50
 718              	.L51:
 434:../../Middlewares/Third_Party/LwIP/src/core/ipv4/etharp.c ****     return ERR_ARG;
 719              		.loc 1 434 128 is_stmt 1 view .LVU203
 435:../../Middlewares/Third_Party/LwIP/src/core/ipv4/etharp.c ****   }
 720              		.loc 1 435 5 view .LVU204
 435:../../Middlewares/Third_Party/LwIP/src/core/ipv4/etharp.c ****   }
 721              		.loc 1 435 12 is_stmt 0 view .LVU205
 722 0072 6FF00F00 		mvn	r0, #15
 723 0076 20E0     		b	.L53
 724              	.LVL70:
 725              	.L59:
 441:../../Middlewares/Third_Party/LwIP/src/core/ipv4/etharp.c ****   }
 726              		.loc 1 441 5 is_stmt 1 view .LVU206
 441:../../Middlewares/Third_Party/LwIP/src/core/ipv4/etharp.c ****   }
 727              		.loc 1 441 12 is_stmt 0 view .LVU207
 728 0078 60B2     		sxtb	r0, r4
 729              	.LVL71:
 441:../../Middlewares/Third_Party/LwIP/src/core/ipv4/etharp.c ****   }
 730              		.loc 1 441 12 view .LVU208
 731 007a 1EE0     		b	.L53
 732              	.LVL72:
 733              	.L56:
 734              	.LBB5:
 471:../../Middlewares/Third_Party/LwIP/src/core/ipv4/etharp.c ****     struct pbuf *p;
ARM GAS  C:\Users\minis\AppData\Local\Temp\ccY56pkX.s 			page 24


 735              		.loc 1 471 5 is_stmt 1 view .LVU209
 472:../../Middlewares/Third_Party/LwIP/src/core/ipv4/etharp.c ****     /* remember remainder of queue */
 473:../../Middlewares/Third_Party/LwIP/src/core/ipv4/etharp.c ****     struct etharp_q_entry *q = arp_table[i].q;
 736              		.loc 1 473 5 view .LVU210
 474:../../Middlewares/Third_Party/LwIP/src/core/ipv4/etharp.c ****     /* pop first item off the queue */
 475:../../Middlewares/Third_Party/LwIP/src/core/ipv4/etharp.c ****     arp_table[i].q = q->next;
 737              		.loc 1 475 5 view .LVU211
 738              		.loc 1 475 23 is_stmt 0 view .LVU212
 739 007c 0A68     		ldr	r2, [r1]
 740              		.loc 1 475 20 view .LVU213
 741 007e 04EB440C 		add	ip, r4, r4, lsl #1
 742 0082 0F4B     		ldr	r3, .L60
 743 0084 43F83C20 		str	r2, [r3, ip, lsl #3]
 476:../../Middlewares/Third_Party/LwIP/src/core/ipv4/etharp.c ****     /* get the packet pointer */
 477:../../Middlewares/Third_Party/LwIP/src/core/ipv4/etharp.c ****     p = q->p;
 744              		.loc 1 477 5 is_stmt 1 view .LVU214
 745              		.loc 1 477 7 is_stmt 0 view .LVU215
 746 0088 4F68     		ldr	r7, [r1, #4]
 747              	.LVL73:
 478:../../Middlewares/Third_Party/LwIP/src/core/ipv4/etharp.c ****     /* now queue entry can be freed */
 479:../../Middlewares/Third_Party/LwIP/src/core/ipv4/etharp.c ****     memp_free(MEMP_ARP_QUEUE, q);
 748              		.loc 1 479 5 is_stmt 1 view .LVU216
 749 008a 0A20     		movs	r0, #10
 750 008c FFF7FEFF 		bl	memp_free
 751              	.LVL74:
 480:../../Middlewares/Third_Party/LwIP/src/core/ipv4/etharp.c **** #else /* ARP_QUEUEING */
 481:../../Middlewares/Third_Party/LwIP/src/core/ipv4/etharp.c ****   if (arp_table[i].q != NULL) {
 482:../../Middlewares/Third_Party/LwIP/src/core/ipv4/etharp.c ****     struct pbuf *p = arp_table[i].q;
 483:../../Middlewares/Third_Party/LwIP/src/core/ipv4/etharp.c ****     arp_table[i].q = NULL;
 484:../../Middlewares/Third_Party/LwIP/src/core/ipv4/etharp.c **** #endif /* ARP_QUEUEING */
 485:../../Middlewares/Third_Party/LwIP/src/core/ipv4/etharp.c ****     /* send the queued IP packet */
 486:../../Middlewares/Third_Party/LwIP/src/core/ipv4/etharp.c ****     ethernet_output(netif, p, (struct eth_addr *)(netif->hwaddr), ethaddr, ETHTYPE_IP);
 752              		.loc 1 486 5 view .LVU217
 753 0090 4FF40063 		mov	r3, #2048
 754 0094 0093     		str	r3, [sp]
 755 0096 3346     		mov	r3, r6
 756 0098 05F12602 		add	r2, r5, #38
 757 009c 3946     		mov	r1, r7
 758 009e 2846     		mov	r0, r5
 759 00a0 FFF7FEFF 		bl	ethernet_output
 760              	.LVL75:
 487:../../Middlewares/Third_Party/LwIP/src/core/ipv4/etharp.c ****     /* free the queued IP packet */
 488:../../Middlewares/Third_Party/LwIP/src/core/ipv4/etharp.c ****     pbuf_free(p);
 761              		.loc 1 488 5 view .LVU218
 762 00a4 3846     		mov	r0, r7
 763 00a6 FFF7FEFF 		bl	pbuf_free
 764              	.LVL76:
 765              	.L55:
 766              		.loc 1 488 5 is_stmt 0 view .LVU219
 767              	.LBE5:
 470:../../Middlewares/Third_Party/LwIP/src/core/ipv4/etharp.c ****     struct pbuf *p;
 768              		.loc 1 470 25 is_stmt 1 view .LVU220
 470:../../Middlewares/Third_Party/LwIP/src/core/ipv4/etharp.c ****     struct pbuf *p;
 769              		.loc 1 470 22 is_stmt 0 view .LVU221
 770 00aa 04EB440C 		add	ip, r4, r4, lsl #1
 771 00ae 044B     		ldr	r3, .L60
 772 00b0 53F83C10 		ldr	r1, [r3, ip, lsl #3]
ARM GAS  C:\Users\minis\AppData\Local\Temp\ccY56pkX.s 			page 25


 470:../../Middlewares/Third_Party/LwIP/src/core/ipv4/etharp.c ****     struct pbuf *p;
 773              		.loc 1 470 25 view .LVU222
 774 00b4 0029     		cmp	r1, #0
 775 00b6 E1D1     		bne	.L56
 489:../../Middlewares/Third_Party/LwIP/src/core/ipv4/etharp.c ****   }
 490:../../Middlewares/Third_Party/LwIP/src/core/ipv4/etharp.c ****   return ERR_OK;
 776              		.loc 1 490 10 view .LVU223
 777 00b8 0020     		movs	r0, #0
 778              	.LVL77:
 779              	.L53:
 491:../../Middlewares/Third_Party/LwIP/src/core/ipv4/etharp.c **** }
 780              		.loc 1 491 1 view .LVU224
 781 00ba 03B0     		add	sp, sp, #12
 782              	.LCFI8:
 783              		.cfi_def_cfa_offset 20
 784              		@ sp needed
 785 00bc F0BD     		pop	{r4, r5, r6, r7, pc}
 786              	.LVL78:
 787              	.L61:
 788              		.loc 1 491 1 view .LVU225
 789 00be 00BF     		.align	2
 790              	.L60:
 791 00c0 00000000 		.word	arp_table
 792 00c4 00000000 		.word	.LC0
 793 00c8 00000000 		.word	.LC7
 794 00cc 48000000 		.word	.LC2
 795              		.cfi_endproc
 796              	.LFE174:
 798              		.section	.rodata.etharp_raw.str1.4,"aMS",%progbits,1
 799              		.align	2
 800              	.LC8:
 801 0000 6E657469 		.ascii	"netif != NULL\000"
 801      6620213D 
 801      204E554C 
 801      4C00
 802 000e 0000     		.align	2
 803              	.LC9:
 804 0010 63686563 		.ascii	"check that first pbuf can hold struct etharp_hdr\000"
 804      6B207468 
 804      61742066 
 804      69727374 
 804      20706275 
 805 0041 000000   		.align	2
 806              	.LC10:
 807 0044 6E657469 		.ascii	"netif->hwaddr_len must be the same as ETH_HWADDR_LE"
 807      662D3E68 
 807      77616464 
 807      725F6C65 
 807      6E206D75 
 808 0077 4E20666F 		.ascii	"N for etharp!\000"
 808      72206574 
 808      68617270 
 808      2100
 809              		.section	.text.etharp_raw,"ax",%progbits
 810              		.align	1
 811              		.syntax unified
 812              		.thumb
ARM GAS  C:\Users\minis\AppData\Local\Temp\ccY56pkX.s 			page 26


 813              		.thumb_func
 815              	etharp_raw:
 816              	.LVL79:
 817              	.LFB182:
 492:../../Middlewares/Third_Party/LwIP/src/core/ipv4/etharp.c **** 
 493:../../Middlewares/Third_Party/LwIP/src/core/ipv4/etharp.c **** #if ETHARP_SUPPORT_STATIC_ENTRIES
 494:../../Middlewares/Third_Party/LwIP/src/core/ipv4/etharp.c **** /** Add a new static entry to the ARP table. If an entry exists for the
 495:../../Middlewares/Third_Party/LwIP/src/core/ipv4/etharp.c ****  * specified IP address, this entry is overwritten.
 496:../../Middlewares/Third_Party/LwIP/src/core/ipv4/etharp.c ****  * If packets are queued for the specified IP address, they are sent out.
 497:../../Middlewares/Third_Party/LwIP/src/core/ipv4/etharp.c ****  *
 498:../../Middlewares/Third_Party/LwIP/src/core/ipv4/etharp.c ****  * @param ipaddr IP address for the new static entry
 499:../../Middlewares/Third_Party/LwIP/src/core/ipv4/etharp.c ****  * @param ethaddr ethernet address for the new static entry
 500:../../Middlewares/Third_Party/LwIP/src/core/ipv4/etharp.c ****  * @return See return values of etharp_add_static_entry
 501:../../Middlewares/Third_Party/LwIP/src/core/ipv4/etharp.c ****  */
 502:../../Middlewares/Third_Party/LwIP/src/core/ipv4/etharp.c **** err_t
 503:../../Middlewares/Third_Party/LwIP/src/core/ipv4/etharp.c **** etharp_add_static_entry(const ip4_addr_t *ipaddr, struct eth_addr *ethaddr)
 504:../../Middlewares/Third_Party/LwIP/src/core/ipv4/etharp.c **** {
 505:../../Middlewares/Third_Party/LwIP/src/core/ipv4/etharp.c ****   struct netif *netif;
 506:../../Middlewares/Third_Party/LwIP/src/core/ipv4/etharp.c ****   LWIP_ASSERT_CORE_LOCKED();
 507:../../Middlewares/Third_Party/LwIP/src/core/ipv4/etharp.c ****   LWIP_DEBUGF(ETHARP_DEBUG | LWIP_DBG_TRACE, ("etharp_add_static_entry: %"U16_F".%"U16_F".%"U16_F".
 508:../../Middlewares/Third_Party/LwIP/src/core/ipv4/etharp.c ****               ip4_addr1_16(ipaddr), ip4_addr2_16(ipaddr), ip4_addr3_16(ipaddr), ip4_addr4_16(ipaddr
 509:../../Middlewares/Third_Party/LwIP/src/core/ipv4/etharp.c ****               (u16_t)ethaddr->addr[0], (u16_t)ethaddr->addr[1], (u16_t)ethaddr->addr[2],
 510:../../Middlewares/Third_Party/LwIP/src/core/ipv4/etharp.c ****               (u16_t)ethaddr->addr[3], (u16_t)ethaddr->addr[4], (u16_t)ethaddr->addr[5]));
 511:../../Middlewares/Third_Party/LwIP/src/core/ipv4/etharp.c **** 
 512:../../Middlewares/Third_Party/LwIP/src/core/ipv4/etharp.c ****   netif = ip4_route(ipaddr);
 513:../../Middlewares/Third_Party/LwIP/src/core/ipv4/etharp.c ****   if (netif == NULL) {
 514:../../Middlewares/Third_Party/LwIP/src/core/ipv4/etharp.c ****     return ERR_RTE;
 515:../../Middlewares/Third_Party/LwIP/src/core/ipv4/etharp.c ****   }
 516:../../Middlewares/Third_Party/LwIP/src/core/ipv4/etharp.c **** 
 517:../../Middlewares/Third_Party/LwIP/src/core/ipv4/etharp.c ****   return etharp_update_arp_entry(netif, ipaddr, ethaddr, ETHARP_FLAG_TRY_HARD | ETHARP_FLAG_STATIC_
 518:../../Middlewares/Third_Party/LwIP/src/core/ipv4/etharp.c **** }
 519:../../Middlewares/Third_Party/LwIP/src/core/ipv4/etharp.c **** 
 520:../../Middlewares/Third_Party/LwIP/src/core/ipv4/etharp.c **** /** Remove a static entry from the ARP table previously added with a call to
 521:../../Middlewares/Third_Party/LwIP/src/core/ipv4/etharp.c ****  * etharp_add_static_entry.
 522:../../Middlewares/Third_Party/LwIP/src/core/ipv4/etharp.c ****  *
 523:../../Middlewares/Third_Party/LwIP/src/core/ipv4/etharp.c ****  * @param ipaddr IP address of the static entry to remove
 524:../../Middlewares/Third_Party/LwIP/src/core/ipv4/etharp.c ****  * @return ERR_OK: entry removed
 525:../../Middlewares/Third_Party/LwIP/src/core/ipv4/etharp.c ****  *         ERR_MEM: entry wasn't found
 526:../../Middlewares/Third_Party/LwIP/src/core/ipv4/etharp.c ****  *         ERR_ARG: entry wasn't a static entry but a dynamic one
 527:../../Middlewares/Third_Party/LwIP/src/core/ipv4/etharp.c ****  */
 528:../../Middlewares/Third_Party/LwIP/src/core/ipv4/etharp.c **** err_t
 529:../../Middlewares/Third_Party/LwIP/src/core/ipv4/etharp.c **** etharp_remove_static_entry(const ip4_addr_t *ipaddr)
 530:../../Middlewares/Third_Party/LwIP/src/core/ipv4/etharp.c **** {
 531:../../Middlewares/Third_Party/LwIP/src/core/ipv4/etharp.c ****   s16_t i;
 532:../../Middlewares/Third_Party/LwIP/src/core/ipv4/etharp.c ****   LWIP_ASSERT_CORE_LOCKED();
 533:../../Middlewares/Third_Party/LwIP/src/core/ipv4/etharp.c ****   LWIP_DEBUGF(ETHARP_DEBUG | LWIP_DBG_TRACE, ("etharp_remove_static_entry: %"U16_F".%"U16_F".%"U16_
 534:../../Middlewares/Third_Party/LwIP/src/core/ipv4/etharp.c ****               ip4_addr1_16(ipaddr), ip4_addr2_16(ipaddr), ip4_addr3_16(ipaddr), ip4_addr4_16(ipaddr
 535:../../Middlewares/Third_Party/LwIP/src/core/ipv4/etharp.c **** 
 536:../../Middlewares/Third_Party/LwIP/src/core/ipv4/etharp.c ****   /* find or create ARP entry */
 537:../../Middlewares/Third_Party/LwIP/src/core/ipv4/etharp.c ****   i = etharp_find_entry(ipaddr, ETHARP_FLAG_FIND_ONLY, NULL);
 538:../../Middlewares/Third_Party/LwIP/src/core/ipv4/etharp.c ****   /* bail out if no entry could be found */
 539:../../Middlewares/Third_Party/LwIP/src/core/ipv4/etharp.c ****   if (i < 0) {
 540:../../Middlewares/Third_Party/LwIP/src/core/ipv4/etharp.c ****     return (err_t)i;
 541:../../Middlewares/Third_Party/LwIP/src/core/ipv4/etharp.c ****   }
 542:../../Middlewares/Third_Party/LwIP/src/core/ipv4/etharp.c **** 
 543:../../Middlewares/Third_Party/LwIP/src/core/ipv4/etharp.c ****   if (arp_table[i].state != ETHARP_STATE_STATIC) {
 544:../../Middlewares/Third_Party/LwIP/src/core/ipv4/etharp.c ****     /* entry wasn't a static entry, cannot remove it */
ARM GAS  C:\Users\minis\AppData\Local\Temp\ccY56pkX.s 			page 27


 545:../../Middlewares/Third_Party/LwIP/src/core/ipv4/etharp.c ****     return ERR_ARG;
 546:../../Middlewares/Third_Party/LwIP/src/core/ipv4/etharp.c ****   }
 547:../../Middlewares/Third_Party/LwIP/src/core/ipv4/etharp.c ****   /* entry found, free it */
 548:../../Middlewares/Third_Party/LwIP/src/core/ipv4/etharp.c ****   etharp_free_entry(i);
 549:../../Middlewares/Third_Party/LwIP/src/core/ipv4/etharp.c ****   return ERR_OK;
 550:../../Middlewares/Third_Party/LwIP/src/core/ipv4/etharp.c **** }
 551:../../Middlewares/Third_Party/LwIP/src/core/ipv4/etharp.c **** #endif /* ETHARP_SUPPORT_STATIC_ENTRIES */
 552:../../Middlewares/Third_Party/LwIP/src/core/ipv4/etharp.c **** 
 553:../../Middlewares/Third_Party/LwIP/src/core/ipv4/etharp.c **** /**
 554:../../Middlewares/Third_Party/LwIP/src/core/ipv4/etharp.c ****  * Remove all ARP table entries of the specified netif.
 555:../../Middlewares/Third_Party/LwIP/src/core/ipv4/etharp.c ****  *
 556:../../Middlewares/Third_Party/LwIP/src/core/ipv4/etharp.c ****  * @param netif points to a network interface
 557:../../Middlewares/Third_Party/LwIP/src/core/ipv4/etharp.c ****  */
 558:../../Middlewares/Third_Party/LwIP/src/core/ipv4/etharp.c **** void
 559:../../Middlewares/Third_Party/LwIP/src/core/ipv4/etharp.c **** etharp_cleanup_netif(struct netif *netif)
 560:../../Middlewares/Third_Party/LwIP/src/core/ipv4/etharp.c **** {
 561:../../Middlewares/Third_Party/LwIP/src/core/ipv4/etharp.c ****   int i;
 562:../../Middlewares/Third_Party/LwIP/src/core/ipv4/etharp.c **** 
 563:../../Middlewares/Third_Party/LwIP/src/core/ipv4/etharp.c ****   for (i = 0; i < ARP_TABLE_SIZE; ++i) {
 564:../../Middlewares/Third_Party/LwIP/src/core/ipv4/etharp.c ****     u8_t state = arp_table[i].state;
 565:../../Middlewares/Third_Party/LwIP/src/core/ipv4/etharp.c ****     if ((state != ETHARP_STATE_EMPTY) && (arp_table[i].netif == netif)) {
 566:../../Middlewares/Third_Party/LwIP/src/core/ipv4/etharp.c ****       etharp_free_entry(i);
 567:../../Middlewares/Third_Party/LwIP/src/core/ipv4/etharp.c ****     }
 568:../../Middlewares/Third_Party/LwIP/src/core/ipv4/etharp.c ****   }
 569:../../Middlewares/Third_Party/LwIP/src/core/ipv4/etharp.c **** }
 570:../../Middlewares/Third_Party/LwIP/src/core/ipv4/etharp.c **** 
 571:../../Middlewares/Third_Party/LwIP/src/core/ipv4/etharp.c **** /**
 572:../../Middlewares/Third_Party/LwIP/src/core/ipv4/etharp.c ****  * Finds (stable) ethernet/IP address pair from ARP table
 573:../../Middlewares/Third_Party/LwIP/src/core/ipv4/etharp.c ****  * using interface and IP address index.
 574:../../Middlewares/Third_Party/LwIP/src/core/ipv4/etharp.c ****  * @note the addresses in the ARP table are in network order!
 575:../../Middlewares/Third_Party/LwIP/src/core/ipv4/etharp.c ****  *
 576:../../Middlewares/Third_Party/LwIP/src/core/ipv4/etharp.c ****  * @param netif points to interface index
 577:../../Middlewares/Third_Party/LwIP/src/core/ipv4/etharp.c ****  * @param ipaddr points to the (network order) IP address index
 578:../../Middlewares/Third_Party/LwIP/src/core/ipv4/etharp.c ****  * @param eth_ret points to return pointer
 579:../../Middlewares/Third_Party/LwIP/src/core/ipv4/etharp.c ****  * @param ip_ret points to return pointer
 580:../../Middlewares/Third_Party/LwIP/src/core/ipv4/etharp.c ****  * @return table index if found, -1 otherwise
 581:../../Middlewares/Third_Party/LwIP/src/core/ipv4/etharp.c ****  */
 582:../../Middlewares/Third_Party/LwIP/src/core/ipv4/etharp.c **** ssize_t
 583:../../Middlewares/Third_Party/LwIP/src/core/ipv4/etharp.c **** etharp_find_addr(struct netif *netif, const ip4_addr_t *ipaddr,
 584:../../Middlewares/Third_Party/LwIP/src/core/ipv4/etharp.c ****                  struct eth_addr **eth_ret, const ip4_addr_t **ip_ret)
 585:../../Middlewares/Third_Party/LwIP/src/core/ipv4/etharp.c **** {
 586:../../Middlewares/Third_Party/LwIP/src/core/ipv4/etharp.c ****   s16_t i;
 587:../../Middlewares/Third_Party/LwIP/src/core/ipv4/etharp.c **** 
 588:../../Middlewares/Third_Party/LwIP/src/core/ipv4/etharp.c ****   LWIP_ASSERT("eth_ret != NULL && ip_ret != NULL",
 589:../../Middlewares/Third_Party/LwIP/src/core/ipv4/etharp.c ****               eth_ret != NULL && ip_ret != NULL);
 590:../../Middlewares/Third_Party/LwIP/src/core/ipv4/etharp.c **** 
 591:../../Middlewares/Third_Party/LwIP/src/core/ipv4/etharp.c ****   LWIP_UNUSED_ARG(netif);
 592:../../Middlewares/Third_Party/LwIP/src/core/ipv4/etharp.c **** 
 593:../../Middlewares/Third_Party/LwIP/src/core/ipv4/etharp.c ****   i = etharp_find_entry(ipaddr, ETHARP_FLAG_FIND_ONLY, netif);
 594:../../Middlewares/Third_Party/LwIP/src/core/ipv4/etharp.c ****   if ((i >= 0) && (arp_table[i].state >= ETHARP_STATE_STABLE)) {
 595:../../Middlewares/Third_Party/LwIP/src/core/ipv4/etharp.c ****     *eth_ret = &arp_table[i].ethaddr;
 596:../../Middlewares/Third_Party/LwIP/src/core/ipv4/etharp.c ****     *ip_ret = &arp_table[i].ipaddr;
 597:../../Middlewares/Third_Party/LwIP/src/core/ipv4/etharp.c ****     return i;
 598:../../Middlewares/Third_Party/LwIP/src/core/ipv4/etharp.c ****   }
 599:../../Middlewares/Third_Party/LwIP/src/core/ipv4/etharp.c ****   return -1;
 600:../../Middlewares/Third_Party/LwIP/src/core/ipv4/etharp.c **** }
 601:../../Middlewares/Third_Party/LwIP/src/core/ipv4/etharp.c **** 
ARM GAS  C:\Users\minis\AppData\Local\Temp\ccY56pkX.s 			page 28


 602:../../Middlewares/Third_Party/LwIP/src/core/ipv4/etharp.c **** /**
 603:../../Middlewares/Third_Party/LwIP/src/core/ipv4/etharp.c ****  * Possibility to iterate over stable ARP table entries
 604:../../Middlewares/Third_Party/LwIP/src/core/ipv4/etharp.c ****  *
 605:../../Middlewares/Third_Party/LwIP/src/core/ipv4/etharp.c ****  * @param i entry number, 0 to ARP_TABLE_SIZE
 606:../../Middlewares/Third_Party/LwIP/src/core/ipv4/etharp.c ****  * @param ipaddr return value: IP address
 607:../../Middlewares/Third_Party/LwIP/src/core/ipv4/etharp.c ****  * @param netif return value: points to interface
 608:../../Middlewares/Third_Party/LwIP/src/core/ipv4/etharp.c ****  * @param eth_ret return value: ETH address
 609:../../Middlewares/Third_Party/LwIP/src/core/ipv4/etharp.c ****  * @return 1 on valid index, 0 otherwise
 610:../../Middlewares/Third_Party/LwIP/src/core/ipv4/etharp.c ****  */
 611:../../Middlewares/Third_Party/LwIP/src/core/ipv4/etharp.c **** int
 612:../../Middlewares/Third_Party/LwIP/src/core/ipv4/etharp.c **** etharp_get_entry(size_t i, ip4_addr_t **ipaddr, struct netif **netif, struct eth_addr **eth_ret)
 613:../../Middlewares/Third_Party/LwIP/src/core/ipv4/etharp.c **** {
 614:../../Middlewares/Third_Party/LwIP/src/core/ipv4/etharp.c ****   LWIP_ASSERT("ipaddr != NULL", ipaddr != NULL);
 615:../../Middlewares/Third_Party/LwIP/src/core/ipv4/etharp.c ****   LWIP_ASSERT("netif != NULL", netif != NULL);
 616:../../Middlewares/Third_Party/LwIP/src/core/ipv4/etharp.c ****   LWIP_ASSERT("eth_ret != NULL", eth_ret != NULL);
 617:../../Middlewares/Third_Party/LwIP/src/core/ipv4/etharp.c **** 
 618:../../Middlewares/Third_Party/LwIP/src/core/ipv4/etharp.c ****   if ((i < ARP_TABLE_SIZE) && (arp_table[i].state >= ETHARP_STATE_STABLE)) {
 619:../../Middlewares/Third_Party/LwIP/src/core/ipv4/etharp.c ****     *ipaddr  = &arp_table[i].ipaddr;
 620:../../Middlewares/Third_Party/LwIP/src/core/ipv4/etharp.c ****     *netif   = arp_table[i].netif;
 621:../../Middlewares/Third_Party/LwIP/src/core/ipv4/etharp.c ****     *eth_ret = &arp_table[i].ethaddr;
 622:../../Middlewares/Third_Party/LwIP/src/core/ipv4/etharp.c ****     return 1;
 623:../../Middlewares/Third_Party/LwIP/src/core/ipv4/etharp.c ****   } else {
 624:../../Middlewares/Third_Party/LwIP/src/core/ipv4/etharp.c ****     return 0;
 625:../../Middlewares/Third_Party/LwIP/src/core/ipv4/etharp.c ****   }
 626:../../Middlewares/Third_Party/LwIP/src/core/ipv4/etharp.c **** }
 627:../../Middlewares/Third_Party/LwIP/src/core/ipv4/etharp.c **** 
 628:../../Middlewares/Third_Party/LwIP/src/core/ipv4/etharp.c **** /**
 629:../../Middlewares/Third_Party/LwIP/src/core/ipv4/etharp.c ****  * Responds to ARP requests to us. Upon ARP replies to us, add entry to cache
 630:../../Middlewares/Third_Party/LwIP/src/core/ipv4/etharp.c ****  * send out queued IP packets. Updates cache with snooped address pairs.
 631:../../Middlewares/Third_Party/LwIP/src/core/ipv4/etharp.c ****  *
 632:../../Middlewares/Third_Party/LwIP/src/core/ipv4/etharp.c ****  * Should be called for incoming ARP packets. The pbuf in the argument
 633:../../Middlewares/Third_Party/LwIP/src/core/ipv4/etharp.c ****  * is freed by this function.
 634:../../Middlewares/Third_Party/LwIP/src/core/ipv4/etharp.c ****  *
 635:../../Middlewares/Third_Party/LwIP/src/core/ipv4/etharp.c ****  * @param p The ARP packet that arrived on netif. Is freed by this function.
 636:../../Middlewares/Third_Party/LwIP/src/core/ipv4/etharp.c ****  * @param netif The lwIP network interface on which the ARP packet pbuf arrived.
 637:../../Middlewares/Third_Party/LwIP/src/core/ipv4/etharp.c ****  *
 638:../../Middlewares/Third_Party/LwIP/src/core/ipv4/etharp.c ****  * @see pbuf_free()
 639:../../Middlewares/Third_Party/LwIP/src/core/ipv4/etharp.c ****  */
 640:../../Middlewares/Third_Party/LwIP/src/core/ipv4/etharp.c **** void
 641:../../Middlewares/Third_Party/LwIP/src/core/ipv4/etharp.c **** etharp_input(struct pbuf *p, struct netif *netif)
 642:../../Middlewares/Third_Party/LwIP/src/core/ipv4/etharp.c **** {
 643:../../Middlewares/Third_Party/LwIP/src/core/ipv4/etharp.c ****   struct etharp_hdr *hdr;
 644:../../Middlewares/Third_Party/LwIP/src/core/ipv4/etharp.c ****   /* these are aligned properly, whereas the ARP header fields might not be */
 645:../../Middlewares/Third_Party/LwIP/src/core/ipv4/etharp.c ****   ip4_addr_t sipaddr, dipaddr;
 646:../../Middlewares/Third_Party/LwIP/src/core/ipv4/etharp.c ****   u8_t for_us;
 647:../../Middlewares/Third_Party/LwIP/src/core/ipv4/etharp.c **** 
 648:../../Middlewares/Third_Party/LwIP/src/core/ipv4/etharp.c ****   LWIP_ASSERT_CORE_LOCKED();
 649:../../Middlewares/Third_Party/LwIP/src/core/ipv4/etharp.c **** 
 650:../../Middlewares/Third_Party/LwIP/src/core/ipv4/etharp.c ****   LWIP_ERROR("netif != NULL", (netif != NULL), return;);
 651:../../Middlewares/Third_Party/LwIP/src/core/ipv4/etharp.c **** 
 652:../../Middlewares/Third_Party/LwIP/src/core/ipv4/etharp.c ****   hdr = (struct etharp_hdr *)p->payload;
 653:../../Middlewares/Third_Party/LwIP/src/core/ipv4/etharp.c **** 
 654:../../Middlewares/Third_Party/LwIP/src/core/ipv4/etharp.c ****   /* RFC 826 "Packet Reception": */
 655:../../Middlewares/Third_Party/LwIP/src/core/ipv4/etharp.c ****   if ((hdr->hwtype != PP_HTONS(LWIP_IANA_HWTYPE_ETHERNET)) ||
 656:../../Middlewares/Third_Party/LwIP/src/core/ipv4/etharp.c ****       (hdr->hwlen != ETH_HWADDR_LEN) ||
 657:../../Middlewares/Third_Party/LwIP/src/core/ipv4/etharp.c ****       (hdr->protolen != sizeof(ip4_addr_t)) ||
 658:../../Middlewares/Third_Party/LwIP/src/core/ipv4/etharp.c ****       (hdr->proto != PP_HTONS(ETHTYPE_IP)))  {
ARM GAS  C:\Users\minis\AppData\Local\Temp\ccY56pkX.s 			page 29


 659:../../Middlewares/Third_Party/LwIP/src/core/ipv4/etharp.c ****     LWIP_DEBUGF(ETHARP_DEBUG | LWIP_DBG_TRACE | LWIP_DBG_LEVEL_WARNING,
 660:../../Middlewares/Third_Party/LwIP/src/core/ipv4/etharp.c ****                 ("etharp_input: packet dropped, wrong hw type, hwlen, proto, protolen or ethernet t
 661:../../Middlewares/Third_Party/LwIP/src/core/ipv4/etharp.c ****                  hdr->hwtype, (u16_t)hdr->hwlen, hdr->proto, (u16_t)hdr->protolen));
 662:../../Middlewares/Third_Party/LwIP/src/core/ipv4/etharp.c ****     ETHARP_STATS_INC(etharp.proterr);
 663:../../Middlewares/Third_Party/LwIP/src/core/ipv4/etharp.c ****     ETHARP_STATS_INC(etharp.drop);
 664:../../Middlewares/Third_Party/LwIP/src/core/ipv4/etharp.c ****     pbuf_free(p);
 665:../../Middlewares/Third_Party/LwIP/src/core/ipv4/etharp.c ****     return;
 666:../../Middlewares/Third_Party/LwIP/src/core/ipv4/etharp.c ****   }
 667:../../Middlewares/Third_Party/LwIP/src/core/ipv4/etharp.c ****   ETHARP_STATS_INC(etharp.recv);
 668:../../Middlewares/Third_Party/LwIP/src/core/ipv4/etharp.c **** 
 669:../../Middlewares/Third_Party/LwIP/src/core/ipv4/etharp.c **** #if LWIP_AUTOIP
 670:../../Middlewares/Third_Party/LwIP/src/core/ipv4/etharp.c ****   /* We have to check if a host already has configured our random
 671:../../Middlewares/Third_Party/LwIP/src/core/ipv4/etharp.c ****    * created link local address and continuously check if there is
 672:../../Middlewares/Third_Party/LwIP/src/core/ipv4/etharp.c ****    * a host with this IP-address so we can detect collisions */
 673:../../Middlewares/Third_Party/LwIP/src/core/ipv4/etharp.c ****   autoip_arp_reply(netif, hdr);
 674:../../Middlewares/Third_Party/LwIP/src/core/ipv4/etharp.c **** #endif /* LWIP_AUTOIP */
 675:../../Middlewares/Third_Party/LwIP/src/core/ipv4/etharp.c **** 
 676:../../Middlewares/Third_Party/LwIP/src/core/ipv4/etharp.c ****   /* Copy struct ip4_addr_wordaligned to aligned ip4_addr, to support compilers without
 677:../../Middlewares/Third_Party/LwIP/src/core/ipv4/etharp.c ****    * structure packing (not using structure copy which breaks strict-aliasing rules). */
 678:../../Middlewares/Third_Party/LwIP/src/core/ipv4/etharp.c ****   IPADDR_WORDALIGNED_COPY_TO_IP4_ADDR_T(&sipaddr, &hdr->sipaddr);
 679:../../Middlewares/Third_Party/LwIP/src/core/ipv4/etharp.c ****   IPADDR_WORDALIGNED_COPY_TO_IP4_ADDR_T(&dipaddr, &hdr->dipaddr);
 680:../../Middlewares/Third_Party/LwIP/src/core/ipv4/etharp.c **** 
 681:../../Middlewares/Third_Party/LwIP/src/core/ipv4/etharp.c ****   /* this interface is not configured? */
 682:../../Middlewares/Third_Party/LwIP/src/core/ipv4/etharp.c ****   if (ip4_addr_isany_val(*netif_ip4_addr(netif))) {
 683:../../Middlewares/Third_Party/LwIP/src/core/ipv4/etharp.c ****     for_us = 0;
 684:../../Middlewares/Third_Party/LwIP/src/core/ipv4/etharp.c ****   } else {
 685:../../Middlewares/Third_Party/LwIP/src/core/ipv4/etharp.c ****     /* ARP packet directed to us? */
 686:../../Middlewares/Third_Party/LwIP/src/core/ipv4/etharp.c ****     for_us = (u8_t)ip4_addr_cmp(&dipaddr, netif_ip4_addr(netif));
 687:../../Middlewares/Third_Party/LwIP/src/core/ipv4/etharp.c ****   }
 688:../../Middlewares/Third_Party/LwIP/src/core/ipv4/etharp.c **** 
 689:../../Middlewares/Third_Party/LwIP/src/core/ipv4/etharp.c ****   /* ARP message directed to us?
 690:../../Middlewares/Third_Party/LwIP/src/core/ipv4/etharp.c ****       -> add IP address in ARP cache; assume requester wants to talk to us,
 691:../../Middlewares/Third_Party/LwIP/src/core/ipv4/etharp.c ****          can result in directly sending the queued packets for this host.
 692:../../Middlewares/Third_Party/LwIP/src/core/ipv4/etharp.c ****      ARP message not directed to us?
 693:../../Middlewares/Third_Party/LwIP/src/core/ipv4/etharp.c ****       ->  update the source IP address in the cache, if present */
 694:../../Middlewares/Third_Party/LwIP/src/core/ipv4/etharp.c ****   etharp_update_arp_entry(netif, &sipaddr, &(hdr->shwaddr),
 695:../../Middlewares/Third_Party/LwIP/src/core/ipv4/etharp.c ****                           for_us ? ETHARP_FLAG_TRY_HARD : ETHARP_FLAG_FIND_ONLY);
 696:../../Middlewares/Third_Party/LwIP/src/core/ipv4/etharp.c **** 
 697:../../Middlewares/Third_Party/LwIP/src/core/ipv4/etharp.c ****   /* now act on the message itself */
 698:../../Middlewares/Third_Party/LwIP/src/core/ipv4/etharp.c ****   switch (hdr->opcode) {
 699:../../Middlewares/Third_Party/LwIP/src/core/ipv4/etharp.c ****     /* ARP request? */
 700:../../Middlewares/Third_Party/LwIP/src/core/ipv4/etharp.c ****     case PP_HTONS(ARP_REQUEST):
 701:../../Middlewares/Third_Party/LwIP/src/core/ipv4/etharp.c ****       /* ARP request. If it asked for our address, we send out a
 702:../../Middlewares/Third_Party/LwIP/src/core/ipv4/etharp.c ****        * reply. In any case, we time-stamp any existing ARP entry,
 703:../../Middlewares/Third_Party/LwIP/src/core/ipv4/etharp.c ****        * and possibly send out an IP packet that was queued on it. */
 704:../../Middlewares/Third_Party/LwIP/src/core/ipv4/etharp.c **** 
 705:../../Middlewares/Third_Party/LwIP/src/core/ipv4/etharp.c ****       LWIP_DEBUGF (ETHARP_DEBUG | LWIP_DBG_TRACE, ("etharp_input: incoming ARP request\n"));
 706:../../Middlewares/Third_Party/LwIP/src/core/ipv4/etharp.c ****       /* ARP request for our address? */
 707:../../Middlewares/Third_Party/LwIP/src/core/ipv4/etharp.c ****       if (for_us) {
 708:../../Middlewares/Third_Party/LwIP/src/core/ipv4/etharp.c ****         /* send ARP response */
 709:../../Middlewares/Third_Party/LwIP/src/core/ipv4/etharp.c ****         etharp_raw(netif,
 710:../../Middlewares/Third_Party/LwIP/src/core/ipv4/etharp.c ****                    (struct eth_addr *)netif->hwaddr, &hdr->shwaddr,
 711:../../Middlewares/Third_Party/LwIP/src/core/ipv4/etharp.c ****                    (struct eth_addr *)netif->hwaddr, netif_ip4_addr(netif),
 712:../../Middlewares/Third_Party/LwIP/src/core/ipv4/etharp.c ****                    &hdr->shwaddr, &sipaddr,
 713:../../Middlewares/Third_Party/LwIP/src/core/ipv4/etharp.c ****                    ARP_REPLY);
 714:../../Middlewares/Third_Party/LwIP/src/core/ipv4/etharp.c ****         /* we are not configured? */
 715:../../Middlewares/Third_Party/LwIP/src/core/ipv4/etharp.c ****       } else if (ip4_addr_isany_val(*netif_ip4_addr(netif))) {
ARM GAS  C:\Users\minis\AppData\Local\Temp\ccY56pkX.s 			page 30


 716:../../Middlewares/Third_Party/LwIP/src/core/ipv4/etharp.c ****         /* { for_us == 0 and netif->ip_addr.addr == 0 } */
 717:../../Middlewares/Third_Party/LwIP/src/core/ipv4/etharp.c ****         LWIP_DEBUGF(ETHARP_DEBUG | LWIP_DBG_TRACE, ("etharp_input: we are unconfigured, ARP request
 718:../../Middlewares/Third_Party/LwIP/src/core/ipv4/etharp.c ****         /* request was not directed to us */
 719:../../Middlewares/Third_Party/LwIP/src/core/ipv4/etharp.c ****       } else {
 720:../../Middlewares/Third_Party/LwIP/src/core/ipv4/etharp.c ****         /* { for_us == 0 and netif->ip_addr.addr != 0 } */
 721:../../Middlewares/Third_Party/LwIP/src/core/ipv4/etharp.c ****         LWIP_DEBUGF(ETHARP_DEBUG | LWIP_DBG_TRACE, ("etharp_input: ARP request was not for us.\n"))
 722:../../Middlewares/Third_Party/LwIP/src/core/ipv4/etharp.c ****       }
 723:../../Middlewares/Third_Party/LwIP/src/core/ipv4/etharp.c ****       break;
 724:../../Middlewares/Third_Party/LwIP/src/core/ipv4/etharp.c ****     case PP_HTONS(ARP_REPLY):
 725:../../Middlewares/Third_Party/LwIP/src/core/ipv4/etharp.c ****       /* ARP reply. We already updated the ARP cache earlier. */
 726:../../Middlewares/Third_Party/LwIP/src/core/ipv4/etharp.c ****       LWIP_DEBUGF(ETHARP_DEBUG | LWIP_DBG_TRACE, ("etharp_input: incoming ARP reply\n"));
 727:../../Middlewares/Third_Party/LwIP/src/core/ipv4/etharp.c **** #if (LWIP_DHCP && DHCP_DOES_ARP_CHECK)
 728:../../Middlewares/Third_Party/LwIP/src/core/ipv4/etharp.c ****       /* DHCP wants to know about ARP replies from any host with an
 729:../../Middlewares/Third_Party/LwIP/src/core/ipv4/etharp.c ****        * IP address also offered to us by the DHCP server. We do not
 730:../../Middlewares/Third_Party/LwIP/src/core/ipv4/etharp.c ****        * want to take a duplicate IP address on a single network.
 731:../../Middlewares/Third_Party/LwIP/src/core/ipv4/etharp.c ****        * @todo How should we handle redundant (fail-over) interfaces? */
 732:../../Middlewares/Third_Party/LwIP/src/core/ipv4/etharp.c ****       dhcp_arp_reply(netif, &sipaddr);
 733:../../Middlewares/Third_Party/LwIP/src/core/ipv4/etharp.c **** #endif /* (LWIP_DHCP && DHCP_DOES_ARP_CHECK) */
 734:../../Middlewares/Third_Party/LwIP/src/core/ipv4/etharp.c ****       break;
 735:../../Middlewares/Third_Party/LwIP/src/core/ipv4/etharp.c ****     default:
 736:../../Middlewares/Third_Party/LwIP/src/core/ipv4/etharp.c ****       LWIP_DEBUGF(ETHARP_DEBUG | LWIP_DBG_TRACE, ("etharp_input: ARP unknown opcode type %"S16_F"\n
 737:../../Middlewares/Third_Party/LwIP/src/core/ipv4/etharp.c ****       ETHARP_STATS_INC(etharp.err);
 738:../../Middlewares/Third_Party/LwIP/src/core/ipv4/etharp.c ****       break;
 739:../../Middlewares/Third_Party/LwIP/src/core/ipv4/etharp.c ****   }
 740:../../Middlewares/Third_Party/LwIP/src/core/ipv4/etharp.c ****   /* free ARP packet */
 741:../../Middlewares/Third_Party/LwIP/src/core/ipv4/etharp.c ****   pbuf_free(p);
 742:../../Middlewares/Third_Party/LwIP/src/core/ipv4/etharp.c **** }
 743:../../Middlewares/Third_Party/LwIP/src/core/ipv4/etharp.c **** 
 744:../../Middlewares/Third_Party/LwIP/src/core/ipv4/etharp.c **** /** Just a small helper function that sends a pbuf to an ethernet address
 745:../../Middlewares/Third_Party/LwIP/src/core/ipv4/etharp.c ****  * in the arp_table specified by the index 'arp_idx'.
 746:../../Middlewares/Third_Party/LwIP/src/core/ipv4/etharp.c ****  */
 747:../../Middlewares/Third_Party/LwIP/src/core/ipv4/etharp.c **** static err_t
 748:../../Middlewares/Third_Party/LwIP/src/core/ipv4/etharp.c **** etharp_output_to_arp_index(struct netif *netif, struct pbuf *q, netif_addr_idx_t arp_idx)
 749:../../Middlewares/Third_Party/LwIP/src/core/ipv4/etharp.c **** {
 750:../../Middlewares/Third_Party/LwIP/src/core/ipv4/etharp.c ****   LWIP_ASSERT("arp_table[arp_idx].state >= ETHARP_STATE_STABLE",
 751:../../Middlewares/Third_Party/LwIP/src/core/ipv4/etharp.c ****               arp_table[arp_idx].state >= ETHARP_STATE_STABLE);
 752:../../Middlewares/Third_Party/LwIP/src/core/ipv4/etharp.c ****   /* if arp table entry is about to expire: re-request it,
 753:../../Middlewares/Third_Party/LwIP/src/core/ipv4/etharp.c ****      but only if its state is ETHARP_STATE_STABLE to prevent flooding the
 754:../../Middlewares/Third_Party/LwIP/src/core/ipv4/etharp.c ****      network with ARP requests if this address is used frequently. */
 755:../../Middlewares/Third_Party/LwIP/src/core/ipv4/etharp.c ****   if (arp_table[arp_idx].state == ETHARP_STATE_STABLE) {
 756:../../Middlewares/Third_Party/LwIP/src/core/ipv4/etharp.c ****     if (arp_table[arp_idx].ctime >= ARP_AGE_REREQUEST_USED_BROADCAST) {
 757:../../Middlewares/Third_Party/LwIP/src/core/ipv4/etharp.c ****       /* issue a standard request using broadcast */
 758:../../Middlewares/Third_Party/LwIP/src/core/ipv4/etharp.c ****       if (etharp_request(netif, &arp_table[arp_idx].ipaddr) == ERR_OK) {
 759:../../Middlewares/Third_Party/LwIP/src/core/ipv4/etharp.c ****         arp_table[arp_idx].state = ETHARP_STATE_STABLE_REREQUESTING_1;
 760:../../Middlewares/Third_Party/LwIP/src/core/ipv4/etharp.c ****       }
 761:../../Middlewares/Third_Party/LwIP/src/core/ipv4/etharp.c ****     } else if (arp_table[arp_idx].ctime >= ARP_AGE_REREQUEST_USED_UNICAST) {
 762:../../Middlewares/Third_Party/LwIP/src/core/ipv4/etharp.c ****       /* issue a unicast request (for 15 seconds) to prevent unnecessary broadcast */
 763:../../Middlewares/Third_Party/LwIP/src/core/ipv4/etharp.c ****       if (etharp_request_dst(netif, &arp_table[arp_idx].ipaddr, &arp_table[arp_idx].ethaddr) == ERR
 764:../../Middlewares/Third_Party/LwIP/src/core/ipv4/etharp.c ****         arp_table[arp_idx].state = ETHARP_STATE_STABLE_REREQUESTING_1;
 765:../../Middlewares/Third_Party/LwIP/src/core/ipv4/etharp.c ****       }
 766:../../Middlewares/Third_Party/LwIP/src/core/ipv4/etharp.c ****     }
 767:../../Middlewares/Third_Party/LwIP/src/core/ipv4/etharp.c ****   }
 768:../../Middlewares/Third_Party/LwIP/src/core/ipv4/etharp.c **** 
 769:../../Middlewares/Third_Party/LwIP/src/core/ipv4/etharp.c ****   return ethernet_output(netif, q, (struct eth_addr *)(netif->hwaddr), &arp_table[arp_idx].ethaddr,
 770:../../Middlewares/Third_Party/LwIP/src/core/ipv4/etharp.c **** }
 771:../../Middlewares/Third_Party/LwIP/src/core/ipv4/etharp.c **** 
 772:../../Middlewares/Third_Party/LwIP/src/core/ipv4/etharp.c **** /**
ARM GAS  C:\Users\minis\AppData\Local\Temp\ccY56pkX.s 			page 31


 773:../../Middlewares/Third_Party/LwIP/src/core/ipv4/etharp.c ****  * Resolve and fill-in Ethernet address header for outgoing IP packet.
 774:../../Middlewares/Third_Party/LwIP/src/core/ipv4/etharp.c ****  *
 775:../../Middlewares/Third_Party/LwIP/src/core/ipv4/etharp.c ****  * For IP multicast and broadcast, corresponding Ethernet addresses
 776:../../Middlewares/Third_Party/LwIP/src/core/ipv4/etharp.c ****  * are selected and the packet is transmitted on the link.
 777:../../Middlewares/Third_Party/LwIP/src/core/ipv4/etharp.c ****  *
 778:../../Middlewares/Third_Party/LwIP/src/core/ipv4/etharp.c ****  * For unicast addresses, the packet is submitted to etharp_query(). In
 779:../../Middlewares/Third_Party/LwIP/src/core/ipv4/etharp.c ****  * case the IP address is outside the local network, the IP address of
 780:../../Middlewares/Third_Party/LwIP/src/core/ipv4/etharp.c ****  * the gateway is used.
 781:../../Middlewares/Third_Party/LwIP/src/core/ipv4/etharp.c ****  *
 782:../../Middlewares/Third_Party/LwIP/src/core/ipv4/etharp.c ****  * @param netif The lwIP network interface which the IP packet will be sent on.
 783:../../Middlewares/Third_Party/LwIP/src/core/ipv4/etharp.c ****  * @param q The pbuf(s) containing the IP packet to be sent.
 784:../../Middlewares/Third_Party/LwIP/src/core/ipv4/etharp.c ****  * @param ipaddr The IP address of the packet destination.
 785:../../Middlewares/Third_Party/LwIP/src/core/ipv4/etharp.c ****  *
 786:../../Middlewares/Third_Party/LwIP/src/core/ipv4/etharp.c ****  * @return
 787:../../Middlewares/Third_Party/LwIP/src/core/ipv4/etharp.c ****  * - ERR_RTE No route to destination (no gateway to external networks),
 788:../../Middlewares/Third_Party/LwIP/src/core/ipv4/etharp.c ****  * or the return type of either etharp_query() or ethernet_output().
 789:../../Middlewares/Third_Party/LwIP/src/core/ipv4/etharp.c ****  */
 790:../../Middlewares/Third_Party/LwIP/src/core/ipv4/etharp.c **** err_t
 791:../../Middlewares/Third_Party/LwIP/src/core/ipv4/etharp.c **** etharp_output(struct netif *netif, struct pbuf *q, const ip4_addr_t *ipaddr)
 792:../../Middlewares/Third_Party/LwIP/src/core/ipv4/etharp.c **** {
 793:../../Middlewares/Third_Party/LwIP/src/core/ipv4/etharp.c ****   const struct eth_addr *dest;
 794:../../Middlewares/Third_Party/LwIP/src/core/ipv4/etharp.c ****   struct eth_addr mcastaddr;
 795:../../Middlewares/Third_Party/LwIP/src/core/ipv4/etharp.c ****   const ip4_addr_t *dst_addr = ipaddr;
 796:../../Middlewares/Third_Party/LwIP/src/core/ipv4/etharp.c **** 
 797:../../Middlewares/Third_Party/LwIP/src/core/ipv4/etharp.c ****   LWIP_ASSERT_CORE_LOCKED();
 798:../../Middlewares/Third_Party/LwIP/src/core/ipv4/etharp.c ****   LWIP_ASSERT("netif != NULL", netif != NULL);
 799:../../Middlewares/Third_Party/LwIP/src/core/ipv4/etharp.c ****   LWIP_ASSERT("q != NULL", q != NULL);
 800:../../Middlewares/Third_Party/LwIP/src/core/ipv4/etharp.c ****   LWIP_ASSERT("ipaddr != NULL", ipaddr != NULL);
 801:../../Middlewares/Third_Party/LwIP/src/core/ipv4/etharp.c **** 
 802:../../Middlewares/Third_Party/LwIP/src/core/ipv4/etharp.c ****   /* Determine on destination hardware address. Broadcasts and multicasts
 803:../../Middlewares/Third_Party/LwIP/src/core/ipv4/etharp.c ****    * are special, other IP addresses are looked up in the ARP table. */
 804:../../Middlewares/Third_Party/LwIP/src/core/ipv4/etharp.c **** 
 805:../../Middlewares/Third_Party/LwIP/src/core/ipv4/etharp.c ****   /* broadcast destination IP address? */
 806:../../Middlewares/Third_Party/LwIP/src/core/ipv4/etharp.c ****   if (ip4_addr_isbroadcast(ipaddr, netif)) {
 807:../../Middlewares/Third_Party/LwIP/src/core/ipv4/etharp.c ****     /* broadcast on Ethernet also */
 808:../../Middlewares/Third_Party/LwIP/src/core/ipv4/etharp.c ****     dest = (const struct eth_addr *)&ethbroadcast;
 809:../../Middlewares/Third_Party/LwIP/src/core/ipv4/etharp.c ****     /* multicast destination IP address? */
 810:../../Middlewares/Third_Party/LwIP/src/core/ipv4/etharp.c ****   } else if (ip4_addr_ismulticast(ipaddr)) {
 811:../../Middlewares/Third_Party/LwIP/src/core/ipv4/etharp.c ****     /* Hash IP multicast address to MAC address.*/
 812:../../Middlewares/Third_Party/LwIP/src/core/ipv4/etharp.c ****     mcastaddr.addr[0] = LL_IP4_MULTICAST_ADDR_0;
 813:../../Middlewares/Third_Party/LwIP/src/core/ipv4/etharp.c ****     mcastaddr.addr[1] = LL_IP4_MULTICAST_ADDR_1;
 814:../../Middlewares/Third_Party/LwIP/src/core/ipv4/etharp.c ****     mcastaddr.addr[2] = LL_IP4_MULTICAST_ADDR_2;
 815:../../Middlewares/Third_Party/LwIP/src/core/ipv4/etharp.c ****     mcastaddr.addr[3] = ip4_addr2(ipaddr) & 0x7f;
 816:../../Middlewares/Third_Party/LwIP/src/core/ipv4/etharp.c ****     mcastaddr.addr[4] = ip4_addr3(ipaddr);
 817:../../Middlewares/Third_Party/LwIP/src/core/ipv4/etharp.c ****     mcastaddr.addr[5] = ip4_addr4(ipaddr);
 818:../../Middlewares/Third_Party/LwIP/src/core/ipv4/etharp.c ****     /* destination Ethernet address is multicast */
 819:../../Middlewares/Third_Party/LwIP/src/core/ipv4/etharp.c ****     dest = &mcastaddr;
 820:../../Middlewares/Third_Party/LwIP/src/core/ipv4/etharp.c ****     /* unicast destination IP address? */
 821:../../Middlewares/Third_Party/LwIP/src/core/ipv4/etharp.c ****   } else {
 822:../../Middlewares/Third_Party/LwIP/src/core/ipv4/etharp.c ****     netif_addr_idx_t i;
 823:../../Middlewares/Third_Party/LwIP/src/core/ipv4/etharp.c ****     /* outside local network? if so, this can neither be a global broadcast nor
 824:../../Middlewares/Third_Party/LwIP/src/core/ipv4/etharp.c ****        a subnet broadcast. */
 825:../../Middlewares/Third_Party/LwIP/src/core/ipv4/etharp.c ****     if (!ip4_addr_netcmp(ipaddr, netif_ip4_addr(netif), netif_ip4_netmask(netif)) &&
 826:../../Middlewares/Third_Party/LwIP/src/core/ipv4/etharp.c ****         !ip4_addr_islinklocal(ipaddr)) {
 827:../../Middlewares/Third_Party/LwIP/src/core/ipv4/etharp.c **** #if LWIP_AUTOIP
 828:../../Middlewares/Third_Party/LwIP/src/core/ipv4/etharp.c ****       struct ip_hdr *iphdr = LWIP_ALIGNMENT_CAST(struct ip_hdr *, q->payload);
 829:../../Middlewares/Third_Party/LwIP/src/core/ipv4/etharp.c ****       /* According to RFC 3297, chapter 2.6.2 (Forwarding Rules), a packet with
ARM GAS  C:\Users\minis\AppData\Local\Temp\ccY56pkX.s 			page 32


 830:../../Middlewares/Third_Party/LwIP/src/core/ipv4/etharp.c ****          a link-local source address must always be "directly to its destination
 831:../../Middlewares/Third_Party/LwIP/src/core/ipv4/etharp.c ****          on the same physical link. The host MUST NOT send the packet to any
 832:../../Middlewares/Third_Party/LwIP/src/core/ipv4/etharp.c ****          router for forwarding". */
 833:../../Middlewares/Third_Party/LwIP/src/core/ipv4/etharp.c ****       if (!ip4_addr_islinklocal(&iphdr->src))
 834:../../Middlewares/Third_Party/LwIP/src/core/ipv4/etharp.c **** #endif /* LWIP_AUTOIP */
 835:../../Middlewares/Third_Party/LwIP/src/core/ipv4/etharp.c ****       {
 836:../../Middlewares/Third_Party/LwIP/src/core/ipv4/etharp.c **** #ifdef LWIP_HOOK_ETHARP_GET_GW
 837:../../Middlewares/Third_Party/LwIP/src/core/ipv4/etharp.c ****         /* For advanced routing, a single default gateway might not be enough, so get
 838:../../Middlewares/Third_Party/LwIP/src/core/ipv4/etharp.c ****            the IP address of the gateway to handle the current destination address. */
 839:../../Middlewares/Third_Party/LwIP/src/core/ipv4/etharp.c ****         dst_addr = LWIP_HOOK_ETHARP_GET_GW(netif, ipaddr);
 840:../../Middlewares/Third_Party/LwIP/src/core/ipv4/etharp.c ****         if (dst_addr == NULL)
 841:../../Middlewares/Third_Party/LwIP/src/core/ipv4/etharp.c **** #endif /* LWIP_HOOK_ETHARP_GET_GW */
 842:../../Middlewares/Third_Party/LwIP/src/core/ipv4/etharp.c ****         {
 843:../../Middlewares/Third_Party/LwIP/src/core/ipv4/etharp.c ****           /* interface has default gateway? */
 844:../../Middlewares/Third_Party/LwIP/src/core/ipv4/etharp.c ****           if (!ip4_addr_isany_val(*netif_ip4_gw(netif))) {
 845:../../Middlewares/Third_Party/LwIP/src/core/ipv4/etharp.c ****             /* send to hardware address of default gateway IP address */
 846:../../Middlewares/Third_Party/LwIP/src/core/ipv4/etharp.c ****             dst_addr = netif_ip4_gw(netif);
 847:../../Middlewares/Third_Party/LwIP/src/core/ipv4/etharp.c ****             /* no default gateway available */
 848:../../Middlewares/Third_Party/LwIP/src/core/ipv4/etharp.c ****           } else {
 849:../../Middlewares/Third_Party/LwIP/src/core/ipv4/etharp.c ****             /* no route to destination error (default gateway missing) */
 850:../../Middlewares/Third_Party/LwIP/src/core/ipv4/etharp.c ****             return ERR_RTE;
 851:../../Middlewares/Third_Party/LwIP/src/core/ipv4/etharp.c ****           }
 852:../../Middlewares/Third_Party/LwIP/src/core/ipv4/etharp.c ****         }
 853:../../Middlewares/Third_Party/LwIP/src/core/ipv4/etharp.c ****       }
 854:../../Middlewares/Third_Party/LwIP/src/core/ipv4/etharp.c ****     }
 855:../../Middlewares/Third_Party/LwIP/src/core/ipv4/etharp.c **** #if LWIP_NETIF_HWADDRHINT
 856:../../Middlewares/Third_Party/LwIP/src/core/ipv4/etharp.c ****     if (netif->hints != NULL) {
 857:../../Middlewares/Third_Party/LwIP/src/core/ipv4/etharp.c ****       /* per-pcb cached entry was given */
 858:../../Middlewares/Third_Party/LwIP/src/core/ipv4/etharp.c ****       netif_addr_idx_t etharp_cached_entry = netif->hints->addr_hint;
 859:../../Middlewares/Third_Party/LwIP/src/core/ipv4/etharp.c ****       if (etharp_cached_entry < ARP_TABLE_SIZE) {
 860:../../Middlewares/Third_Party/LwIP/src/core/ipv4/etharp.c **** #endif /* LWIP_NETIF_HWADDRHINT */
 861:../../Middlewares/Third_Party/LwIP/src/core/ipv4/etharp.c ****         if ((arp_table[etharp_cached_entry].state >= ETHARP_STATE_STABLE) &&
 862:../../Middlewares/Third_Party/LwIP/src/core/ipv4/etharp.c **** #if ETHARP_TABLE_MATCH_NETIF
 863:../../Middlewares/Third_Party/LwIP/src/core/ipv4/etharp.c ****             (arp_table[etharp_cached_entry].netif == netif) &&
 864:../../Middlewares/Third_Party/LwIP/src/core/ipv4/etharp.c **** #endif
 865:../../Middlewares/Third_Party/LwIP/src/core/ipv4/etharp.c ****             (ip4_addr_cmp(dst_addr, &arp_table[etharp_cached_entry].ipaddr))) {
 866:../../Middlewares/Third_Party/LwIP/src/core/ipv4/etharp.c ****           /* the per-pcb-cached entry is stable and the right one! */
 867:../../Middlewares/Third_Party/LwIP/src/core/ipv4/etharp.c ****           ETHARP_STATS_INC(etharp.cachehit);
 868:../../Middlewares/Third_Party/LwIP/src/core/ipv4/etharp.c ****           return etharp_output_to_arp_index(netif, q, etharp_cached_entry);
 869:../../Middlewares/Third_Party/LwIP/src/core/ipv4/etharp.c ****         }
 870:../../Middlewares/Third_Party/LwIP/src/core/ipv4/etharp.c **** #if LWIP_NETIF_HWADDRHINT
 871:../../Middlewares/Third_Party/LwIP/src/core/ipv4/etharp.c ****       }
 872:../../Middlewares/Third_Party/LwIP/src/core/ipv4/etharp.c ****     }
 873:../../Middlewares/Third_Party/LwIP/src/core/ipv4/etharp.c **** #endif /* LWIP_NETIF_HWADDRHINT */
 874:../../Middlewares/Third_Party/LwIP/src/core/ipv4/etharp.c **** 
 875:../../Middlewares/Third_Party/LwIP/src/core/ipv4/etharp.c ****     /* find stable entry: do this here since this is a critical path for
 876:../../Middlewares/Third_Party/LwIP/src/core/ipv4/etharp.c ****        throughput and etharp_find_entry() is kind of slow */
 877:../../Middlewares/Third_Party/LwIP/src/core/ipv4/etharp.c ****     for (i = 0; i < ARP_TABLE_SIZE; i++) {
 878:../../Middlewares/Third_Party/LwIP/src/core/ipv4/etharp.c ****       if ((arp_table[i].state >= ETHARP_STATE_STABLE) &&
 879:../../Middlewares/Third_Party/LwIP/src/core/ipv4/etharp.c **** #if ETHARP_TABLE_MATCH_NETIF
 880:../../Middlewares/Third_Party/LwIP/src/core/ipv4/etharp.c ****           (arp_table[i].netif == netif) &&
 881:../../Middlewares/Third_Party/LwIP/src/core/ipv4/etharp.c **** #endif
 882:../../Middlewares/Third_Party/LwIP/src/core/ipv4/etharp.c ****           (ip4_addr_cmp(dst_addr, &arp_table[i].ipaddr))) {
 883:../../Middlewares/Third_Party/LwIP/src/core/ipv4/etharp.c ****         /* found an existing, stable entry */
 884:../../Middlewares/Third_Party/LwIP/src/core/ipv4/etharp.c ****         ETHARP_SET_ADDRHINT(netif, i);
 885:../../Middlewares/Third_Party/LwIP/src/core/ipv4/etharp.c ****         return etharp_output_to_arp_index(netif, q, i);
 886:../../Middlewares/Third_Party/LwIP/src/core/ipv4/etharp.c ****       }
ARM GAS  C:\Users\minis\AppData\Local\Temp\ccY56pkX.s 			page 33


 887:../../Middlewares/Third_Party/LwIP/src/core/ipv4/etharp.c ****     }
 888:../../Middlewares/Third_Party/LwIP/src/core/ipv4/etharp.c ****     /* no stable entry found, use the (slower) query function:
 889:../../Middlewares/Third_Party/LwIP/src/core/ipv4/etharp.c ****        queue on destination Ethernet address belonging to ipaddr */
 890:../../Middlewares/Third_Party/LwIP/src/core/ipv4/etharp.c ****     return etharp_query(netif, dst_addr, q);
 891:../../Middlewares/Third_Party/LwIP/src/core/ipv4/etharp.c ****   }
 892:../../Middlewares/Third_Party/LwIP/src/core/ipv4/etharp.c **** 
 893:../../Middlewares/Third_Party/LwIP/src/core/ipv4/etharp.c ****   /* continuation for multicast/broadcast destinations */
 894:../../Middlewares/Third_Party/LwIP/src/core/ipv4/etharp.c ****   /* obtain source Ethernet address of the given interface */
 895:../../Middlewares/Third_Party/LwIP/src/core/ipv4/etharp.c ****   /* send packet directly on the link */
 896:../../Middlewares/Third_Party/LwIP/src/core/ipv4/etharp.c ****   return ethernet_output(netif, q, (struct eth_addr *)(netif->hwaddr), dest, ETHTYPE_IP);
 897:../../Middlewares/Third_Party/LwIP/src/core/ipv4/etharp.c **** }
 898:../../Middlewares/Third_Party/LwIP/src/core/ipv4/etharp.c **** 
 899:../../Middlewares/Third_Party/LwIP/src/core/ipv4/etharp.c **** /**
 900:../../Middlewares/Third_Party/LwIP/src/core/ipv4/etharp.c ****  * Send an ARP request for the given IP address and/or queue a packet.
 901:../../Middlewares/Third_Party/LwIP/src/core/ipv4/etharp.c ****  *
 902:../../Middlewares/Third_Party/LwIP/src/core/ipv4/etharp.c ****  * If the IP address was not yet in the cache, a pending ARP cache entry
 903:../../Middlewares/Third_Party/LwIP/src/core/ipv4/etharp.c ****  * is added and an ARP request is sent for the given address. The packet
 904:../../Middlewares/Third_Party/LwIP/src/core/ipv4/etharp.c ****  * is queued on this entry.
 905:../../Middlewares/Third_Party/LwIP/src/core/ipv4/etharp.c ****  *
 906:../../Middlewares/Third_Party/LwIP/src/core/ipv4/etharp.c ****  * If the IP address was already pending in the cache, a new ARP request
 907:../../Middlewares/Third_Party/LwIP/src/core/ipv4/etharp.c ****  * is sent for the given address. The packet is queued on this entry.
 908:../../Middlewares/Third_Party/LwIP/src/core/ipv4/etharp.c ****  *
 909:../../Middlewares/Third_Party/LwIP/src/core/ipv4/etharp.c ****  * If the IP address was already stable in the cache, and a packet is
 910:../../Middlewares/Third_Party/LwIP/src/core/ipv4/etharp.c ****  * given, it is directly sent and no ARP request is sent out.
 911:../../Middlewares/Third_Party/LwIP/src/core/ipv4/etharp.c ****  *
 912:../../Middlewares/Third_Party/LwIP/src/core/ipv4/etharp.c ****  * If the IP address was already stable in the cache, and no packet is
 913:../../Middlewares/Third_Party/LwIP/src/core/ipv4/etharp.c ****  * given, an ARP request is sent out.
 914:../../Middlewares/Third_Party/LwIP/src/core/ipv4/etharp.c ****  *
 915:../../Middlewares/Third_Party/LwIP/src/core/ipv4/etharp.c ****  * @param netif The lwIP network interface on which ipaddr
 916:../../Middlewares/Third_Party/LwIP/src/core/ipv4/etharp.c ****  * must be queried for.
 917:../../Middlewares/Third_Party/LwIP/src/core/ipv4/etharp.c ****  * @param ipaddr The IP address to be resolved.
 918:../../Middlewares/Third_Party/LwIP/src/core/ipv4/etharp.c ****  * @param q If non-NULL, a pbuf that must be delivered to the IP address.
 919:../../Middlewares/Third_Party/LwIP/src/core/ipv4/etharp.c ****  * q is not freed by this function.
 920:../../Middlewares/Third_Party/LwIP/src/core/ipv4/etharp.c ****  *
 921:../../Middlewares/Third_Party/LwIP/src/core/ipv4/etharp.c ****  * @note q must only be ONE packet, not a packet queue!
 922:../../Middlewares/Third_Party/LwIP/src/core/ipv4/etharp.c ****  *
 923:../../Middlewares/Third_Party/LwIP/src/core/ipv4/etharp.c ****  * @return
 924:../../Middlewares/Third_Party/LwIP/src/core/ipv4/etharp.c ****  * - ERR_BUF Could not make room for Ethernet header.
 925:../../Middlewares/Third_Party/LwIP/src/core/ipv4/etharp.c ****  * - ERR_MEM Hardware address unknown, and no more ARP entries available
 926:../../Middlewares/Third_Party/LwIP/src/core/ipv4/etharp.c ****  *   to query for address or queue the packet.
 927:../../Middlewares/Third_Party/LwIP/src/core/ipv4/etharp.c ****  * - ERR_MEM Could not queue packet due to memory shortage.
 928:../../Middlewares/Third_Party/LwIP/src/core/ipv4/etharp.c ****  * - ERR_RTE No route to destination (no gateway to external networks).
 929:../../Middlewares/Third_Party/LwIP/src/core/ipv4/etharp.c ****  * - ERR_ARG Non-unicast address given, those will not appear in ARP cache.
 930:../../Middlewares/Third_Party/LwIP/src/core/ipv4/etharp.c ****  *
 931:../../Middlewares/Third_Party/LwIP/src/core/ipv4/etharp.c ****  */
 932:../../Middlewares/Third_Party/LwIP/src/core/ipv4/etharp.c **** err_t
 933:../../Middlewares/Third_Party/LwIP/src/core/ipv4/etharp.c **** etharp_query(struct netif *netif, const ip4_addr_t *ipaddr, struct pbuf *q)
 934:../../Middlewares/Third_Party/LwIP/src/core/ipv4/etharp.c **** {
 935:../../Middlewares/Third_Party/LwIP/src/core/ipv4/etharp.c ****   struct eth_addr *srcaddr = (struct eth_addr *)netif->hwaddr;
 936:../../Middlewares/Third_Party/LwIP/src/core/ipv4/etharp.c ****   err_t result = ERR_MEM;
 937:../../Middlewares/Third_Party/LwIP/src/core/ipv4/etharp.c ****   int is_new_entry = 0;
 938:../../Middlewares/Third_Party/LwIP/src/core/ipv4/etharp.c ****   s16_t i_err;
 939:../../Middlewares/Third_Party/LwIP/src/core/ipv4/etharp.c ****   netif_addr_idx_t i;
 940:../../Middlewares/Third_Party/LwIP/src/core/ipv4/etharp.c **** 
 941:../../Middlewares/Third_Party/LwIP/src/core/ipv4/etharp.c ****   /* non-unicast address? */
 942:../../Middlewares/Third_Party/LwIP/src/core/ipv4/etharp.c ****   if (ip4_addr_isbroadcast(ipaddr, netif) ||
 943:../../Middlewares/Third_Party/LwIP/src/core/ipv4/etharp.c ****       ip4_addr_ismulticast(ipaddr) ||
ARM GAS  C:\Users\minis\AppData\Local\Temp\ccY56pkX.s 			page 34


 944:../../Middlewares/Third_Party/LwIP/src/core/ipv4/etharp.c ****       ip4_addr_isany(ipaddr)) {
 945:../../Middlewares/Third_Party/LwIP/src/core/ipv4/etharp.c ****     LWIP_DEBUGF(ETHARP_DEBUG | LWIP_DBG_TRACE, ("etharp_query: will not add non-unicast IP address 
 946:../../Middlewares/Third_Party/LwIP/src/core/ipv4/etharp.c ****     return ERR_ARG;
 947:../../Middlewares/Third_Party/LwIP/src/core/ipv4/etharp.c ****   }
 948:../../Middlewares/Third_Party/LwIP/src/core/ipv4/etharp.c **** 
 949:../../Middlewares/Third_Party/LwIP/src/core/ipv4/etharp.c ****   /* find entry in ARP cache, ask to create entry if queueing packet */
 950:../../Middlewares/Third_Party/LwIP/src/core/ipv4/etharp.c ****   i_err = etharp_find_entry(ipaddr, ETHARP_FLAG_TRY_HARD, netif);
 951:../../Middlewares/Third_Party/LwIP/src/core/ipv4/etharp.c **** 
 952:../../Middlewares/Third_Party/LwIP/src/core/ipv4/etharp.c ****   /* could not find or create entry? */
 953:../../Middlewares/Third_Party/LwIP/src/core/ipv4/etharp.c ****   if (i_err < 0) {
 954:../../Middlewares/Third_Party/LwIP/src/core/ipv4/etharp.c ****     LWIP_DEBUGF(ETHARP_DEBUG | LWIP_DBG_TRACE, ("etharp_query: could not create ARP entry\n"));
 955:../../Middlewares/Third_Party/LwIP/src/core/ipv4/etharp.c ****     if (q) {
 956:../../Middlewares/Third_Party/LwIP/src/core/ipv4/etharp.c ****       LWIP_DEBUGF(ETHARP_DEBUG | LWIP_DBG_TRACE, ("etharp_query: packet dropped\n"));
 957:../../Middlewares/Third_Party/LwIP/src/core/ipv4/etharp.c ****       ETHARP_STATS_INC(etharp.memerr);
 958:../../Middlewares/Third_Party/LwIP/src/core/ipv4/etharp.c ****     }
 959:../../Middlewares/Third_Party/LwIP/src/core/ipv4/etharp.c ****     return (err_t)i_err;
 960:../../Middlewares/Third_Party/LwIP/src/core/ipv4/etharp.c ****   }
 961:../../Middlewares/Third_Party/LwIP/src/core/ipv4/etharp.c ****   LWIP_ASSERT("type overflow", (size_t)i_err < NETIF_ADDR_IDX_MAX);
 962:../../Middlewares/Third_Party/LwIP/src/core/ipv4/etharp.c ****   i = (netif_addr_idx_t)i_err;
 963:../../Middlewares/Third_Party/LwIP/src/core/ipv4/etharp.c **** 
 964:../../Middlewares/Third_Party/LwIP/src/core/ipv4/etharp.c ****   /* mark a fresh entry as pending (we just sent a request) */
 965:../../Middlewares/Third_Party/LwIP/src/core/ipv4/etharp.c ****   if (arp_table[i].state == ETHARP_STATE_EMPTY) {
 966:../../Middlewares/Third_Party/LwIP/src/core/ipv4/etharp.c ****     is_new_entry = 1;
 967:../../Middlewares/Third_Party/LwIP/src/core/ipv4/etharp.c ****     arp_table[i].state = ETHARP_STATE_PENDING;
 968:../../Middlewares/Third_Party/LwIP/src/core/ipv4/etharp.c ****     /* record network interface for re-sending arp request in etharp_tmr */
 969:../../Middlewares/Third_Party/LwIP/src/core/ipv4/etharp.c ****     arp_table[i].netif = netif;
 970:../../Middlewares/Third_Party/LwIP/src/core/ipv4/etharp.c ****   }
 971:../../Middlewares/Third_Party/LwIP/src/core/ipv4/etharp.c **** 
 972:../../Middlewares/Third_Party/LwIP/src/core/ipv4/etharp.c ****   /* { i is either a STABLE or (new or existing) PENDING entry } */
 973:../../Middlewares/Third_Party/LwIP/src/core/ipv4/etharp.c ****   LWIP_ASSERT("arp_table[i].state == PENDING or STABLE",
 974:../../Middlewares/Third_Party/LwIP/src/core/ipv4/etharp.c ****               ((arp_table[i].state == ETHARP_STATE_PENDING) ||
 975:../../Middlewares/Third_Party/LwIP/src/core/ipv4/etharp.c ****                (arp_table[i].state >= ETHARP_STATE_STABLE)));
 976:../../Middlewares/Third_Party/LwIP/src/core/ipv4/etharp.c **** 
 977:../../Middlewares/Third_Party/LwIP/src/core/ipv4/etharp.c ****   /* do we have a new entry? or an implicit query request? */
 978:../../Middlewares/Third_Party/LwIP/src/core/ipv4/etharp.c ****   if (is_new_entry || (q == NULL)) {
 979:../../Middlewares/Third_Party/LwIP/src/core/ipv4/etharp.c ****     /* try to resolve it; send out ARP request */
 980:../../Middlewares/Third_Party/LwIP/src/core/ipv4/etharp.c ****     result = etharp_request(netif, ipaddr);
 981:../../Middlewares/Third_Party/LwIP/src/core/ipv4/etharp.c ****     if (result != ERR_OK) {
 982:../../Middlewares/Third_Party/LwIP/src/core/ipv4/etharp.c ****       /* ARP request couldn't be sent */
 983:../../Middlewares/Third_Party/LwIP/src/core/ipv4/etharp.c ****       /* We don't re-send arp request in etharp_tmr, but we still queue packets,
 984:../../Middlewares/Third_Party/LwIP/src/core/ipv4/etharp.c ****          since this failure could be temporary, and the next packet calling
 985:../../Middlewares/Third_Party/LwIP/src/core/ipv4/etharp.c ****          etharp_query again could lead to sending the queued packets. */
 986:../../Middlewares/Third_Party/LwIP/src/core/ipv4/etharp.c ****     }
 987:../../Middlewares/Third_Party/LwIP/src/core/ipv4/etharp.c ****     if (q == NULL) {
 988:../../Middlewares/Third_Party/LwIP/src/core/ipv4/etharp.c ****       return result;
 989:../../Middlewares/Third_Party/LwIP/src/core/ipv4/etharp.c ****     }
 990:../../Middlewares/Third_Party/LwIP/src/core/ipv4/etharp.c ****   }
 991:../../Middlewares/Third_Party/LwIP/src/core/ipv4/etharp.c **** 
 992:../../Middlewares/Third_Party/LwIP/src/core/ipv4/etharp.c ****   /* packet given? */
 993:../../Middlewares/Third_Party/LwIP/src/core/ipv4/etharp.c ****   LWIP_ASSERT("q != NULL", q != NULL);
 994:../../Middlewares/Third_Party/LwIP/src/core/ipv4/etharp.c ****   /* stable entry? */
 995:../../Middlewares/Third_Party/LwIP/src/core/ipv4/etharp.c ****   if (arp_table[i].state >= ETHARP_STATE_STABLE) {
 996:../../Middlewares/Third_Party/LwIP/src/core/ipv4/etharp.c ****     /* we have a valid IP->Ethernet address mapping */
 997:../../Middlewares/Third_Party/LwIP/src/core/ipv4/etharp.c ****     ETHARP_SET_ADDRHINT(netif, i);
 998:../../Middlewares/Third_Party/LwIP/src/core/ipv4/etharp.c ****     /* send the packet */
 999:../../Middlewares/Third_Party/LwIP/src/core/ipv4/etharp.c ****     result = ethernet_output(netif, q, srcaddr, &(arp_table[i].ethaddr), ETHTYPE_IP);
1000:../../Middlewares/Third_Party/LwIP/src/core/ipv4/etharp.c ****     /* pending entry? (either just created or already pending */
ARM GAS  C:\Users\minis\AppData\Local\Temp\ccY56pkX.s 			page 35


1001:../../Middlewares/Third_Party/LwIP/src/core/ipv4/etharp.c ****   } else if (arp_table[i].state == ETHARP_STATE_PENDING) {
1002:../../Middlewares/Third_Party/LwIP/src/core/ipv4/etharp.c ****     /* entry is still pending, queue the given packet 'q' */
1003:../../Middlewares/Third_Party/LwIP/src/core/ipv4/etharp.c ****     struct pbuf *p;
1004:../../Middlewares/Third_Party/LwIP/src/core/ipv4/etharp.c ****     int copy_needed = 0;
1005:../../Middlewares/Third_Party/LwIP/src/core/ipv4/etharp.c ****     /* IF q includes a pbuf that must be copied, copy the whole chain into a
1006:../../Middlewares/Third_Party/LwIP/src/core/ipv4/etharp.c ****      * new PBUF_RAM. See the definition of PBUF_NEEDS_COPY for details. */
1007:../../Middlewares/Third_Party/LwIP/src/core/ipv4/etharp.c ****     p = q;
1008:../../Middlewares/Third_Party/LwIP/src/core/ipv4/etharp.c ****     while (p) {
1009:../../Middlewares/Third_Party/LwIP/src/core/ipv4/etharp.c ****       LWIP_ASSERT("no packet queues allowed!", (p->len != p->tot_len) || (p->next == 0));
1010:../../Middlewares/Third_Party/LwIP/src/core/ipv4/etharp.c ****       if (PBUF_NEEDS_COPY(p)) {
1011:../../Middlewares/Third_Party/LwIP/src/core/ipv4/etharp.c ****         copy_needed = 1;
1012:../../Middlewares/Third_Party/LwIP/src/core/ipv4/etharp.c ****         break;
1013:../../Middlewares/Third_Party/LwIP/src/core/ipv4/etharp.c ****       }
1014:../../Middlewares/Third_Party/LwIP/src/core/ipv4/etharp.c ****       p = p->next;
1015:../../Middlewares/Third_Party/LwIP/src/core/ipv4/etharp.c ****     }
1016:../../Middlewares/Third_Party/LwIP/src/core/ipv4/etharp.c ****     if (copy_needed) {
1017:../../Middlewares/Third_Party/LwIP/src/core/ipv4/etharp.c ****       /* copy the whole packet into new pbufs */
1018:../../Middlewares/Third_Party/LwIP/src/core/ipv4/etharp.c ****       p = pbuf_clone(PBUF_LINK, PBUF_RAM, q);
1019:../../Middlewares/Third_Party/LwIP/src/core/ipv4/etharp.c ****     } else {
1020:../../Middlewares/Third_Party/LwIP/src/core/ipv4/etharp.c ****       /* referencing the old pbuf is enough */
1021:../../Middlewares/Third_Party/LwIP/src/core/ipv4/etharp.c ****       p = q;
1022:../../Middlewares/Third_Party/LwIP/src/core/ipv4/etharp.c ****       pbuf_ref(p);
1023:../../Middlewares/Third_Party/LwIP/src/core/ipv4/etharp.c ****     }
1024:../../Middlewares/Third_Party/LwIP/src/core/ipv4/etharp.c ****     /* packet could be taken over? */
1025:../../Middlewares/Third_Party/LwIP/src/core/ipv4/etharp.c ****     if (p != NULL) {
1026:../../Middlewares/Third_Party/LwIP/src/core/ipv4/etharp.c ****       /* queue packet ... */
1027:../../Middlewares/Third_Party/LwIP/src/core/ipv4/etharp.c **** #if ARP_QUEUEING
1028:../../Middlewares/Third_Party/LwIP/src/core/ipv4/etharp.c ****       struct etharp_q_entry *new_entry;
1029:../../Middlewares/Third_Party/LwIP/src/core/ipv4/etharp.c ****       /* allocate a new arp queue entry */
1030:../../Middlewares/Third_Party/LwIP/src/core/ipv4/etharp.c ****       new_entry = (struct etharp_q_entry *)memp_malloc(MEMP_ARP_QUEUE);
1031:../../Middlewares/Third_Party/LwIP/src/core/ipv4/etharp.c ****       if (new_entry != NULL) {
1032:../../Middlewares/Third_Party/LwIP/src/core/ipv4/etharp.c ****         unsigned int qlen = 0;
1033:../../Middlewares/Third_Party/LwIP/src/core/ipv4/etharp.c ****         new_entry->next = 0;
1034:../../Middlewares/Third_Party/LwIP/src/core/ipv4/etharp.c ****         new_entry->p = p;
1035:../../Middlewares/Third_Party/LwIP/src/core/ipv4/etharp.c ****         if (arp_table[i].q != NULL) {
1036:../../Middlewares/Third_Party/LwIP/src/core/ipv4/etharp.c ****           /* queue was already existent, append the new entry to the end */
1037:../../Middlewares/Third_Party/LwIP/src/core/ipv4/etharp.c ****           struct etharp_q_entry *r;
1038:../../Middlewares/Third_Party/LwIP/src/core/ipv4/etharp.c ****           r = arp_table[i].q;
1039:../../Middlewares/Third_Party/LwIP/src/core/ipv4/etharp.c ****           qlen++;
1040:../../Middlewares/Third_Party/LwIP/src/core/ipv4/etharp.c ****           while (r->next != NULL) {
1041:../../Middlewares/Third_Party/LwIP/src/core/ipv4/etharp.c ****             r = r->next;
1042:../../Middlewares/Third_Party/LwIP/src/core/ipv4/etharp.c ****             qlen++;
1043:../../Middlewares/Third_Party/LwIP/src/core/ipv4/etharp.c ****           }
1044:../../Middlewares/Third_Party/LwIP/src/core/ipv4/etharp.c ****           r->next = new_entry;
1045:../../Middlewares/Third_Party/LwIP/src/core/ipv4/etharp.c ****         } else {
1046:../../Middlewares/Third_Party/LwIP/src/core/ipv4/etharp.c ****           /* queue did not exist, first item in queue */
1047:../../Middlewares/Third_Party/LwIP/src/core/ipv4/etharp.c ****           arp_table[i].q = new_entry;
1048:../../Middlewares/Third_Party/LwIP/src/core/ipv4/etharp.c ****         }
1049:../../Middlewares/Third_Party/LwIP/src/core/ipv4/etharp.c **** #if ARP_QUEUE_LEN
1050:../../Middlewares/Third_Party/LwIP/src/core/ipv4/etharp.c ****         if (qlen >= ARP_QUEUE_LEN) {
1051:../../Middlewares/Third_Party/LwIP/src/core/ipv4/etharp.c ****           struct etharp_q_entry *old;
1052:../../Middlewares/Third_Party/LwIP/src/core/ipv4/etharp.c ****           old = arp_table[i].q;
1053:../../Middlewares/Third_Party/LwIP/src/core/ipv4/etharp.c ****           arp_table[i].q = arp_table[i].q->next;
1054:../../Middlewares/Third_Party/LwIP/src/core/ipv4/etharp.c ****           pbuf_free(old->p);
1055:../../Middlewares/Third_Party/LwIP/src/core/ipv4/etharp.c ****           memp_free(MEMP_ARP_QUEUE, old);
1056:../../Middlewares/Third_Party/LwIP/src/core/ipv4/etharp.c ****         }
1057:../../Middlewares/Third_Party/LwIP/src/core/ipv4/etharp.c **** #endif
ARM GAS  C:\Users\minis\AppData\Local\Temp\ccY56pkX.s 			page 36


1058:../../Middlewares/Third_Party/LwIP/src/core/ipv4/etharp.c ****         LWIP_DEBUGF(ETHARP_DEBUG | LWIP_DBG_TRACE, ("etharp_query: queued packet %p on ARP entry %"
1059:../../Middlewares/Third_Party/LwIP/src/core/ipv4/etharp.c ****         result = ERR_OK;
1060:../../Middlewares/Third_Party/LwIP/src/core/ipv4/etharp.c ****       } else {
1061:../../Middlewares/Third_Party/LwIP/src/core/ipv4/etharp.c ****         /* the pool MEMP_ARP_QUEUE is empty */
1062:../../Middlewares/Third_Party/LwIP/src/core/ipv4/etharp.c ****         pbuf_free(p);
1063:../../Middlewares/Third_Party/LwIP/src/core/ipv4/etharp.c ****         LWIP_DEBUGF(ETHARP_DEBUG | LWIP_DBG_TRACE, ("etharp_query: could not queue a copy of PBUF_R
1064:../../Middlewares/Third_Party/LwIP/src/core/ipv4/etharp.c ****         result = ERR_MEM;
1065:../../Middlewares/Third_Party/LwIP/src/core/ipv4/etharp.c ****       }
1066:../../Middlewares/Third_Party/LwIP/src/core/ipv4/etharp.c **** #else /* ARP_QUEUEING */
1067:../../Middlewares/Third_Party/LwIP/src/core/ipv4/etharp.c ****       /* always queue one packet per ARP request only, freeing a previously queued packet */
1068:../../Middlewares/Third_Party/LwIP/src/core/ipv4/etharp.c ****       if (arp_table[i].q != NULL) {
1069:../../Middlewares/Third_Party/LwIP/src/core/ipv4/etharp.c ****         LWIP_DEBUGF(ETHARP_DEBUG | LWIP_DBG_TRACE, ("etharp_query: dropped previously queued packet
1070:../../Middlewares/Third_Party/LwIP/src/core/ipv4/etharp.c ****         pbuf_free(arp_table[i].q);
1071:../../Middlewares/Third_Party/LwIP/src/core/ipv4/etharp.c ****       }
1072:../../Middlewares/Third_Party/LwIP/src/core/ipv4/etharp.c ****       arp_table[i].q = p;
1073:../../Middlewares/Third_Party/LwIP/src/core/ipv4/etharp.c ****       result = ERR_OK;
1074:../../Middlewares/Third_Party/LwIP/src/core/ipv4/etharp.c ****       LWIP_DEBUGF(ETHARP_DEBUG | LWIP_DBG_TRACE, ("etharp_query: queued packet %p on ARP entry %"U1
1075:../../Middlewares/Third_Party/LwIP/src/core/ipv4/etharp.c **** #endif /* ARP_QUEUEING */
1076:../../Middlewares/Third_Party/LwIP/src/core/ipv4/etharp.c ****     } else {
1077:../../Middlewares/Third_Party/LwIP/src/core/ipv4/etharp.c ****       ETHARP_STATS_INC(etharp.memerr);
1078:../../Middlewares/Third_Party/LwIP/src/core/ipv4/etharp.c ****       LWIP_DEBUGF(ETHARP_DEBUG | LWIP_DBG_TRACE, ("etharp_query: could not queue a copy of PBUF_REF
1079:../../Middlewares/Third_Party/LwIP/src/core/ipv4/etharp.c ****       result = ERR_MEM;
1080:../../Middlewares/Third_Party/LwIP/src/core/ipv4/etharp.c ****     }
1081:../../Middlewares/Third_Party/LwIP/src/core/ipv4/etharp.c ****   }
1082:../../Middlewares/Third_Party/LwIP/src/core/ipv4/etharp.c ****   return result;
1083:../../Middlewares/Third_Party/LwIP/src/core/ipv4/etharp.c **** }
1084:../../Middlewares/Third_Party/LwIP/src/core/ipv4/etharp.c **** 
1085:../../Middlewares/Third_Party/LwIP/src/core/ipv4/etharp.c **** /**
1086:../../Middlewares/Third_Party/LwIP/src/core/ipv4/etharp.c ****  * Send a raw ARP packet (opcode and all addresses can be modified)
1087:../../Middlewares/Third_Party/LwIP/src/core/ipv4/etharp.c ****  *
1088:../../Middlewares/Third_Party/LwIP/src/core/ipv4/etharp.c ****  * @param netif the lwip network interface on which to send the ARP packet
1089:../../Middlewares/Third_Party/LwIP/src/core/ipv4/etharp.c ****  * @param ethsrc_addr the source MAC address for the ethernet header
1090:../../Middlewares/Third_Party/LwIP/src/core/ipv4/etharp.c ****  * @param ethdst_addr the destination MAC address for the ethernet header
1091:../../Middlewares/Third_Party/LwIP/src/core/ipv4/etharp.c ****  * @param hwsrc_addr the source MAC address for the ARP protocol header
1092:../../Middlewares/Third_Party/LwIP/src/core/ipv4/etharp.c ****  * @param ipsrc_addr the source IP address for the ARP protocol header
1093:../../Middlewares/Third_Party/LwIP/src/core/ipv4/etharp.c ****  * @param hwdst_addr the destination MAC address for the ARP protocol header
1094:../../Middlewares/Third_Party/LwIP/src/core/ipv4/etharp.c ****  * @param ipdst_addr the destination IP address for the ARP protocol header
1095:../../Middlewares/Third_Party/LwIP/src/core/ipv4/etharp.c ****  * @param opcode the type of the ARP packet
1096:../../Middlewares/Third_Party/LwIP/src/core/ipv4/etharp.c ****  * @return ERR_OK if the ARP packet has been sent
1097:../../Middlewares/Third_Party/LwIP/src/core/ipv4/etharp.c ****  *         ERR_MEM if the ARP packet couldn't be allocated
1098:../../Middlewares/Third_Party/LwIP/src/core/ipv4/etharp.c ****  *         any other err_t on failure
1099:../../Middlewares/Third_Party/LwIP/src/core/ipv4/etharp.c ****  */
1100:../../Middlewares/Third_Party/LwIP/src/core/ipv4/etharp.c **** static err_t
1101:../../Middlewares/Third_Party/LwIP/src/core/ipv4/etharp.c **** etharp_raw(struct netif *netif, const struct eth_addr *ethsrc_addr,
1102:../../Middlewares/Third_Party/LwIP/src/core/ipv4/etharp.c ****            const struct eth_addr *ethdst_addr,
1103:../../Middlewares/Third_Party/LwIP/src/core/ipv4/etharp.c ****            const struct eth_addr *hwsrc_addr, const ip4_addr_t *ipsrc_addr,
1104:../../Middlewares/Third_Party/LwIP/src/core/ipv4/etharp.c ****            const struct eth_addr *hwdst_addr, const ip4_addr_t *ipdst_addr,
1105:../../Middlewares/Third_Party/LwIP/src/core/ipv4/etharp.c ****            const u16_t opcode)
1106:../../Middlewares/Third_Party/LwIP/src/core/ipv4/etharp.c **** {
 818              		.loc 1 1106 1 is_stmt 1 view -0
 819              		.cfi_startproc
 820              		@ args = 16, pretend = 0, frame = 0
 821              		@ frame_needed = 0, uses_anonymous_args = 0
 822              		.loc 1 1106 1 is_stmt 0 view .LVU227
 823 0000 2DE9F047 		push	{r4, r5, r6, r7, r8, r9, r10, lr}
 824              	.LCFI9:
 825              		.cfi_def_cfa_offset 32
ARM GAS  C:\Users\minis\AppData\Local\Temp\ccY56pkX.s 			page 37


 826              		.cfi_offset 4, -32
 827              		.cfi_offset 5, -28
 828              		.cfi_offset 6, -24
 829              		.cfi_offset 7, -20
 830              		.cfi_offset 8, -16
 831              		.cfi_offset 9, -12
 832              		.cfi_offset 10, -8
 833              		.cfi_offset 14, -4
 834 0004 82B0     		sub	sp, sp, #8
 835              	.LCFI10:
 836              		.cfi_def_cfa_offset 40
 837 0006 0F46     		mov	r7, r1
 838 0008 9046     		mov	r8, r2
 839 000a 1D46     		mov	r5, r3
 840 000c DDF82CA0 		ldr	r10, [sp, #44]
1107:../../Middlewares/Third_Party/LwIP/src/core/ipv4/etharp.c ****   struct pbuf *p;
 841              		.loc 1 1107 3 is_stmt 1 view .LVU228
1108:../../Middlewares/Third_Party/LwIP/src/core/ipv4/etharp.c ****   err_t result = ERR_OK;
 842              		.loc 1 1108 3 view .LVU229
 843              	.LVL80:
1109:../../Middlewares/Third_Party/LwIP/src/core/ipv4/etharp.c ****   struct etharp_hdr *hdr;
 844              		.loc 1 1109 3 view .LVU230
1110:../../Middlewares/Third_Party/LwIP/src/core/ipv4/etharp.c **** 
1111:../../Middlewares/Third_Party/LwIP/src/core/ipv4/etharp.c ****   LWIP_ASSERT("netif != NULL", netif != NULL);
 845              		.loc 1 1111 3 view .LVU231
 846              		.loc 1 1111 3 view .LVU232
 847 0010 8146     		mov	r9, r0
 848 0012 0028     		cmp	r0, #0
 849 0014 42D0     		beq	.L69
 850              	.LVL81:
 851              	.L63:
 852              		.loc 1 1111 3 view .LVU233
 853              		.loc 1 1111 3 view .LVU234
1112:../../Middlewares/Third_Party/LwIP/src/core/ipv4/etharp.c **** 
1113:../../Middlewares/Third_Party/LwIP/src/core/ipv4/etharp.c ****   /* allocate a pbuf for the outgoing ARP request packet */
1114:../../Middlewares/Third_Party/LwIP/src/core/ipv4/etharp.c ****   p = pbuf_alloc(PBUF_LINK, SIZEOF_ETHARP_HDR, PBUF_RAM);
 854              		.loc 1 1114 3 view .LVU235
 855              		.loc 1 1114 7 is_stmt 0 view .LVU236
 856 0016 4FF42072 		mov	r2, #640
 857 001a 1C21     		movs	r1, #28
 858 001c 0E20     		movs	r0, #14
 859 001e FFF7FEFF 		bl	pbuf_alloc
 860              	.LVL82:
1115:../../Middlewares/Third_Party/LwIP/src/core/ipv4/etharp.c ****   /* could allocate a pbuf for an ARP request? */
1116:../../Middlewares/Third_Party/LwIP/src/core/ipv4/etharp.c ****   if (p == NULL) {
 861              		.loc 1 1116 3 is_stmt 1 view .LVU237
 862              		.loc 1 1116 6 is_stmt 0 view .LVU238
 863 0022 0646     		mov	r6, r0
 864 0024 0028     		cmp	r0, #0
 865 0026 51D0     		beq	.L67
1117:../../Middlewares/Third_Party/LwIP/src/core/ipv4/etharp.c ****     LWIP_DEBUGF(ETHARP_DEBUG | LWIP_DBG_TRACE | LWIP_DBG_LEVEL_SERIOUS,
1118:../../Middlewares/Third_Party/LwIP/src/core/ipv4/etharp.c ****                 ("etharp_raw: could not allocate pbuf for ARP request.\n"));
1119:../../Middlewares/Third_Party/LwIP/src/core/ipv4/etharp.c ****     ETHARP_STATS_INC(etharp.memerr);
1120:../../Middlewares/Third_Party/LwIP/src/core/ipv4/etharp.c ****     return ERR_MEM;
1121:../../Middlewares/Third_Party/LwIP/src/core/ipv4/etharp.c ****   }
1122:../../Middlewares/Third_Party/LwIP/src/core/ipv4/etharp.c ****   LWIP_ASSERT("check that first pbuf can hold struct etharp_hdr",
 866              		.loc 1 1122 3 is_stmt 1 view .LVU239
ARM GAS  C:\Users\minis\AppData\Local\Temp\ccY56pkX.s 			page 38


 867              		.loc 1 1122 3 view .LVU240
 868 0028 4389     		ldrh	r3, [r0, #10]
 869 002a 1B2B     		cmp	r3, #27
 870 002c 3ED9     		bls	.L70
 871              	.LVL83:
 872              	.L65:
 873              		.loc 1 1122 3 view .LVU241
 874              		.loc 1 1122 3 view .LVU242
1123:../../Middlewares/Third_Party/LwIP/src/core/ipv4/etharp.c ****               (p->len >= SIZEOF_ETHARP_HDR));
1124:../../Middlewares/Third_Party/LwIP/src/core/ipv4/etharp.c **** 
1125:../../Middlewares/Third_Party/LwIP/src/core/ipv4/etharp.c ****   hdr = (struct etharp_hdr *)p->payload;
 875              		.loc 1 1125 3 view .LVU243
 876              		.loc 1 1125 7 is_stmt 0 view .LVU244
 877 002e 7468     		ldr	r4, [r6, #4]
 878              	.LVL84:
1126:../../Middlewares/Third_Party/LwIP/src/core/ipv4/etharp.c ****   LWIP_DEBUGF(ETHARP_DEBUG | LWIP_DBG_TRACE, ("etharp_raw: sending raw ARP packet.\n"));
 879              		.loc 1 1126 88 is_stmt 1 view .LVU245
1127:../../Middlewares/Third_Party/LwIP/src/core/ipv4/etharp.c ****   hdr->opcode = lwip_htons(opcode);
 880              		.loc 1 1127 3 view .LVU246
 881              		.loc 1 1127 17 is_stmt 0 view .LVU247
 882 0030 BDF83400 		ldrh	r0, [sp, #52]
 883 0034 FFF7FEFF 		bl	lwip_htons
 884              	.LVL85:
 885              		.loc 1 1127 15 discriminator 1 view .LVU248
 886 0038 E080     		strh	r0, [r4, #6]	@ unaligned
1128:../../Middlewares/Third_Party/LwIP/src/core/ipv4/etharp.c **** 
1129:../../Middlewares/Third_Party/LwIP/src/core/ipv4/etharp.c ****   LWIP_ASSERT("netif->hwaddr_len must be the same as ETH_HWADDR_LEN for etharp!",
 887              		.loc 1 1129 3 is_stmt 1 view .LVU249
 888              		.loc 1 1129 3 view .LVU250
 889 003a 99F82C30 		ldrb	r3, [r9, #44]	@ zero_extendqisi2
 890 003e 062B     		cmp	r3, #6
 891 0040 3CD1     		bne	.L71
 892              	.L66:
 893              		.loc 1 1129 3 view .LVU251
 894              		.loc 1 1129 3 view .LVU252
1130:../../Middlewares/Third_Party/LwIP/src/core/ipv4/etharp.c ****               (netif->hwaddr_len == ETH_HWADDR_LEN));
1131:../../Middlewares/Third_Party/LwIP/src/core/ipv4/etharp.c **** 
1132:../../Middlewares/Third_Party/LwIP/src/core/ipv4/etharp.c ****   /* Write the ARP MAC-Addresses */
1133:../../Middlewares/Third_Party/LwIP/src/core/ipv4/etharp.c ****   SMEMCPY(&hdr->shwaddr, hwsrc_addr, ETH_HWADDR_LEN);
 895              		.loc 1 1133 3 view .LVU253
 896 0042 2B68     		ldr	r3, [r5]	@ unaligned
 897 0044 A360     		str	r3, [r4, #8]	@ unaligned
 898 0046 AB88     		ldrh	r3, [r5, #4]	@ unaligned
 899 0048 A381     		strh	r3, [r4, #12]	@ unaligned
1134:../../Middlewares/Third_Party/LwIP/src/core/ipv4/etharp.c ****   SMEMCPY(&hdr->dhwaddr, hwdst_addr, ETH_HWADDR_LEN);
 900              		.loc 1 1134 3 view .LVU254
 901 004a DAF80030 		ldr	r3, [r10]	@ unaligned
 902 004e C4F81230 		str	r3, [r4, #18]	@ unaligned
 903 0052 BAF80430 		ldrh	r3, [r10, #4]	@ unaligned
 904 0056 E382     		strh	r3, [r4, #22]	@ unaligned
1135:../../Middlewares/Third_Party/LwIP/src/core/ipv4/etharp.c ****   /* Copy struct ip4_addr_wordaligned to aligned ip4_addr, to support compilers without
1136:../../Middlewares/Third_Party/LwIP/src/core/ipv4/etharp.c ****    * structure packing. */
1137:../../Middlewares/Third_Party/LwIP/src/core/ipv4/etharp.c ****   IPADDR_WORDALIGNED_COPY_FROM_IP4_ADDR_T(&hdr->sipaddr, ipsrc_addr);
 905              		.loc 1 1137 3 view .LVU255
 906 0058 0A9B     		ldr	r3, [sp, #40]
 907 005a 1B68     		ldr	r3, [r3]	@ unaligned
 908 005c C4F80E30 		str	r3, [r4, #14]	@ unaligned
ARM GAS  C:\Users\minis\AppData\Local\Temp\ccY56pkX.s 			page 39


1138:../../Middlewares/Third_Party/LwIP/src/core/ipv4/etharp.c ****   IPADDR_WORDALIGNED_COPY_FROM_IP4_ADDR_T(&hdr->dipaddr, ipdst_addr);
 909              		.loc 1 1138 3 view .LVU256
 910 0060 0C9B     		ldr	r3, [sp, #48]
 911 0062 1B68     		ldr	r3, [r3]	@ unaligned
 912 0064 A361     		str	r3, [r4, #24]	@ unaligned
1139:../../Middlewares/Third_Party/LwIP/src/core/ipv4/etharp.c **** 
1140:../../Middlewares/Third_Party/LwIP/src/core/ipv4/etharp.c ****   hdr->hwtype = PP_HTONS(LWIP_IANA_HWTYPE_ETHERNET);
 913              		.loc 1 1140 3 view .LVU257
 914              		.loc 1 1140 15 is_stmt 0 view .LVU258
 915 0066 0025     		movs	r5, #0
 916              	.LVL86:
 917              		.loc 1 1140 15 view .LVU259
 918 0068 2570     		strb	r5, [r4]
 919 006a 0123     		movs	r3, #1
 920 006c 6370     		strb	r3, [r4, #1]
1141:../../Middlewares/Third_Party/LwIP/src/core/ipv4/etharp.c ****   hdr->proto = PP_HTONS(ETHTYPE_IP);
 921              		.loc 1 1141 3 is_stmt 1 view .LVU260
 922              		.loc 1 1141 14 is_stmt 0 view .LVU261
 923 006e 0823     		movs	r3, #8
 924 0070 A370     		strb	r3, [r4, #2]
 925 0072 E570     		strb	r5, [r4, #3]
1142:../../Middlewares/Third_Party/LwIP/src/core/ipv4/etharp.c ****   /* set hwlen and protolen */
1143:../../Middlewares/Third_Party/LwIP/src/core/ipv4/etharp.c ****   hdr->hwlen = ETH_HWADDR_LEN;
 926              		.loc 1 1143 3 is_stmt 1 view .LVU262
 927              		.loc 1 1143 14 is_stmt 0 view .LVU263
 928 0074 0623     		movs	r3, #6
 929 0076 2371     		strb	r3, [r4, #4]
1144:../../Middlewares/Third_Party/LwIP/src/core/ipv4/etharp.c ****   hdr->protolen = sizeof(ip4_addr_t);
 930              		.loc 1 1144 3 is_stmt 1 view .LVU264
 931              		.loc 1 1144 17 is_stmt 0 view .LVU265
 932 0078 0423     		movs	r3, #4
 933 007a 6371     		strb	r3, [r4, #5]
1145:../../Middlewares/Third_Party/LwIP/src/core/ipv4/etharp.c **** 
1146:../../Middlewares/Third_Party/LwIP/src/core/ipv4/etharp.c ****   /* send ARP query */
1147:../../Middlewares/Third_Party/LwIP/src/core/ipv4/etharp.c **** #if LWIP_AUTOIP
1148:../../Middlewares/Third_Party/LwIP/src/core/ipv4/etharp.c ****   /* If we are using Link-Local, all ARP packets that contain a Link-Local
1149:../../Middlewares/Third_Party/LwIP/src/core/ipv4/etharp.c ****    * 'sender IP address' MUST be sent using link-layer broadcast instead of
1150:../../Middlewares/Third_Party/LwIP/src/core/ipv4/etharp.c ****    * link-layer unicast. (See RFC3927 Section 2.5, last paragraph) */
1151:../../Middlewares/Third_Party/LwIP/src/core/ipv4/etharp.c ****   if (ip4_addr_islinklocal(ipsrc_addr)) {
1152:../../Middlewares/Third_Party/LwIP/src/core/ipv4/etharp.c ****     ethernet_output(netif, p, ethsrc_addr, &ethbroadcast, ETHTYPE_ARP);
1153:../../Middlewares/Third_Party/LwIP/src/core/ipv4/etharp.c ****   } else
1154:../../Middlewares/Third_Party/LwIP/src/core/ipv4/etharp.c **** #endif /* LWIP_AUTOIP */
1155:../../Middlewares/Third_Party/LwIP/src/core/ipv4/etharp.c ****   {
1156:../../Middlewares/Third_Party/LwIP/src/core/ipv4/etharp.c ****     ethernet_output(netif, p, ethsrc_addr, ethdst_addr, ETHTYPE_ARP);
 934              		.loc 1 1156 5 is_stmt 1 view .LVU266
 935 007c 40F60603 		movw	r3, #2054
 936 0080 0093     		str	r3, [sp]
 937 0082 4346     		mov	r3, r8
 938 0084 3A46     		mov	r2, r7
 939 0086 3146     		mov	r1, r6
 940 0088 4846     		mov	r0, r9
 941 008a FFF7FEFF 		bl	ethernet_output
 942              	.LVL87:
1157:../../Middlewares/Third_Party/LwIP/src/core/ipv4/etharp.c ****   }
1158:../../Middlewares/Third_Party/LwIP/src/core/ipv4/etharp.c **** 
1159:../../Middlewares/Third_Party/LwIP/src/core/ipv4/etharp.c ****   ETHARP_STATS_INC(etharp.xmit);
 943              		.loc 1 1159 32 view .LVU267
ARM GAS  C:\Users\minis\AppData\Local\Temp\ccY56pkX.s 			page 40


1160:../../Middlewares/Third_Party/LwIP/src/core/ipv4/etharp.c ****   /* free ARP query packet */
1161:../../Middlewares/Third_Party/LwIP/src/core/ipv4/etharp.c ****   pbuf_free(p);
 944              		.loc 1 1161 3 view .LVU268
 945 008e 3046     		mov	r0, r6
 946 0090 FFF7FEFF 		bl	pbuf_free
 947              	.LVL88:
1162:../../Middlewares/Third_Party/LwIP/src/core/ipv4/etharp.c ****   p = NULL;
 948              		.loc 1 1162 3 view .LVU269
1163:../../Middlewares/Third_Party/LwIP/src/core/ipv4/etharp.c ****   /* could not allocate pbuf for ARP request */
1164:../../Middlewares/Third_Party/LwIP/src/core/ipv4/etharp.c **** 
1165:../../Middlewares/Third_Party/LwIP/src/core/ipv4/etharp.c ****   return result;
 949              		.loc 1 1165 3 view .LVU270
 950              		.loc 1 1165 10 is_stmt 0 view .LVU271
 951 0094 2846     		mov	r0, r5
 952              	.LVL89:
 953              	.L64:
1166:../../Middlewares/Third_Party/LwIP/src/core/ipv4/etharp.c **** }
 954              		.loc 1 1166 1 view .LVU272
 955 0096 02B0     		add	sp, sp, #8
 956              	.LCFI11:
 957              		.cfi_remember_state
 958              		.cfi_def_cfa_offset 32
 959              		@ sp needed
 960 0098 BDE8F087 		pop	{r4, r5, r6, r7, r8, r9, r10, pc}
 961              	.LVL90:
 962              	.L69:
 963              	.LCFI12:
 964              		.cfi_restore_state
1111:../../Middlewares/Third_Party/LwIP/src/core/ipv4/etharp.c **** 
 965              		.loc 1 1111 3 is_stmt 1 discriminator 1 view .LVU273
1111:../../Middlewares/Third_Party/LwIP/src/core/ipv4/etharp.c **** 
 966              		.loc 1 1111 3 discriminator 1 view .LVU274
 967 009c 0D4B     		ldr	r3, .L72
 968              	.LVL91:
1111:../../Middlewares/Third_Party/LwIP/src/core/ipv4/etharp.c **** 
 969              		.loc 1 1111 3 is_stmt 0 discriminator 1 view .LVU275
 970 009e 40F25742 		movw	r2, #1111
 971              	.LVL92:
1111:../../Middlewares/Third_Party/LwIP/src/core/ipv4/etharp.c **** 
 972              		.loc 1 1111 3 discriminator 1 view .LVU276
 973 00a2 0D49     		ldr	r1, .L72+4
 974              	.LVL93:
1111:../../Middlewares/Third_Party/LwIP/src/core/ipv4/etharp.c **** 
 975              		.loc 1 1111 3 discriminator 1 view .LVU277
 976 00a4 0D48     		ldr	r0, .L72+8
 977              	.LVL94:
1111:../../Middlewares/Third_Party/LwIP/src/core/ipv4/etharp.c **** 
 978              		.loc 1 1111 3 discriminator 1 view .LVU278
 979 00a6 FFF7FEFF 		bl	printf
 980              	.LVL95:
 981 00aa B4E7     		b	.L63
 982              	.LVL96:
 983              	.L70:
1122:../../Middlewares/Third_Party/LwIP/src/core/ipv4/etharp.c ****               (p->len >= SIZEOF_ETHARP_HDR));
 984              		.loc 1 1122 3 is_stmt 1 discriminator 1 view .LVU279
1122:../../Middlewares/Third_Party/LwIP/src/core/ipv4/etharp.c ****               (p->len >= SIZEOF_ETHARP_HDR));
 985              		.loc 1 1122 3 discriminator 1 view .LVU280
ARM GAS  C:\Users\minis\AppData\Local\Temp\ccY56pkX.s 			page 41


 986 00ac 094B     		ldr	r3, .L72
 987 00ae 40F26242 		movw	r2, #1122
 988 00b2 0B49     		ldr	r1, .L72+12
 989 00b4 0948     		ldr	r0, .L72+8
 990              	.LVL97:
1122:../../Middlewares/Third_Party/LwIP/src/core/ipv4/etharp.c ****               (p->len >= SIZEOF_ETHARP_HDR));
 991              		.loc 1 1122 3 is_stmt 0 discriminator 1 view .LVU281
 992 00b6 FFF7FEFF 		bl	printf
 993              	.LVL98:
 994 00ba B8E7     		b	.L65
 995              	.LVL99:
 996              	.L71:
1129:../../Middlewares/Third_Party/LwIP/src/core/ipv4/etharp.c ****               (netif->hwaddr_len == ETH_HWADDR_LEN));
 997              		.loc 1 1129 3 is_stmt 1 discriminator 1 view .LVU282
1129:../../Middlewares/Third_Party/LwIP/src/core/ipv4/etharp.c ****               (netif->hwaddr_len == ETH_HWADDR_LEN));
 998              		.loc 1 1129 3 discriminator 1 view .LVU283
 999 00bc 054B     		ldr	r3, .L72
 1000 00be 40F26942 		movw	r2, #1129
 1001 00c2 0849     		ldr	r1, .L72+16
 1002 00c4 0548     		ldr	r0, .L72+8
 1003 00c6 FFF7FEFF 		bl	printf
 1004              	.LVL100:
 1005 00ca BAE7     		b	.L66
 1006              	.LVL101:
 1007              	.L67:
1120:../../Middlewares/Third_Party/LwIP/src/core/ipv4/etharp.c ****   }
 1008              		.loc 1 1120 12 is_stmt 0 view .LVU284
 1009 00cc 4FF0FF30 		mov	r0, #-1
 1010              	.LVL102:
1120:../../Middlewares/Third_Party/LwIP/src/core/ipv4/etharp.c ****   }
 1011              		.loc 1 1120 12 view .LVU285
 1012 00d0 E1E7     		b	.L64
 1013              	.L73:
 1014 00d2 00BF     		.align	2
 1015              	.L72:
 1016 00d4 00000000 		.word	.LC0
 1017 00d8 00000000 		.word	.LC8
 1018 00dc 48000000 		.word	.LC2
 1019 00e0 10000000 		.word	.LC9
 1020 00e4 44000000 		.word	.LC10
 1021              		.cfi_endproc
 1022              	.LFE182:
 1024              		.section	.text.etharp_request_dst,"ax",%progbits
 1025              		.align	1
 1026              		.syntax unified
 1027              		.thumb
 1028              		.thumb_func
 1030              	etharp_request_dst:
 1031              	.LVL103:
 1032              	.LFB183:
1167:../../Middlewares/Third_Party/LwIP/src/core/ipv4/etharp.c **** 
1168:../../Middlewares/Third_Party/LwIP/src/core/ipv4/etharp.c **** /**
1169:../../Middlewares/Third_Party/LwIP/src/core/ipv4/etharp.c ****  * Send an ARP request packet asking for ipaddr to a specific eth address.
1170:../../Middlewares/Third_Party/LwIP/src/core/ipv4/etharp.c ****  * Used to send unicast request to refresh the ARP table just before an entry
1171:../../Middlewares/Third_Party/LwIP/src/core/ipv4/etharp.c ****  * times out
1172:../../Middlewares/Third_Party/LwIP/src/core/ipv4/etharp.c ****  *
1173:../../Middlewares/Third_Party/LwIP/src/core/ipv4/etharp.c ****  * @param netif the lwip network interface on which to send the request
ARM GAS  C:\Users\minis\AppData\Local\Temp\ccY56pkX.s 			page 42


1174:../../Middlewares/Third_Party/LwIP/src/core/ipv4/etharp.c ****  * @param ipaddr the IP address for which to ask
1175:../../Middlewares/Third_Party/LwIP/src/core/ipv4/etharp.c ****  * @param hw_dst_addr the ethernet address to send this packet to
1176:../../Middlewares/Third_Party/LwIP/src/core/ipv4/etharp.c ****  * @return ERR_OK if the request has been sent
1177:../../Middlewares/Third_Party/LwIP/src/core/ipv4/etharp.c ****  *         ERR_MEM if the ARP packet couldn't be allocated
1178:../../Middlewares/Third_Party/LwIP/src/core/ipv4/etharp.c ****  *         any other err_t on failure
1179:../../Middlewares/Third_Party/LwIP/src/core/ipv4/etharp.c ****  */
1180:../../Middlewares/Third_Party/LwIP/src/core/ipv4/etharp.c **** static err_t
1181:../../Middlewares/Third_Party/LwIP/src/core/ipv4/etharp.c **** etharp_request_dst(struct netif *netif, const ip4_addr_t *ipaddr, const struct eth_addr *hw_dst_add
1182:../../Middlewares/Third_Party/LwIP/src/core/ipv4/etharp.c **** {
 1033              		.loc 1 1182 1 is_stmt 1 view -0
 1034              		.cfi_startproc
 1035              		@ args = 0, pretend = 0, frame = 0
 1036              		@ frame_needed = 0, uses_anonymous_args = 0
 1037              		.loc 1 1182 1 is_stmt 0 view .LVU287
 1038 0000 30B5     		push	{r4, r5, lr}
 1039              	.LCFI13:
 1040              		.cfi_def_cfa_offset 12
 1041              		.cfi_offset 4, -12
 1042              		.cfi_offset 5, -8
 1043              		.cfi_offset 14, -4
 1044 0002 85B0     		sub	sp, sp, #20
 1045              	.LCFI14:
 1046              		.cfi_def_cfa_offset 32
1183:../../Middlewares/Third_Party/LwIP/src/core/ipv4/etharp.c ****   return etharp_raw(netif, (struct eth_addr *)netif->hwaddr, hw_dst_addr,
 1047              		.loc 1 1183 3 is_stmt 1 view .LVU288
 1048              		.loc 1 1183 47 is_stmt 0 view .LVU289
 1049 0004 00F12603 		add	r3, r0, #38
1184:../../Middlewares/Third_Party/LwIP/src/core/ipv4/etharp.c ****                     (struct eth_addr *)netif->hwaddr, netif_ip4_addr(netif), &ethzero,
 1050              		.loc 1 1184 55 view .LVU290
 1051 0008 041D     		adds	r4, r0, #4
1183:../../Middlewares/Third_Party/LwIP/src/core/ipv4/etharp.c ****   return etharp_raw(netif, (struct eth_addr *)netif->hwaddr, hw_dst_addr,
 1052              		.loc 1 1183 10 view .LVU291
 1053 000a 0125     		movs	r5, #1
 1054 000c 0395     		str	r5, [sp, #12]
 1055 000e 0291     		str	r1, [sp, #8]
 1056 0010 0349     		ldr	r1, .L76
 1057              	.LVL104:
1183:../../Middlewares/Third_Party/LwIP/src/core/ipv4/etharp.c ****   return etharp_raw(netif, (struct eth_addr *)netif->hwaddr, hw_dst_addr,
 1058              		.loc 1 1183 10 view .LVU292
 1059 0012 0191     		str	r1, [sp, #4]
 1060 0014 0094     		str	r4, [sp]
 1061 0016 1946     		mov	r1, r3
 1062 0018 FFF7FEFF 		bl	etharp_raw
 1063              	.LVL105:
1185:../../Middlewares/Third_Party/LwIP/src/core/ipv4/etharp.c ****                     ipaddr, ARP_REQUEST);
1186:../../Middlewares/Third_Party/LwIP/src/core/ipv4/etharp.c **** }
 1064              		.loc 1 1186 1 view .LVU293
 1065 001c 05B0     		add	sp, sp, #20
 1066              	.LCFI15:
 1067              		.cfi_def_cfa_offset 12
 1068              		@ sp needed
 1069 001e 30BD     		pop	{r4, r5, pc}
 1070              	.LVL106:
 1071              	.L77:
 1072              		.loc 1 1186 1 view .LVU294
 1073              		.align	2
 1074              	.L76:
ARM GAS  C:\Users\minis\AppData\Local\Temp\ccY56pkX.s 			page 43


 1075 0020 00000000 		.word	ethzero
 1076              		.cfi_endproc
 1077              	.LFE183:
 1079              		.section	.text.etharp_cleanup_netif,"ax",%progbits
 1080              		.align	1
 1081              		.global	etharp_cleanup_netif
 1082              		.syntax unified
 1083              		.thumb
 1084              		.thumb_func
 1086              	etharp_cleanup_netif:
 1087              	.LVL107:
 1088              	.LFB175:
 560:../../Middlewares/Third_Party/LwIP/src/core/ipv4/etharp.c ****   int i;
 1089              		.loc 1 560 1 is_stmt 1 view -0
 1090              		.cfi_startproc
 1091              		@ args = 0, pretend = 0, frame = 0
 1092              		@ frame_needed = 0, uses_anonymous_args = 0
 560:../../Middlewares/Third_Party/LwIP/src/core/ipv4/etharp.c ****   int i;
 1093              		.loc 1 560 1 is_stmt 0 view .LVU296
 1094 0000 38B5     		push	{r3, r4, r5, lr}
 1095              	.LCFI16:
 1096              		.cfi_def_cfa_offset 16
 1097              		.cfi_offset 3, -16
 1098              		.cfi_offset 4, -12
 1099              		.cfi_offset 5, -8
 1100              		.cfi_offset 14, -4
 1101 0002 0546     		mov	r5, r0
 561:../../Middlewares/Third_Party/LwIP/src/core/ipv4/etharp.c **** 
 1102              		.loc 1 561 3 is_stmt 1 view .LVU297
 563:../../Middlewares/Third_Party/LwIP/src/core/ipv4/etharp.c ****     u8_t state = arp_table[i].state;
 1103              		.loc 1 563 3 view .LVU298
 1104              	.LVL108:
 563:../../Middlewares/Third_Party/LwIP/src/core/ipv4/etharp.c ****     u8_t state = arp_table[i].state;
 1105              		.loc 1 563 10 is_stmt 0 view .LVU299
 1106 0004 0024     		movs	r4, #0
 563:../../Middlewares/Third_Party/LwIP/src/core/ipv4/etharp.c ****     u8_t state = arp_table[i].state;
 1107              		.loc 1 563 3 view .LVU300
 1108 0006 00E0     		b	.L79
 1109              	.LVL109:
 1110              	.L80:
 563:../../Middlewares/Third_Party/LwIP/src/core/ipv4/etharp.c ****     u8_t state = arp_table[i].state;
 1111              		.loc 1 563 35 is_stmt 1 discriminator 2 view .LVU301
 1112 0008 0134     		adds	r4, r4, #1
 1113              	.LVL110:
 1114              	.L79:
 563:../../Middlewares/Third_Party/LwIP/src/core/ipv4/etharp.c ****     u8_t state = arp_table[i].state;
 1115              		.loc 1 563 17 discriminator 1 view .LVU302
 1116 000a 092C     		cmp	r4, #9
 1117 000c 11DC     		bgt	.L83
 1118              	.LBB6:
 564:../../Middlewares/Third_Party/LwIP/src/core/ipv4/etharp.c ****     if ((state != ETHARP_STATE_EMPTY) && (arp_table[i].netif == netif)) {
 1119              		.loc 1 564 5 view .LVU303
 564:../../Middlewares/Third_Party/LwIP/src/core/ipv4/etharp.c ****     if ((state != ETHARP_STATE_EMPTY) && (arp_table[i].netif == netif)) {
 1120              		.loc 1 564 10 is_stmt 0 view .LVU304
 1121 000e 04EB4402 		add	r2, r4, r4, lsl #1
 1122 0012 084B     		ldr	r3, .L84
 1123 0014 03EBC203 		add	r3, r3, r2, lsl #3
ARM GAS  C:\Users\minis\AppData\Local\Temp\ccY56pkX.s 			page 44


 1124 0018 1B7D     		ldrb	r3, [r3, #20]	@ zero_extendqisi2
 1125              	.LVL111:
 565:../../Middlewares/Third_Party/LwIP/src/core/ipv4/etharp.c ****       etharp_free_entry(i);
 1126              		.loc 1 565 5 is_stmt 1 view .LVU305
 565:../../Middlewares/Third_Party/LwIP/src/core/ipv4/etharp.c ****       etharp_free_entry(i);
 1127              		.loc 1 565 8 is_stmt 0 view .LVU306
 1128 001a 002B     		cmp	r3, #0
 1129 001c F4D0     		beq	.L80
 565:../../Middlewares/Third_Party/LwIP/src/core/ipv4/etharp.c ****       etharp_free_entry(i);
 1130              		.loc 1 565 55 discriminator 1 view .LVU307
 1131 001e 054B     		ldr	r3, .L84
 1132              	.LVL112:
 565:../../Middlewares/Third_Party/LwIP/src/core/ipv4/etharp.c ****       etharp_free_entry(i);
 1133              		.loc 1 565 55 discriminator 1 view .LVU308
 1134 0020 03EBC203 		add	r3, r3, r2, lsl #3
 1135              	.LVL113:
 565:../../Middlewares/Third_Party/LwIP/src/core/ipv4/etharp.c ****       etharp_free_entry(i);
 1136              		.loc 1 565 55 discriminator 1 view .LVU309
 1137 0024 9B68     		ldr	r3, [r3, #8]
 1138              	.LVL114:
 565:../../Middlewares/Third_Party/LwIP/src/core/ipv4/etharp.c ****       etharp_free_entry(i);
 1139              		.loc 1 565 39 discriminator 1 view .LVU310
 1140 0026 AB42     		cmp	r3, r5
 1141 0028 EED1     		bne	.L80
 566:../../Middlewares/Third_Party/LwIP/src/core/ipv4/etharp.c ****     }
 1142              		.loc 1 566 7 is_stmt 1 view .LVU311
 1143 002a 2046     		mov	r0, r4
 1144 002c FFF7FEFF 		bl	etharp_free_entry
 1145              	.LVL115:
 566:../../Middlewares/Third_Party/LwIP/src/core/ipv4/etharp.c ****     }
 1146              		.loc 1 566 7 is_stmt 0 view .LVU312
 1147 0030 EAE7     		b	.L80
 1148              	.LVL116:
 1149              	.L83:
 566:../../Middlewares/Third_Party/LwIP/src/core/ipv4/etharp.c ****     }
 1150              		.loc 1 566 7 view .LVU313
 1151              	.LBE6:
 569:../../Middlewares/Third_Party/LwIP/src/core/ipv4/etharp.c **** 
 1152              		.loc 1 569 1 view .LVU314
 1153 0032 38BD     		pop	{r3, r4, r5, pc}
 1154              	.LVL117:
 1155              	.L85:
 569:../../Middlewares/Third_Party/LwIP/src/core/ipv4/etharp.c **** 
 1156              		.loc 1 569 1 view .LVU315
 1157              		.align	2
 1158              	.L84:
 1159 0034 00000000 		.word	arp_table
 1160              		.cfi_endproc
 1161              	.LFE175:
 1163              		.section	.rodata.etharp_find_addr.str1.4,"aMS",%progbits,1
 1164              		.align	2
 1165              	.LC11:
 1166 0000 6574685F 		.ascii	"eth_ret != NULL && ip_ret != NULL\000"
 1166      72657420 
 1166      213D204E 
 1166      554C4C20 
 1166      26262069 
ARM GAS  C:\Users\minis\AppData\Local\Temp\ccY56pkX.s 			page 45


 1167              		.section	.text.etharp_find_addr,"ax",%progbits
 1168              		.align	1
 1169              		.global	etharp_find_addr
 1170              		.syntax unified
 1171              		.thumb
 1172              		.thumb_func
 1174              	etharp_find_addr:
 1175              	.LVL118:
 1176              	.LFB176:
 585:../../Middlewares/Third_Party/LwIP/src/core/ipv4/etharp.c ****   s16_t i;
 1177              		.loc 1 585 1 is_stmt 1 view -0
 1178              		.cfi_startproc
 1179              		@ args = 0, pretend = 0, frame = 0
 1180              		@ frame_needed = 0, uses_anonymous_args = 0
 585:../../Middlewares/Third_Party/LwIP/src/core/ipv4/etharp.c ****   s16_t i;
 1181              		.loc 1 585 1 is_stmt 0 view .LVU317
 1182 0000 F8B5     		push	{r3, r4, r5, r6, r7, lr}
 1183              	.LCFI17:
 1184              		.cfi_def_cfa_offset 24
 1185              		.cfi_offset 3, -24
 1186              		.cfi_offset 4, -20
 1187              		.cfi_offset 5, -16
 1188              		.cfi_offset 6, -12
 1189              		.cfi_offset 7, -8
 1190              		.cfi_offset 14, -4
 1191 0002 0746     		mov	r7, r0
 1192 0004 0C46     		mov	r4, r1
 1193 0006 1646     		mov	r6, r2
 1194 0008 1D46     		mov	r5, r3
 586:../../Middlewares/Third_Party/LwIP/src/core/ipv4/etharp.c **** 
 1195              		.loc 1 586 3 is_stmt 1 view .LVU318
 588:../../Middlewares/Third_Party/LwIP/src/core/ipv4/etharp.c ****               eth_ret != NULL && ip_ret != NULL);
 1196              		.loc 1 588 3 view .LVU319
 588:../../Middlewares/Third_Party/LwIP/src/core/ipv4/etharp.c ****               eth_ret != NULL && ip_ret != NULL);
 1197              		.loc 1 588 3 view .LVU320
 1198 000a 002B     		cmp	r3, #0
 1199 000c 18BF     		it	ne
 1200 000e 002A     		cmpne	r2, #0
 1201 0010 1AD0     		beq	.L92
 1202              	.LVL119:
 1203              	.L87:
 588:../../Middlewares/Third_Party/LwIP/src/core/ipv4/etharp.c ****               eth_ret != NULL && ip_ret != NULL);
 1204              		.loc 1 588 3 view .LVU321
 588:../../Middlewares/Third_Party/LwIP/src/core/ipv4/etharp.c ****               eth_ret != NULL && ip_ret != NULL);
 1205              		.loc 1 588 3 view .LVU322
 591:../../Middlewares/Third_Party/LwIP/src/core/ipv4/etharp.c **** 
 1206              		.loc 1 591 3 view .LVU323
 593:../../Middlewares/Third_Party/LwIP/src/core/ipv4/etharp.c ****   if ((i >= 0) && (arp_table[i].state >= ETHARP_STATE_STABLE)) {
 1207              		.loc 1 593 3 view .LVU324
 593:../../Middlewares/Third_Party/LwIP/src/core/ipv4/etharp.c ****   if ((i >= 0) && (arp_table[i].state >= ETHARP_STATE_STABLE)) {
 1208              		.loc 1 593 7 is_stmt 0 view .LVU325
 1209 0012 3A46     		mov	r2, r7
 1210 0014 0221     		movs	r1, #2
 1211 0016 2046     		mov	r0, r4
 1212 0018 FFF7FEFF 		bl	etharp_find_entry
 1213              	.LVL120:
 594:../../Middlewares/Third_Party/LwIP/src/core/ipv4/etharp.c ****     *eth_ret = &arp_table[i].ethaddr;
ARM GAS  C:\Users\minis\AppData\Local\Temp\ccY56pkX.s 			page 46


 1214              		.loc 1 594 3 is_stmt 1 view .LVU326
 594:../../Middlewares/Third_Party/LwIP/src/core/ipv4/etharp.c ****     *eth_ret = &arp_table[i].ethaddr;
 1215              		.loc 1 594 6 is_stmt 0 view .LVU327
 1216 001c 011E     		subs	r1, r0, #0
 1217 001e 1BDB     		blt	.L89
 594:../../Middlewares/Third_Party/LwIP/src/core/ipv4/etharp.c ****     *eth_ret = &arp_table[i].ethaddr;
 1218              		.loc 1 594 32 discriminator 1 view .LVU328
 1219 0020 0846     		mov	r0, r1
 594:../../Middlewares/Third_Party/LwIP/src/core/ipv4/etharp.c ****     *eth_ret = &arp_table[i].ethaddr;
 1220              		.loc 1 594 32 discriminator 1 view .LVU329
 1221 0022 01EB4102 		add	r2, r1, r1, lsl #1
 1222 0026 0F4B     		ldr	r3, .L93
 1223 0028 03EBC203 		add	r3, r3, r2, lsl #3
 1224 002c 1B7D     		ldrb	r3, [r3, #20]	@ zero_extendqisi2
 594:../../Middlewares/Third_Party/LwIP/src/core/ipv4/etharp.c ****     *eth_ret = &arp_table[i].ethaddr;
 1225              		.loc 1 594 16 discriminator 1 view .LVU330
 1226 002e 012B     		cmp	r3, #1
 1227 0030 15D9     		bls	.L90
 595:../../Middlewares/Third_Party/LwIP/src/core/ipv4/etharp.c ****     *ip_ret = &arp_table[i].ipaddr;
 1228              		.loc 1 595 5 is_stmt 1 view .LVU331
 595:../../Middlewares/Third_Party/LwIP/src/core/ipv4/etharp.c ****     *ip_ret = &arp_table[i].ipaddr;
 1229              		.loc 1 595 16 is_stmt 0 view .LVU332
 1230 0032 D400     		lsls	r4, r2, #3
 1231              	.LVL121:
 595:../../Middlewares/Third_Party/LwIP/src/core/ipv4/etharp.c ****     *ip_ret = &arp_table[i].ipaddr;
 1232              		.loc 1 595 16 view .LVU333
 1233 0034 0834     		adds	r4, r4, #8
 1234 0036 0B4B     		ldr	r3, .L93
 1235 0038 1C44     		add	r4, r4, r3
 1236 003a 0434     		adds	r4, r4, #4
 595:../../Middlewares/Third_Party/LwIP/src/core/ipv4/etharp.c ****     *ip_ret = &arp_table[i].ipaddr;
 1237              		.loc 1 595 14 view .LVU334
 1238 003c 3460     		str	r4, [r6]
 596:../../Middlewares/Third_Party/LwIP/src/core/ipv4/etharp.c ****     return i;
 1239              		.loc 1 596 5 is_stmt 1 view .LVU335
 596:../../Middlewares/Third_Party/LwIP/src/core/ipv4/etharp.c ****     return i;
 1240              		.loc 1 596 15 is_stmt 0 view .LVU336
 1241 003e 03EBC203 		add	r3, r3, r2, lsl #3
 1242 0042 0433     		adds	r3, r3, #4
 596:../../Middlewares/Third_Party/LwIP/src/core/ipv4/etharp.c ****     return i;
 1243              		.loc 1 596 13 view .LVU337
 1244 0044 2B60     		str	r3, [r5]
 597:../../Middlewares/Third_Party/LwIP/src/core/ipv4/etharp.c ****   }
 1245              		.loc 1 597 5 is_stmt 1 view .LVU338
 1246              	.LVL122:
 1247              	.L86:
 600:../../Middlewares/Third_Party/LwIP/src/core/ipv4/etharp.c **** 
 1248              		.loc 1 600 1 is_stmt 0 view .LVU339
 1249 0046 F8BD     		pop	{r3, r4, r5, r6, r7, pc}
 1250              	.LVL123:
 1251              	.L92:
 588:../../Middlewares/Third_Party/LwIP/src/core/ipv4/etharp.c ****               eth_ret != NULL && ip_ret != NULL);
 1252              		.loc 1 588 3 is_stmt 1 discriminator 1 view .LVU340
 588:../../Middlewares/Third_Party/LwIP/src/core/ipv4/etharp.c ****               eth_ret != NULL && ip_ret != NULL);
 1253              		.loc 1 588 3 discriminator 1 view .LVU341
 1254 0048 074B     		ldr	r3, .L93+4
 1255              	.LVL124:
ARM GAS  C:\Users\minis\AppData\Local\Temp\ccY56pkX.s 			page 47


 588:../../Middlewares/Third_Party/LwIP/src/core/ipv4/etharp.c ****               eth_ret != NULL && ip_ret != NULL);
 1256              		.loc 1 588 3 is_stmt 0 discriminator 1 view .LVU342
 1257 004a 4FF41372 		mov	r2, #588
 1258              	.LVL125:
 588:../../Middlewares/Third_Party/LwIP/src/core/ipv4/etharp.c ****               eth_ret != NULL && ip_ret != NULL);
 1259              		.loc 1 588 3 discriminator 1 view .LVU343
 1260 004e 0749     		ldr	r1, .L93+8
 1261              	.LVL126:
 588:../../Middlewares/Third_Party/LwIP/src/core/ipv4/etharp.c ****               eth_ret != NULL && ip_ret != NULL);
 1262              		.loc 1 588 3 discriminator 1 view .LVU344
 1263 0050 0748     		ldr	r0, .L93+12
 1264              	.LVL127:
 588:../../Middlewares/Third_Party/LwIP/src/core/ipv4/etharp.c ****               eth_ret != NULL && ip_ret != NULL);
 1265              		.loc 1 588 3 discriminator 1 view .LVU345
 1266 0052 FFF7FEFF 		bl	printf
 1267              	.LVL128:
 1268 0056 DCE7     		b	.L87
 1269              	.LVL129:
 1270              	.L89:
 599:../../Middlewares/Third_Party/LwIP/src/core/ipv4/etharp.c **** }
 1271              		.loc 1 599 10 view .LVU346
 1272 0058 4FF0FF30 		mov	r0, #-1
 1273              	.LVL130:
 599:../../Middlewares/Third_Party/LwIP/src/core/ipv4/etharp.c **** }
 1274              		.loc 1 599 10 view .LVU347
 1275 005c F3E7     		b	.L86
 1276              	.LVL131:
 1277              	.L90:
 599:../../Middlewares/Third_Party/LwIP/src/core/ipv4/etharp.c **** }
 1278              		.loc 1 599 10 view .LVU348
 1279 005e 4FF0FF30 		mov	r0, #-1
 1280              	.LVL132:
 599:../../Middlewares/Third_Party/LwIP/src/core/ipv4/etharp.c **** }
 1281              		.loc 1 599 10 view .LVU349
 1282 0062 F0E7     		b	.L86
 1283              	.L94:
 1284              		.align	2
 1285              	.L93:
 1286 0064 00000000 		.word	arp_table
 1287 0068 00000000 		.word	.LC0
 1288 006c 00000000 		.word	.LC11
 1289 0070 48000000 		.word	.LC2
 1290              		.cfi_endproc
 1291              	.LFE176:
 1293              		.section	.rodata.etharp_get_entry.str1.4,"aMS",%progbits,1
 1294              		.align	2
 1295              	.LC12:
 1296 0000 69706164 		.ascii	"ipaddr != NULL\000"
 1296      64722021 
 1296      3D204E55 
 1296      4C4C00
 1297 000f 00       		.align	2
 1298              	.LC13:
 1299 0010 6574685F 		.ascii	"eth_ret != NULL\000"
 1299      72657420 
 1299      213D204E 
 1299      554C4C00 
ARM GAS  C:\Users\minis\AppData\Local\Temp\ccY56pkX.s 			page 48


 1300              		.section	.text.etharp_get_entry,"ax",%progbits
 1301              		.align	1
 1302              		.global	etharp_get_entry
 1303              		.syntax unified
 1304              		.thumb
 1305              		.thumb_func
 1307              	etharp_get_entry:
 1308              	.LVL133:
 1309              	.LFB177:
 613:../../Middlewares/Third_Party/LwIP/src/core/ipv4/etharp.c ****   LWIP_ASSERT("ipaddr != NULL", ipaddr != NULL);
 1310              		.loc 1 613 1 is_stmt 1 view -0
 1311              		.cfi_startproc
 1312              		@ args = 0, pretend = 0, frame = 0
 1313              		@ frame_needed = 0, uses_anonymous_args = 0
 613:../../Middlewares/Third_Party/LwIP/src/core/ipv4/etharp.c ****   LWIP_ASSERT("ipaddr != NULL", ipaddr != NULL);
 1314              		.loc 1 613 1 is_stmt 0 view .LVU351
 1315 0000 F8B5     		push	{r3, r4, r5, r6, r7, lr}
 1316              	.LCFI18:
 1317              		.cfi_def_cfa_offset 24
 1318              		.cfi_offset 3, -24
 1319              		.cfi_offset 4, -20
 1320              		.cfi_offset 5, -16
 1321              		.cfi_offset 6, -12
 1322              		.cfi_offset 7, -8
 1323              		.cfi_offset 14, -4
 1324 0002 0446     		mov	r4, r0
 1325 0004 1646     		mov	r6, r2
 1326 0006 1D46     		mov	r5, r3
 614:../../Middlewares/Third_Party/LwIP/src/core/ipv4/etharp.c ****   LWIP_ASSERT("netif != NULL", netif != NULL);
 1327              		.loc 1 614 3 is_stmt 1 view .LVU352
 614:../../Middlewares/Third_Party/LwIP/src/core/ipv4/etharp.c ****   LWIP_ASSERT("netif != NULL", netif != NULL);
 1328              		.loc 1 614 3 view .LVU353
 1329 0008 0F46     		mov	r7, r1
 1330 000a D9B1     		cbz	r1, .L103
 1331              	.LVL134:
 1332              	.L96:
 614:../../Middlewares/Third_Party/LwIP/src/core/ipv4/etharp.c ****   LWIP_ASSERT("netif != NULL", netif != NULL);
 1333              		.loc 1 614 3 view .LVU354
 614:../../Middlewares/Third_Party/LwIP/src/core/ipv4/etharp.c ****   LWIP_ASSERT("netif != NULL", netif != NULL);
 1334              		.loc 1 614 3 view .LVU355
 615:../../Middlewares/Third_Party/LwIP/src/core/ipv4/etharp.c ****   LWIP_ASSERT("eth_ret != NULL", eth_ret != NULL);
 1335              		.loc 1 615 3 view .LVU356
 615:../../Middlewares/Third_Party/LwIP/src/core/ipv4/etharp.c ****   LWIP_ASSERT("eth_ret != NULL", eth_ret != NULL);
 1336              		.loc 1 615 3 view .LVU357
 1337 000c 16B3     		cbz	r6, .L104
 1338              	.L97:
 615:../../Middlewares/Third_Party/LwIP/src/core/ipv4/etharp.c ****   LWIP_ASSERT("eth_ret != NULL", eth_ret != NULL);
 1339              		.loc 1 615 3 view .LVU358
 615:../../Middlewares/Third_Party/LwIP/src/core/ipv4/etharp.c ****   LWIP_ASSERT("eth_ret != NULL", eth_ret != NULL);
 1340              		.loc 1 615 3 view .LVU359
 616:../../Middlewares/Third_Party/LwIP/src/core/ipv4/etharp.c **** 
 1341              		.loc 1 616 3 view .LVU360
 616:../../Middlewares/Third_Party/LwIP/src/core/ipv4/etharp.c **** 
 1342              		.loc 1 616 3 view .LVU361
 1343 000e 4DB3     		cbz	r5, .L105
 1344              	.L98:
 616:../../Middlewares/Third_Party/LwIP/src/core/ipv4/etharp.c **** 
ARM GAS  C:\Users\minis\AppData\Local\Temp\ccY56pkX.s 			page 49


 1345              		.loc 1 616 3 view .LVU362
 616:../../Middlewares/Third_Party/LwIP/src/core/ipv4/etharp.c **** 
 1346              		.loc 1 616 3 view .LVU363
 618:../../Middlewares/Third_Party/LwIP/src/core/ipv4/etharp.c ****     *ipaddr  = &arp_table[i].ipaddr;
 1347              		.loc 1 618 3 view .LVU364
 618:../../Middlewares/Third_Party/LwIP/src/core/ipv4/etharp.c ****     *ipaddr  = &arp_table[i].ipaddr;
 1348              		.loc 1 618 6 is_stmt 0 view .LVU365
 1349 0010 092C     		cmp	r4, #9
 1350 0012 2FD8     		bhi	.L100
 618:../../Middlewares/Third_Party/LwIP/src/core/ipv4/etharp.c ****     *ipaddr  = &arp_table[i].ipaddr;
 1351              		.loc 1 618 44 discriminator 1 view .LVU366
 1352 0014 04EB4402 		add	r2, r4, r4, lsl #1
 1353 0018 184B     		ldr	r3, .L106
 1354 001a 03EBC203 		add	r3, r3, r2, lsl #3
 1355 001e 1B7D     		ldrb	r3, [r3, #20]	@ zero_extendqisi2
 618:../../Middlewares/Third_Party/LwIP/src/core/ipv4/etharp.c ****     *ipaddr  = &arp_table[i].ipaddr;
 1356              		.loc 1 618 28 discriminator 1 view .LVU367
 1357 0020 012B     		cmp	r3, #1
 1358 0022 29D9     		bls	.L101
 619:../../Middlewares/Third_Party/LwIP/src/core/ipv4/etharp.c ****     *netif   = arp_table[i].netif;
 1359              		.loc 1 619 5 is_stmt 1 view .LVU368
 619:../../Middlewares/Third_Party/LwIP/src/core/ipv4/etharp.c ****     *netif   = arp_table[i].netif;
 1360              		.loc 1 619 16 is_stmt 0 view .LVU369
 1361 0024 1549     		ldr	r1, .L106
 1362 0026 01EBC203 		add	r3, r1, r2, lsl #3
 1363 002a 1A1D     		adds	r2, r3, #4
 619:../../Middlewares/Third_Party/LwIP/src/core/ipv4/etharp.c ****     *netif   = arp_table[i].netif;
 1364              		.loc 1 619 14 view .LVU370
 1365 002c 3A60     		str	r2, [r7]
 620:../../Middlewares/Third_Party/LwIP/src/core/ipv4/etharp.c ****     *eth_ret = &arp_table[i].ethaddr;
 1366              		.loc 1 620 5 is_stmt 1 view .LVU371
 620:../../Middlewares/Third_Party/LwIP/src/core/ipv4/etharp.c ****     *eth_ret = &arp_table[i].ethaddr;
 1367              		.loc 1 620 28 is_stmt 0 view .LVU372
 1368 002e 9B68     		ldr	r3, [r3, #8]
 620:../../Middlewares/Third_Party/LwIP/src/core/ipv4/etharp.c ****     *eth_ret = &arp_table[i].ethaddr;
 1369              		.loc 1 620 14 view .LVU373
 1370 0030 3360     		str	r3, [r6]
 621:../../Middlewares/Third_Party/LwIP/src/core/ipv4/etharp.c ****     return 1;
 1371              		.loc 1 621 5 is_stmt 1 view .LVU374
 621:../../Middlewares/Third_Party/LwIP/src/core/ipv4/etharp.c ****     return 1;
 1372              		.loc 1 621 16 is_stmt 0 view .LVU375
 1373 0032 04EB4402 		add	r2, r4, r4, lsl #1
 1374 0036 D200     		lsls	r2, r2, #3
 1375 0038 0832     		adds	r2, r2, #8
 1376 003a 0A44     		add	r2, r2, r1
 1377 003c 0432     		adds	r2, r2, #4
 621:../../Middlewares/Third_Party/LwIP/src/core/ipv4/etharp.c ****     return 1;
 1378              		.loc 1 621 14 view .LVU376
 1379 003e 2A60     		str	r2, [r5]
 622:../../Middlewares/Third_Party/LwIP/src/core/ipv4/etharp.c ****   } else {
 1380              		.loc 1 622 5 is_stmt 1 view .LVU377
 622:../../Middlewares/Third_Party/LwIP/src/core/ipv4/etharp.c ****   } else {
 1381              		.loc 1 622 12 is_stmt 0 view .LVU378
 1382 0040 0120     		movs	r0, #1
 1383              	.L95:
 626:../../Middlewares/Third_Party/LwIP/src/core/ipv4/etharp.c **** 
 1384              		.loc 1 626 1 view .LVU379
ARM GAS  C:\Users\minis\AppData\Local\Temp\ccY56pkX.s 			page 50


 1385 0042 F8BD     		pop	{r3, r4, r5, r6, r7, pc}
 1386              	.LVL135:
 1387              	.L103:
 614:../../Middlewares/Third_Party/LwIP/src/core/ipv4/etharp.c ****   LWIP_ASSERT("netif != NULL", netif != NULL);
 1388              		.loc 1 614 3 is_stmt 1 discriminator 1 view .LVU380
 614:../../Middlewares/Third_Party/LwIP/src/core/ipv4/etharp.c ****   LWIP_ASSERT("netif != NULL", netif != NULL);
 1389              		.loc 1 614 3 discriminator 1 view .LVU381
 1390 0044 0E4B     		ldr	r3, .L106+4
 1391              	.LVL136:
 614:../../Middlewares/Third_Party/LwIP/src/core/ipv4/etharp.c ****   LWIP_ASSERT("netif != NULL", netif != NULL);
 1392              		.loc 1 614 3 is_stmt 0 discriminator 1 view .LVU382
 1393 0046 40F26622 		movw	r2, #614
 1394              	.LVL137:
 614:../../Middlewares/Third_Party/LwIP/src/core/ipv4/etharp.c ****   LWIP_ASSERT("netif != NULL", netif != NULL);
 1395              		.loc 1 614 3 discriminator 1 view .LVU383
 1396 004a 0E49     		ldr	r1, .L106+8
 1397              	.LVL138:
 614:../../Middlewares/Third_Party/LwIP/src/core/ipv4/etharp.c ****   LWIP_ASSERT("netif != NULL", netif != NULL);
 1398              		.loc 1 614 3 discriminator 1 view .LVU384
 1399 004c 0E48     		ldr	r0, .L106+12
 1400              	.LVL139:
 614:../../Middlewares/Third_Party/LwIP/src/core/ipv4/etharp.c ****   LWIP_ASSERT("netif != NULL", netif != NULL);
 1401              		.loc 1 614 3 discriminator 1 view .LVU385
 1402 004e FFF7FEFF 		bl	printf
 1403              	.LVL140:
 1404 0052 DBE7     		b	.L96
 1405              	.L104:
 615:../../Middlewares/Third_Party/LwIP/src/core/ipv4/etharp.c ****   LWIP_ASSERT("eth_ret != NULL", eth_ret != NULL);
 1406              		.loc 1 615 3 is_stmt 1 discriminator 1 view .LVU386
 615:../../Middlewares/Third_Party/LwIP/src/core/ipv4/etharp.c ****   LWIP_ASSERT("eth_ret != NULL", eth_ret != NULL);
 1407              		.loc 1 615 3 discriminator 1 view .LVU387
 1408 0054 0A4B     		ldr	r3, .L106+4
 1409 0056 40F26722 		movw	r2, #615
 1410 005a 0C49     		ldr	r1, .L106+16
 1411 005c 0A48     		ldr	r0, .L106+12
 1412 005e FFF7FEFF 		bl	printf
 1413              	.LVL141:
 1414 0062 D4E7     		b	.L97
 1415              	.L105:
 616:../../Middlewares/Third_Party/LwIP/src/core/ipv4/etharp.c **** 
 1416              		.loc 1 616 3 discriminator 1 view .LVU388
 616:../../Middlewares/Third_Party/LwIP/src/core/ipv4/etharp.c **** 
 1417              		.loc 1 616 3 discriminator 1 view .LVU389
 1418 0064 064B     		ldr	r3, .L106+4
 1419 0066 4FF41A72 		mov	r2, #616
 1420 006a 0949     		ldr	r1, .L106+20
 1421 006c 0648     		ldr	r0, .L106+12
 1422 006e FFF7FEFF 		bl	printf
 1423              	.LVL142:
 1424 0072 CDE7     		b	.L98
 1425              	.L100:
 624:../../Middlewares/Third_Party/LwIP/src/core/ipv4/etharp.c ****   }
 1426              		.loc 1 624 12 is_stmt 0 view .LVU390
 1427 0074 0020     		movs	r0, #0
 1428 0076 E4E7     		b	.L95
 1429              	.L101:
 1430 0078 0020     		movs	r0, #0
ARM GAS  C:\Users\minis\AppData\Local\Temp\ccY56pkX.s 			page 51


 1431 007a E2E7     		b	.L95
 1432              	.L107:
 1433              		.align	2
 1434              	.L106:
 1435 007c 00000000 		.word	arp_table
 1436 0080 00000000 		.word	.LC0
 1437 0084 00000000 		.word	.LC12
 1438 0088 48000000 		.word	.LC2
 1439 008c 00000000 		.word	.LC8
 1440 0090 10000000 		.word	.LC13
 1441              		.cfi_endproc
 1442              	.LFE177:
 1444              		.section	.text.etharp_input,"ax",%progbits
 1445              		.align	1
 1446              		.global	etharp_input
 1447              		.syntax unified
 1448              		.thumb
 1449              		.thumb_func
 1451              	etharp_input:
 1452              	.LVL143:
 1453              	.LFB178:
 642:../../Middlewares/Third_Party/LwIP/src/core/ipv4/etharp.c ****   struct etharp_hdr *hdr;
 1454              		.loc 1 642 1 is_stmt 1 view -0
 1455              		.cfi_startproc
 1456              		@ args = 0, pretend = 0, frame = 8
 1457              		@ frame_needed = 0, uses_anonymous_args = 0
 642:../../Middlewares/Third_Party/LwIP/src/core/ipv4/etharp.c ****   struct etharp_hdr *hdr;
 1458              		.loc 1 642 1 is_stmt 0 view .LVU392
 1459 0000 2DE9F041 		push	{r4, r5, r6, r7, r8, lr}
 1460              	.LCFI19:
 1461              		.cfi_def_cfa_offset 24
 1462              		.cfi_offset 4, -24
 1463              		.cfi_offset 5, -20
 1464              		.cfi_offset 6, -16
 1465              		.cfi_offset 7, -12
 1466              		.cfi_offset 8, -8
 1467              		.cfi_offset 14, -4
 1468 0004 86B0     		sub	sp, sp, #24
 1469              	.LCFI20:
 1470              		.cfi_def_cfa_offset 48
 643:../../Middlewares/Third_Party/LwIP/src/core/ipv4/etharp.c ****   /* these are aligned properly, whereas the ARP header fields might not be */
 1471              		.loc 1 643 3 is_stmt 1 view .LVU393
 645:../../Middlewares/Third_Party/LwIP/src/core/ipv4/etharp.c ****   u8_t for_us;
 1472              		.loc 1 645 3 view .LVU394
 646:../../Middlewares/Third_Party/LwIP/src/core/ipv4/etharp.c **** 
 1473              		.loc 1 646 3 view .LVU395
 648:../../Middlewares/Third_Party/LwIP/src/core/ipv4/etharp.c **** 
 1474              		.loc 1 648 28 view .LVU396
 650:../../Middlewares/Third_Party/LwIP/src/core/ipv4/etharp.c **** 
 1475              		.loc 1 650 3 view .LVU397
 650:../../Middlewares/Third_Party/LwIP/src/core/ipv4/etharp.c **** 
 1476              		.loc 1 650 3 view .LVU398
 1477 0006 A9B1     		cbz	r1, .L119
 1478 0008 0446     		mov	r4, r0
 1479 000a 0E46     		mov	r6, r1
 650:../../Middlewares/Third_Party/LwIP/src/core/ipv4/etharp.c **** 
 1480              		.loc 1 650 3 view .LVU399
ARM GAS  C:\Users\minis\AppData\Local\Temp\ccY56pkX.s 			page 52


 650:../../Middlewares/Third_Party/LwIP/src/core/ipv4/etharp.c **** 
 1481              		.loc 1 650 3 view .LVU400
 652:../../Middlewares/Third_Party/LwIP/src/core/ipv4/etharp.c **** 
 1482              		.loc 1 652 3 view .LVU401
 652:../../Middlewares/Third_Party/LwIP/src/core/ipv4/etharp.c **** 
 1483              		.loc 1 652 7 is_stmt 0 view .LVU402
 1484 000c 4568     		ldr	r5, [r0, #4]
 1485              	.LVL144:
 655:../../Middlewares/Third_Party/LwIP/src/core/ipv4/etharp.c ****       (hdr->hwlen != ETH_HWADDR_LEN) ||
 1486              		.loc 1 655 3 is_stmt 1 view .LVU403
 655:../../Middlewares/Third_Party/LwIP/src/core/ipv4/etharp.c ****       (hdr->hwlen != ETH_HWADDR_LEN) ||
 1487              		.loc 1 655 11 is_stmt 0 view .LVU404
 1488 000e 2B88     		ldrh	r3, [r5]	@ unaligned
 655:../../Middlewares/Third_Party/LwIP/src/core/ipv4/etharp.c ****       (hdr->hwlen != ETH_HWADDR_LEN) ||
 1489              		.loc 1 655 6 view .LVU405
 1490 0010 B3F5807F 		cmp	r3, #256
 1491 0014 08D1     		bne	.L111
 656:../../Middlewares/Third_Party/LwIP/src/core/ipv4/etharp.c ****       (hdr->protolen != sizeof(ip4_addr_t)) ||
 1492              		.loc 1 656 11 view .LVU406
 1493 0016 2B79     		ldrb	r3, [r5, #4]	@ zero_extendqisi2
 655:../../Middlewares/Third_Party/LwIP/src/core/ipv4/etharp.c ****       (hdr->hwlen != ETH_HWADDR_LEN) ||
 1494              		.loc 1 655 60 discriminator 1 view .LVU407
 1495 0018 062B     		cmp	r3, #6
 1496 001a 05D1     		bne	.L111
 657:../../Middlewares/Third_Party/LwIP/src/core/ipv4/etharp.c ****       (hdr->proto != PP_HTONS(ETHTYPE_IP)))  {
 1497              		.loc 1 657 11 view .LVU408
 1498 001c 6B79     		ldrb	r3, [r5, #5]	@ zero_extendqisi2
 656:../../Middlewares/Third_Party/LwIP/src/core/ipv4/etharp.c ****       (hdr->protolen != sizeof(ip4_addr_t)) ||
 1499              		.loc 1 656 38 view .LVU409
 1500 001e 042B     		cmp	r3, #4
 1501 0020 02D1     		bne	.L111
 658:../../Middlewares/Third_Party/LwIP/src/core/ipv4/etharp.c ****     LWIP_DEBUGF(ETHARP_DEBUG | LWIP_DBG_TRACE | LWIP_DBG_LEVEL_WARNING,
 1502              		.loc 1 658 11 view .LVU410
 1503 0022 6B88     		ldrh	r3, [r5, #2]	@ unaligned
 657:../../Middlewares/Third_Party/LwIP/src/core/ipv4/etharp.c ****       (hdr->proto != PP_HTONS(ETHTYPE_IP)))  {
 1504              		.loc 1 657 45 view .LVU411
 1505 0024 082B     		cmp	r3, #8
 1506 0026 0DD0     		beq	.L112
 1507              	.L111:
 661:../../Middlewares/Third_Party/LwIP/src/core/ipv4/etharp.c ****     ETHARP_STATS_INC(etharp.proterr);
 1508              		.loc 1 661 84 is_stmt 1 view .LVU412
 662:../../Middlewares/Third_Party/LwIP/src/core/ipv4/etharp.c ****     ETHARP_STATS_INC(etharp.drop);
 1509              		.loc 1 662 37 view .LVU413
 663:../../Middlewares/Third_Party/LwIP/src/core/ipv4/etharp.c ****     pbuf_free(p);
 1510              		.loc 1 663 34 view .LVU414
 664:../../Middlewares/Third_Party/LwIP/src/core/ipv4/etharp.c ****     return;
 1511              		.loc 1 664 5 view .LVU415
 1512 0028 2046     		mov	r0, r4
 1513              	.LVL145:
 664:../../Middlewares/Third_Party/LwIP/src/core/ipv4/etharp.c ****     return;
 1514              		.loc 1 664 5 is_stmt 0 view .LVU416
 1515 002a FFF7FEFF 		bl	pbuf_free
 1516              	.LVL146:
 665:../../Middlewares/Third_Party/LwIP/src/core/ipv4/etharp.c ****   }
 1517              		.loc 1 665 5 is_stmt 1 view .LVU417
 1518              	.L108:
 742:../../Middlewares/Third_Party/LwIP/src/core/ipv4/etharp.c **** 
ARM GAS  C:\Users\minis\AppData\Local\Temp\ccY56pkX.s 			page 53


 1519              		.loc 1 742 1 is_stmt 0 view .LVU418
 1520 002e 06B0     		add	sp, sp, #24
 1521              	.LCFI21:
 1522              		.cfi_remember_state
 1523              		.cfi_def_cfa_offset 24
 1524              		@ sp needed
 1525 0030 BDE8F081 		pop	{r4, r5, r6, r7, r8, pc}
 1526              	.LVL147:
 1527              	.L119:
 1528              	.LCFI22:
 1529              		.cfi_restore_state
 650:../../Middlewares/Third_Party/LwIP/src/core/ipv4/etharp.c **** 
 1530              		.loc 1 650 3 is_stmt 1 discriminator 1 view .LVU419
 650:../../Middlewares/Third_Party/LwIP/src/core/ipv4/etharp.c **** 
 1531              		.loc 1 650 3 discriminator 1 view .LVU420
 1532 0034 1D4B     		ldr	r3, .L121
 1533 0036 40F28A22 		movw	r2, #650
 1534 003a 1D49     		ldr	r1, .L121+4
 1535              	.LVL148:
 650:../../Middlewares/Third_Party/LwIP/src/core/ipv4/etharp.c **** 
 1536              		.loc 1 650 3 is_stmt 0 discriminator 1 view .LVU421
 1537 003c 1D48     		ldr	r0, .L121+8
 1538              	.LVL149:
 650:../../Middlewares/Third_Party/LwIP/src/core/ipv4/etharp.c **** 
 1539              		.loc 1 650 3 discriminator 1 view .LVU422
 1540 003e FFF7FEFF 		bl	printf
 1541              	.LVL150:
 650:../../Middlewares/Third_Party/LwIP/src/core/ipv4/etharp.c **** 
 1542              		.loc 1 650 3 is_stmt 1 discriminator 1 view .LVU423
 650:../../Middlewares/Third_Party/LwIP/src/core/ipv4/etharp.c **** 
 1543              		.loc 1 650 3 discriminator 1 view .LVU424
 650:../../Middlewares/Third_Party/LwIP/src/core/ipv4/etharp.c **** 
 1544              		.loc 1 650 3 is_stmt 0 view .LVU425
 1545 0042 F4E7     		b	.L108
 1546              	.LVL151:
 1547              	.L112:
 667:../../Middlewares/Third_Party/LwIP/src/core/ipv4/etharp.c **** 
 1548              		.loc 1 667 32 is_stmt 1 view .LVU426
 678:../../Middlewares/Third_Party/LwIP/src/core/ipv4/etharp.c ****   IPADDR_WORDALIGNED_COPY_TO_IP4_ADDR_T(&dipaddr, &hdr->dipaddr);
 1549              		.loc 1 678 3 view .LVU427
 1550 0044 D5F80E30 		ldr	r3, [r5, #14]	@ unaligned
 1551 0048 0593     		str	r3, [sp, #20]
 679:../../Middlewares/Third_Party/LwIP/src/core/ipv4/etharp.c **** 
 1552              		.loc 1 679 3 view .LVU428
 1553 004a AA69     		ldr	r2, [r5, #24]	@ unaligned
 682:../../Middlewares/Third_Party/LwIP/src/core/ipv4/etharp.c ****     for_us = 0;
 1554              		.loc 1 682 3 view .LVU429
 682:../../Middlewares/Third_Party/LwIP/src/core/ipv4/etharp.c ****     for_us = 0;
 1555              		.loc 1 682 7 is_stmt 0 view .LVU430
 1556 004c 4F68     		ldr	r7, [r1, #4]
 682:../../Middlewares/Third_Party/LwIP/src/core/ipv4/etharp.c ****     for_us = 0;
 1557              		.loc 1 682 6 view .LVU431
 1558 004e 7FB9     		cbnz	r7, .L113
 1559              	.LVL152:
 694:../../Middlewares/Third_Party/LwIP/src/core/ipv4/etharp.c ****                           for_us ? ETHARP_FLAG_TRY_HARD : ETHARP_FLAG_FIND_ONLY);
 1560              		.loc 1 694 3 is_stmt 1 view .LVU432
 1561 0050 05F10808 		add	r8, r5, #8
ARM GAS  C:\Users\minis\AppData\Local\Temp\ccY56pkX.s 			page 54


 694:../../Middlewares/Third_Party/LwIP/src/core/ipv4/etharp.c ****                           for_us ? ETHARP_FLAG_TRY_HARD : ETHARP_FLAG_FIND_ONLY);
 1562              		.loc 1 694 3 is_stmt 0 discriminator 2 view .LVU433
 1563 0054 0223     		movs	r3, #2
 1564              	.LVL153:
 1565              	.L114:
 694:../../Middlewares/Third_Party/LwIP/src/core/ipv4/etharp.c ****                           for_us ? ETHARP_FLAG_TRY_HARD : ETHARP_FLAG_FIND_ONLY);
 1566              		.loc 1 694 3 discriminator 4 view .LVU434
 1567 0056 4246     		mov	r2, r8
 1568 0058 05A9     		add	r1, sp, #20
 1569              	.LVL154:
 694:../../Middlewares/Third_Party/LwIP/src/core/ipv4/etharp.c ****                           for_us ? ETHARP_FLAG_TRY_HARD : ETHARP_FLAG_FIND_ONLY);
 1570              		.loc 1 694 3 discriminator 4 view .LVU435
 1571 005a 3046     		mov	r0, r6
 1572              	.LVL155:
 694:../../Middlewares/Third_Party/LwIP/src/core/ipv4/etharp.c ****                           for_us ? ETHARP_FLAG_TRY_HARD : ETHARP_FLAG_FIND_ONLY);
 1573              		.loc 1 694 3 discriminator 4 view .LVU436
 1574 005c FFF7FEFF 		bl	etharp_update_arp_entry
 1575              	.LVL156:
 698:../../Middlewares/Third_Party/LwIP/src/core/ipv4/etharp.c ****     /* ARP request? */
 1576              		.loc 1 698 3 is_stmt 1 view .LVU437
 698:../../Middlewares/Third_Party/LwIP/src/core/ipv4/etharp.c ****     /* ARP request? */
 1577              		.loc 1 698 14 is_stmt 0 view .LVU438
 1578 0060 EB88     		ldrh	r3, [r5, #6]	@ unaligned
 698:../../Middlewares/Third_Party/LwIP/src/core/ipv4/etharp.c ****     /* ARP request? */
 1579              		.loc 1 698 3 view .LVU439
 1580 0062 B3F5807F 		cmp	r3, #256
 1581 0066 0ED0     		beq	.L120
 1582              	.L115:
 741:../../Middlewares/Third_Party/LwIP/src/core/ipv4/etharp.c **** }
 1583              		.loc 1 741 3 is_stmt 1 view .LVU440
 1584 0068 2046     		mov	r0, r4
 1585 006a FFF7FEFF 		bl	pbuf_free
 1586              	.LVL157:
 1587 006e DEE7     		b	.L108
 1588              	.LVL158:
 1589              	.L113:
 686:../../Middlewares/Third_Party/LwIP/src/core/ipv4/etharp.c ****   }
 1590              		.loc 1 686 5 view .LVU441
 686:../../Middlewares/Third_Party/LwIP/src/core/ipv4/etharp.c ****   }
 1591              		.loc 1 686 14 is_stmt 0 view .LVU442
 1592 0070 9742     		cmp	r7, r2
 1593 0072 14BF     		ite	ne
 1594 0074 0027     		movne	r7, #0
 1595 0076 0127     		moveq	r7, #1
 1596              	.LVL159:
 694:../../Middlewares/Third_Party/LwIP/src/core/ipv4/etharp.c ****                           for_us ? ETHARP_FLAG_TRY_HARD : ETHARP_FLAG_FIND_ONLY);
 1597              		.loc 1 694 3 is_stmt 1 view .LVU443
 1598 0078 05F10808 		add	r8, r5, #8
 1599 007c 0FB1     		cbz	r7, .L117
 694:../../Middlewares/Third_Party/LwIP/src/core/ipv4/etharp.c ****                           for_us ? ETHARP_FLAG_TRY_HARD : ETHARP_FLAG_FIND_ONLY);
 1600              		.loc 1 694 3 is_stmt 0 discriminator 1 view .LVU444
 1601 007e 0123     		movs	r3, #1
 1602 0080 E9E7     		b	.L114
 1603              	.L117:
 694:../../Middlewares/Third_Party/LwIP/src/core/ipv4/etharp.c ****                           for_us ? ETHARP_FLAG_TRY_HARD : ETHARP_FLAG_FIND_ONLY);
 1604              		.loc 1 694 3 discriminator 2 view .LVU445
 1605 0082 0223     		movs	r3, #2
ARM GAS  C:\Users\minis\AppData\Local\Temp\ccY56pkX.s 			page 55


 1606 0084 E7E7     		b	.L114
 1607              	.LVL160:
 1608              	.L120:
 705:../../Middlewares/Third_Party/LwIP/src/core/ipv4/etharp.c ****       /* ARP request for our address? */
 1609              		.loc 1 705 92 is_stmt 1 view .LVU446
 707:../../Middlewares/Third_Party/LwIP/src/core/ipv4/etharp.c ****         /* send ARP response */
 1610              		.loc 1 707 7 view .LVU447
 707:../../Middlewares/Third_Party/LwIP/src/core/ipv4/etharp.c ****         /* send ARP response */
 1611              		.loc 1 707 10 is_stmt 0 view .LVU448
 1612 0086 002F     		cmp	r7, #0
 1613 0088 EED0     		beq	.L115
 709:../../Middlewares/Third_Party/LwIP/src/core/ipv4/etharp.c ****                    (struct eth_addr *)netif->hwaddr, &hdr->shwaddr,
 1614              		.loc 1 709 9 is_stmt 1 view .LVU449
 710:../../Middlewares/Third_Party/LwIP/src/core/ipv4/etharp.c ****                    (struct eth_addr *)netif->hwaddr, netif_ip4_addr(netif),
 1615              		.loc 1 710 39 is_stmt 0 view .LVU450
 1616 008a 06F12601 		add	r1, r6, #38
 711:../../Middlewares/Third_Party/LwIP/src/core/ipv4/etharp.c ****                    &hdr->shwaddr, &sipaddr,
 1617              		.loc 1 711 54 view .LVU451
 1618 008e 331D     		adds	r3, r6, #4
 709:../../Middlewares/Third_Party/LwIP/src/core/ipv4/etharp.c ****                    (struct eth_addr *)netif->hwaddr, &hdr->shwaddr,
 1619              		.loc 1 709 9 view .LVU452
 1620 0090 0222     		movs	r2, #2
 1621 0092 0392     		str	r2, [sp, #12]
 1622 0094 05AA     		add	r2, sp, #20
 1623 0096 0292     		str	r2, [sp, #8]
 1624 0098 CDF80480 		str	r8, [sp, #4]
 1625 009c 0093     		str	r3, [sp]
 1626 009e 0B46     		mov	r3, r1
 1627 00a0 4246     		mov	r2, r8
 1628 00a2 3046     		mov	r0, r6
 1629 00a4 FFF7FEFF 		bl	etharp_raw
 1630              	.LVL161:
 1631 00a8 DEE7     		b	.L115
 1632              	.L122:
 1633 00aa 00BF     		.align	2
 1634              	.L121:
 1635 00ac 00000000 		.word	.LC0
 1636 00b0 00000000 		.word	.LC8
 1637 00b4 48000000 		.word	.LC2
 1638              		.cfi_endproc
 1639              	.LFE178:
 1641              		.section	.text.etharp_request,"ax",%progbits
 1642              		.align	1
 1643              		.global	etharp_request
 1644              		.syntax unified
 1645              		.thumb
 1646              		.thumb_func
 1648              	etharp_request:
 1649              	.LVL162:
 1650              	.LFB184:
1187:../../Middlewares/Third_Party/LwIP/src/core/ipv4/etharp.c **** 
1188:../../Middlewares/Third_Party/LwIP/src/core/ipv4/etharp.c **** /**
1189:../../Middlewares/Third_Party/LwIP/src/core/ipv4/etharp.c ****  * Send an ARP request packet asking for ipaddr.
1190:../../Middlewares/Third_Party/LwIP/src/core/ipv4/etharp.c ****  *
1191:../../Middlewares/Third_Party/LwIP/src/core/ipv4/etharp.c ****  * @param netif the lwip network interface on which to send the request
1192:../../Middlewares/Third_Party/LwIP/src/core/ipv4/etharp.c ****  * @param ipaddr the IP address for which to ask
1193:../../Middlewares/Third_Party/LwIP/src/core/ipv4/etharp.c ****  * @return ERR_OK if the request has been sent
ARM GAS  C:\Users\minis\AppData\Local\Temp\ccY56pkX.s 			page 56


1194:../../Middlewares/Third_Party/LwIP/src/core/ipv4/etharp.c ****  *         ERR_MEM if the ARP packet couldn't be allocated
1195:../../Middlewares/Third_Party/LwIP/src/core/ipv4/etharp.c ****  *         any other err_t on failure
1196:../../Middlewares/Third_Party/LwIP/src/core/ipv4/etharp.c ****  */
1197:../../Middlewares/Third_Party/LwIP/src/core/ipv4/etharp.c **** err_t
1198:../../Middlewares/Third_Party/LwIP/src/core/ipv4/etharp.c **** etharp_request(struct netif *netif, const ip4_addr_t *ipaddr)
1199:../../Middlewares/Third_Party/LwIP/src/core/ipv4/etharp.c **** {
 1651              		.loc 1 1199 1 is_stmt 1 view -0
 1652              		.cfi_startproc
 1653              		@ args = 0, pretend = 0, frame = 0
 1654              		@ frame_needed = 0, uses_anonymous_args = 0
 1655              		.loc 1 1199 1 is_stmt 0 view .LVU454
 1656 0000 08B5     		push	{r3, lr}
 1657              	.LCFI23:
 1658              		.cfi_def_cfa_offset 8
 1659              		.cfi_offset 3, -8
 1660              		.cfi_offset 14, -4
1200:../../Middlewares/Third_Party/LwIP/src/core/ipv4/etharp.c ****   LWIP_DEBUGF(ETHARP_DEBUG | LWIP_DBG_TRACE, ("etharp_request: sending ARP request.\n"));
 1661              		.loc 1 1200 89 is_stmt 1 view .LVU455
1201:../../Middlewares/Third_Party/LwIP/src/core/ipv4/etharp.c ****   return etharp_request_dst(netif, ipaddr, &ethbroadcast);
 1662              		.loc 1 1201 3 view .LVU456
 1663              		.loc 1 1201 10 is_stmt 0 view .LVU457
 1664 0002 024A     		ldr	r2, .L125
 1665 0004 FFF7FEFF 		bl	etharp_request_dst
 1666              	.LVL163:
1202:../../Middlewares/Third_Party/LwIP/src/core/ipv4/etharp.c **** }
 1667              		.loc 1 1202 1 view .LVU458
 1668 0008 08BD     		pop	{r3, pc}
 1669              	.L126:
 1670 000a 00BF     		.align	2
 1671              	.L125:
 1672 000c 00000000 		.word	ethbroadcast
 1673              		.cfi_endproc
 1674              	.LFE184:
 1676              		.section	.text.etharp_tmr,"ax",%progbits
 1677              		.align	1
 1678              		.global	etharp_tmr
 1679              		.syntax unified
 1680              		.thumb
 1681              		.thumb_func
 1683              	etharp_tmr:
 1684              	.LFB172:
 198:../../Middlewares/Third_Party/LwIP/src/core/ipv4/etharp.c ****   int i;
 1685              		.loc 1 198 1 is_stmt 1 view -0
 1686              		.cfi_startproc
 1687              		@ args = 0, pretend = 0, frame = 0
 1688              		@ frame_needed = 0, uses_anonymous_args = 0
 1689 0000 10B5     		push	{r4, lr}
 1690              	.LCFI24:
 1691              		.cfi_def_cfa_offset 8
 1692              		.cfi_offset 4, -8
 1693              		.cfi_offset 14, -4
 199:../../Middlewares/Third_Party/LwIP/src/core/ipv4/etharp.c **** 
 1694              		.loc 1 199 3 view .LVU460
 201:../../Middlewares/Third_Party/LwIP/src/core/ipv4/etharp.c ****   /* remove expired entries from the ARP table */
 1695              		.loc 1 201 48 view .LVU461
 203:../../Middlewares/Third_Party/LwIP/src/core/ipv4/etharp.c ****     u8_t state = arp_table[i].state;
 1696              		.loc 1 203 3 view .LVU462
ARM GAS  C:\Users\minis\AppData\Local\Temp\ccY56pkX.s 			page 57


 1697              	.LVL164:
 203:../../Middlewares/Third_Party/LwIP/src/core/ipv4/etharp.c ****     u8_t state = arp_table[i].state;
 1698              		.loc 1 203 10 is_stmt 0 view .LVU463
 1699 0002 0024     		movs	r4, #0
 203:../../Middlewares/Third_Party/LwIP/src/core/ipv4/etharp.c ****     u8_t state = arp_table[i].state;
 1700              		.loc 1 203 3 view .LVU464
 1701 0004 05E0     		b	.L128
 1702              	.LVL165:
 1703              	.L137:
 1704              	.LBB7:
 212:../../Middlewares/Third_Party/LwIP/src/core/ipv4/etharp.c ****            (arp_table[i].ctime >= ARP_MAXPENDING))) {
 1705              		.loc 1 212 58 view .LVU465
 1706 0006 042B     		cmp	r3, #4
 1707 0008 1BD9     		bls	.L131
 1708              	.L130:
 216:../../Middlewares/Third_Party/LwIP/src/core/ipv4/etharp.c ****         /* clean up entries that have just been expired */
 1709              		.loc 1 216 105 is_stmt 1 view .LVU466
 218:../../Middlewares/Third_Party/LwIP/src/core/ipv4/etharp.c ****       } else if (arp_table[i].state == ETHARP_STATE_STABLE_REREQUESTING_1) {
 1710              		.loc 1 218 9 view .LVU467
 1711 000a 2046     		mov	r0, r4
 1712 000c FFF7FEFF 		bl	etharp_free_entry
 1713              	.LVL166:
 1714              	.L129:
 218:../../Middlewares/Third_Party/LwIP/src/core/ipv4/etharp.c ****       } else if (arp_table[i].state == ETHARP_STATE_STABLE_REREQUESTING_1) {
 1715              		.loc 1 218 9 is_stmt 0 view .LVU468
 1716              	.LBE7:
 203:../../Middlewares/Third_Party/LwIP/src/core/ipv4/etharp.c ****     u8_t state = arp_table[i].state;
 1717              		.loc 1 203 35 is_stmt 1 discriminator 2 view .LVU469
 1718 0010 0134     		adds	r4, r4, #1
 1719              	.LVL167:
 1720              	.L128:
 203:../../Middlewares/Third_Party/LwIP/src/core/ipv4/etharp.c ****     u8_t state = arp_table[i].state;
 1721              		.loc 1 203 17 discriminator 1 view .LVU470
 1722 0012 092C     		cmp	r4, #9
 1723 0014 35DC     		bgt	.L136
 1724              	.LBB8:
 204:../../Middlewares/Third_Party/LwIP/src/core/ipv4/etharp.c ****     if (state != ETHARP_STATE_EMPTY
 1725              		.loc 1 204 5 view .LVU471
 204:../../Middlewares/Third_Party/LwIP/src/core/ipv4/etharp.c ****     if (state != ETHARP_STATE_EMPTY
 1726              		.loc 1 204 10 is_stmt 0 view .LVU472
 1727 0016 04EB4403 		add	r3, r4, r4, lsl #1
 1728 001a DA00     		lsls	r2, r3, #3
 1729 001c 194B     		ldr	r3, .L140
 1730 001e 1344     		add	r3, r3, r2
 1731 0020 1A7D     		ldrb	r2, [r3, #20]	@ zero_extendqisi2
 1732              	.LVL168:
 205:../../Middlewares/Third_Party/LwIP/src/core/ipv4/etharp.c **** #if ETHARP_SUPPORT_STATIC_ENTRIES
 1733              		.loc 1 205 5 is_stmt 1 view .LVU473
 205:../../Middlewares/Third_Party/LwIP/src/core/ipv4/etharp.c **** #if ETHARP_SUPPORT_STATIC_ENTRIES
 1734              		.loc 1 205 8 is_stmt 0 view .LVU474
 1735 0022 002A     		cmp	r2, #0
 1736 0024 F4D0     		beq	.L129
 210:../../Middlewares/Third_Party/LwIP/src/core/ipv4/etharp.c ****       if ((arp_table[i].ctime >= ARP_MAXAGE) ||
 1737              		.loc 1 210 7 is_stmt 1 view .LVU475
 210:../../Middlewares/Third_Party/LwIP/src/core/ipv4/etharp.c ****       if ((arp_table[i].ctime >= ARP_MAXAGE) ||
 1738              		.loc 1 210 19 is_stmt 0 view .LVU476
 1739 0026 04EB4401 		add	r1, r4, r4, lsl #1
ARM GAS  C:\Users\minis\AppData\Local\Temp\ccY56pkX.s 			page 58


 1740 002a CB00     		lsls	r3, r1, #3
 1741 002c 1549     		ldr	r1, .L140
 1742 002e 1944     		add	r1, r1, r3
 1743 0030 4B8A     		ldrh	r3, [r1, #18]
 210:../../Middlewares/Third_Party/LwIP/src/core/ipv4/etharp.c ****       if ((arp_table[i].ctime >= ARP_MAXAGE) ||
 1744              		.loc 1 210 25 view .LVU477
 1745 0032 0133     		adds	r3, r3, #1
 1746 0034 9BB2     		uxth	r3, r3
 1747 0036 4B82     		strh	r3, [r1, #18]	@ movhi
 211:../../Middlewares/Third_Party/LwIP/src/core/ipv4/etharp.c ****           ((arp_table[i].state == ETHARP_STATE_PENDING)  &&
 1748              		.loc 1 211 7 is_stmt 1 view .LVU478
 211:../../Middlewares/Third_Party/LwIP/src/core/ipv4/etharp.c ****           ((arp_table[i].state == ETHARP_STATE_PENDING)  &&
 1749              		.loc 1 211 10 is_stmt 0 view .LVU479
 1750 0038 B3F5967F 		cmp	r3, #300
 1751 003c E5D2     		bcs	.L130
 211:../../Middlewares/Third_Party/LwIP/src/core/ipv4/etharp.c ****           ((arp_table[i].state == ETHARP_STATE_PENDING)  &&
 1752              		.loc 1 211 46 discriminator 1 view .LVU480
 1753 003e 012A     		cmp	r2, #1
 1754 0040 E1D0     		beq	.L137
 1755              	.L131:
 219:../../Middlewares/Third_Party/LwIP/src/core/ipv4/etharp.c ****         /* Don't send more than one request every 2 seconds. */
 1756              		.loc 1 219 14 is_stmt 1 view .LVU481
 219:../../Middlewares/Third_Party/LwIP/src/core/ipv4/etharp.c ****         /* Don't send more than one request every 2 seconds. */
 1757              		.loc 1 219 17 is_stmt 0 view .LVU482
 1758 0042 032A     		cmp	r2, #3
 1759 0044 0DD0     		beq	.L138
 222:../../Middlewares/Third_Party/LwIP/src/core/ipv4/etharp.c ****         /* Reset state to stable, so that the next transmitted packet will
 1760              		.loc 1 222 14 is_stmt 1 view .LVU483
 222:../../Middlewares/Third_Party/LwIP/src/core/ipv4/etharp.c ****         /* Reset state to stable, so that the next transmitted packet will
 1761              		.loc 1 222 17 is_stmt 0 view .LVU484
 1762 0046 042A     		cmp	r2, #4
 1763 0048 13D0     		beq	.L139
 226:../../Middlewares/Third_Party/LwIP/src/core/ipv4/etharp.c ****         /* still pending, resend an ARP query */
 1764              		.loc 1 226 14 is_stmt 1 view .LVU485
 226:../../Middlewares/Third_Party/LwIP/src/core/ipv4/etharp.c ****         /* still pending, resend an ARP query */
 1765              		.loc 1 226 17 is_stmt 0 view .LVU486
 1766 004a 012A     		cmp	r2, #1
 1767 004c E0D1     		bne	.L129
 228:../../Middlewares/Third_Party/LwIP/src/core/ipv4/etharp.c ****       }
 1768              		.loc 1 228 9 is_stmt 1 view .LVU487
 228:../../Middlewares/Third_Party/LwIP/src/core/ipv4/etharp.c ****       }
 1769              		.loc 1 228 44 is_stmt 0 view .LVU488
 1770 004e 04EB4402 		add	r2, r4, r4, lsl #1
 1771              	.LVL169:
 228:../../Middlewares/Third_Party/LwIP/src/core/ipv4/etharp.c ****       }
 1772              		.loc 1 228 44 view .LVU489
 1773 0052 D300     		lsls	r3, r2, #3
 1774 0054 0B4A     		ldr	r2, .L140
 1775 0056 1344     		add	r3, r3, r2
 228:../../Middlewares/Third_Party/LwIP/src/core/ipv4/etharp.c ****       }
 1776              		.loc 1 228 9 view .LVU490
 1777 0058 191D     		adds	r1, r3, #4
 1778              	.LVL170:
 228:../../Middlewares/Third_Party/LwIP/src/core/ipv4/etharp.c ****       }
 1779              		.loc 1 228 9 view .LVU491
 1780 005a 9868     		ldr	r0, [r3, #8]
 1781 005c FFF7FEFF 		bl	etharp_request
ARM GAS  C:\Users\minis\AppData\Local\Temp\ccY56pkX.s 			page 59


 1782              	.LVL171:
 228:../../Middlewares/Third_Party/LwIP/src/core/ipv4/etharp.c ****       }
 1783              		.loc 1 228 9 view .LVU492
 1784 0060 D6E7     		b	.L129
 1785              	.LVL172:
 1786              	.L138:
 221:../../Middlewares/Third_Party/LwIP/src/core/ipv4/etharp.c ****       } else if (arp_table[i].state == ETHARP_STATE_STABLE_REREQUESTING_2) {
 1787              		.loc 1 221 9 is_stmt 1 view .LVU493
 221:../../Middlewares/Third_Party/LwIP/src/core/ipv4/etharp.c ****       } else if (arp_table[i].state == ETHARP_STATE_STABLE_REREQUESTING_2) {
 1788              		.loc 1 221 28 is_stmt 0 view .LVU494
 1789 0062 04EB4403 		add	r3, r4, r4, lsl #1
 1790 0066 DA00     		lsls	r2, r3, #3
 1791              	.LVL173:
 221:../../Middlewares/Third_Party/LwIP/src/core/ipv4/etharp.c ****       } else if (arp_table[i].state == ETHARP_STATE_STABLE_REREQUESTING_2) {
 1792              		.loc 1 221 28 view .LVU495
 1793 0068 064B     		ldr	r3, .L140
 1794 006a 1344     		add	r3, r3, r2
 1795 006c 0422     		movs	r2, #4
 1796 006e 1A75     		strb	r2, [r3, #20]
 1797              	.LVL174:
 221:../../Middlewares/Third_Party/LwIP/src/core/ipv4/etharp.c ****       } else if (arp_table[i].state == ETHARP_STATE_STABLE_REREQUESTING_2) {
 1798              		.loc 1 221 28 view .LVU496
 1799 0070 CEE7     		b	.L129
 1800              	.LVL175:
 1801              	.L139:
 225:../../Middlewares/Third_Party/LwIP/src/core/ipv4/etharp.c ****       } else if (arp_table[i].state == ETHARP_STATE_PENDING) {
 1802              		.loc 1 225 9 is_stmt 1 view .LVU497
 225:../../Middlewares/Third_Party/LwIP/src/core/ipv4/etharp.c ****       } else if (arp_table[i].state == ETHARP_STATE_PENDING) {
 1803              		.loc 1 225 28 is_stmt 0 view .LVU498
 1804 0072 04EB4403 		add	r3, r4, r4, lsl #1
 1805 0076 DA00     		lsls	r2, r3, #3
 1806              	.LVL176:
 225:../../Middlewares/Third_Party/LwIP/src/core/ipv4/etharp.c ****       } else if (arp_table[i].state == ETHARP_STATE_PENDING) {
 1807              		.loc 1 225 28 view .LVU499
 1808 0078 024B     		ldr	r3, .L140
 1809 007a 1344     		add	r3, r3, r2
 1810 007c 0222     		movs	r2, #2
 1811 007e 1A75     		strb	r2, [r3, #20]
 1812              	.LVL177:
 225:../../Middlewares/Third_Party/LwIP/src/core/ipv4/etharp.c ****       } else if (arp_table[i].state == ETHARP_STATE_PENDING) {
 1813              		.loc 1 225 28 view .LVU500
 1814 0080 C6E7     		b	.L129
 1815              	.LVL178:
 1816              	.L136:
 225:../../Middlewares/Third_Party/LwIP/src/core/ipv4/etharp.c ****       } else if (arp_table[i].state == ETHARP_STATE_PENDING) {
 1817              		.loc 1 225 28 view .LVU501
 1818              	.LBE8:
 232:../../Middlewares/Third_Party/LwIP/src/core/ipv4/etharp.c **** 
 1819              		.loc 1 232 1 view .LVU502
 1820 0082 10BD     		pop	{r4, pc}
 1821              	.LVL179:
 1822              	.L141:
 232:../../Middlewares/Third_Party/LwIP/src/core/ipv4/etharp.c **** 
 1823              		.loc 1 232 1 view .LVU503
 1824              		.align	2
 1825              	.L140:
 1826 0084 00000000 		.word	arp_table
ARM GAS  C:\Users\minis\AppData\Local\Temp\ccY56pkX.s 			page 60


 1827              		.cfi_endproc
 1828              	.LFE172:
 1830              		.section	.rodata.etharp_output_to_arp_index.str1.4,"aMS",%progbits,1
 1831              		.align	2
 1832              	.LC14:
 1833 0000 6172705F 		.ascii	"arp_table[arp_idx].state >= ETHARP_STATE_STABLE\000"
 1833      7461626C 
 1833      655B6172 
 1833      705F6964 
 1833      785D2E73 
 1834              		.section	.text.etharp_output_to_arp_index,"ax",%progbits
 1835              		.align	1
 1836              		.syntax unified
 1837              		.thumb
 1838              		.thumb_func
 1840              	etharp_output_to_arp_index:
 1841              	.LVL180:
 1842              	.LFB179:
 749:../../Middlewares/Third_Party/LwIP/src/core/ipv4/etharp.c ****   LWIP_ASSERT("arp_table[arp_idx].state >= ETHARP_STATE_STABLE",
 1843              		.loc 1 749 1 is_stmt 1 view -0
 1844              		.cfi_startproc
 1845              		@ args = 0, pretend = 0, frame = 0
 1846              		@ frame_needed = 0, uses_anonymous_args = 0
 749:../../Middlewares/Third_Party/LwIP/src/core/ipv4/etharp.c ****   LWIP_ASSERT("arp_table[arp_idx].state >= ETHARP_STATE_STABLE",
 1847              		.loc 1 749 1 is_stmt 0 view .LVU505
 1848 0000 70B5     		push	{r4, r5, r6, lr}
 1849              	.LCFI25:
 1850              		.cfi_def_cfa_offset 16
 1851              		.cfi_offset 4, -16
 1852              		.cfi_offset 5, -12
 1853              		.cfi_offset 6, -8
 1854              		.cfi_offset 14, -4
 1855 0002 82B0     		sub	sp, sp, #8
 1856              	.LCFI26:
 1857              		.cfi_def_cfa_offset 24
 1858 0004 0546     		mov	r5, r0
 1859 0006 0E46     		mov	r6, r1
 1860 0008 1446     		mov	r4, r2
 750:../../Middlewares/Third_Party/LwIP/src/core/ipv4/etharp.c ****               arp_table[arp_idx].state >= ETHARP_STATE_STABLE);
 1861              		.loc 1 750 3 is_stmt 1 view .LVU506
 750:../../Middlewares/Third_Party/LwIP/src/core/ipv4/etharp.c ****               arp_table[arp_idx].state >= ETHARP_STATE_STABLE);
 1862              		.loc 1 750 3 view .LVU507
 1863 000a 02EB4202 		add	r2, r2, r2, lsl #1
 1864              	.LVL181:
 750:../../Middlewares/Third_Party/LwIP/src/core/ipv4/etharp.c ****               arp_table[arp_idx].state >= ETHARP_STATE_STABLE);
 1865              		.loc 1 750 3 is_stmt 0 view .LVU508
 1866 000e 2E4B     		ldr	r3, .L150
 1867 0010 03EBC203 		add	r3, r3, r2, lsl #3
 1868 0014 1B7D     		ldrb	r3, [r3, #20]	@ zero_extendqisi2
 1869 0016 012B     		cmp	r3, #1
 1870 0018 19D9     		bls	.L147
 1871              	.LVL182:
 1872              	.L143:
 750:../../Middlewares/Third_Party/LwIP/src/core/ipv4/etharp.c ****               arp_table[arp_idx].state >= ETHARP_STATE_STABLE);
 1873              		.loc 1 750 3 is_stmt 1 view .LVU509
 750:../../Middlewares/Third_Party/LwIP/src/core/ipv4/etharp.c ****               arp_table[arp_idx].state >= ETHARP_STATE_STABLE);
 1874              		.loc 1 750 3 view .LVU510
ARM GAS  C:\Users\minis\AppData\Local\Temp\ccY56pkX.s 			page 61


 755:../../Middlewares/Third_Party/LwIP/src/core/ipv4/etharp.c ****     if (arp_table[arp_idx].ctime >= ARP_AGE_REREQUEST_USED_BROADCAST) {
 1875              		.loc 1 755 3 view .LVU511
 755:../../Middlewares/Third_Party/LwIP/src/core/ipv4/etharp.c ****     if (arp_table[arp_idx].ctime >= ARP_AGE_REREQUEST_USED_BROADCAST) {
 1876              		.loc 1 755 25 is_stmt 0 view .LVU512
 1877 001a 04EB4402 		add	r2, r4, r4, lsl #1
 1878 001e 2A4B     		ldr	r3, .L150
 1879 0020 03EBC203 		add	r3, r3, r2, lsl #3
 1880 0024 1B7D     		ldrb	r3, [r3, #20]	@ zero_extendqisi2
 755:../../Middlewares/Third_Party/LwIP/src/core/ipv4/etharp.c ****     if (arp_table[arp_idx].ctime >= ARP_AGE_REREQUEST_USED_BROADCAST) {
 1881              		.loc 1 755 6 view .LVU513
 1882 0026 022B     		cmp	r3, #2
 1883 0028 19D0     		beq	.L148
 1884              	.L144:
 769:../../Middlewares/Third_Party/LwIP/src/core/ipv4/etharp.c **** }
 1885              		.loc 1 769 3 is_stmt 1 view .LVU514
 769:../../Middlewares/Third_Party/LwIP/src/core/ipv4/etharp.c **** }
 1886              		.loc 1 769 72 is_stmt 0 view .LVU515
 1887 002a 04EB4403 		add	r3, r4, r4, lsl #1
 1888 002e DB00     		lsls	r3, r3, #3
 1889 0030 0833     		adds	r3, r3, #8
 1890 0032 254A     		ldr	r2, .L150
 1891 0034 1344     		add	r3, r3, r2
 769:../../Middlewares/Third_Party/LwIP/src/core/ipv4/etharp.c **** }
 1892              		.loc 1 769 10 view .LVU516
 1893 0036 4FF40062 		mov	r2, #2048
 1894 003a 0092     		str	r2, [sp]
 1895 003c 0433     		adds	r3, r3, #4
 1896 003e 05F12602 		add	r2, r5, #38
 1897 0042 3146     		mov	r1, r6
 1898 0044 2846     		mov	r0, r5
 1899 0046 FFF7FEFF 		bl	ethernet_output
 1900              	.LVL183:
 770:../../Middlewares/Third_Party/LwIP/src/core/ipv4/etharp.c **** 
 1901              		.loc 1 770 1 view .LVU517
 1902 004a 02B0     		add	sp, sp, #8
 1903              	.LCFI27:
 1904              		.cfi_remember_state
 1905              		.cfi_def_cfa_offset 16
 1906              		@ sp needed
 1907 004c 70BD     		pop	{r4, r5, r6, pc}
 1908              	.LVL184:
 1909              	.L147:
 1910              	.LCFI28:
 1911              		.cfi_restore_state
 750:../../Middlewares/Third_Party/LwIP/src/core/ipv4/etharp.c ****               arp_table[arp_idx].state >= ETHARP_STATE_STABLE);
 1912              		.loc 1 750 3 is_stmt 1 discriminator 1 view .LVU518
 750:../../Middlewares/Third_Party/LwIP/src/core/ipv4/etharp.c ****               arp_table[arp_idx].state >= ETHARP_STATE_STABLE);
 1913              		.loc 1 750 3 discriminator 1 view .LVU519
 1914 004e 1F4B     		ldr	r3, .L150+4
 1915 0050 40F2EE22 		movw	r2, #750
 1916 0054 1E49     		ldr	r1, .L150+8
 1917              	.LVL185:
 750:../../Middlewares/Third_Party/LwIP/src/core/ipv4/etharp.c ****               arp_table[arp_idx].state >= ETHARP_STATE_STABLE);
 1918              		.loc 1 750 3 is_stmt 0 discriminator 1 view .LVU520
 1919 0056 1F48     		ldr	r0, .L150+12
 1920              	.LVL186:
 750:../../Middlewares/Third_Party/LwIP/src/core/ipv4/etharp.c ****               arp_table[arp_idx].state >= ETHARP_STATE_STABLE);
ARM GAS  C:\Users\minis\AppData\Local\Temp\ccY56pkX.s 			page 62


 1921              		.loc 1 750 3 discriminator 1 view .LVU521
 1922 0058 FFF7FEFF 		bl	printf
 1923              	.LVL187:
 1924 005c DDE7     		b	.L143
 1925              	.L148:
 756:../../Middlewares/Third_Party/LwIP/src/core/ipv4/etharp.c ****       /* issue a standard request using broadcast */
 1926              		.loc 1 756 5 is_stmt 1 view .LVU522
 756:../../Middlewares/Third_Party/LwIP/src/core/ipv4/etharp.c ****       /* issue a standard request using broadcast */
 1927              		.loc 1 756 27 is_stmt 0 view .LVU523
 1928 005e 1A4B     		ldr	r3, .L150
 1929 0060 03EBC203 		add	r3, r3, r2, lsl #3
 1930 0064 5B8A     		ldrh	r3, [r3, #18]
 756:../../Middlewares/Third_Party/LwIP/src/core/ipv4/etharp.c ****       /* issue a standard request using broadcast */
 1931              		.loc 1 756 8 view .LVU524
 1932 0066 B3F58E7F 		cmp	r3, #284
 1933 006a 1BD8     		bhi	.L149
 761:../../Middlewares/Third_Party/LwIP/src/core/ipv4/etharp.c ****       /* issue a unicast request (for 15 seconds) to prevent unnecessary broadcast */
 1934              		.loc 1 761 12 is_stmt 1 view .LVU525
 761:../../Middlewares/Third_Party/LwIP/src/core/ipv4/etharp.c ****       /* issue a unicast request (for 15 seconds) to prevent unnecessary broadcast */
 1935              		.loc 1 761 15 is_stmt 0 view .LVU526
 1936 006c B3F5877F 		cmp	r3, #270
 1937 0070 DBD3     		bcc	.L144
 763:../../Middlewares/Third_Party/LwIP/src/core/ipv4/etharp.c ****         arp_table[arp_idx].state = ETHARP_STATE_STABLE_REREQUESTING_1;
 1938              		.loc 1 763 7 is_stmt 1 view .LVU527
 763:../../Middlewares/Third_Party/LwIP/src/core/ipv4/etharp.c ****         arp_table[arp_idx].state = ETHARP_STATE_STABLE_REREQUESTING_1;
 1939              		.loc 1 763 37 is_stmt 0 view .LVU528
 1940 0072 04EB4401 		add	r1, r4, r4, lsl #1
 1941 0076 144B     		ldr	r3, .L150
 1942 0078 03EBC101 		add	r1, r3, r1, lsl #3
 763:../../Middlewares/Third_Party/LwIP/src/core/ipv4/etharp.c ****         arp_table[arp_idx].state = ETHARP_STATE_STABLE_REREQUESTING_1;
 1943              		.loc 1 763 65 view .LVU529
 1944 007c 04EB4402 		add	r2, r4, r4, lsl #1
 1945 0080 D200     		lsls	r2, r2, #3
 1946 0082 0832     		adds	r2, r2, #8
 1947 0084 1A44     		add	r2, r2, r3
 763:../../Middlewares/Third_Party/LwIP/src/core/ipv4/etharp.c ****         arp_table[arp_idx].state = ETHARP_STATE_STABLE_REREQUESTING_1;
 1948              		.loc 1 763 11 view .LVU530
 1949 0086 0432     		adds	r2, r2, #4
 1950 0088 0431     		adds	r1, r1, #4
 1951 008a 2846     		mov	r0, r5
 1952 008c FFF7FEFF 		bl	etharp_request_dst
 1953              	.LVL188:
 763:../../Middlewares/Third_Party/LwIP/src/core/ipv4/etharp.c ****         arp_table[arp_idx].state = ETHARP_STATE_STABLE_REREQUESTING_1;
 1954              		.loc 1 763 10 discriminator 1 view .LVU531
 1955 0090 0028     		cmp	r0, #0
 1956 0092 CAD1     		bne	.L144
 764:../../Middlewares/Third_Party/LwIP/src/core/ipv4/etharp.c ****       }
 1957              		.loc 1 764 9 is_stmt 1 view .LVU532
 764:../../Middlewares/Third_Party/LwIP/src/core/ipv4/etharp.c ****       }
 1958              		.loc 1 764 34 is_stmt 0 view .LVU533
 1959 0094 04EB4402 		add	r2, r4, r4, lsl #1
 1960 0098 0B4B     		ldr	r3, .L150
 1961 009a 03EBC203 		add	r3, r3, r2, lsl #3
 1962 009e 0322     		movs	r2, #3
 1963 00a0 1A75     		strb	r2, [r3, #20]
 1964 00a2 C2E7     		b	.L144
 1965              	.L149:
ARM GAS  C:\Users\minis\AppData\Local\Temp\ccY56pkX.s 			page 63


 758:../../Middlewares/Third_Party/LwIP/src/core/ipv4/etharp.c ****         arp_table[arp_idx].state = ETHARP_STATE_STABLE_REREQUESTING_1;
 1966              		.loc 1 758 7 is_stmt 1 view .LVU534
 758:../../Middlewares/Third_Party/LwIP/src/core/ipv4/etharp.c ****         arp_table[arp_idx].state = ETHARP_STATE_STABLE_REREQUESTING_1;
 1967              		.loc 1 758 33 is_stmt 0 view .LVU535
 1968 00a4 0849     		ldr	r1, .L150
 1969 00a6 01EBC201 		add	r1, r1, r2, lsl #3
 758:../../Middlewares/Third_Party/LwIP/src/core/ipv4/etharp.c ****         arp_table[arp_idx].state = ETHARP_STATE_STABLE_REREQUESTING_1;
 1970              		.loc 1 758 11 view .LVU536
 1971 00aa 0431     		adds	r1, r1, #4
 1972 00ac 2846     		mov	r0, r5
 1973 00ae FFF7FEFF 		bl	etharp_request
 1974              	.LVL189:
 758:../../Middlewares/Third_Party/LwIP/src/core/ipv4/etharp.c ****         arp_table[arp_idx].state = ETHARP_STATE_STABLE_REREQUESTING_1;
 1975              		.loc 1 758 10 discriminator 1 view .LVU537
 1976 00b2 0028     		cmp	r0, #0
 1977 00b4 B9D1     		bne	.L144
 759:../../Middlewares/Third_Party/LwIP/src/core/ipv4/etharp.c ****       }
 1978              		.loc 1 759 9 is_stmt 1 view .LVU538
 759:../../Middlewares/Third_Party/LwIP/src/core/ipv4/etharp.c ****       }
 1979              		.loc 1 759 34 is_stmt 0 view .LVU539
 1980 00b6 04EB4402 		add	r2, r4, r4, lsl #1
 1981 00ba 034B     		ldr	r3, .L150
 1982 00bc 03EBC203 		add	r3, r3, r2, lsl #3
 1983 00c0 0322     		movs	r2, #3
 1984 00c2 1A75     		strb	r2, [r3, #20]
 1985 00c4 B1E7     		b	.L144
 1986              	.L151:
 1987 00c6 00BF     		.align	2
 1988              	.L150:
 1989 00c8 00000000 		.word	arp_table
 1990 00cc 00000000 		.word	.LC0
 1991 00d0 00000000 		.word	.LC14
 1992 00d4 48000000 		.word	.LC2
 1993              		.cfi_endproc
 1994              	.LFE179:
 1996              		.section	.rodata.etharp_query.str1.4,"aMS",%progbits,1
 1997              		.align	2
 1998              	.LC15:
 1999 0000 74797065 		.ascii	"type overflow\000"
 1999      206F7665 
 1999      72666C6F 
 1999      7700
 2000 000e 0000     		.align	2
 2001              	.LC16:
 2002 0010 6172705F 		.ascii	"arp_table[i].state == PENDING or STABLE\000"
 2002      7461626C 
 2002      655B695D 
 2002      2E737461 
 2002      7465203D 
 2003              		.align	2
 2004              	.LC17:
 2005 0038 6E6F2070 		.ascii	"no packet queues allowed!\000"
 2005      61636B65 
 2005      74207175 
 2005      65756573 
 2005      20616C6C 
 2006              		.section	.text.etharp_query,"ax",%progbits
ARM GAS  C:\Users\minis\AppData\Local\Temp\ccY56pkX.s 			page 64


 2007              		.align	1
 2008              		.global	etharp_query
 2009              		.syntax unified
 2010              		.thumb
 2011              		.thumb_func
 2013              	etharp_query:
 2014              	.LVL190:
 2015              	.LFB181:
 934:../../Middlewares/Third_Party/LwIP/src/core/ipv4/etharp.c ****   struct eth_addr *srcaddr = (struct eth_addr *)netif->hwaddr;
 2016              		.loc 1 934 1 is_stmt 1 view -0
 2017              		.cfi_startproc
 2018              		@ args = 0, pretend = 0, frame = 0
 2019              		@ frame_needed = 0, uses_anonymous_args = 0
 934:../../Middlewares/Third_Party/LwIP/src/core/ipv4/etharp.c ****   struct eth_addr *srcaddr = (struct eth_addr *)netif->hwaddr;
 2020              		.loc 1 934 1 is_stmt 0 view .LVU541
 2021 0000 2DE9F043 		push	{r4, r5, r6, r7, r8, r9, lr}
 2022              	.LCFI29:
 2023              		.cfi_def_cfa_offset 28
 2024              		.cfi_offset 4, -28
 2025              		.cfi_offset 5, -24
 2026              		.cfi_offset 6, -20
 2027              		.cfi_offset 7, -16
 2028              		.cfi_offset 8, -12
 2029              		.cfi_offset 9, -8
 2030              		.cfi_offset 14, -4
 2031 0004 83B0     		sub	sp, sp, #12
 2032              	.LCFI30:
 2033              		.cfi_def_cfa_offset 40
 2034 0006 0546     		mov	r5, r0
 2035 0008 8846     		mov	r8, r1
 2036 000a 1646     		mov	r6, r2
 935:../../Middlewares/Third_Party/LwIP/src/core/ipv4/etharp.c ****   err_t result = ERR_MEM;
 2037              		.loc 1 935 3 is_stmt 1 view .LVU542
 935:../../Middlewares/Third_Party/LwIP/src/core/ipv4/etharp.c ****   err_t result = ERR_MEM;
 2038              		.loc 1 935 20 is_stmt 0 view .LVU543
 2039 000c 00F12607 		add	r7, r0, #38
 2040              	.LVL191:
 936:../../Middlewares/Third_Party/LwIP/src/core/ipv4/etharp.c ****   int is_new_entry = 0;
 2041              		.loc 1 936 3 is_stmt 1 view .LVU544
 937:../../Middlewares/Third_Party/LwIP/src/core/ipv4/etharp.c ****   s16_t i_err;
 2042              		.loc 1 937 3 view .LVU545
 938:../../Middlewares/Third_Party/LwIP/src/core/ipv4/etharp.c ****   netif_addr_idx_t i;
 2043              		.loc 1 938 3 view .LVU546
 939:../../Middlewares/Third_Party/LwIP/src/core/ipv4/etharp.c **** 
 2044              		.loc 1 939 3 view .LVU547
 942:../../Middlewares/Third_Party/LwIP/src/core/ipv4/etharp.c ****       ip4_addr_ismulticast(ipaddr) ||
 2045              		.loc 1 942 3 view .LVU548
 942:../../Middlewares/Third_Party/LwIP/src/core/ipv4/etharp.c ****       ip4_addr_ismulticast(ipaddr) ||
 2046              		.loc 1 942 7 is_stmt 0 view .LVU549
 2047 0010 0146     		mov	r1, r0
 2048              	.LVL192:
 942:../../Middlewares/Third_Party/LwIP/src/core/ipv4/etharp.c ****       ip4_addr_ismulticast(ipaddr) ||
 2049              		.loc 1 942 7 view .LVU550
 2050 0012 D8F80000 		ldr	r0, [r8]
 2051              	.LVL193:
 942:../../Middlewares/Third_Party/LwIP/src/core/ipv4/etharp.c ****       ip4_addr_ismulticast(ipaddr) ||
 2052              		.loc 1 942 7 view .LVU551
ARM GAS  C:\Users\minis\AppData\Local\Temp\ccY56pkX.s 			page 65


 2053 0016 FFF7FEFF 		bl	ip4_addr_isbroadcast_u32
 2054              	.LVL194:
 942:../../Middlewares/Third_Party/LwIP/src/core/ipv4/etharp.c ****       ip4_addr_ismulticast(ipaddr) ||
 2055              		.loc 1 942 6 discriminator 1 view .LVU552
 2056 001a 0028     		cmp	r0, #0
 2057 001c 40F0CD80 		bne	.L171
 943:../../Middlewares/Third_Party/LwIP/src/core/ipv4/etharp.c ****       ip4_addr_isany(ipaddr)) {
 2058              		.loc 1 943 7 view .LVU553
 2059 0020 D8F80030 		ldr	r3, [r8]
 2060 0024 03F0F002 		and	r2, r3, #240
 942:../../Middlewares/Third_Party/LwIP/src/core/ipv4/etharp.c ****       ip4_addr_ismulticast(ipaddr) ||
 2061              		.loc 1 942 43 discriminator 1 view .LVU554
 2062 0028 E02A     		cmp	r2, #224
 2063 002a 00F0C980 		beq	.L172
 944:../../Middlewares/Third_Party/LwIP/src/core/ipv4/etharp.c ****     LWIP_DEBUGF(ETHARP_DEBUG | LWIP_DBG_TRACE, ("etharp_query: will not add non-unicast IP address 
 2064              		.loc 1 944 7 view .LVU555
 2065 002e 002B     		cmp	r3, #0
 2066 0030 00F0C980 		beq	.L173
 950:../../Middlewares/Third_Party/LwIP/src/core/ipv4/etharp.c **** 
 2067              		.loc 1 950 3 is_stmt 1 view .LVU556
 950:../../Middlewares/Third_Party/LwIP/src/core/ipv4/etharp.c **** 
 2068              		.loc 1 950 11 is_stmt 0 view .LVU557
 2069 0034 2A46     		mov	r2, r5
 2070 0036 0121     		movs	r1, #1
 2071 0038 4046     		mov	r0, r8
 2072 003a FFF7FEFF 		bl	etharp_find_entry
 2073              	.LVL195:
 953:../../Middlewares/Third_Party/LwIP/src/core/ipv4/etharp.c ****     LWIP_DEBUGF(ETHARP_DEBUG | LWIP_DBG_TRACE, ("etharp_query: could not create ARP entry\n"));
 2074              		.loc 1 953 3 is_stmt 1 view .LVU558
 953:../../Middlewares/Third_Party/LwIP/src/core/ipv4/etharp.c ****     LWIP_DEBUGF(ETHARP_DEBUG | LWIP_DBG_TRACE, ("etharp_query: could not create ARP entry\n"));
 2075              		.loc 1 953 6 is_stmt 0 view .LVU559
 2076 003e 041E     		subs	r4, r0, #0
 2077 0040 2DDB     		blt	.L182
 961:../../Middlewares/Third_Party/LwIP/src/core/ipv4/etharp.c ****   i = (netif_addr_idx_t)i_err;
 2078              		.loc 1 961 3 is_stmt 1 view .LVU560
 961:../../Middlewares/Third_Party/LwIP/src/core/ipv4/etharp.c ****   i = (netif_addr_idx_t)i_err;
 2079              		.loc 1 961 3 view .LVU561
 2080 0042 A3B2     		uxth	r3, r4
 2081 0044 7E2B     		cmp	r3, #126
 2082 0046 2CD8     		bhi	.L183
 2083              	.LVL196:
 2084              	.L155:
 961:../../Middlewares/Third_Party/LwIP/src/core/ipv4/etharp.c ****   i = (netif_addr_idx_t)i_err;
 2085              		.loc 1 961 3 view .LVU562
 961:../../Middlewares/Third_Party/LwIP/src/core/ipv4/etharp.c ****   i = (netif_addr_idx_t)i_err;
 2086              		.loc 1 961 3 view .LVU563
 962:../../Middlewares/Third_Party/LwIP/src/core/ipv4/etharp.c **** 
 2087              		.loc 1 962 3 view .LVU564
 962:../../Middlewares/Third_Party/LwIP/src/core/ipv4/etharp.c **** 
 2088              		.loc 1 962 5 is_stmt 0 view .LVU565
 2089 0048 E4B2     		uxtb	r4, r4
 2090              	.LVL197:
 965:../../Middlewares/Third_Party/LwIP/src/core/ipv4/etharp.c ****     is_new_entry = 1;
 2091              		.loc 1 965 3 is_stmt 1 view .LVU566
 965:../../Middlewares/Third_Party/LwIP/src/core/ipv4/etharp.c ****     is_new_entry = 1;
 2092              		.loc 1 965 19 is_stmt 0 view .LVU567
 2093 004a 04EB4402 		add	r2, r4, r4, lsl #1
ARM GAS  C:\Users\minis\AppData\Local\Temp\ccY56pkX.s 			page 66


 2094 004e 614B     		ldr	r3, .L189
 2095 0050 03EBC203 		add	r3, r3, r2, lsl #3
 2096 0054 1B7D     		ldrb	r3, [r3, #20]	@ zero_extendqisi2
 965:../../Middlewares/Third_Party/LwIP/src/core/ipv4/etharp.c ****     is_new_entry = 1;
 2097              		.loc 1 965 6 view .LVU568
 2098 0056 63BB     		cbnz	r3, .L174
 966:../../Middlewares/Third_Party/LwIP/src/core/ipv4/etharp.c ****     arp_table[i].state = ETHARP_STATE_PENDING;
 2099              		.loc 1 966 5 is_stmt 1 view .LVU569
 2100              	.LVL198:
 967:../../Middlewares/Third_Party/LwIP/src/core/ipv4/etharp.c ****     /* record network interface for re-sending arp request in etharp_tmr */
 2101              		.loc 1 967 5 view .LVU570
 967:../../Middlewares/Third_Party/LwIP/src/core/ipv4/etharp.c ****     /* record network interface for re-sending arp request in etharp_tmr */
 2102              		.loc 1 967 24 is_stmt 0 view .LVU571
 2103 0058 5E4B     		ldr	r3, .L189
 2104 005a 03EBC203 		add	r3, r3, r2, lsl #3
 2105 005e 4FF00109 		mov	r9, #1
 2106 0062 83F81490 		strb	r9, [r3, #20]
 969:../../Middlewares/Third_Party/LwIP/src/core/ipv4/etharp.c ****   }
 2107              		.loc 1 969 5 is_stmt 1 view .LVU572
 969:../../Middlewares/Third_Party/LwIP/src/core/ipv4/etharp.c ****   }
 2108              		.loc 1 969 24 is_stmt 0 view .LVU573
 2109 0066 9D60     		str	r5, [r3, #8]
 2110              	.LVL199:
 2111              	.L156:
 973:../../Middlewares/Third_Party/LwIP/src/core/ipv4/etharp.c ****               ((arp_table[i].state == ETHARP_STATE_PENDING) ||
 2112              		.loc 1 973 3 is_stmt 1 view .LVU574
 973:../../Middlewares/Third_Party/LwIP/src/core/ipv4/etharp.c ****               ((arp_table[i].state == ETHARP_STATE_PENDING) ||
 2113              		.loc 1 973 3 view .LVU575
 2114 0068 04EB4402 		add	r2, r4, r4, lsl #1
 2115 006c 594B     		ldr	r3, .L189
 2116 006e 03EBC203 		add	r3, r3, r2, lsl #3
 2117 0072 1B7D     		ldrb	r3, [r3, #20]	@ zero_extendqisi2
 2118 0074 03B3     		cbz	r3, .L184
 2119              	.L157:
 973:../../Middlewares/Third_Party/LwIP/src/core/ipv4/etharp.c ****               ((arp_table[i].state == ETHARP_STATE_PENDING) ||
 2120              		.loc 1 973 3 view .LVU576
 973:../../Middlewares/Third_Party/LwIP/src/core/ipv4/etharp.c ****               ((arp_table[i].state == ETHARP_STATE_PENDING) ||
 2121              		.loc 1 973 3 view .LVU577
 978:../../Middlewares/Third_Party/LwIP/src/core/ipv4/etharp.c ****     /* try to resolve it; send out ARP request */
 2122              		.loc 1 978 3 view .LVU578
 978:../../Middlewares/Third_Party/LwIP/src/core/ipv4/etharp.c ****     /* try to resolve it; send out ARP request */
 2123              		.loc 1 978 20 is_stmt 0 view .LVU579
 2124 0076 002E     		cmp	r6, #0
 2125 0078 14BF     		ite	ne
 2126 007a 4B46     		movne	r3, r9
 2127 007c 49F00103 		orreq	r3, r9, #1
 978:../../Middlewares/Third_Party/LwIP/src/core/ipv4/etharp.c ****     /* try to resolve it; send out ARP request */
 2128              		.loc 1 978 6 view .LVU580
 2129 0080 13BB     		cbnz	r3, .L185
 936:../../Middlewares/Third_Party/LwIP/src/core/ipv4/etharp.c ****   int is_new_entry = 0;
 2130              		.loc 1 936 9 view .LVU581
 2131 0082 4FF0FF30 		mov	r0, #-1
 2132              	.LVL200:
 2133              	.L158:
 993:../../Middlewares/Third_Party/LwIP/src/core/ipv4/etharp.c ****   /* stable entry? */
 2134              		.loc 1 993 3 is_stmt 1 view .LVU582
 993:../../Middlewares/Third_Party/LwIP/src/core/ipv4/etharp.c ****   /* stable entry? */
ARM GAS  C:\Users\minis\AppData\Local\Temp\ccY56pkX.s 			page 67


 2135              		.loc 1 993 3 view .LVU583
 995:../../Middlewares/Third_Party/LwIP/src/core/ipv4/etharp.c ****     /* we have a valid IP->Ethernet address mapping */
 2136              		.loc 1 995 3 view .LVU584
 995:../../Middlewares/Third_Party/LwIP/src/core/ipv4/etharp.c ****     /* we have a valid IP->Ethernet address mapping */
 2137              		.loc 1 995 19 is_stmt 0 view .LVU585
 2138 0086 04EB4402 		add	r2, r4, r4, lsl #1
 2139 008a 524B     		ldr	r3, .L189
 2140 008c 03EBC203 		add	r3, r3, r2, lsl #3
 2141 0090 1B7D     		ldrb	r3, [r3, #20]	@ zero_extendqisi2
 995:../../Middlewares/Third_Party/LwIP/src/core/ipv4/etharp.c ****     /* we have a valid IP->Ethernet address mapping */
 2142              		.loc 1 995 6 view .LVU586
 2143 0092 012B     		cmp	r3, #1
 2144 0094 1FD8     		bhi	.L186
1001:../../Middlewares/Third_Party/LwIP/src/core/ipv4/etharp.c ****     /* entry is still pending, queue the given packet 'q' */
 2145              		.loc 1 1001 10 is_stmt 1 view .LVU587
1001:../../Middlewares/Third_Party/LwIP/src/core/ipv4/etharp.c ****     /* entry is still pending, queue the given packet 'q' */
 2146              		.loc 1 1001 13 is_stmt 0 view .LVU588
 2147 0096 012B     		cmp	r3, #1
 2148 0098 2CD1     		bne	.L153
 2149              	.LBB9:
1007:../../Middlewares/Third_Party/LwIP/src/core/ipv4/etharp.c ****     while (p) {
 2150              		.loc 1 1007 7 view .LVU589
 2151 009a 3546     		mov	r5, r6
 2152              	.LVL201:
1007:../../Middlewares/Third_Party/LwIP/src/core/ipv4/etharp.c ****     while (p) {
 2153              		.loc 1 1007 7 view .LVU590
 2154 009c 32E0     		b	.L160
 2155              	.LVL202:
 2156              	.L182:
1007:../../Middlewares/Third_Party/LwIP/src/core/ipv4/etharp.c ****     while (p) {
 2157              		.loc 1 1007 7 view .LVU591
 2158              	.LBE9:
 954:../../Middlewares/Third_Party/LwIP/src/core/ipv4/etharp.c ****     if (q) {
 2159              		.loc 1 954 95 is_stmt 1 view .LVU592
 955:../../Middlewares/Third_Party/LwIP/src/core/ipv4/etharp.c ****       LWIP_DEBUGF(ETHARP_DEBUG | LWIP_DBG_TRACE, ("etharp_query: packet dropped\n"));
 2160              		.loc 1 955 5 view .LVU593
 956:../../Middlewares/Third_Party/LwIP/src/core/ipv4/etharp.c ****       ETHARP_STATS_INC(etharp.memerr);
 2161              		.loc 1 956 85 view .LVU594
 957:../../Middlewares/Third_Party/LwIP/src/core/ipv4/etharp.c ****     }
 2162              		.loc 1 957 38 view .LVU595
 959:../../Middlewares/Third_Party/LwIP/src/core/ipv4/etharp.c ****   }
 2163              		.loc 1 959 5 view .LVU596
 959:../../Middlewares/Third_Party/LwIP/src/core/ipv4/etharp.c ****   }
 2164              		.loc 1 959 12 is_stmt 0 view .LVU597
 2165 009e 60B2     		sxtb	r0, r4
 2166              	.LVL203:
 959:../../Middlewares/Third_Party/LwIP/src/core/ipv4/etharp.c ****   }
 2167              		.loc 1 959 12 view .LVU598
 2168 00a0 28E0     		b	.L153
 2169              	.LVL204:
 2170              	.L183:
 961:../../Middlewares/Third_Party/LwIP/src/core/ipv4/etharp.c ****   i = (netif_addr_idx_t)i_err;
 2171              		.loc 1 961 3 is_stmt 1 discriminator 1 view .LVU599
 961:../../Middlewares/Third_Party/LwIP/src/core/ipv4/etharp.c ****   i = (netif_addr_idx_t)i_err;
 2172              		.loc 1 961 3 discriminator 1 view .LVU600
 2173 00a2 4D4B     		ldr	r3, .L189+4
 2174 00a4 40F2C132 		movw	r2, #961
ARM GAS  C:\Users\minis\AppData\Local\Temp\ccY56pkX.s 			page 68


 2175 00a8 4C49     		ldr	r1, .L189+8
 2176 00aa 4D48     		ldr	r0, .L189+12
 2177              	.LVL205:
 961:../../Middlewares/Third_Party/LwIP/src/core/ipv4/etharp.c ****   i = (netif_addr_idx_t)i_err;
 2178              		.loc 1 961 3 is_stmt 0 discriminator 1 view .LVU601
 2179 00ac FFF7FEFF 		bl	printf
 2180              	.LVL206:
 2181 00b0 CAE7     		b	.L155
 2182              	.LVL207:
 2183              	.L174:
 937:../../Middlewares/Third_Party/LwIP/src/core/ipv4/etharp.c ****   s16_t i_err;
 2184              		.loc 1 937 7 view .LVU602
 2185 00b2 4FF00009 		mov	r9, #0
 2186 00b6 D7E7     		b	.L156
 2187              	.LVL208:
 2188              	.L184:
 973:../../Middlewares/Third_Party/LwIP/src/core/ipv4/etharp.c ****               ((arp_table[i].state == ETHARP_STATE_PENDING) ||
 2189              		.loc 1 973 3 is_stmt 1 discriminator 1 view .LVU603
 973:../../Middlewares/Third_Party/LwIP/src/core/ipv4/etharp.c ****               ((arp_table[i].state == ETHARP_STATE_PENDING) ||
 2190              		.loc 1 973 3 discriminator 1 view .LVU604
 2191 00b8 474B     		ldr	r3, .L189+4
 2192 00ba 40F2CD32 		movw	r2, #973
 2193 00be 4949     		ldr	r1, .L189+16
 2194 00c0 4748     		ldr	r0, .L189+12
 2195 00c2 FFF7FEFF 		bl	printf
 2196              	.LVL209:
 2197 00c6 D6E7     		b	.L157
 2198              	.L185:
 980:../../Middlewares/Third_Party/LwIP/src/core/ipv4/etharp.c ****     if (result != ERR_OK) {
 2199              		.loc 1 980 5 view .LVU605
 980:../../Middlewares/Third_Party/LwIP/src/core/ipv4/etharp.c ****     if (result != ERR_OK) {
 2200              		.loc 1 980 14 is_stmt 0 view .LVU606
 2201 00c8 4146     		mov	r1, r8
 2202 00ca 2846     		mov	r0, r5
 2203 00cc FFF7FEFF 		bl	etharp_request
 2204              	.LVL210:
 981:../../Middlewares/Third_Party/LwIP/src/core/ipv4/etharp.c ****       /* ARP request couldn't be sent */
 2205              		.loc 1 981 5 is_stmt 1 view .LVU607
 986:../../Middlewares/Third_Party/LwIP/src/core/ipv4/etharp.c ****     if (q == NULL) {
 2206              		.loc 1 986 5 view .LVU608
 987:../../Middlewares/Third_Party/LwIP/src/core/ipv4/etharp.c ****       return result;
 2207              		.loc 1 987 5 view .LVU609
 987:../../Middlewares/Third_Party/LwIP/src/core/ipv4/etharp.c ****       return result;
 2208              		.loc 1 987 8 is_stmt 0 view .LVU610
 2209 00d0 002E     		cmp	r6, #0
 2210 00d2 D8D1     		bne	.L158
 2211 00d4 0EE0     		b	.L153
 2212              	.LVL211:
 2213              	.L186:
 997:../../Middlewares/Third_Party/LwIP/src/core/ipv4/etharp.c ****     /* send the packet */
 2214              		.loc 1 997 5 is_stmt 1 view .LVU611
 2215 00d6 444B     		ldr	r3, .L189+20
 2216 00d8 1C70     		strb	r4, [r3]
 999:../../Middlewares/Third_Party/LwIP/src/core/ipv4/etharp.c ****     /* pending entry? (either just created or already pending */
 2217              		.loc 1 999 5 view .LVU612
 999:../../Middlewares/Third_Party/LwIP/src/core/ipv4/etharp.c ****     /* pending entry? (either just created or already pending */
 2218              		.loc 1 999 49 is_stmt 0 view .LVU613
ARM GAS  C:\Users\minis\AppData\Local\Temp\ccY56pkX.s 			page 69


 2219 00da D300     		lsls	r3, r2, #3
 2220 00dc 0833     		adds	r3, r3, #8
 2221 00de 3D4A     		ldr	r2, .L189
 2222 00e0 1344     		add	r3, r3, r2
 999:../../Middlewares/Third_Party/LwIP/src/core/ipv4/etharp.c ****     /* pending entry? (either just created or already pending */
 2223              		.loc 1 999 14 view .LVU614
 2224 00e2 4FF40062 		mov	r2, #2048
 2225 00e6 0092     		str	r2, [sp]
 2226 00e8 0433     		adds	r3, r3, #4
 2227 00ea 3A46     		mov	r2, r7
 2228 00ec 3146     		mov	r1, r6
 2229 00ee 2846     		mov	r0, r5
 2230 00f0 FFF7FEFF 		bl	ethernet_output
 2231              	.LVL212:
 2232              	.L153:
1083:../../Middlewares/Third_Party/LwIP/src/core/ipv4/etharp.c **** 
 2233              		.loc 1 1083 1 view .LVU615
 2234 00f4 03B0     		add	sp, sp, #12
 2235              	.LCFI31:
 2236              		.cfi_remember_state
 2237              		.cfi_def_cfa_offset 28
 2238              		@ sp needed
 2239 00f6 BDE8F083 		pop	{r4, r5, r6, r7, r8, r9, pc}
 2240              	.LVL213:
 2241              	.L161:
 2242              	.LCFI32:
 2243              		.cfi_restore_state
 2244              	.LBB17:
1009:../../Middlewares/Third_Party/LwIP/src/core/ipv4/etharp.c ****       if (PBUF_NEEDS_COPY(p)) {
 2245              		.loc 1 1009 7 is_stmt 1 view .LVU616
1009:../../Middlewares/Third_Party/LwIP/src/core/ipv4/etharp.c ****       if (PBUF_NEEDS_COPY(p)) {
 2246              		.loc 1 1009 7 view .LVU617
1010:../../Middlewares/Third_Party/LwIP/src/core/ipv4/etharp.c ****         copy_needed = 1;
 2247              		.loc 1 1010 7 view .LVU618
1010:../../Middlewares/Third_Party/LwIP/src/core/ipv4/etharp.c ****         copy_needed = 1;
 2248              		.loc 1 1010 11 is_stmt 0 view .LVU619
 2249 00fa 2B7B     		ldrb	r3, [r5, #12]	@ zero_extendqisi2
1010:../../Middlewares/Third_Party/LwIP/src/core/ipv4/etharp.c ****         copy_needed = 1;
 2250              		.loc 1 1010 10 view .LVU620
 2251 00fc 13F0400F 		tst	r3, #64
 2252 0100 2BD1     		bne	.L177
1014:../../Middlewares/Third_Party/LwIP/src/core/ipv4/etharp.c ****     }
 2253              		.loc 1 1014 7 is_stmt 1 view .LVU621
1014:../../Middlewares/Third_Party/LwIP/src/core/ipv4/etharp.c ****     }
 2254              		.loc 1 1014 9 is_stmt 0 view .LVU622
 2255 0102 2D68     		ldr	r5, [r5]
 2256              	.LVL214:
 2257              	.L160:
1008:../../Middlewares/Third_Party/LwIP/src/core/ipv4/etharp.c ****       LWIP_ASSERT("no packet queues allowed!", (p->len != p->tot_len) || (p->next == 0));
 2258              		.loc 1 1008 12 is_stmt 1 view .LVU623
 2259 0104 75B1     		cbz	r5, .L187
1009:../../Middlewares/Third_Party/LwIP/src/core/ipv4/etharp.c ****       if (PBUF_NEEDS_COPY(p)) {
 2260              		.loc 1 1009 7 view .LVU624
1009:../../Middlewares/Third_Party/LwIP/src/core/ipv4/etharp.c ****       if (PBUF_NEEDS_COPY(p)) {
 2261              		.loc 1 1009 7 view .LVU625
 2262 0106 6A89     		ldrh	r2, [r5, #10]
 2263 0108 2B89     		ldrh	r3, [r5, #8]
ARM GAS  C:\Users\minis\AppData\Local\Temp\ccY56pkX.s 			page 70


 2264 010a 9A42     		cmp	r2, r3
 2265 010c F5D1     		bne	.L161
1009:../../Middlewares/Third_Party/LwIP/src/core/ipv4/etharp.c ****       if (PBUF_NEEDS_COPY(p)) {
 2266              		.loc 1 1009 7 is_stmt 0 discriminator 1 view .LVU626
 2267 010e 2B68     		ldr	r3, [r5]
 2268 0110 002B     		cmp	r3, #0
 2269 0112 F2D0     		beq	.L161
1009:../../Middlewares/Third_Party/LwIP/src/core/ipv4/etharp.c ****       if (PBUF_NEEDS_COPY(p)) {
 2270              		.loc 1 1009 7 is_stmt 1 discriminator 2 view .LVU627
1009:../../Middlewares/Third_Party/LwIP/src/core/ipv4/etharp.c ****       if (PBUF_NEEDS_COPY(p)) {
 2271              		.loc 1 1009 7 discriminator 2 view .LVU628
 2272 0114 304B     		ldr	r3, .L189+4
 2273 0116 40F2F132 		movw	r2, #1009
 2274 011a 3449     		ldr	r1, .L189+24
 2275 011c 3048     		ldr	r0, .L189+12
 2276 011e FFF7FEFF 		bl	printf
 2277              	.LVL215:
 2278 0122 EAE7     		b	.L161
 2279              	.L187:
1004:../../Middlewares/Third_Party/LwIP/src/core/ipv4/etharp.c ****     /* IF q includes a pbuf that must be copied, copy the whole chain into a
 2280              		.loc 1 1004 9 is_stmt 0 view .LVU629
 2281 0124 0023     		movs	r3, #0
 2282              	.L162:
 2283              	.LVL216:
1016:../../Middlewares/Third_Party/LwIP/src/core/ipv4/etharp.c ****       /* copy the whole packet into new pbufs */
 2284              		.loc 1 1016 5 is_stmt 1 view .LVU630
1016:../../Middlewares/Third_Party/LwIP/src/core/ipv4/etharp.c ****       /* copy the whole packet into new pbufs */
 2285              		.loc 1 1016 8 is_stmt 0 view .LVU631
 2286 0126 D3B1     		cbz	r3, .L164
1018:../../Middlewares/Third_Party/LwIP/src/core/ipv4/etharp.c ****     } else {
 2287              		.loc 1 1018 7 is_stmt 1 view .LVU632
1018:../../Middlewares/Third_Party/LwIP/src/core/ipv4/etharp.c ****     } else {
 2288              		.loc 1 1018 11 is_stmt 0 view .LVU633
 2289 0128 3246     		mov	r2, r6
 2290 012a 4FF42071 		mov	r1, #640
 2291 012e 0E20     		movs	r0, #14
 2292 0130 FFF7FEFF 		bl	pbuf_clone
 2293              	.LVL217:
1018:../../Middlewares/Third_Party/LwIP/src/core/ipv4/etharp.c ****     } else {
 2294              		.loc 1 1018 11 view .LVU634
 2295 0134 0646     		mov	r6, r0
 2296              	.LVL218:
 2297              	.L165:
1025:../../Middlewares/Third_Party/LwIP/src/core/ipv4/etharp.c ****       /* queue packet ... */
 2298              		.loc 1 1025 5 is_stmt 1 view .LVU635
1025:../../Middlewares/Third_Party/LwIP/src/core/ipv4/etharp.c ****       /* queue packet ... */
 2299              		.loc 1 1025 8 is_stmt 0 view .LVU636
 2300 0136 002E     		cmp	r6, #0
 2301 0138 48D0     		beq	.L178
 2302              	.LBB10:
1028:../../Middlewares/Third_Party/LwIP/src/core/ipv4/etharp.c ****       /* allocate a new arp queue entry */
 2303              		.loc 1 1028 7 is_stmt 1 view .LVU637
1030:../../Middlewares/Third_Party/LwIP/src/core/ipv4/etharp.c ****       if (new_entry != NULL) {
 2304              		.loc 1 1030 7 view .LVU638
1030:../../Middlewares/Third_Party/LwIP/src/core/ipv4/etharp.c ****       if (new_entry != NULL) {
 2305              		.loc 1 1030 44 is_stmt 0 view .LVU639
 2306 013a 0A20     		movs	r0, #10
ARM GAS  C:\Users\minis\AppData\Local\Temp\ccY56pkX.s 			page 71


 2307 013c FFF7FEFF 		bl	memp_malloc
 2308              	.LVL219:
1031:../../Middlewares/Third_Party/LwIP/src/core/ipv4/etharp.c ****         unsigned int qlen = 0;
 2309              		.loc 1 1031 7 is_stmt 1 view .LVU640
1031:../../Middlewares/Third_Party/LwIP/src/core/ipv4/etharp.c ****         unsigned int qlen = 0;
 2310              		.loc 1 1031 10 is_stmt 0 view .LVU641
 2311 0140 0546     		mov	r5, r0
 2312 0142 A0B3     		cbz	r0, .L166
 2313              	.LBB11:
1032:../../Middlewares/Third_Party/LwIP/src/core/ipv4/etharp.c ****         new_entry->next = 0;
 2314              		.loc 1 1032 9 is_stmt 1 view .LVU642
 2315              	.LVL220:
1033:../../Middlewares/Third_Party/LwIP/src/core/ipv4/etharp.c ****         new_entry->p = p;
 2316              		.loc 1 1033 9 view .LVU643
1033:../../Middlewares/Third_Party/LwIP/src/core/ipv4/etharp.c ****         new_entry->p = p;
 2317              		.loc 1 1033 25 is_stmt 0 view .LVU644
 2318 0144 0023     		movs	r3, #0
 2319 0146 0360     		str	r3, [r0]
1034:../../Middlewares/Third_Party/LwIP/src/core/ipv4/etharp.c ****         if (arp_table[i].q != NULL) {
 2320              		.loc 1 1034 9 is_stmt 1 view .LVU645
1034:../../Middlewares/Third_Party/LwIP/src/core/ipv4/etharp.c ****         if (arp_table[i].q != NULL) {
 2321              		.loc 1 1034 22 is_stmt 0 view .LVU646
 2322 0148 4660     		str	r6, [r0, #4]
1035:../../Middlewares/Third_Party/LwIP/src/core/ipv4/etharp.c ****           /* queue was already existent, append the new entry to the end */
 2323              		.loc 1 1035 9 is_stmt 1 view .LVU647
1035:../../Middlewares/Third_Party/LwIP/src/core/ipv4/etharp.c ****           /* queue was already existent, append the new entry to the end */
 2324              		.loc 1 1035 25 is_stmt 0 view .LVU648
 2325 014a 04EB4403 		add	r3, r4, r4, lsl #1
 2326 014e 214A     		ldr	r2, .L189
 2327 0150 52F83320 		ldr	r2, [r2, r3, lsl #3]
1035:../../Middlewares/Third_Party/LwIP/src/core/ipv4/etharp.c ****           /* queue was already existent, append the new entry to the end */
 2328              		.loc 1 1035 12 view .LVU649
 2329 0154 8AB1     		cbz	r2, .L188
 2330              	.LBB12:
1039:../../Middlewares/Third_Party/LwIP/src/core/ipv4/etharp.c ****           while (r->next != NULL) {
 2331              		.loc 1 1039 15 view .LVU650
 2332 0156 0121     		movs	r1, #1
 2333 0158 07E0     		b	.L167
 2334              	.LVL221:
 2335              	.L177:
1039:../../Middlewares/Third_Party/LwIP/src/core/ipv4/etharp.c ****           while (r->next != NULL) {
 2336              		.loc 1 1039 15 view .LVU651
 2337              	.LBE12:
 2338              	.LBE11:
 2339              	.LBE10:
1011:../../Middlewares/Third_Party/LwIP/src/core/ipv4/etharp.c ****         break;
 2340              		.loc 1 1011 21 view .LVU652
 2341 015a 0123     		movs	r3, #1
 2342 015c E3E7     		b	.L162
 2343              	.LVL222:
 2344              	.L164:
1021:../../Middlewares/Third_Party/LwIP/src/core/ipv4/etharp.c ****       pbuf_ref(p);
 2345              		.loc 1 1021 7 is_stmt 1 view .LVU653
1022:../../Middlewares/Third_Party/LwIP/src/core/ipv4/etharp.c ****     }
 2346              		.loc 1 1022 7 view .LVU654
 2347 015e 3046     		mov	r0, r6
 2348 0160 FFF7FEFF 		bl	pbuf_ref
ARM GAS  C:\Users\minis\AppData\Local\Temp\ccY56pkX.s 			page 72


 2349              	.LVL223:
1022:../../Middlewares/Third_Party/LwIP/src/core/ipv4/etharp.c ****     }
 2350              		.loc 1 1022 7 is_stmt 0 view .LVU655
 2351 0164 E7E7     		b	.L165
 2352              	.LVL224:
 2353              	.L169:
 2354              	.LBB16:
 2355              	.LBB15:
 2356              	.LBB13:
1041:../../Middlewares/Third_Party/LwIP/src/core/ipv4/etharp.c ****             qlen++;
 2357              		.loc 1 1041 13 is_stmt 1 view .LVU656
1042:../../Middlewares/Third_Party/LwIP/src/core/ipv4/etharp.c ****           }
 2358              		.loc 1 1042 13 view .LVU657
1042:../../Middlewares/Third_Party/LwIP/src/core/ipv4/etharp.c ****           }
 2359              		.loc 1 1042 17 is_stmt 0 view .LVU658
 2360 0166 0131     		adds	r1, r1, #1
 2361              	.LVL225:
1041:../../Middlewares/Third_Party/LwIP/src/core/ipv4/etharp.c ****             qlen++;
 2362              		.loc 1 1041 15 view .LVU659
 2363 0168 1A46     		mov	r2, r3
 2364              	.LVL226:
 2365              	.L167:
1040:../../Middlewares/Third_Party/LwIP/src/core/ipv4/etharp.c ****             r = r->next;
 2366              		.loc 1 1040 26 is_stmt 1 view .LVU660
1040:../../Middlewares/Third_Party/LwIP/src/core/ipv4/etharp.c ****             r = r->next;
 2367              		.loc 1 1040 19 is_stmt 0 view .LVU661
 2368 016a 1368     		ldr	r3, [r2]
1040:../../Middlewares/Third_Party/LwIP/src/core/ipv4/etharp.c ****             r = r->next;
 2369              		.loc 1 1040 26 view .LVU662
 2370 016c 002B     		cmp	r3, #0
 2371 016e FAD1     		bne	.L169
1044:../../Middlewares/Third_Party/LwIP/src/core/ipv4/etharp.c ****         } else {
 2372              		.loc 1 1044 11 is_stmt 1 view .LVU663
1044:../../Middlewares/Third_Party/LwIP/src/core/ipv4/etharp.c ****         } else {
 2373              		.loc 1 1044 19 is_stmt 0 view .LVU664
 2374 0170 1560     		str	r5, [r2]
1044:../../Middlewares/Third_Party/LwIP/src/core/ipv4/etharp.c ****         } else {
 2375              		.loc 1 1044 19 view .LVU665
 2376              	.LBE13:
1050:../../Middlewares/Third_Party/LwIP/src/core/ipv4/etharp.c ****           struct etharp_q_entry *old;
 2377              		.loc 1 1050 9 is_stmt 1 view .LVU666
1050:../../Middlewares/Third_Party/LwIP/src/core/ipv4/etharp.c ****           struct etharp_q_entry *old;
 2378              		.loc 1 1050 12 is_stmt 0 view .LVU667
 2379 0172 0229     		cmp	r1, #2
 2380 0174 08D8     		bhi	.L170
1059:../../Middlewares/Third_Party/LwIP/src/core/ipv4/etharp.c ****       } else {
 2381              		.loc 1 1059 16 view .LVU668
 2382 0176 0020     		movs	r0, #0
 2383              	.LVL227:
1059:../../Middlewares/Third_Party/LwIP/src/core/ipv4/etharp.c ****       } else {
 2384              		.loc 1 1059 16 view .LVU669
 2385 0178 BCE7     		b	.L153
 2386              	.LVL228:
 2387              	.L188:
1047:../../Middlewares/Third_Party/LwIP/src/core/ipv4/etharp.c ****         }
 2388              		.loc 1 1047 11 is_stmt 1 view .LVU670
1047:../../Middlewares/Third_Party/LwIP/src/core/ipv4/etharp.c ****         }
ARM GAS  C:\Users\minis\AppData\Local\Temp\ccY56pkX.s 			page 73


 2389              		.loc 1 1047 26 is_stmt 0 view .LVU671
 2390 017a 04EB4404 		add	r4, r4, r4, lsl #1
 2391              	.LVL229:
1047:../../Middlewares/Third_Party/LwIP/src/core/ipv4/etharp.c ****         }
 2392              		.loc 1 1047 26 view .LVU672
 2393 017e 154B     		ldr	r3, .L189
 2394 0180 43F83400 		str	r0, [r3, r4, lsl #3]
1050:../../Middlewares/Third_Party/LwIP/src/core/ipv4/etharp.c ****           struct etharp_q_entry *old;
 2395              		.loc 1 1050 9 is_stmt 1 view .LVU673
1059:../../Middlewares/Third_Party/LwIP/src/core/ipv4/etharp.c ****       } else {
 2396              		.loc 1 1059 16 is_stmt 0 view .LVU674
 2397 0184 0020     		movs	r0, #0
 2398              	.LVL230:
1059:../../Middlewares/Third_Party/LwIP/src/core/ipv4/etharp.c ****       } else {
 2399              		.loc 1 1059 16 view .LVU675
 2400 0186 B5E7     		b	.L153
 2401              	.LVL231:
 2402              	.L170:
 2403              	.LBB14:
1051:../../Middlewares/Third_Party/LwIP/src/core/ipv4/etharp.c ****           old = arp_table[i].q;
 2404              		.loc 1 1051 11 is_stmt 1 view .LVU676
1052:../../Middlewares/Third_Party/LwIP/src/core/ipv4/etharp.c ****           arp_table[i].q = arp_table[i].q->next;
 2405              		.loc 1 1052 11 view .LVU677
1052:../../Middlewares/Third_Party/LwIP/src/core/ipv4/etharp.c ****           arp_table[i].q = arp_table[i].q->next;
 2406              		.loc 1 1052 15 is_stmt 0 view .LVU678
 2407 0188 124B     		ldr	r3, .L189
 2408 018a 04EB4402 		add	r2, r4, r4, lsl #1
 2409              	.LVL232:
1052:../../Middlewares/Third_Party/LwIP/src/core/ipv4/etharp.c ****           arp_table[i].q = arp_table[i].q->next;
 2410              		.loc 1 1052 15 view .LVU679
 2411 018e 53F83250 		ldr	r5, [r3, r2, lsl #3]
 2412              	.LVL233:
1053:../../Middlewares/Third_Party/LwIP/src/core/ipv4/etharp.c ****           pbuf_free(old->p);
 2413              		.loc 1 1053 11 is_stmt 1 view .LVU680
1053:../../Middlewares/Third_Party/LwIP/src/core/ipv4/etharp.c ****           pbuf_free(old->p);
 2414              		.loc 1 1053 42 is_stmt 0 view .LVU681
 2415 0192 2A68     		ldr	r2, [r5]
1053:../../Middlewares/Third_Party/LwIP/src/core/ipv4/etharp.c ****           pbuf_free(old->p);
 2416              		.loc 1 1053 26 view .LVU682
 2417 0194 04EB4404 		add	r4, r4, r4, lsl #1
 2418              	.LVL234:
1053:../../Middlewares/Third_Party/LwIP/src/core/ipv4/etharp.c ****           pbuf_free(old->p);
 2419              		.loc 1 1053 26 view .LVU683
 2420 0198 43F83420 		str	r2, [r3, r4, lsl #3]
1054:../../Middlewares/Third_Party/LwIP/src/core/ipv4/etharp.c ****           memp_free(MEMP_ARP_QUEUE, old);
 2421              		.loc 1 1054 11 is_stmt 1 view .LVU684
 2422 019c 6868     		ldr	r0, [r5, #4]
 2423              	.LVL235:
1054:../../Middlewares/Third_Party/LwIP/src/core/ipv4/etharp.c ****           memp_free(MEMP_ARP_QUEUE, old);
 2424              		.loc 1 1054 11 is_stmt 0 view .LVU685
 2425 019e FFF7FEFF 		bl	pbuf_free
 2426              	.LVL236:
1055:../../Middlewares/Third_Party/LwIP/src/core/ipv4/etharp.c ****         }
 2427              		.loc 1 1055 11 is_stmt 1 view .LVU686
 2428 01a2 2946     		mov	r1, r5
 2429 01a4 0A20     		movs	r0, #10
 2430 01a6 FFF7FEFF 		bl	memp_free
ARM GAS  C:\Users\minis\AppData\Local\Temp\ccY56pkX.s 			page 74


 2431              	.LVL237:
 2432              	.LBE14:
1059:../../Middlewares/Third_Party/LwIP/src/core/ipv4/etharp.c ****       } else {
 2433              		.loc 1 1059 16 is_stmt 0 view .LVU687
 2434 01aa 0020     		movs	r0, #0
 2435 01ac A2E7     		b	.L153
 2436              	.LVL238:
 2437              	.L166:
1059:../../Middlewares/Third_Party/LwIP/src/core/ipv4/etharp.c ****       } else {
 2438              		.loc 1 1059 16 view .LVU688
 2439              	.LBE15:
1062:../../Middlewares/Third_Party/LwIP/src/core/ipv4/etharp.c ****         LWIP_DEBUGF(ETHARP_DEBUG | LWIP_DBG_TRACE, ("etharp_query: could not queue a copy of PBUF_R
 2440              		.loc 1 1062 9 is_stmt 1 view .LVU689
 2441 01ae 3046     		mov	r0, r6
 2442              	.LVL239:
1062:../../Middlewares/Third_Party/LwIP/src/core/ipv4/etharp.c ****         LWIP_DEBUGF(ETHARP_DEBUG | LWIP_DBG_TRACE, ("etharp_query: could not queue a copy of PBUF_R
 2443              		.loc 1 1062 9 is_stmt 0 view .LVU690
 2444 01b0 FFF7FEFF 		bl	pbuf_free
 2445              	.LVL240:
1063:../../Middlewares/Third_Party/LwIP/src/core/ipv4/etharp.c ****         result = ERR_MEM;
 2446              		.loc 1 1063 144 is_stmt 1 view .LVU691
1064:../../Middlewares/Third_Party/LwIP/src/core/ipv4/etharp.c ****       }
 2447              		.loc 1 1064 9 view .LVU692
1064:../../Middlewares/Third_Party/LwIP/src/core/ipv4/etharp.c ****       }
 2448              		.loc 1 1064 16 is_stmt 0 view .LVU693
 2449 01b4 4FF0FF30 		mov	r0, #-1
 2450 01b8 9CE7     		b	.L153
 2451              	.LVL241:
 2452              	.L171:
1064:../../Middlewares/Third_Party/LwIP/src/core/ipv4/etharp.c ****       }
 2453              		.loc 1 1064 16 view .LVU694
 2454              	.LBE16:
 2455              	.LBE17:
 946:../../Middlewares/Third_Party/LwIP/src/core/ipv4/etharp.c ****   }
 2456              		.loc 1 946 12 view .LVU695
 2457 01ba 6FF00F00 		mvn	r0, #15
 2458 01be 99E7     		b	.L153
 2459              	.L172:
 2460 01c0 6FF00F00 		mvn	r0, #15
 2461 01c4 96E7     		b	.L153
 2462              	.L173:
 2463 01c6 6FF00F00 		mvn	r0, #15
 2464 01ca 93E7     		b	.L153
 2465              	.LVL242:
 2466              	.L178:
 2467              	.LBB18:
1079:../../Middlewares/Third_Party/LwIP/src/core/ipv4/etharp.c ****     }
 2468              		.loc 1 1079 14 view .LVU696
 2469 01cc 4FF0FF30 		mov	r0, #-1
 2470 01d0 90E7     		b	.L153
 2471              	.L190:
 2472 01d2 00BF     		.align	2
 2473              	.L189:
 2474 01d4 00000000 		.word	arp_table
 2475 01d8 00000000 		.word	.LC0
 2476 01dc 00000000 		.word	.LC15
 2477 01e0 48000000 		.word	.LC2
ARM GAS  C:\Users\minis\AppData\Local\Temp\ccY56pkX.s 			page 75


 2478 01e4 10000000 		.word	.LC16
 2479 01e8 00000000 		.word	etharp_cached_entry
 2480 01ec 38000000 		.word	.LC17
 2481              	.LBE18:
 2482              		.cfi_endproc
 2483              	.LFE181:
 2485              		.section	.text.etharp_output,"ax",%progbits
 2486              		.align	1
 2487              		.global	etharp_output
 2488              		.syntax unified
 2489              		.thumb
 2490              		.thumb_func
 2492              	etharp_output:
 2493              	.LVL243:
 2494              	.LFB180:
 792:../../Middlewares/Third_Party/LwIP/src/core/ipv4/etharp.c ****   const struct eth_addr *dest;
 2495              		.loc 1 792 1 is_stmt 1 view -0
 2496              		.cfi_startproc
 2497              		@ args = 0, pretend = 0, frame = 8
 2498              		@ frame_needed = 0, uses_anonymous_args = 0
 792:../../Middlewares/Third_Party/LwIP/src/core/ipv4/etharp.c ****   const struct eth_addr *dest;
 2499              		.loc 1 792 1 is_stmt 0 view .LVU698
 2500 0000 70B5     		push	{r4, r5, r6, lr}
 2501              	.LCFI33:
 2502              		.cfi_def_cfa_offset 16
 2503              		.cfi_offset 4, -16
 2504              		.cfi_offset 5, -12
 2505              		.cfi_offset 6, -8
 2506              		.cfi_offset 14, -4
 2507 0002 84B0     		sub	sp, sp, #16
 2508              	.LCFI34:
 2509              		.cfi_def_cfa_offset 32
 2510 0004 0E46     		mov	r6, r1
 2511 0006 1446     		mov	r4, r2
 793:../../Middlewares/Third_Party/LwIP/src/core/ipv4/etharp.c ****   struct eth_addr mcastaddr;
 2512              		.loc 1 793 3 is_stmt 1 view .LVU699
 794:../../Middlewares/Third_Party/LwIP/src/core/ipv4/etharp.c ****   const ip4_addr_t *dst_addr = ipaddr;
 2513              		.loc 1 794 3 view .LVU700
 795:../../Middlewares/Third_Party/LwIP/src/core/ipv4/etharp.c **** 
 2514              		.loc 1 795 3 view .LVU701
 2515              	.LVL244:
 797:../../Middlewares/Third_Party/LwIP/src/core/ipv4/etharp.c ****   LWIP_ASSERT("netif != NULL", netif != NULL);
 2516              		.loc 1 797 28 view .LVU702
 798:../../Middlewares/Third_Party/LwIP/src/core/ipv4/etharp.c ****   LWIP_ASSERT("q != NULL", q != NULL);
 2517              		.loc 1 798 3 view .LVU703
 798:../../Middlewares/Third_Party/LwIP/src/core/ipv4/etharp.c ****   LWIP_ASSERT("q != NULL", q != NULL);
 2518              		.loc 1 798 3 view .LVU704
 2519 0008 0546     		mov	r5, r0
 2520 000a 0028     		cmp	r0, #0
 2521 000c 3DD0     		beq	.L206
 2522              	.LVL245:
 2523              	.L192:
 798:../../Middlewares/Third_Party/LwIP/src/core/ipv4/etharp.c ****   LWIP_ASSERT("q != NULL", q != NULL);
 2524              		.loc 1 798 3 view .LVU705
 798:../../Middlewares/Third_Party/LwIP/src/core/ipv4/etharp.c ****   LWIP_ASSERT("q != NULL", q != NULL);
 2525              		.loc 1 798 3 view .LVU706
 799:../../Middlewares/Third_Party/LwIP/src/core/ipv4/etharp.c ****   LWIP_ASSERT("ipaddr != NULL", ipaddr != NULL);
ARM GAS  C:\Users\minis\AppData\Local\Temp\ccY56pkX.s 			page 76


 2526              		.loc 1 799 3 view .LVU707
 799:../../Middlewares/Third_Party/LwIP/src/core/ipv4/etharp.c ****   LWIP_ASSERT("ipaddr != NULL", ipaddr != NULL);
 2527              		.loc 1 799 3 view .LVU708
 2528 000e 002E     		cmp	r6, #0
 2529 0010 43D0     		beq	.L207
 2530              	.L193:
 799:../../Middlewares/Third_Party/LwIP/src/core/ipv4/etharp.c ****   LWIP_ASSERT("ipaddr != NULL", ipaddr != NULL);
 2531              		.loc 1 799 3 view .LVU709
 799:../../Middlewares/Third_Party/LwIP/src/core/ipv4/etharp.c ****   LWIP_ASSERT("ipaddr != NULL", ipaddr != NULL);
 2532              		.loc 1 799 3 view .LVU710
 800:../../Middlewares/Third_Party/LwIP/src/core/ipv4/etharp.c **** 
 2533              		.loc 1 800 3 view .LVU711
 800:../../Middlewares/Third_Party/LwIP/src/core/ipv4/etharp.c **** 
 2534              		.loc 1 800 3 view .LVU712
 2535 0012 002C     		cmp	r4, #0
 2536 0014 49D0     		beq	.L208
 2537              	.L194:
 800:../../Middlewares/Third_Party/LwIP/src/core/ipv4/etharp.c **** 
 2538              		.loc 1 800 3 view .LVU713
 800:../../Middlewares/Third_Party/LwIP/src/core/ipv4/etharp.c **** 
 2539              		.loc 1 800 3 view .LVU714
 806:../../Middlewares/Third_Party/LwIP/src/core/ipv4/etharp.c ****     /* broadcast on Ethernet also */
 2540              		.loc 1 806 3 view .LVU715
 806:../../Middlewares/Third_Party/LwIP/src/core/ipv4/etharp.c ****     /* broadcast on Ethernet also */
 2541              		.loc 1 806 7 is_stmt 0 view .LVU716
 2542 0016 2946     		mov	r1, r5
 2543 0018 2068     		ldr	r0, [r4]
 2544 001a FFF7FEFF 		bl	ip4_addr_isbroadcast_u32
 2545              	.LVL246:
 806:../../Middlewares/Third_Party/LwIP/src/core/ipv4/etharp.c ****     /* broadcast on Ethernet also */
 2546              		.loc 1 806 6 discriminator 1 view .LVU717
 2547 001e 0346     		mov	r3, r0
 2548 0020 0028     		cmp	r0, #0
 2549 0022 40F08480 		bne	.L203
 810:../../Middlewares/Third_Party/LwIP/src/core/ipv4/etharp.c ****     /* Hash IP multicast address to MAC address.*/
 2550              		.loc 1 810 10 is_stmt 1 view .LVU718
 810:../../Middlewares/Third_Party/LwIP/src/core/ipv4/etharp.c ****     /* Hash IP multicast address to MAC address.*/
 2551              		.loc 1 810 14 is_stmt 0 view .LVU719
 2552 0026 2268     		ldr	r2, [r4]
 2553 0028 02F0F001 		and	r1, r2, #240
 810:../../Middlewares/Third_Party/LwIP/src/core/ipv4/etharp.c ****     /* Hash IP multicast address to MAC address.*/
 2554              		.loc 1 810 13 view .LVU720
 2555 002c E029     		cmp	r1, #224
 2556 002e 44D0     		beq	.L209
 2557              	.LBB19:
 822:../../Middlewares/Third_Party/LwIP/src/core/ipv4/etharp.c ****     /* outside local network? if so, this can neither be a global broadcast nor
 2558              		.loc 1 822 5 is_stmt 1 view .LVU721
 825:../../Middlewares/Third_Party/LwIP/src/core/ipv4/etharp.c ****         !ip4_addr_islinklocal(ipaddr)) {
 2559              		.loc 1 825 5 view .LVU722
 825:../../Middlewares/Third_Party/LwIP/src/core/ipv4/etharp.c ****         !ip4_addr_islinklocal(ipaddr)) {
 2560              		.loc 1 825 10 is_stmt 0 view .LVU723
 2561 0030 6968     		ldr	r1, [r5, #4]
 2562 0032 A868     		ldr	r0, [r5, #8]
 825:../../Middlewares/Third_Party/LwIP/src/core/ipv4/etharp.c ****         !ip4_addr_islinklocal(ipaddr)) {
 2563              		.loc 1 825 9 view .LVU724
 2564 0034 5140     		eors	r1, r1, r2
 825:../../Middlewares/Third_Party/LwIP/src/core/ipv4/etharp.c ****         !ip4_addr_islinklocal(ipaddr)) {
ARM GAS  C:\Users\minis\AppData\Local\Temp\ccY56pkX.s 			page 77


 2565              		.loc 1 825 8 view .LVU725
 2566 0036 0142     		tst	r1, r0
 2567 0038 09D0     		beq	.L197
 826:../../Middlewares/Third_Party/LwIP/src/core/ipv4/etharp.c **** #if LWIP_AUTOIP
 2568              		.loc 1 826 10 view .LVU726
 2569 003a 92B2     		uxth	r2, r2
 825:../../Middlewares/Third_Party/LwIP/src/core/ipv4/etharp.c ****         !ip4_addr_islinklocal(ipaddr)) {
 2570              		.loc 1 825 83 discriminator 1 view .LVU727
 2571 003c 4FF6A961 		movw	r1, #65193
 2572 0040 8A42     		cmp	r2, r1
 2573 0042 04D0     		beq	.L197
 844:../../Middlewares/Third_Party/LwIP/src/core/ipv4/etharp.c ****             /* send to hardware address of default gateway IP address */
 2574              		.loc 1 844 11 is_stmt 1 view .LVU728
 844:../../Middlewares/Third_Party/LwIP/src/core/ipv4/etharp.c ****             /* send to hardware address of default gateway IP address */
 2575              		.loc 1 844 16 is_stmt 0 view .LVU729
 2576 0044 EA68     		ldr	r2, [r5, #12]
 844:../../Middlewares/Third_Party/LwIP/src/core/ipv4/etharp.c ****             /* send to hardware address of default gateway IP address */
 2577              		.loc 1 844 14 view .LVU730
 2578 0046 002A     		cmp	r2, #0
 2579 0048 7DD0     		beq	.L204
 846:../../Middlewares/Third_Party/LwIP/src/core/ipv4/etharp.c ****             /* no default gateway available */
 2580              		.loc 1 846 13 is_stmt 1 view .LVU731
 846:../../Middlewares/Third_Party/LwIP/src/core/ipv4/etharp.c ****             /* no default gateway available */
 2581              		.loc 1 846 22 is_stmt 0 view .LVU732
 2582 004a 05F10C04 		add	r4, r5, #12
 2583              	.LVL247:
 2584              	.L197:
 861:../../Middlewares/Third_Party/LwIP/src/core/ipv4/etharp.c **** #if ETHARP_TABLE_MATCH_NETIF
 2585              		.loc 1 861 9 is_stmt 1 view .LVU733
 861:../../Middlewares/Third_Party/LwIP/src/core/ipv4/etharp.c **** #if ETHARP_TABLE_MATCH_NETIF
 2586              		.loc 1 861 44 is_stmt 0 view .LVU734
 2587 004e 3F4A     		ldr	r2, .L211
 2588 0050 1278     		ldrb	r2, [r2]	@ zero_extendqisi2
 2589 0052 02EB4200 		add	r0, r2, r2, lsl #1
 2590 0056 3E49     		ldr	r1, .L211+4
 2591 0058 01EBC001 		add	r1, r1, r0, lsl #3
 2592 005c 097D     		ldrb	r1, [r1, #20]	@ zero_extendqisi2
 861:../../Middlewares/Third_Party/LwIP/src/core/ipv4/etharp.c **** #if ETHARP_TABLE_MATCH_NETIF
 2593              		.loc 1 861 12 view .LVU735
 2594 005e 0129     		cmp	r1, #1
 2595 0060 43D9     		bls	.L201
 863:../../Middlewares/Third_Party/LwIP/src/core/ipv4/etharp.c **** #endif
 2596              		.loc 1 863 44 view .LVU736
 2597 0062 3B49     		ldr	r1, .L211+4
 2598 0064 01EBC001 		add	r1, r1, r0, lsl #3
 2599 0068 8968     		ldr	r1, [r1, #8]
 861:../../Middlewares/Third_Party/LwIP/src/core/ipv4/etharp.c **** #if ETHARP_TABLE_MATCH_NETIF
 2600              		.loc 1 861 75 discriminator 1 view .LVU737
 2601 006a A942     		cmp	r1, r5
 2602 006c 3DD1     		bne	.L201
 865:../../Middlewares/Third_Party/LwIP/src/core/ipv4/etharp.c ****           /* the per-pcb-cached entry is stable and the right one! */
 2603              		.loc 1 865 14 view .LVU738
 2604 006e 2068     		ldr	r0, [r4]
 2605 0070 02EB420C 		add	ip, r2, r2, lsl #1
 2606 0074 3649     		ldr	r1, .L211+4
 2607 0076 01EBCC01 		add	r1, r1, ip, lsl #3
 2608 007a 4968     		ldr	r1, [r1, #4]
ARM GAS  C:\Users\minis\AppData\Local\Temp\ccY56pkX.s 			page 78


 863:../../Middlewares/Third_Party/LwIP/src/core/ipv4/etharp.c **** #endif
 2609              		.loc 1 863 61 view .LVU739
 2610 007c 8842     		cmp	r0, r1
 2611 007e 34D1     		bne	.L201
 867:../../Middlewares/Third_Party/LwIP/src/core/ipv4/etharp.c ****           return etharp_output_to_arp_index(netif, q, etharp_cached_entry);
 2612              		.loc 1 867 44 is_stmt 1 view .LVU740
 868:../../Middlewares/Third_Party/LwIP/src/core/ipv4/etharp.c ****         }
 2613              		.loc 1 868 11 view .LVU741
 868:../../Middlewares/Third_Party/LwIP/src/core/ipv4/etharp.c ****         }
 2614              		.loc 1 868 18 is_stmt 0 view .LVU742
 2615 0080 3146     		mov	r1, r6
 2616 0082 2846     		mov	r0, r5
 2617 0084 FFF7FEFF 		bl	etharp_output_to_arp_index
 2618              	.LVL248:
 2619 0088 5BE0     		b	.L198
 2620              	.LVL249:
 2621              	.L206:
 868:../../Middlewares/Third_Party/LwIP/src/core/ipv4/etharp.c ****         }
 2622              		.loc 1 868 18 view .LVU743
 2623              	.LBE19:
 798:../../Middlewares/Third_Party/LwIP/src/core/ipv4/etharp.c ****   LWIP_ASSERT("q != NULL", q != NULL);
 2624              		.loc 1 798 3 is_stmt 1 discriminator 1 view .LVU744
 798:../../Middlewares/Third_Party/LwIP/src/core/ipv4/etharp.c ****   LWIP_ASSERT("q != NULL", q != NULL);
 2625              		.loc 1 798 3 discriminator 1 view .LVU745
 2626 008a 324B     		ldr	r3, .L211+8
 2627 008c 40F21E32 		movw	r2, #798
 2628              	.LVL250:
 798:../../Middlewares/Third_Party/LwIP/src/core/ipv4/etharp.c ****   LWIP_ASSERT("q != NULL", q != NULL);
 2629              		.loc 1 798 3 is_stmt 0 discriminator 1 view .LVU746
 2630 0090 3149     		ldr	r1, .L211+12
 2631              	.LVL251:
 798:../../Middlewares/Third_Party/LwIP/src/core/ipv4/etharp.c ****   LWIP_ASSERT("q != NULL", q != NULL);
 2632              		.loc 1 798 3 discriminator 1 view .LVU747
 2633 0092 3248     		ldr	r0, .L211+16
 2634              	.LVL252:
 798:../../Middlewares/Third_Party/LwIP/src/core/ipv4/etharp.c ****   LWIP_ASSERT("q != NULL", q != NULL);
 2635              		.loc 1 798 3 discriminator 1 view .LVU748
 2636 0094 FFF7FEFF 		bl	printf
 2637              	.LVL253:
 2638 0098 B9E7     		b	.L192
 2639              	.L207:
 799:../../Middlewares/Third_Party/LwIP/src/core/ipv4/etharp.c ****   LWIP_ASSERT("ipaddr != NULL", ipaddr != NULL);
 2640              		.loc 1 799 3 is_stmt 1 discriminator 1 view .LVU749
 799:../../Middlewares/Third_Party/LwIP/src/core/ipv4/etharp.c ****   LWIP_ASSERT("ipaddr != NULL", ipaddr != NULL);
 2641              		.loc 1 799 3 discriminator 1 view .LVU750
 2642 009a 2E4B     		ldr	r3, .L211+8
 2643 009c 40F21F32 		movw	r2, #799
 2644 00a0 2F49     		ldr	r1, .L211+20
 2645 00a2 2E48     		ldr	r0, .L211+16
 2646 00a4 FFF7FEFF 		bl	printf
 2647              	.LVL254:
 2648 00a8 B3E7     		b	.L193
 2649              	.L208:
 800:../../Middlewares/Third_Party/LwIP/src/core/ipv4/etharp.c **** 
 2650              		.loc 1 800 3 discriminator 1 view .LVU751
 800:../../Middlewares/Third_Party/LwIP/src/core/ipv4/etharp.c **** 
 2651              		.loc 1 800 3 discriminator 1 view .LVU752
ARM GAS  C:\Users\minis\AppData\Local\Temp\ccY56pkX.s 			page 79


 2652 00aa 2A4B     		ldr	r3, .L211+8
 2653 00ac 4FF44872 		mov	r2, #800
 2654 00b0 2C49     		ldr	r1, .L211+24
 2655 00b2 2A48     		ldr	r0, .L211+16
 2656 00b4 FFF7FEFF 		bl	printf
 2657              	.LVL255:
 2658 00b8 ADE7     		b	.L194
 2659              	.L209:
 812:../../Middlewares/Third_Party/LwIP/src/core/ipv4/etharp.c ****     mcastaddr.addr[1] = LL_IP4_MULTICAST_ADDR_1;
 2660              		.loc 1 812 5 view .LVU753
 812:../../Middlewares/Third_Party/LwIP/src/core/ipv4/etharp.c ****     mcastaddr.addr[1] = LL_IP4_MULTICAST_ADDR_1;
 2661              		.loc 1 812 23 is_stmt 0 view .LVU754
 2662 00ba 0123     		movs	r3, #1
 2663 00bc 8DF80830 		strb	r3, [sp, #8]
 813:../../Middlewares/Third_Party/LwIP/src/core/ipv4/etharp.c ****     mcastaddr.addr[2] = LL_IP4_MULTICAST_ADDR_2;
 2664              		.loc 1 813 5 is_stmt 1 view .LVU755
 813:../../Middlewares/Third_Party/LwIP/src/core/ipv4/etharp.c ****     mcastaddr.addr[2] = LL_IP4_MULTICAST_ADDR_2;
 2665              		.loc 1 813 23 is_stmt 0 view .LVU756
 2666 00c0 0023     		movs	r3, #0
 2667 00c2 8DF80930 		strb	r3, [sp, #9]
 814:../../Middlewares/Third_Party/LwIP/src/core/ipv4/etharp.c ****     mcastaddr.addr[3] = ip4_addr2(ipaddr) & 0x7f;
 2668              		.loc 1 814 5 is_stmt 1 view .LVU757
 814:../../Middlewares/Third_Party/LwIP/src/core/ipv4/etharp.c ****     mcastaddr.addr[3] = ip4_addr2(ipaddr) & 0x7f;
 2669              		.loc 1 814 23 is_stmt 0 view .LVU758
 2670 00c6 5E23     		movs	r3, #94
 2671 00c8 8DF80A30 		strb	r3, [sp, #10]
 815:../../Middlewares/Third_Party/LwIP/src/core/ipv4/etharp.c ****     mcastaddr.addr[4] = ip4_addr3(ipaddr);
 2672              		.loc 1 815 5 is_stmt 1 view .LVU759
 815:../../Middlewares/Third_Party/LwIP/src/core/ipv4/etharp.c ****     mcastaddr.addr[4] = ip4_addr3(ipaddr);
 2673              		.loc 1 815 43 is_stmt 0 view .LVU760
 2674 00cc 6378     		ldrb	r3, [r4, #1]	@ zero_extendqisi2
 2675 00ce 03F07F03 		and	r3, r3, #127
 815:../../Middlewares/Third_Party/LwIP/src/core/ipv4/etharp.c ****     mcastaddr.addr[4] = ip4_addr3(ipaddr);
 2676              		.loc 1 815 23 view .LVU761
 2677 00d2 8DF80B30 		strb	r3, [sp, #11]
 816:../../Middlewares/Third_Party/LwIP/src/core/ipv4/etharp.c ****     mcastaddr.addr[5] = ip4_addr4(ipaddr);
 2678              		.loc 1 816 5 is_stmt 1 view .LVU762
 816:../../Middlewares/Third_Party/LwIP/src/core/ipv4/etharp.c ****     mcastaddr.addr[5] = ip4_addr4(ipaddr);
 2679              		.loc 1 816 25 is_stmt 0 view .LVU763
 2680 00d6 A378     		ldrb	r3, [r4, #2]	@ zero_extendqisi2
 816:../../Middlewares/Third_Party/LwIP/src/core/ipv4/etharp.c ****     mcastaddr.addr[5] = ip4_addr4(ipaddr);
 2681              		.loc 1 816 23 view .LVU764
 2682 00d8 8DF80C30 		strb	r3, [sp, #12]
 817:../../Middlewares/Third_Party/LwIP/src/core/ipv4/etharp.c ****     /* destination Ethernet address is multicast */
 2683              		.loc 1 817 5 is_stmt 1 view .LVU765
 817:../../Middlewares/Third_Party/LwIP/src/core/ipv4/etharp.c ****     /* destination Ethernet address is multicast */
 2684              		.loc 1 817 25 is_stmt 0 view .LVU766
 2685 00dc E378     		ldrb	r3, [r4, #3]	@ zero_extendqisi2
 817:../../Middlewares/Third_Party/LwIP/src/core/ipv4/etharp.c ****     /* destination Ethernet address is multicast */
 2686              		.loc 1 817 23 view .LVU767
 2687 00de 8DF80D30 		strb	r3, [sp, #13]
 819:../../Middlewares/Third_Party/LwIP/src/core/ipv4/etharp.c ****     /* unicast destination IP address? */
 2688              		.loc 1 819 5 is_stmt 1 view .LVU768
 2689              	.LVL256:
 819:../../Middlewares/Third_Party/LwIP/src/core/ipv4/etharp.c ****     /* unicast destination IP address? */
 2690              		.loc 1 819 10 is_stmt 0 view .LVU769
 2691 00e2 02AB     		add	r3, sp, #8
ARM GAS  C:\Users\minis\AppData\Local\Temp\ccY56pkX.s 			page 80


 2692              	.LVL257:
 819:../../Middlewares/Third_Party/LwIP/src/core/ipv4/etharp.c ****     /* unicast destination IP address? */
 2693              		.loc 1 819 10 view .LVU770
 2694 00e4 24E0     		b	.L195
 2695              	.LVL258:
 2696              	.L200:
 2697              	.LBB20:
 877:../../Middlewares/Third_Party/LwIP/src/core/ipv4/etharp.c ****       if ((arp_table[i].state >= ETHARP_STATE_STABLE) &&
 2698              		.loc 1 877 38 is_stmt 1 discriminator 2 view .LVU771
 2699 00e6 0133     		adds	r3, r3, #1
 2700              	.LVL259:
 877:../../Middlewares/Third_Party/LwIP/src/core/ipv4/etharp.c ****       if ((arp_table[i].state >= ETHARP_STATE_STABLE) &&
 2701              		.loc 1 877 38 is_stmt 0 discriminator 2 view .LVU772
 2702 00e8 DBB2     		uxtb	r3, r3
 2703              	.LVL260:
 2704              	.L201:
 877:../../Middlewares/Third_Party/LwIP/src/core/ipv4/etharp.c ****       if ((arp_table[i].state >= ETHARP_STATE_STABLE) &&
 2705              		.loc 1 877 19 is_stmt 1 discriminator 1 view .LVU773
 2706 00ea 092B     		cmp	r3, #9
 2707 00ec 19D8     		bhi	.L210
 878:../../Middlewares/Third_Party/LwIP/src/core/ipv4/etharp.c **** #if ETHARP_TABLE_MATCH_NETIF
 2708              		.loc 1 878 7 view .LVU774
 878:../../Middlewares/Third_Party/LwIP/src/core/ipv4/etharp.c **** #if ETHARP_TABLE_MATCH_NETIF
 2709              		.loc 1 878 24 is_stmt 0 view .LVU775
 2710 00ee 03EB430C 		add	ip, r3, r3, lsl #1
 2711 00f2 1748     		ldr	r0, .L211+4
 2712 00f4 00EBCC00 		add	r0, r0, ip, lsl #3
 2713 00f8 027D     		ldrb	r2, [r0, #20]	@ zero_extendqisi2
 878:../../Middlewares/Third_Party/LwIP/src/core/ipv4/etharp.c **** #if ETHARP_TABLE_MATCH_NETIF
 2714              		.loc 1 878 10 view .LVU776
 2715 00fa 012A     		cmp	r2, #1
 2716 00fc F3D9     		bls	.L200
 880:../../Middlewares/Third_Party/LwIP/src/core/ipv4/etharp.c **** #endif
 2717              		.loc 1 880 24 view .LVU777
 2718 00fe 8268     		ldr	r2, [r0, #8]
 878:../../Middlewares/Third_Party/LwIP/src/core/ipv4/etharp.c **** #if ETHARP_TABLE_MATCH_NETIF
 2719              		.loc 1 878 55 discriminator 1 view .LVU778
 2720 0100 AA42     		cmp	r2, r5
 2721 0102 F0D1     		bne	.L200
 882:../../Middlewares/Third_Party/LwIP/src/core/ipv4/etharp.c ****         /* found an existing, stable entry */
 2722              		.loc 1 882 12 view .LVU779
 2723 0104 2068     		ldr	r0, [r4]
 2724 0106 124A     		ldr	r2, .L211+4
 2725 0108 02EBCC02 		add	r2, r2, ip, lsl #3
 2726 010c 5268     		ldr	r2, [r2, #4]
 880:../../Middlewares/Third_Party/LwIP/src/core/ipv4/etharp.c **** #endif
 2727              		.loc 1 880 41 view .LVU780
 2728 010e 9042     		cmp	r0, r2
 2729 0110 E9D1     		bne	.L200
 884:../../Middlewares/Third_Party/LwIP/src/core/ipv4/etharp.c ****         return etharp_output_to_arp_index(netif, q, i);
 2730              		.loc 1 884 9 is_stmt 1 view .LVU781
 2731 0112 0E4A     		ldr	r2, .L211
 2732 0114 1370     		strb	r3, [r2]
 885:../../Middlewares/Third_Party/LwIP/src/core/ipv4/etharp.c ****       }
 2733              		.loc 1 885 9 view .LVU782
 885:../../Middlewares/Third_Party/LwIP/src/core/ipv4/etharp.c ****       }
 2734              		.loc 1 885 16 is_stmt 0 view .LVU783
ARM GAS  C:\Users\minis\AppData\Local\Temp\ccY56pkX.s 			page 81


 2735 0116 1A46     		mov	r2, r3
 2736 0118 3146     		mov	r1, r6
 2737 011a 2846     		mov	r0, r5
 2738 011c FFF7FEFF 		bl	etharp_output_to_arp_index
 2739              	.LVL261:
 885:../../Middlewares/Third_Party/LwIP/src/core/ipv4/etharp.c ****       }
 2740              		.loc 1 885 16 view .LVU784
 2741 0120 0FE0     		b	.L198
 2742              	.LVL262:
 2743              	.L210:
 890:../../Middlewares/Third_Party/LwIP/src/core/ipv4/etharp.c ****   }
 2744              		.loc 1 890 5 is_stmt 1 view .LVU785
 890:../../Middlewares/Third_Party/LwIP/src/core/ipv4/etharp.c ****   }
 2745              		.loc 1 890 12 is_stmt 0 view .LVU786
 2746 0122 3246     		mov	r2, r6
 2747 0124 2146     		mov	r1, r4
 2748 0126 2846     		mov	r0, r5
 2749 0128 FFF7FEFF 		bl	etharp_query
 2750              	.LVL263:
 890:../../Middlewares/Third_Party/LwIP/src/core/ipv4/etharp.c ****   }
 2751              		.loc 1 890 12 view .LVU787
 2752 012c 09E0     		b	.L198
 2753              	.LVL264:
 2754              	.L203:
 890:../../Middlewares/Third_Party/LwIP/src/core/ipv4/etharp.c ****   }
 2755              		.loc 1 890 12 view .LVU788
 2756              	.LBE20:
 808:../../Middlewares/Third_Party/LwIP/src/core/ipv4/etharp.c ****     /* multicast destination IP address? */
 2757              		.loc 1 808 10 view .LVU789
 2758 012e 0E4B     		ldr	r3, .L211+28
 2759              	.L195:
 2760              	.LVL265:
 896:../../Middlewares/Third_Party/LwIP/src/core/ipv4/etharp.c **** }
 2761              		.loc 1 896 3 is_stmt 1 view .LVU790
 896:../../Middlewares/Third_Party/LwIP/src/core/ipv4/etharp.c **** }
 2762              		.loc 1 896 10 is_stmt 0 view .LVU791
 2763 0130 4FF40062 		mov	r2, #2048
 2764 0134 0092     		str	r2, [sp]
 2765 0136 05F12602 		add	r2, r5, #38
 2766 013a 3146     		mov	r1, r6
 2767 013c 2846     		mov	r0, r5
 2768 013e FFF7FEFF 		bl	ethernet_output
 2769              	.LVL266:
 2770              	.L198:
 897:../../Middlewares/Third_Party/LwIP/src/core/ipv4/etharp.c **** 
 2771              		.loc 1 897 1 view .LVU792
 2772 0142 04B0     		add	sp, sp, #16
 2773              	.LCFI35:
 2774              		.cfi_remember_state
 2775              		.cfi_def_cfa_offset 16
 2776              		@ sp needed
 2777 0144 70BD     		pop	{r4, r5, r6, pc}
 2778              	.LVL267:
 2779              	.L204:
 2780              	.LCFI36:
 2781              		.cfi_restore_state
 2782              	.LBB21:
ARM GAS  C:\Users\minis\AppData\Local\Temp\ccY56pkX.s 			page 82


 850:../../Middlewares/Third_Party/LwIP/src/core/ipv4/etharp.c ****           }
 2783              		.loc 1 850 20 view .LVU793
 2784 0146 6FF00300 		mvn	r0, #3
 2785 014a FAE7     		b	.L198
 2786              	.L212:
 2787              		.align	2
 2788              	.L211:
 2789 014c 00000000 		.word	etharp_cached_entry
 2790 0150 00000000 		.word	arp_table
 2791 0154 00000000 		.word	.LC0
 2792 0158 00000000 		.word	.LC8
 2793 015c 48000000 		.word	.LC2
 2794 0160 3C000000 		.word	.LC1
 2795 0164 00000000 		.word	.LC12
 2796 0168 00000000 		.word	ethbroadcast
 2797              	.LBE21:
 2798              		.cfi_endproc
 2799              	.LFE180:
 2801              		.section	.bss.etharp_cached_entry,"aw",%nobits
 2804              	etharp_cached_entry:
 2805 0000 00       		.space	1
 2806              		.section	.bss.arp_table,"aw",%nobits
 2807              		.align	2
 2810              	arp_table:
 2811 0000 00000000 		.space	240
 2811      00000000 
 2811      00000000 
 2811      00000000 
 2811      00000000 
 2812              		.text
 2813              	.Letext0:
 2814              		.file 2 "C:/Program Files (x86)/Arm GNU Toolchain arm-none-eabi/14.3 rel1/arm-none-eabi/include/ma
 2815              		.file 3 "C:/Program Files (x86)/Arm GNU Toolchain arm-none-eabi/14.3 rel1/arm-none-eabi/include/sy
 2816              		.file 4 "C:/Program Files (x86)/Arm GNU Toolchain arm-none-eabi/14.3 rel1/lib/gcc/arm-none-eabi/14
 2817              		.file 5 "C:/Program Files (x86)/Arm GNU Toolchain arm-none-eabi/14.3 rel1/arm-none-eabi/include/sy
 2818              		.file 6 "C:/Program Files (x86)/Arm GNU Toolchain arm-none-eabi/14.3 rel1/arm-none-eabi/include/st
 2819              		.file 7 "../../Middlewares/Third_Party/LwIP/src/include/lwip/arch.h"
 2820              		.file 8 "../../Middlewares/Third_Party/LwIP/src/include/lwip/err.h"
 2821              		.file 9 "../../Middlewares/Third_Party/LwIP/src/include/lwip/pbuf.h"
 2822              		.file 10 "../../Middlewares/Third_Party/LwIP/src/include/lwip/ip4_addr.h"
 2823              		.file 11 "../../Middlewares/Third_Party/LwIP/src/include/lwip/ip_addr.h"
 2824              		.file 12 "../../Middlewares/Third_Party/LwIP/src/include/lwip/memp.h"
 2825              		.file 13 "../../Middlewares/Third_Party/LwIP/src/include/lwip/netif.h"
 2826              		.file 14 "../../Middlewares/Third_Party/LwIP/src/include/lwip/prot/ethernet.h"
 2827              		.file 15 "../../Middlewares/Third_Party/LwIP/src/include/lwip/prot/etharp.h"
 2828              		.file 16 "../../Middlewares/Third_Party/LwIP/src/include/lwip/prot/ieee.h"
 2829              		.file 17 "../../Middlewares/Third_Party/LwIP/src/include/lwip/etharp.h"
 2830              		.file 18 "../../Middlewares/Third_Party/LwIP/src/include/lwip/prot/iana.h"
 2831              		.file 19 "../../Middlewares/Third_Party/LwIP/src/include/netif/ethernet.h"
 2832              		.file 20 "../../Middlewares/Third_Party/LwIP/src/include/lwip/def.h"
 2833              		.file 21 "C:/Program Files (x86)/Arm GNU Toolchain arm-none-eabi/14.3 rel1/arm-none-eabi/include/s
ARM GAS  C:\Users\minis\AppData\Local\Temp\ccY56pkX.s 			page 83


DEFINED SYMBOLS
                            *ABS*:00000000 etharp.c
C:\Users\minis\AppData\Local\Temp\ccY56pkX.s:19     .rodata.free_etharp_q.str1.4:00000000 $d
C:\Users\minis\AppData\Local\Temp\ccY56pkX.s:33     .text.free_etharp_q:00000000 $t
C:\Users\minis\AppData\Local\Temp\ccY56pkX.s:38     .text.free_etharp_q:00000000 free_etharp_q
C:\Users\minis\AppData\Local\Temp\ccY56pkX.s:117    .text.free_etharp_q:00000040 $d
C:\Users\minis\AppData\Local\Temp\ccY56pkX.s:125    .text.etharp_free_entry:00000000 $t
C:\Users\minis\AppData\Local\Temp\ccY56pkX.s:130    .text.etharp_free_entry:00000000 etharp_free_entry
C:\Users\minis\AppData\Local\Temp\ccY56pkX.s:179    .text.etharp_free_entry:00000030 $d
C:\Users\minis\AppData\Local\Temp\ccY56pkX.s:2810   .bss.arp_table:00000000 arp_table
C:\Users\minis\AppData\Local\Temp\ccY56pkX.s:184    .rodata.etharp_find_entry.str1.4:00000000 $d
C:\Users\minis\AppData\Local\Temp\ccY56pkX.s:194    .text.etharp_find_entry:00000000 $t
C:\Users\minis\AppData\Local\Temp\ccY56pkX.s:199    .text.etharp_find_entry:00000000 etharp_find_entry
C:\Users\minis\AppData\Local\Temp\ccY56pkX.s:587    .text.etharp_find_entry:00000198 $d
C:\Users\minis\AppData\Local\Temp\ccY56pkX.s:597    .rodata.etharp_update_arp_entry.str1.4:00000000 $d
C:\Users\minis\AppData\Local\Temp\ccY56pkX.s:601    .text.etharp_update_arp_entry:00000000 $t
C:\Users\minis\AppData\Local\Temp\ccY56pkX.s:606    .text.etharp_update_arp_entry:00000000 etharp_update_arp_entry
C:\Users\minis\AppData\Local\Temp\ccY56pkX.s:791    .text.etharp_update_arp_entry:000000c0 $d
C:\Users\minis\AppData\Local\Temp\ccY56pkX.s:799    .rodata.etharp_raw.str1.4:00000000 $d
C:\Users\minis\AppData\Local\Temp\ccY56pkX.s:810    .text.etharp_raw:00000000 $t
C:\Users\minis\AppData\Local\Temp\ccY56pkX.s:815    .text.etharp_raw:00000000 etharp_raw
C:\Users\minis\AppData\Local\Temp\ccY56pkX.s:1016   .text.etharp_raw:000000d4 $d
C:\Users\minis\AppData\Local\Temp\ccY56pkX.s:1025   .text.etharp_request_dst:00000000 $t
C:\Users\minis\AppData\Local\Temp\ccY56pkX.s:1030   .text.etharp_request_dst:00000000 etharp_request_dst
C:\Users\minis\AppData\Local\Temp\ccY56pkX.s:1075   .text.etharp_request_dst:00000020 $d
C:\Users\minis\AppData\Local\Temp\ccY56pkX.s:1080   .text.etharp_cleanup_netif:00000000 $t
C:\Users\minis\AppData\Local\Temp\ccY56pkX.s:1086   .text.etharp_cleanup_netif:00000000 etharp_cleanup_netif
C:\Users\minis\AppData\Local\Temp\ccY56pkX.s:1159   .text.etharp_cleanup_netif:00000034 $d
C:\Users\minis\AppData\Local\Temp\ccY56pkX.s:1164   .rodata.etharp_find_addr.str1.4:00000000 $d
C:\Users\minis\AppData\Local\Temp\ccY56pkX.s:1168   .text.etharp_find_addr:00000000 $t
C:\Users\minis\AppData\Local\Temp\ccY56pkX.s:1174   .text.etharp_find_addr:00000000 etharp_find_addr
C:\Users\minis\AppData\Local\Temp\ccY56pkX.s:1286   .text.etharp_find_addr:00000064 $d
C:\Users\minis\AppData\Local\Temp\ccY56pkX.s:1294   .rodata.etharp_get_entry.str1.4:00000000 $d
C:\Users\minis\AppData\Local\Temp\ccY56pkX.s:1301   .text.etharp_get_entry:00000000 $t
C:\Users\minis\AppData\Local\Temp\ccY56pkX.s:1307   .text.etharp_get_entry:00000000 etharp_get_entry
C:\Users\minis\AppData\Local\Temp\ccY56pkX.s:1435   .text.etharp_get_entry:0000007c $d
C:\Users\minis\AppData\Local\Temp\ccY56pkX.s:1445   .text.etharp_input:00000000 $t
C:\Users\minis\AppData\Local\Temp\ccY56pkX.s:1451   .text.etharp_input:00000000 etharp_input
C:\Users\minis\AppData\Local\Temp\ccY56pkX.s:1635   .text.etharp_input:000000ac $d
C:\Users\minis\AppData\Local\Temp\ccY56pkX.s:1642   .text.etharp_request:00000000 $t
C:\Users\minis\AppData\Local\Temp\ccY56pkX.s:1648   .text.etharp_request:00000000 etharp_request
C:\Users\minis\AppData\Local\Temp\ccY56pkX.s:1672   .text.etharp_request:0000000c $d
C:\Users\minis\AppData\Local\Temp\ccY56pkX.s:1677   .text.etharp_tmr:00000000 $t
C:\Users\minis\AppData\Local\Temp\ccY56pkX.s:1683   .text.etharp_tmr:00000000 etharp_tmr
C:\Users\minis\AppData\Local\Temp\ccY56pkX.s:1826   .text.etharp_tmr:00000084 $d
C:\Users\minis\AppData\Local\Temp\ccY56pkX.s:1831   .rodata.etharp_output_to_arp_index.str1.4:00000000 $d
C:\Users\minis\AppData\Local\Temp\ccY56pkX.s:1835   .text.etharp_output_to_arp_index:00000000 $t
C:\Users\minis\AppData\Local\Temp\ccY56pkX.s:1840   .text.etharp_output_to_arp_index:00000000 etharp_output_to_arp_index
C:\Users\minis\AppData\Local\Temp\ccY56pkX.s:1989   .text.etharp_output_to_arp_index:000000c8 $d
C:\Users\minis\AppData\Local\Temp\ccY56pkX.s:1997   .rodata.etharp_query.str1.4:00000000 $d
C:\Users\minis\AppData\Local\Temp\ccY56pkX.s:2007   .text.etharp_query:00000000 $t
C:\Users\minis\AppData\Local\Temp\ccY56pkX.s:2013   .text.etharp_query:00000000 etharp_query
C:\Users\minis\AppData\Local\Temp\ccY56pkX.s:2474   .text.etharp_query:000001d4 $d
C:\Users\minis\AppData\Local\Temp\ccY56pkX.s:2804   .bss.etharp_cached_entry:00000000 etharp_cached_entry
C:\Users\minis\AppData\Local\Temp\ccY56pkX.s:2486   .text.etharp_output:00000000 $t
C:\Users\minis\AppData\Local\Temp\ccY56pkX.s:2492   .text.etharp_output:00000000 etharp_output
C:\Users\minis\AppData\Local\Temp\ccY56pkX.s:2789   .text.etharp_output:0000014c $d
ARM GAS  C:\Users\minis\AppData\Local\Temp\ccY56pkX.s 			page 84


C:\Users\minis\AppData\Local\Temp\ccY56pkX.s:2805   .bss.etharp_cached_entry:00000000 $d
C:\Users\minis\AppData\Local\Temp\ccY56pkX.s:2807   .bss.arp_table:00000000 $d

UNDEFINED SYMBOLS
printf
pbuf_free
memp_free
ip4_addr_isbroadcast_u32
ethernet_output
pbuf_alloc
lwip_htons
ethzero
ethbroadcast
pbuf_clone
memp_malloc
pbuf_ref
