ARM GAS  C:\Users\minis\AppData\Local\Temp\ccKk4sUj.s 			page 1


   1              		.cpu cortex-m7
   2              		.arch armv7e-m
   3              		.fpu fpv5-d16
   4              		.eabi_attribute 20, 1
   5              		.eabi_attribute 21, 1
   6              		.eabi_attribute 23, 3
   7              		.eabi_attribute 24, 1
   8              		.eabi_attribute 25, 1
   9              		.eabi_attribute 26, 1
  10              		.eabi_attribute 30, 1
  11              		.eabi_attribute 34, 1
  12              		.eabi_attribute 18, 4
  13              		.file	"ethernetif.c"
  14              		.text
  15              	.Ltext0:
  16              		.cfi_sections	.debug_frame
  17              		.file 1 "../../CM7/LWIP/Target/ethernetif.c"
  18              		.section	.text.ETH_PHY_IO_DeInit,"ax",%progbits
  19              		.align	1
  20              		.global	ETH_PHY_IO_DeInit
  21              		.syntax unified
  22              		.thumb
  23              		.thumb_func
  25              	ETH_PHY_IO_DeInit:
  26              	.LFB188:
   1:../../CM7/LWIP/Target/ethernetif.c **** /* USER CODE BEGIN Header */
   2:../../CM7/LWIP/Target/ethernetif.c **** /**
   3:../../CM7/LWIP/Target/ethernetif.c ****   ******************************************************************************
   4:../../CM7/LWIP/Target/ethernetif.c ****   * File Name          : ethernetif.c
   5:../../CM7/LWIP/Target/ethernetif.c ****   * Description        : This file provides code for the configuration
   6:../../CM7/LWIP/Target/ethernetif.c ****   *                      of the ethernetif.c MiddleWare.
   7:../../CM7/LWIP/Target/ethernetif.c ****   ******************************************************************************
   8:../../CM7/LWIP/Target/ethernetif.c ****   * @attention
   9:../../CM7/LWIP/Target/ethernetif.c ****   *
  10:../../CM7/LWIP/Target/ethernetif.c ****   * Copyright (c) 2025 STMicroelectronics.
  11:../../CM7/LWIP/Target/ethernetif.c ****   * All rights reserved.
  12:../../CM7/LWIP/Target/ethernetif.c ****   *
  13:../../CM7/LWIP/Target/ethernetif.c ****   * This software is licensed under terms that can be found in the LICENSE file
  14:../../CM7/LWIP/Target/ethernetif.c ****   * in the root directory of this software component.
  15:../../CM7/LWIP/Target/ethernetif.c ****   * If no LICENSE file comes with this software, it is provided AS-IS.
  16:../../CM7/LWIP/Target/ethernetif.c ****   *
  17:../../CM7/LWIP/Target/ethernetif.c ****   ******************************************************************************
  18:../../CM7/LWIP/Target/ethernetif.c ****   */
  19:../../CM7/LWIP/Target/ethernetif.c **** /* USER CODE END Header */
  20:../../CM7/LWIP/Target/ethernetif.c **** 
  21:../../CM7/LWIP/Target/ethernetif.c **** /* Includes ------------------------------------------------------------------*/
  22:../../CM7/LWIP/Target/ethernetif.c **** #include "main.h"
  23:../../CM7/LWIP/Target/ethernetif.c **** #include "lwip/opt.h"
  24:../../CM7/LWIP/Target/ethernetif.c **** #include "lwip/timeouts.h"
  25:../../CM7/LWIP/Target/ethernetif.c **** #include "netif/ethernet.h"
  26:../../CM7/LWIP/Target/ethernetif.c **** #include "netif/etharp.h"
  27:../../CM7/LWIP/Target/ethernetif.c **** #include "lwip/ethip6.h"
  28:../../CM7/LWIP/Target/ethernetif.c **** #include "ethernetif.h"
  29:../../CM7/LWIP/Target/ethernetif.c **** #include "lan8742.h"
  30:../../CM7/LWIP/Target/ethernetif.c **** #include <string.h>
  31:../../CM7/LWIP/Target/ethernetif.c **** #include "cmsis_os.h"
  32:../../CM7/LWIP/Target/ethernetif.c **** #include "lwip/tcpip.h"
ARM GAS  C:\Users\minis\AppData\Local\Temp\ccKk4sUj.s 			page 2


  33:../../CM7/LWIP/Target/ethernetif.c **** 
  34:../../CM7/LWIP/Target/ethernetif.c **** /* Within 'USER CODE' section, code will be kept by default at each generation */
  35:../../CM7/LWIP/Target/ethernetif.c **** /* USER CODE BEGIN 0 */
  36:../../CM7/LWIP/Target/ethernetif.c **** 
  37:../../CM7/LWIP/Target/ethernetif.c **** /* USER CODE END 0 */
  38:../../CM7/LWIP/Target/ethernetif.c **** 
  39:../../CM7/LWIP/Target/ethernetif.c **** /* Private define ------------------------------------------------------------*/
  40:../../CM7/LWIP/Target/ethernetif.c **** /* The time to block waiting for input. */
  41:../../CM7/LWIP/Target/ethernetif.c **** #define TIME_WAITING_FOR_INPUT ( portMAX_DELAY )
  42:../../CM7/LWIP/Target/ethernetif.c **** /* Time to block waiting for transmissions to finish */
  43:../../CM7/LWIP/Target/ethernetif.c **** #define ETHIF_TX_TIMEOUT (2000U)
  44:../../CM7/LWIP/Target/ethernetif.c **** /* USER CODE BEGIN OS_THREAD_STACK_SIZE_WITH_RTOS */
  45:../../CM7/LWIP/Target/ethernetif.c **** /* Stack size of the interface thread */
  46:../../CM7/LWIP/Target/ethernetif.c **** #define INTERFACE_THREAD_STACK_SIZE ( 350 )
  47:../../CM7/LWIP/Target/ethernetif.c **** /* USER CODE END OS_THREAD_STACK_SIZE_WITH_RTOS */
  48:../../CM7/LWIP/Target/ethernetif.c **** /* Network interface name */
  49:../../CM7/LWIP/Target/ethernetif.c **** #define IFNAME0 's'
  50:../../CM7/LWIP/Target/ethernetif.c **** #define IFNAME1 't'
  51:../../CM7/LWIP/Target/ethernetif.c **** 
  52:../../CM7/LWIP/Target/ethernetif.c **** /* ETH Setting  */
  53:../../CM7/LWIP/Target/ethernetif.c **** #define ETH_DMA_TRANSMIT_TIMEOUT               ( 20U )
  54:../../CM7/LWIP/Target/ethernetif.c **** #define ETH_TX_BUFFER_MAX             ((ETH_TX_DESC_CNT) * 2U)
  55:../../CM7/LWIP/Target/ethernetif.c **** /* ETH_RX_BUFFER_SIZE parameter is defined in lwipopts.h */
  56:../../CM7/LWIP/Target/ethernetif.c **** 
  57:../../CM7/LWIP/Target/ethernetif.c **** /* USER CODE BEGIN 1 */
  58:../../CM7/LWIP/Target/ethernetif.c **** 
  59:../../CM7/LWIP/Target/ethernetif.c **** /* USER CODE END 1 */
  60:../../CM7/LWIP/Target/ethernetif.c **** 
  61:../../CM7/LWIP/Target/ethernetif.c **** /* Private variables ---------------------------------------------------------*/
  62:../../CM7/LWIP/Target/ethernetif.c **** /*
  63:../../CM7/LWIP/Target/ethernetif.c **** @Note: This interface is implemented to operate in zero-copy mode only:
  64:../../CM7/LWIP/Target/ethernetif.c ****         - Rx Buffers will be allocated from LwIP stack Rx memory pool,
  65:../../CM7/LWIP/Target/ethernetif.c ****           then passed to ETH HAL driver.
  66:../../CM7/LWIP/Target/ethernetif.c ****         - Tx Buffers will be allocated from LwIP stack memory heap,
  67:../../CM7/LWIP/Target/ethernetif.c ****           then passed to ETH HAL driver.
  68:../../CM7/LWIP/Target/ethernetif.c **** 
  69:../../CM7/LWIP/Target/ethernetif.c **** @Notes:
  70:../../CM7/LWIP/Target/ethernetif.c ****   1.a. ETH DMA Rx descriptors must be contiguous, the default count is 4,
  71:../../CM7/LWIP/Target/ethernetif.c ****        to customize it please redefine ETH_RX_DESC_CNT in ETH GUI (Rx Descriptor Length)
  72:../../CM7/LWIP/Target/ethernetif.c ****        so that updated value will be generated in stm32xxxx_hal_conf.h
  73:../../CM7/LWIP/Target/ethernetif.c ****   1.b. ETH DMA Tx descriptors must be contiguous, the default count is 4,
  74:../../CM7/LWIP/Target/ethernetif.c ****        to customize it please redefine ETH_TX_DESC_CNT in ETH GUI (Tx Descriptor Length)
  75:../../CM7/LWIP/Target/ethernetif.c ****        so that updated value will be generated in stm32xxxx_hal_conf.h
  76:../../CM7/LWIP/Target/ethernetif.c **** 
  77:../../CM7/LWIP/Target/ethernetif.c ****   2.a. Rx Buffers number must be between ETH_RX_DESC_CNT and 2*ETH_RX_DESC_CNT
  78:../../CM7/LWIP/Target/ethernetif.c ****   2.b. Rx Buffers must have the same size: ETH_RX_BUFFER_SIZE, this value must
  79:../../CM7/LWIP/Target/ethernetif.c ****        passed to ETH DMA in the init field (heth.Init.RxBuffLen)
  80:../../CM7/LWIP/Target/ethernetif.c ****   2.c  The RX Ruffers addresses and sizes must be properly defined to be aligned
  81:../../CM7/LWIP/Target/ethernetif.c ****        to L1-CACHE line size (32 bytes).
  82:../../CM7/LWIP/Target/ethernetif.c **** */
  83:../../CM7/LWIP/Target/ethernetif.c **** 
  84:../../CM7/LWIP/Target/ethernetif.c **** /* Data Type Definitions */
  85:../../CM7/LWIP/Target/ethernetif.c **** typedef enum
  86:../../CM7/LWIP/Target/ethernetif.c **** {
  87:../../CM7/LWIP/Target/ethernetif.c ****   RX_ALLOC_OK       = 0x00,
  88:../../CM7/LWIP/Target/ethernetif.c ****   RX_ALLOC_ERROR    = 0x01
  89:../../CM7/LWIP/Target/ethernetif.c **** } RxAllocStatusTypeDef;
ARM GAS  C:\Users\minis\AppData\Local\Temp\ccKk4sUj.s 			page 3


  90:../../CM7/LWIP/Target/ethernetif.c **** 
  91:../../CM7/LWIP/Target/ethernetif.c **** typedef struct
  92:../../CM7/LWIP/Target/ethernetif.c **** {
  93:../../CM7/LWIP/Target/ethernetif.c ****   struct pbuf_custom pbuf_custom;
  94:../../CM7/LWIP/Target/ethernetif.c ****   uint8_t buff[(ETH_RX_BUFFER_SIZE + 31) & ~31] __ALIGNED(32);
  95:../../CM7/LWIP/Target/ethernetif.c **** } RxBuff_t;
  96:../../CM7/LWIP/Target/ethernetif.c **** 
  97:../../CM7/LWIP/Target/ethernetif.c **** /* Memory Pool Declaration */
  98:../../CM7/LWIP/Target/ethernetif.c **** #define ETH_RX_BUFFER_CNT             12U
  99:../../CM7/LWIP/Target/ethernetif.c **** LWIP_MEMPOOL_DECLARE(RX_POOL, ETH_RX_BUFFER_CNT, sizeof(RxBuff_t), "Zero-copy RX PBUF pool");
 100:../../CM7/LWIP/Target/ethernetif.c **** 
 101:../../CM7/LWIP/Target/ethernetif.c **** /* Variable Definitions */
 102:../../CM7/LWIP/Target/ethernetif.c **** static uint8_t RxAllocStatus;
 103:../../CM7/LWIP/Target/ethernetif.c **** #if defined ( __ICCARM__ ) /*!< IAR Compiler */
 104:../../CM7/LWIP/Target/ethernetif.c **** 
 105:../../CM7/LWIP/Target/ethernetif.c **** #pragma location=0x30000000
 106:../../CM7/LWIP/Target/ethernetif.c **** ETH_DMADescTypeDef  DMARxDscrTab[ETH_RX_DESC_CNT]; /* Ethernet Rx DMA Descriptors */
 107:../../CM7/LWIP/Target/ethernetif.c **** #pragma location=0x30000080
 108:../../CM7/LWIP/Target/ethernetif.c **** ETH_DMADescTypeDef  DMATxDscrTab[ETH_TX_DESC_CNT]; /* Ethernet Tx DMA Descriptors */
 109:../../CM7/LWIP/Target/ethernetif.c **** 
 110:../../CM7/LWIP/Target/ethernetif.c **** #elif defined ( __CC_ARM )  /* MDK ARM Compiler */
 111:../../CM7/LWIP/Target/ethernetif.c **** 
 112:../../CM7/LWIP/Target/ethernetif.c **** __attribute__((at(0x30000000))) ETH_DMADescTypeDef  DMARxDscrTab[ETH_RX_DESC_CNT]; /* Ethernet Rx D
 113:../../CM7/LWIP/Target/ethernetif.c **** __attribute__((at(0x30000080))) ETH_DMADescTypeDef  DMATxDscrTab[ETH_TX_DESC_CNT]; /* Ethernet Tx D
 114:../../CM7/LWIP/Target/ethernetif.c **** 
 115:../../CM7/LWIP/Target/ethernetif.c **** #elif defined ( __GNUC__ ) /* GNU Compiler */
 116:../../CM7/LWIP/Target/ethernetif.c **** 
 117:../../CM7/LWIP/Target/ethernetif.c **** ETH_DMADescTypeDef DMARxDscrTab[ETH_RX_DESC_CNT] __attribute__((section(".RxDecripSection"))); /* E
 118:../../CM7/LWIP/Target/ethernetif.c **** ETH_DMADescTypeDef DMATxDscrTab[ETH_TX_DESC_CNT] __attribute__((section(".TxDecripSection")));   /*
 119:../../CM7/LWIP/Target/ethernetif.c **** 
 120:../../CM7/LWIP/Target/ethernetif.c **** #endif
 121:../../CM7/LWIP/Target/ethernetif.c **** 
 122:../../CM7/LWIP/Target/ethernetif.c **** #if defined ( __ICCARM__ ) /*!< IAR Compiler */
 123:../../CM7/LWIP/Target/ethernetif.c **** #pragma location = 0x30000100
 124:../../CM7/LWIP/Target/ethernetif.c **** extern u8_t memp_memory_RX_POOL_base[];
 125:../../CM7/LWIP/Target/ethernetif.c **** 
 126:../../CM7/LWIP/Target/ethernetif.c **** #elif defined ( __CC_ARM ) /* MDK ARM Compiler */
 127:../../CM7/LWIP/Target/ethernetif.c **** __attribute__((section(".Rx_PoolSection"))) extern u8_t memp_memory_RX_POOL_base[];
 128:../../CM7/LWIP/Target/ethernetif.c **** 
 129:../../CM7/LWIP/Target/ethernetif.c **** #elif defined ( __GNUC__ ) /* GNU */
 130:../../CM7/LWIP/Target/ethernetif.c **** __attribute__((section(".Rx_PoolSection"))) extern u8_t memp_memory_RX_POOL_base[];
 131:../../CM7/LWIP/Target/ethernetif.c **** #endif
 132:../../CM7/LWIP/Target/ethernetif.c **** 
 133:../../CM7/LWIP/Target/ethernetif.c **** /* USER CODE BEGIN 2 */
 134:../../CM7/LWIP/Target/ethernetif.c **** 
 135:../../CM7/LWIP/Target/ethernetif.c **** /* USER CODE END 2 */
 136:../../CM7/LWIP/Target/ethernetif.c **** 
 137:../../CM7/LWIP/Target/ethernetif.c **** osSemaphoreId RxPktSemaphore = NULL;   /* Semaphore to signal incoming packets */
 138:../../CM7/LWIP/Target/ethernetif.c **** osSemaphoreId TxPktSemaphore = NULL;   /* Semaphore to signal transmit packet complete */
 139:../../CM7/LWIP/Target/ethernetif.c **** 
 140:../../CM7/LWIP/Target/ethernetif.c **** /* Global Ethernet handle */
 141:../../CM7/LWIP/Target/ethernetif.c **** ETH_HandleTypeDef heth;
 142:../../CM7/LWIP/Target/ethernetif.c **** ETH_TxPacketConfig TxConfig;
 143:../../CM7/LWIP/Target/ethernetif.c **** 
 144:../../CM7/LWIP/Target/ethernetif.c **** /* Private function prototypes -----------------------------------------------*/
 145:../../CM7/LWIP/Target/ethernetif.c **** int32_t ETH_PHY_IO_Init(void);
 146:../../CM7/LWIP/Target/ethernetif.c **** int32_t ETH_PHY_IO_DeInit (void);
ARM GAS  C:\Users\minis\AppData\Local\Temp\ccKk4sUj.s 			page 4


 147:../../CM7/LWIP/Target/ethernetif.c **** int32_t ETH_PHY_IO_ReadReg(uint32_t DevAddr, uint32_t RegAddr, uint32_t *pRegVal);
 148:../../CM7/LWIP/Target/ethernetif.c **** int32_t ETH_PHY_IO_WriteReg(uint32_t DevAddr, uint32_t RegAddr, uint32_t RegVal);
 149:../../CM7/LWIP/Target/ethernetif.c **** int32_t ETH_PHY_IO_GetTick(void);
 150:../../CM7/LWIP/Target/ethernetif.c **** 
 151:../../CM7/LWIP/Target/ethernetif.c **** lan8742_Object_t LAN8742;
 152:../../CM7/LWIP/Target/ethernetif.c **** lan8742_IOCtx_t  LAN8742_IOCtx = {ETH_PHY_IO_Init,
 153:../../CM7/LWIP/Target/ethernetif.c ****                                   ETH_PHY_IO_DeInit,
 154:../../CM7/LWIP/Target/ethernetif.c ****                                   ETH_PHY_IO_WriteReg,
 155:../../CM7/LWIP/Target/ethernetif.c ****                                   ETH_PHY_IO_ReadReg,
 156:../../CM7/LWIP/Target/ethernetif.c ****                                   ETH_PHY_IO_GetTick};
 157:../../CM7/LWIP/Target/ethernetif.c **** 
 158:../../CM7/LWIP/Target/ethernetif.c **** /* USER CODE BEGIN 3 */
 159:../../CM7/LWIP/Target/ethernetif.c **** /**
 160:../../CM7/LWIP/Target/ethernetif.c ****   * @brief  Safe wrapper for HAL_ETH_Transmit_IT with memory barriers
 161:../../CM7/LWIP/Target/ethernetif.c ****   * @param  heth: pointer to ETH handle
 162:../../CM7/LWIP/Target/ethernetif.c ****   * @param  pTxConfig: pointer to TX packet configuration
 163:../../CM7/LWIP/Target/ethernetif.c ****   * @retval HAL status
 164:../../CM7/LWIP/Target/ethernetif.c ****   */
 165:../../CM7/LWIP/Target/ethernetif.c **** HAL_StatusTypeDef HAL_ETH_Transmit_IT_Safe(ETH_HandleTypeDef *heth, ETH_TxPacketConfig *pTxConfig)
 166:../../CM7/LWIP/Target/ethernetif.c **** {
 167:../../CM7/LWIP/Target/ethernetif.c ****     // Ensure all descriptor writes complete before starting DMA
 168:../../CM7/LWIP/Target/ethernetif.c ****     __DMB();  // Data Memory Barrier - wait for writes to finish
 169:../../CM7/LWIP/Target/ethernetif.c ****     __DSB();  // Data Synchronization Barrier - flush write buffer
 170:../../CM7/LWIP/Target/ethernetif.c **** 
 171:../../CM7/LWIP/Target/ethernetif.c ****     // Now safe to trigger DMA operation
 172:../../CM7/LWIP/Target/ethernetif.c ****     return HAL_ETH_Transmit_IT(heth, pTxConfig);
 173:../../CM7/LWIP/Target/ethernetif.c **** }
 174:../../CM7/LWIP/Target/ethernetif.c **** /* USER CODE END 3 */
 175:../../CM7/LWIP/Target/ethernetif.c **** 
 176:../../CM7/LWIP/Target/ethernetif.c **** 
 177:../../CM7/LWIP/Target/ethernetif.c **** /* Private functions ---------------------------------------------------------*/
 178:../../CM7/LWIP/Target/ethernetif.c **** void pbuf_free_custom(struct pbuf *p);
 179:../../CM7/LWIP/Target/ethernetif.c **** 
 180:../../CM7/LWIP/Target/ethernetif.c **** /**
 181:../../CM7/LWIP/Target/ethernetif.c ****   * @brief  Ethernet Rx Transfer completed callback
 182:../../CM7/LWIP/Target/ethernetif.c ****   * @param  handlerEth: ETH handler
 183:../../CM7/LWIP/Target/ethernetif.c ****   * @retval None
 184:../../CM7/LWIP/Target/ethernetif.c ****   */
 185:../../CM7/LWIP/Target/ethernetif.c **** void HAL_ETH_RxCpltCallback(ETH_HandleTypeDef *handlerEth)
 186:../../CM7/LWIP/Target/ethernetif.c **** {
 187:../../CM7/LWIP/Target/ethernetif.c ****   osSemaphoreRelease(RxPktSemaphore);
 188:../../CM7/LWIP/Target/ethernetif.c **** }
 189:../../CM7/LWIP/Target/ethernetif.c **** /**
 190:../../CM7/LWIP/Target/ethernetif.c ****   * @brief  Ethernet Tx Transfer completed callback
 191:../../CM7/LWIP/Target/ethernetif.c ****   * @param  handlerEth: ETH handler
 192:../../CM7/LWIP/Target/ethernetif.c ****   * @retval None
 193:../../CM7/LWIP/Target/ethernetif.c ****   */
 194:../../CM7/LWIP/Target/ethernetif.c **** void HAL_ETH_TxCpltCallback(ETH_HandleTypeDef *handlerEth)
 195:../../CM7/LWIP/Target/ethernetif.c **** {
 196:../../CM7/LWIP/Target/ethernetif.c ****   osSemaphoreRelease(TxPktSemaphore);
 197:../../CM7/LWIP/Target/ethernetif.c **** }
 198:../../CM7/LWIP/Target/ethernetif.c **** /**
 199:../../CM7/LWIP/Target/ethernetif.c ****   * @brief  Ethernet DMA transfer error callback
 200:../../CM7/LWIP/Target/ethernetif.c ****   * @param  handlerEth: ETH handler
 201:../../CM7/LWIP/Target/ethernetif.c ****   * @retval None
 202:../../CM7/LWIP/Target/ethernetif.c ****   */
 203:../../CM7/LWIP/Target/ethernetif.c **** void HAL_ETH_ErrorCallback(ETH_HandleTypeDef *handlerEth)
ARM GAS  C:\Users\minis\AppData\Local\Temp\ccKk4sUj.s 			page 5


 204:../../CM7/LWIP/Target/ethernetif.c **** {
 205:../../CM7/LWIP/Target/ethernetif.c ****   if((HAL_ETH_GetDMAError(handlerEth) & ETH_DMACSR_RBU) == ETH_DMACSR_RBU)
 206:../../CM7/LWIP/Target/ethernetif.c ****   {
 207:../../CM7/LWIP/Target/ethernetif.c ****      osSemaphoreRelease(RxPktSemaphore);
 208:../../CM7/LWIP/Target/ethernetif.c ****   }
 209:../../CM7/LWIP/Target/ethernetif.c **** }
 210:../../CM7/LWIP/Target/ethernetif.c **** 
 211:../../CM7/LWIP/Target/ethernetif.c **** /* USER CODE BEGIN 4 */
 212:../../CM7/LWIP/Target/ethernetif.c **** 
 213:../../CM7/LWIP/Target/ethernetif.c **** /* USER CODE END 4 */
 214:../../CM7/LWIP/Target/ethernetif.c **** 
 215:../../CM7/LWIP/Target/ethernetif.c **** /*******************************************************************************
 216:../../CM7/LWIP/Target/ethernetif.c ****                        LL Driver Interface ( LwIP stack --> ETH)
 217:../../CM7/LWIP/Target/ethernetif.c **** *******************************************************************************/
 218:../../CM7/LWIP/Target/ethernetif.c **** /**
 219:../../CM7/LWIP/Target/ethernetif.c ****  * @brief In this function, the hardware should be initialized.
 220:../../CM7/LWIP/Target/ethernetif.c ****  * Called from ethernetif_init().
 221:../../CM7/LWIP/Target/ethernetif.c ****  *
 222:../../CM7/LWIP/Target/ethernetif.c ****  * @param netif the already initialized lwip network interface structure
 223:../../CM7/LWIP/Target/ethernetif.c ****  *        for this ethernetif
 224:../../CM7/LWIP/Target/ethernetif.c ****  */
 225:../../CM7/LWIP/Target/ethernetif.c **** static void low_level_init(struct netif *netif)
 226:../../CM7/LWIP/Target/ethernetif.c **** {
 227:../../CM7/LWIP/Target/ethernetif.c ****   HAL_StatusTypeDef hal_eth_init_status = HAL_OK;
 228:../../CM7/LWIP/Target/ethernetif.c **** /* USER CODE BEGIN OS_THREAD_ATTR_CMSIS_RTOS_V2 */
 229:../../CM7/LWIP/Target/ethernetif.c ****   osThreadAttr_t attributes;
 230:../../CM7/LWIP/Target/ethernetif.c **** /* USER CODE END OS_THREAD_ATTR_CMSIS_RTOS_V2 */
 231:../../CM7/LWIP/Target/ethernetif.c ****   uint32_t duplex, speed = 0;
 232:../../CM7/LWIP/Target/ethernetif.c ****   int32_t PHYLinkState = 0;
 233:../../CM7/LWIP/Target/ethernetif.c ****   ETH_MACConfigTypeDef MACConf = {0};
 234:../../CM7/LWIP/Target/ethernetif.c ****   /* Start ETH HAL Init */
 235:../../CM7/LWIP/Target/ethernetif.c **** 
 236:../../CM7/LWIP/Target/ethernetif.c ****    uint8_t MACAddr[6] ;
 237:../../CM7/LWIP/Target/ethernetif.c ****   heth.Instance = ETH;
 238:../../CM7/LWIP/Target/ethernetif.c ****   MACAddr[0] = 0x00;
 239:../../CM7/LWIP/Target/ethernetif.c ****   MACAddr[1] = 0x80;
 240:../../CM7/LWIP/Target/ethernetif.c ****   MACAddr[2] = 0xE1;
 241:../../CM7/LWIP/Target/ethernetif.c ****   MACAddr[3] = 0x00;
 242:../../CM7/LWIP/Target/ethernetif.c ****   MACAddr[4] = 0x00;
 243:../../CM7/LWIP/Target/ethernetif.c ****   MACAddr[5] = 0x00;
 244:../../CM7/LWIP/Target/ethernetif.c ****   heth.Init.MACAddr = &MACAddr[0];
 245:../../CM7/LWIP/Target/ethernetif.c ****   heth.Init.MediaInterface = HAL_ETH_RMII_MODE;
 246:../../CM7/LWIP/Target/ethernetif.c ****   heth.Init.TxDesc = DMATxDscrTab;
 247:../../CM7/LWIP/Target/ethernetif.c ****   heth.Init.RxDesc = DMARxDscrTab;
 248:../../CM7/LWIP/Target/ethernetif.c ****   heth.Init.RxBuffLen = 1536;
 249:../../CM7/LWIP/Target/ethernetif.c **** 
 250:../../CM7/LWIP/Target/ethernetif.c ****   /* USER CODE BEGIN MACADDRESS */
 251:../../CM7/LWIP/Target/ethernetif.c **** 
 252:../../CM7/LWIP/Target/ethernetif.c ****   /* USER CODE END MACADDRESS */
 253:../../CM7/LWIP/Target/ethernetif.c **** 
 254:../../CM7/LWIP/Target/ethernetif.c ****   hal_eth_init_status = HAL_ETH_Init(&heth);
 255:../../CM7/LWIP/Target/ethernetif.c **** 
 256:../../CM7/LWIP/Target/ethernetif.c ****   memset(&TxConfig, 0 , sizeof(ETH_TxPacketConfig));
 257:../../CM7/LWIP/Target/ethernetif.c ****   TxConfig.Attributes = ETH_TX_PACKETS_FEATURES_CSUM | ETH_TX_PACKETS_FEATURES_CRCPAD;
 258:../../CM7/LWIP/Target/ethernetif.c ****   TxConfig.ChecksumCtrl = ETH_CHECKSUM_IPHDR_PAYLOAD_INSERT_PHDR_CALC;
 259:../../CM7/LWIP/Target/ethernetif.c ****   TxConfig.CRCPadCtrl = ETH_CRC_PAD_INSERT;
 260:../../CM7/LWIP/Target/ethernetif.c **** 
ARM GAS  C:\Users\minis\AppData\Local\Temp\ccKk4sUj.s 			page 6


 261:../../CM7/LWIP/Target/ethernetif.c ****   /* End ETH HAL Init */
 262:../../CM7/LWIP/Target/ethernetif.c **** 
 263:../../CM7/LWIP/Target/ethernetif.c ****   /* Initialize the RX POOL */
 264:../../CM7/LWIP/Target/ethernetif.c ****   LWIP_MEMPOOL_INIT(RX_POOL);
 265:../../CM7/LWIP/Target/ethernetif.c **** 
 266:../../CM7/LWIP/Target/ethernetif.c **** #if LWIP_ARP || LWIP_ETHERNET
 267:../../CM7/LWIP/Target/ethernetif.c ****   /* set MAC hardware address length */
 268:../../CM7/LWIP/Target/ethernetif.c ****   netif->hwaddr_len = ETH_HWADDR_LEN;
 269:../../CM7/LWIP/Target/ethernetif.c **** 
 270:../../CM7/LWIP/Target/ethernetif.c ****   /* set MAC hardware address */
 271:../../CM7/LWIP/Target/ethernetif.c ****   netif->hwaddr[0] =  heth.Init.MACAddr[0];
 272:../../CM7/LWIP/Target/ethernetif.c ****   netif->hwaddr[1] =  heth.Init.MACAddr[1];
 273:../../CM7/LWIP/Target/ethernetif.c ****   netif->hwaddr[2] =  heth.Init.MACAddr[2];
 274:../../CM7/LWIP/Target/ethernetif.c ****   netif->hwaddr[3] =  heth.Init.MACAddr[3];
 275:../../CM7/LWIP/Target/ethernetif.c ****   netif->hwaddr[4] =  heth.Init.MACAddr[4];
 276:../../CM7/LWIP/Target/ethernetif.c ****   netif->hwaddr[5] =  heth.Init.MACAddr[5];
 277:../../CM7/LWIP/Target/ethernetif.c **** 
 278:../../CM7/LWIP/Target/ethernetif.c ****   /* maximum transfer unit */
 279:../../CM7/LWIP/Target/ethernetif.c ****   netif->mtu = ETH_MAX_PAYLOAD;
 280:../../CM7/LWIP/Target/ethernetif.c **** 
 281:../../CM7/LWIP/Target/ethernetif.c ****   /* Accept broadcast address and ARP traffic */
 282:../../CM7/LWIP/Target/ethernetif.c ****   /* don't set NETIF_FLAG_ETHARP if this device is not an ethernet one */
 283:../../CM7/LWIP/Target/ethernetif.c ****   #if LWIP_ARP
 284:../../CM7/LWIP/Target/ethernetif.c ****     netif->flags |= NETIF_FLAG_BROADCAST | NETIF_FLAG_ETHARP;
 285:../../CM7/LWIP/Target/ethernetif.c ****   #else
 286:../../CM7/LWIP/Target/ethernetif.c ****     netif->flags |= NETIF_FLAG_BROADCAST;
 287:../../CM7/LWIP/Target/ethernetif.c ****   #endif /* LWIP_ARP */
 288:../../CM7/LWIP/Target/ethernetif.c **** 
 289:../../CM7/LWIP/Target/ethernetif.c ****   /* create a binary semaphore used for informing ethernetif of frame reception */
 290:../../CM7/LWIP/Target/ethernetif.c ****   RxPktSemaphore = osSemaphoreNew(1, 0, NULL);
 291:../../CM7/LWIP/Target/ethernetif.c **** 
 292:../../CM7/LWIP/Target/ethernetif.c ****   /* create a binary semaphore used for informing ethernetif of frame transmission */
 293:../../CM7/LWIP/Target/ethernetif.c ****   TxPktSemaphore = osSemaphoreNew(1, 0, NULL);
 294:../../CM7/LWIP/Target/ethernetif.c **** 
 295:../../CM7/LWIP/Target/ethernetif.c ****   /* create the task that handles the ETH_MAC */
 296:../../CM7/LWIP/Target/ethernetif.c **** /* USER CODE BEGIN OS_THREAD_NEW_CMSIS_RTOS_V2 */
 297:../../CM7/LWIP/Target/ethernetif.c ****   memset(&attributes, 0x0, sizeof(osThreadAttr_t));
 298:../../CM7/LWIP/Target/ethernetif.c ****   attributes.name = "EthIf";
 299:../../CM7/LWIP/Target/ethernetif.c ****   attributes.stack_size = INTERFACE_THREAD_STACK_SIZE;
 300:../../CM7/LWIP/Target/ethernetif.c ****   attributes.priority = osPriorityRealtime;
 301:../../CM7/LWIP/Target/ethernetif.c ****   osThreadNew(ethernetif_input, netif, &attributes);
 302:../../CM7/LWIP/Target/ethernetif.c **** /* USER CODE END OS_THREAD_NEW_CMSIS_RTOS_V2 */
 303:../../CM7/LWIP/Target/ethernetif.c **** 
 304:../../CM7/LWIP/Target/ethernetif.c **** //* USER CODE BEGIN PHY_PRE_CONFIG */
 305:../../CM7/LWIP/Target/ethernetif.c **** // Software reset of LAN8742 PHY to prevent cold-boot startup delays
 306:../../CM7/LWIP/Target/ethernetif.c **** // PHY address is 0 on STM32H755 Nucleo board
 307:../../CM7/LWIP/Target/ethernetif.c **** uint32_t regvalue = 0;
 308:../../CM7/LWIP/Target/ethernetif.c **** uint32_t tickstart = HAL_GetTick();
 309:../../CM7/LWIP/Target/ethernetif.c **** 
 310:../../CM7/LWIP/Target/ethernetif.c **** // Read current BCR value (register 0x00 = Basic Control Register)
 311:../../CM7/LWIP/Target/ethernetif.c **** if(HAL_ETH_ReadPHYRegister(&heth, 0, LAN8742_BCR, &regvalue) == HAL_OK)
 312:../../CM7/LWIP/Target/ethernetif.c **** {
 313:../../CM7/LWIP/Target/ethernetif.c ****     // Set software reset bit (bit 15)
 314:../../CM7/LWIP/Target/ethernetif.c ****     regvalue |= LAN8742_BCR_SOFT_RESET;
 315:../../CM7/LWIP/Target/ethernetif.c ****     HAL_ETH_WritePHYRegister(&heth, 0, LAN8742_BCR, regvalue);
 316:../../CM7/LWIP/Target/ethernetif.c **** 
 317:../../CM7/LWIP/Target/ethernetif.c ****     // Wait for reset to complete (bit auto-clears when done)
ARM GAS  C:\Users\minis\AppData\Local\Temp\ccKk4sUj.s 			page 7


 318:../../CM7/LWIP/Target/ethernetif.c ****     // Maximum wait time: 500ms
 319:../../CM7/LWIP/Target/ethernetif.c ****     do {
 320:../../CM7/LWIP/Target/ethernetif.c ****         HAL_ETH_ReadPHYRegister(&heth, 0, LAN8742_BCR, &regvalue);
 321:../../CM7/LWIP/Target/ethernetif.c ****         if((HAL_GetTick() - tickstart) > 500U)
 322:../../CM7/LWIP/Target/ethernetif.c ****         {
 323:../../CM7/LWIP/Target/ethernetif.c ****             // Timeout - continue anyway
 324:../../CM7/LWIP/Target/ethernetif.c ****             break;
 325:../../CM7/LWIP/Target/ethernetif.c ****         }
 326:../../CM7/LWIP/Target/ethernetif.c ****     } while (regvalue & LAN8742_BCR_SOFT_RESET);
 327:../../CM7/LWIP/Target/ethernetif.c **** 
 328:../../CM7/LWIP/Target/ethernetif.c ****     // Additional settling time after reset
 329:../../CM7/LWIP/Target/ethernetif.c ****     osDelay(50);
 330:../../CM7/LWIP/Target/ethernetif.c **** }
 331:../../CM7/LWIP/Target/ethernetif.c **** /* USER CODE END PHY_PRE_CONFIG */
 332:../../CM7/LWIP/Target/ethernetif.c **** 
 333:../../CM7/LWIP/Target/ethernetif.c **** 
 334:../../CM7/LWIP/Target/ethernetif.c **** 
 335:../../CM7/LWIP/Target/ethernetif.c **** 
 336:../../CM7/LWIP/Target/ethernetif.c ****   /* Set PHY IO functions */
 337:../../CM7/LWIP/Target/ethernetif.c ****   LAN8742_RegisterBusIO(&LAN8742, &LAN8742_IOCtx);
 338:../../CM7/LWIP/Target/ethernetif.c **** 
 339:../../CM7/LWIP/Target/ethernetif.c ****   /* Initialize the LAN8742 ETH PHY */
 340:../../CM7/LWIP/Target/ethernetif.c ****   if(LAN8742_Init(&LAN8742) != LAN8742_STATUS_OK)
 341:../../CM7/LWIP/Target/ethernetif.c ****   {
 342:../../CM7/LWIP/Target/ethernetif.c ****     netif_set_link_down(netif);
 343:../../CM7/LWIP/Target/ethernetif.c ****     netif_set_down(netif);
 344:../../CM7/LWIP/Target/ethernetif.c ****     return;
 345:../../CM7/LWIP/Target/ethernetif.c ****   }
 346:../../CM7/LWIP/Target/ethernetif.c **** 
 347:../../CM7/LWIP/Target/ethernetif.c ****   if (hal_eth_init_status == HAL_OK)
 348:../../CM7/LWIP/Target/ethernetif.c ****   {
 349:../../CM7/LWIP/Target/ethernetif.c ****     PHYLinkState = LAN8742_GetLinkState(&LAN8742);
 350:../../CM7/LWIP/Target/ethernetif.c **** 
 351:../../CM7/LWIP/Target/ethernetif.c ****     /* Get link state */
 352:../../CM7/LWIP/Target/ethernetif.c ****     if(PHYLinkState <= LAN8742_STATUS_LINK_DOWN)
 353:../../CM7/LWIP/Target/ethernetif.c ****     {
 354:../../CM7/LWIP/Target/ethernetif.c ****       netif_set_link_down(netif);
 355:../../CM7/LWIP/Target/ethernetif.c ****       netif_set_down(netif);
 356:../../CM7/LWIP/Target/ethernetif.c ****     }
 357:../../CM7/LWIP/Target/ethernetif.c ****     else
 358:../../CM7/LWIP/Target/ethernetif.c ****     {
 359:../../CM7/LWIP/Target/ethernetif.c ****       switch (PHYLinkState)
 360:../../CM7/LWIP/Target/ethernetif.c ****       {
 361:../../CM7/LWIP/Target/ethernetif.c ****       case LAN8742_STATUS_100MBITS_FULLDUPLEX:
 362:../../CM7/LWIP/Target/ethernetif.c ****         duplex = ETH_FULLDUPLEX_MODE;
 363:../../CM7/LWIP/Target/ethernetif.c ****         speed = ETH_SPEED_100M;
 364:../../CM7/LWIP/Target/ethernetif.c ****         break;
 365:../../CM7/LWIP/Target/ethernetif.c ****       case LAN8742_STATUS_100MBITS_HALFDUPLEX:
 366:../../CM7/LWIP/Target/ethernetif.c ****         duplex = ETH_HALFDUPLEX_MODE;
 367:../../CM7/LWIP/Target/ethernetif.c ****         speed = ETH_SPEED_100M;
 368:../../CM7/LWIP/Target/ethernetif.c ****         break;
 369:../../CM7/LWIP/Target/ethernetif.c ****       case LAN8742_STATUS_10MBITS_FULLDUPLEX:
 370:../../CM7/LWIP/Target/ethernetif.c ****         duplex = ETH_FULLDUPLEX_MODE;
 371:../../CM7/LWIP/Target/ethernetif.c ****         speed = ETH_SPEED_10M;
 372:../../CM7/LWIP/Target/ethernetif.c ****         break;
 373:../../CM7/LWIP/Target/ethernetif.c ****       case LAN8742_STATUS_10MBITS_HALFDUPLEX:
 374:../../CM7/LWIP/Target/ethernetif.c ****         duplex = ETH_HALFDUPLEX_MODE;
ARM GAS  C:\Users\minis\AppData\Local\Temp\ccKk4sUj.s 			page 8


 375:../../CM7/LWIP/Target/ethernetif.c ****         speed = ETH_SPEED_10M;
 376:../../CM7/LWIP/Target/ethernetif.c ****         break;
 377:../../CM7/LWIP/Target/ethernetif.c ****       default:
 378:../../CM7/LWIP/Target/ethernetif.c ****         duplex = ETH_FULLDUPLEX_MODE;
 379:../../CM7/LWIP/Target/ethernetif.c ****         speed = ETH_SPEED_100M;
 380:../../CM7/LWIP/Target/ethernetif.c ****         break;
 381:../../CM7/LWIP/Target/ethernetif.c ****       }
 382:../../CM7/LWIP/Target/ethernetif.c **** 
 383:../../CM7/LWIP/Target/ethernetif.c ****     /* Get MAC Config MAC */
 384:../../CM7/LWIP/Target/ethernetif.c ****     HAL_ETH_GetMACConfig(&heth, &MACConf);
 385:../../CM7/LWIP/Target/ethernetif.c ****     MACConf.DuplexMode = duplex;
 386:../../CM7/LWIP/Target/ethernetif.c ****     MACConf.Speed = speed;
 387:../../CM7/LWIP/Target/ethernetif.c ****     HAL_ETH_SetMACConfig(&heth, &MACConf);
 388:../../CM7/LWIP/Target/ethernetif.c **** 
 389:../../CM7/LWIP/Target/ethernetif.c ****     HAL_ETH_Start_IT(&heth);
 390:../../CM7/LWIP/Target/ethernetif.c ****     netif_set_up(netif);
 391:../../CM7/LWIP/Target/ethernetif.c ****     netif_set_link_up(netif);
 392:../../CM7/LWIP/Target/ethernetif.c **** /* USER CODE BEGIN PHY_POST_CONFIG */
 393:../../CM7/LWIP/Target/ethernetif.c **** 
 394:../../CM7/LWIP/Target/ethernetif.c **** /* USER CODE END PHY_POST_CONFIG */
 395:../../CM7/LWIP/Target/ethernetif.c ****     }
 396:../../CM7/LWIP/Target/ethernetif.c **** 
 397:../../CM7/LWIP/Target/ethernetif.c ****   }
 398:../../CM7/LWIP/Target/ethernetif.c ****   else
 399:../../CM7/LWIP/Target/ethernetif.c ****   {
 400:../../CM7/LWIP/Target/ethernetif.c ****     Error_Handler();
 401:../../CM7/LWIP/Target/ethernetif.c ****   }
 402:../../CM7/LWIP/Target/ethernetif.c **** #endif /* LWIP_ARP || LWIP_ETHERNET */
 403:../../CM7/LWIP/Target/ethernetif.c **** 
 404:../../CM7/LWIP/Target/ethernetif.c **** /* USER CODE BEGIN LOW_LEVEL_INIT */
 405:../../CM7/LWIP/Target/ethernetif.c **** 
 406:../../CM7/LWIP/Target/ethernetif.c **** /* USER CODE END LOW_LEVEL_INIT */
 407:../../CM7/LWIP/Target/ethernetif.c **** }
 408:../../CM7/LWIP/Target/ethernetif.c **** 
 409:../../CM7/LWIP/Target/ethernetif.c **** /**
 410:../../CM7/LWIP/Target/ethernetif.c ****  * @brief This function should do the actual transmission of the packet. The packet is
 411:../../CM7/LWIP/Target/ethernetif.c ****  * contained in the pbuf that is passed to the function. This pbuf
 412:../../CM7/LWIP/Target/ethernetif.c ****  * might be chained.
 413:../../CM7/LWIP/Target/ethernetif.c ****  *
 414:../../CM7/LWIP/Target/ethernetif.c ****  * @param netif the lwip network interface structure for this ethernetif
 415:../../CM7/LWIP/Target/ethernetif.c ****  * @param p the MAC packet to send (e.g. IP packet including MAC addresses and type)
 416:../../CM7/LWIP/Target/ethernetif.c ****  * @return ERR_OK if the packet could be sent
 417:../../CM7/LWIP/Target/ethernetif.c ****  *         an err_t value if the packet couldn't be sent
 418:../../CM7/LWIP/Target/ethernetif.c ****  *
 419:../../CM7/LWIP/Target/ethernetif.c ****  * @note Returning ERR_MEM here if a DMA queue of your MAC is full can lead to
 420:../../CM7/LWIP/Target/ethernetif.c ****  *       strange results. You might consider waiting for space in the DMA queue
 421:../../CM7/LWIP/Target/ethernetif.c ****  *       to become available since the stack doesn't retry to send a packet
 422:../../CM7/LWIP/Target/ethernetif.c ****  *       dropped because of memory failure (except for the TCP timers).
 423:../../CM7/LWIP/Target/ethernetif.c ****  */
 424:../../CM7/LWIP/Target/ethernetif.c **** 
 425:../../CM7/LWIP/Target/ethernetif.c **** static err_t low_level_output(struct netif *netif, struct pbuf *p)
 426:../../CM7/LWIP/Target/ethernetif.c **** {
 427:../../CM7/LWIP/Target/ethernetif.c ****   uint32_t i = 0U;
 428:../../CM7/LWIP/Target/ethernetif.c ****   struct pbuf *q = NULL;
 429:../../CM7/LWIP/Target/ethernetif.c ****   err_t errval = ERR_OK;
 430:../../CM7/LWIP/Target/ethernetif.c ****   ETH_BufferTypeDef Txbuffer[ETH_TX_DESC_CNT] = {0};
 431:../../CM7/LWIP/Target/ethernetif.c **** 
ARM GAS  C:\Users\minis\AppData\Local\Temp\ccKk4sUj.s 			page 9


 432:../../CM7/LWIP/Target/ethernetif.c ****   memset(Txbuffer, 0 , ETH_TX_DESC_CNT*sizeof(ETH_BufferTypeDef));
 433:../../CM7/LWIP/Target/ethernetif.c **** 
 434:../../CM7/LWIP/Target/ethernetif.c ****   for(q = p; q != NULL; q = q->next)
 435:../../CM7/LWIP/Target/ethernetif.c ****   {
 436:../../CM7/LWIP/Target/ethernetif.c ****     if(i >= ETH_TX_DESC_CNT)
 437:../../CM7/LWIP/Target/ethernetif.c ****       return ERR_IF;
 438:../../CM7/LWIP/Target/ethernetif.c **** 
 439:../../CM7/LWIP/Target/ethernetif.c ****     Txbuffer[i].buffer = q->payload;
 440:../../CM7/LWIP/Target/ethernetif.c ****     Txbuffer[i].len = q->len;
 441:../../CM7/LWIP/Target/ethernetif.c **** 
 442:../../CM7/LWIP/Target/ethernetif.c ****     if(i>0)
 443:../../CM7/LWIP/Target/ethernetif.c ****     {
 444:../../CM7/LWIP/Target/ethernetif.c ****       Txbuffer[i-1].next = &Txbuffer[i];
 445:../../CM7/LWIP/Target/ethernetif.c ****     }
 446:../../CM7/LWIP/Target/ethernetif.c **** 
 447:../../CM7/LWIP/Target/ethernetif.c ****     if(q->next == NULL)
 448:../../CM7/LWIP/Target/ethernetif.c ****     {
 449:../../CM7/LWIP/Target/ethernetif.c ****       Txbuffer[i].next = NULL;
 450:../../CM7/LWIP/Target/ethernetif.c ****     }
 451:../../CM7/LWIP/Target/ethernetif.c **** 
 452:../../CM7/LWIP/Target/ethernetif.c ****     i++;
 453:../../CM7/LWIP/Target/ethernetif.c ****   }
 454:../../CM7/LWIP/Target/ethernetif.c **** 
 455:../../CM7/LWIP/Target/ethernetif.c ****   TxConfig.Length = p->tot_len;
 456:../../CM7/LWIP/Target/ethernetif.c ****   TxConfig.TxBuffer = Txbuffer;
 457:../../CM7/LWIP/Target/ethernetif.c ****   TxConfig.pData = p;
 458:../../CM7/LWIP/Target/ethernetif.c **** 
 459:../../CM7/LWIP/Target/ethernetif.c ****   pbuf_ref(p);
 460:../../CM7/LWIP/Target/ethernetif.c **** 
 461:../../CM7/LWIP/Target/ethernetif.c ****   do
 462:../../CM7/LWIP/Target/ethernetif.c ****   {
 463:../../CM7/LWIP/Target/ethernetif.c ****       if(HAL_ETH_Transmit_IT_Safe(&heth, &TxConfig) == HAL_OK)
 464:../../CM7/LWIP/Target/ethernetif.c ****     {
 465:../../CM7/LWIP/Target/ethernetif.c ****       errval = ERR_OK;
 466:../../CM7/LWIP/Target/ethernetif.c ****     }
 467:../../CM7/LWIP/Target/ethernetif.c ****     else
 468:../../CM7/LWIP/Target/ethernetif.c ****     {
 469:../../CM7/LWIP/Target/ethernetif.c **** 
 470:../../CM7/LWIP/Target/ethernetif.c ****       if(HAL_ETH_GetError(&heth) & HAL_ETH_ERROR_BUSY)
 471:../../CM7/LWIP/Target/ethernetif.c ****       {
 472:../../CM7/LWIP/Target/ethernetif.c ****         /* Wait for descriptors to become available */
 473:../../CM7/LWIP/Target/ethernetif.c ****         osSemaphoreAcquire(TxPktSemaphore, ETHIF_TX_TIMEOUT);
 474:../../CM7/LWIP/Target/ethernetif.c ****         HAL_ETH_ReleaseTxPacket(&heth);
 475:../../CM7/LWIP/Target/ethernetif.c ****         errval = ERR_BUF;
 476:../../CM7/LWIP/Target/ethernetif.c ****       }
 477:../../CM7/LWIP/Target/ethernetif.c ****       else
 478:../../CM7/LWIP/Target/ethernetif.c ****       {
 479:../../CM7/LWIP/Target/ethernetif.c ****         /* Other error */
 480:../../CM7/LWIP/Target/ethernetif.c ****         pbuf_free(p);
 481:../../CM7/LWIP/Target/ethernetif.c ****         errval =  ERR_IF;
 482:../../CM7/LWIP/Target/ethernetif.c ****       }
 483:../../CM7/LWIP/Target/ethernetif.c ****     }
 484:../../CM7/LWIP/Target/ethernetif.c ****   }while(errval == ERR_BUF);
 485:../../CM7/LWIP/Target/ethernetif.c **** 
 486:../../CM7/LWIP/Target/ethernetif.c ****   return errval;
 487:../../CM7/LWIP/Target/ethernetif.c **** }
 488:../../CM7/LWIP/Target/ethernetif.c **** 
ARM GAS  C:\Users\minis\AppData\Local\Temp\ccKk4sUj.s 			page 10


 489:../../CM7/LWIP/Target/ethernetif.c **** /**
 490:../../CM7/LWIP/Target/ethernetif.c ****  * @brief Should allocate a pbuf and transfer the bytes of the incoming
 491:../../CM7/LWIP/Target/ethernetif.c ****  * packet from the interface into the pbuf.
 492:../../CM7/LWIP/Target/ethernetif.c ****  *
 493:../../CM7/LWIP/Target/ethernetif.c ****  * @param netif the lwip network interface structure for this ethernetif
 494:../../CM7/LWIP/Target/ethernetif.c ****  * @return a pbuf filled with the received packet (including MAC header)
 495:../../CM7/LWIP/Target/ethernetif.c ****  *         NULL on memory error
 496:../../CM7/LWIP/Target/ethernetif.c ****    */
 497:../../CM7/LWIP/Target/ethernetif.c **** static struct pbuf * low_level_input(struct netif *netif)
 498:../../CM7/LWIP/Target/ethernetif.c **** {
 499:../../CM7/LWIP/Target/ethernetif.c ****   struct pbuf *p = NULL;
 500:../../CM7/LWIP/Target/ethernetif.c **** 
 501:../../CM7/LWIP/Target/ethernetif.c ****   if(RxAllocStatus == RX_ALLOC_OK)
 502:../../CM7/LWIP/Target/ethernetif.c ****   {
 503:../../CM7/LWIP/Target/ethernetif.c ****     HAL_ETH_ReadData(&heth, (void **)&p);
 504:../../CM7/LWIP/Target/ethernetif.c ****   }
 505:../../CM7/LWIP/Target/ethernetif.c **** 
 506:../../CM7/LWIP/Target/ethernetif.c ****   return p;
 507:../../CM7/LWIP/Target/ethernetif.c **** }
 508:../../CM7/LWIP/Target/ethernetif.c **** 
 509:../../CM7/LWIP/Target/ethernetif.c **** /**
 510:../../CM7/LWIP/Target/ethernetif.c ****  * @brief This function should be called when a packet is ready to be read
 511:../../CM7/LWIP/Target/ethernetif.c ****  * from the interface. It uses the function low_level_input() that
 512:../../CM7/LWIP/Target/ethernetif.c ****  * should handle the actual reception of bytes from the network
 513:../../CM7/LWIP/Target/ethernetif.c ****  * interface. Then the type of the received packet is determined and
 514:../../CM7/LWIP/Target/ethernetif.c ****  * the appropriate input function is called.
 515:../../CM7/LWIP/Target/ethernetif.c ****  *
 516:../../CM7/LWIP/Target/ethernetif.c ****  * @param netif the lwip network interface structure for this ethernetif
 517:../../CM7/LWIP/Target/ethernetif.c ****  */
 518:../../CM7/LWIP/Target/ethernetif.c **** void ethernetif_input(void* argument)
 519:../../CM7/LWIP/Target/ethernetif.c **** {
 520:../../CM7/LWIP/Target/ethernetif.c ****   struct pbuf *p = NULL;
 521:../../CM7/LWIP/Target/ethernetif.c ****   struct netif *netif = (struct netif *) argument;
 522:../../CM7/LWIP/Target/ethernetif.c **** 
 523:../../CM7/LWIP/Target/ethernetif.c ****   for( ;; )
 524:../../CM7/LWIP/Target/ethernetif.c ****   {
 525:../../CM7/LWIP/Target/ethernetif.c ****     if (osSemaphoreAcquire(RxPktSemaphore, TIME_WAITING_FOR_INPUT) == osOK)
 526:../../CM7/LWIP/Target/ethernetif.c ****     {
 527:../../CM7/LWIP/Target/ethernetif.c ****       do
 528:../../CM7/LWIP/Target/ethernetif.c ****       {
 529:../../CM7/LWIP/Target/ethernetif.c ****         p = low_level_input( netif );
 530:../../CM7/LWIP/Target/ethernetif.c ****         if (p != NULL)
 531:../../CM7/LWIP/Target/ethernetif.c ****         {
 532:../../CM7/LWIP/Target/ethernetif.c ****           if (netif->input( p, netif) != ERR_OK )
 533:../../CM7/LWIP/Target/ethernetif.c ****           {
 534:../../CM7/LWIP/Target/ethernetif.c ****             pbuf_free(p);
 535:../../CM7/LWIP/Target/ethernetif.c ****           }
 536:../../CM7/LWIP/Target/ethernetif.c ****         }
 537:../../CM7/LWIP/Target/ethernetif.c ****       } while(p!=NULL);
 538:../../CM7/LWIP/Target/ethernetif.c ****     }
 539:../../CM7/LWIP/Target/ethernetif.c ****   }
 540:../../CM7/LWIP/Target/ethernetif.c **** }
 541:../../CM7/LWIP/Target/ethernetif.c **** 
 542:../../CM7/LWIP/Target/ethernetif.c **** #if !LWIP_ARP
 543:../../CM7/LWIP/Target/ethernetif.c **** /**
 544:../../CM7/LWIP/Target/ethernetif.c ****  * This function has to be completed by user in case of ARP OFF.
 545:../../CM7/LWIP/Target/ethernetif.c ****  *
ARM GAS  C:\Users\minis\AppData\Local\Temp\ccKk4sUj.s 			page 11


 546:../../CM7/LWIP/Target/ethernetif.c ****  * @param netif the lwip network interface structure for this ethernetif
 547:../../CM7/LWIP/Target/ethernetif.c ****  * @return ERR_OK if ...
 548:../../CM7/LWIP/Target/ethernetif.c ****  */
 549:../../CM7/LWIP/Target/ethernetif.c **** static err_t low_level_output_arp_off(struct netif *netif, struct pbuf *q, const ip4_addr_t *ipaddr
 550:../../CM7/LWIP/Target/ethernetif.c **** {
 551:../../CM7/LWIP/Target/ethernetif.c ****   err_t errval;
 552:../../CM7/LWIP/Target/ethernetif.c ****   errval = ERR_OK;
 553:../../CM7/LWIP/Target/ethernetif.c **** 
 554:../../CM7/LWIP/Target/ethernetif.c **** /* USER CODE BEGIN 5 */
 555:../../CM7/LWIP/Target/ethernetif.c **** 
 556:../../CM7/LWIP/Target/ethernetif.c **** /* USER CODE END 5 */
 557:../../CM7/LWIP/Target/ethernetif.c **** 
 558:../../CM7/LWIP/Target/ethernetif.c ****   return errval;
 559:../../CM7/LWIP/Target/ethernetif.c **** 
 560:../../CM7/LWIP/Target/ethernetif.c **** }
 561:../../CM7/LWIP/Target/ethernetif.c **** #endif /* LWIP_ARP */
 562:../../CM7/LWIP/Target/ethernetif.c **** 
 563:../../CM7/LWIP/Target/ethernetif.c **** /**
 564:../../CM7/LWIP/Target/ethernetif.c ****  * @brief Should be called at the beginning of the program to set up the
 565:../../CM7/LWIP/Target/ethernetif.c ****  * network interface. It calls the function low_level_init() to do the
 566:../../CM7/LWIP/Target/ethernetif.c ****  * actual setup of the hardware.
 567:../../CM7/LWIP/Target/ethernetif.c ****  *
 568:../../CM7/LWIP/Target/ethernetif.c ****  * This function should be passed as a parameter to netif_add().
 569:../../CM7/LWIP/Target/ethernetif.c ****  *
 570:../../CM7/LWIP/Target/ethernetif.c ****  * @param netif the lwip network interface structure for this ethernetif
 571:../../CM7/LWIP/Target/ethernetif.c ****  * @return ERR_OK if the loopif is initialized
 572:../../CM7/LWIP/Target/ethernetif.c ****  *         ERR_MEM if private data couldn't be allocated
 573:../../CM7/LWIP/Target/ethernetif.c ****  *         any other err_t on error
 574:../../CM7/LWIP/Target/ethernetif.c ****  */
 575:../../CM7/LWIP/Target/ethernetif.c **** err_t ethernetif_init(struct netif *netif)
 576:../../CM7/LWIP/Target/ethernetif.c **** {
 577:../../CM7/LWIP/Target/ethernetif.c ****   LWIP_ASSERT("netif != NULL", (netif != NULL));
 578:../../CM7/LWIP/Target/ethernetif.c **** 
 579:../../CM7/LWIP/Target/ethernetif.c **** #if LWIP_NETIF_HOSTNAME
 580:../../CM7/LWIP/Target/ethernetif.c ****   /* Initialize interface hostname */
 581:../../CM7/LWIP/Target/ethernetif.c ****   netif->hostname = "lwip";
 582:../../CM7/LWIP/Target/ethernetif.c **** #endif /* LWIP_NETIF_HOSTNAME */
 583:../../CM7/LWIP/Target/ethernetif.c **** 
 584:../../CM7/LWIP/Target/ethernetif.c ****   /*
 585:../../CM7/LWIP/Target/ethernetif.c ****    * Initialize the snmp variables and counters inside the struct netif.
 586:../../CM7/LWIP/Target/ethernetif.c ****    * The last argument should be replaced with your link speed, in units
 587:../../CM7/LWIP/Target/ethernetif.c ****    * of bits per second.
 588:../../CM7/LWIP/Target/ethernetif.c ****    */
 589:../../CM7/LWIP/Target/ethernetif.c ****   // MIB2_INIT_NETIF(netif, snmp_ifType_ethernet_csmacd, LINK_SPEED_OF_YOUR_NETIF_IN_BPS);
 590:../../CM7/LWIP/Target/ethernetif.c **** 
 591:../../CM7/LWIP/Target/ethernetif.c ****   netif->name[0] = IFNAME0;
 592:../../CM7/LWIP/Target/ethernetif.c ****   netif->name[1] = IFNAME1;
 593:../../CM7/LWIP/Target/ethernetif.c ****   /* We directly use etharp_output() here to save a function call.
 594:../../CM7/LWIP/Target/ethernetif.c ****    * You can instead declare your own function an call etharp_output()
 595:../../CM7/LWIP/Target/ethernetif.c ****    * from it if you have to do some checks before sending (e.g. if link
 596:../../CM7/LWIP/Target/ethernetif.c ****    * is available...) */
 597:../../CM7/LWIP/Target/ethernetif.c **** 
 598:../../CM7/LWIP/Target/ethernetif.c **** #if LWIP_IPV4
 599:../../CM7/LWIP/Target/ethernetif.c **** #if LWIP_ARP || LWIP_ETHERNET
 600:../../CM7/LWIP/Target/ethernetif.c **** #if LWIP_ARP
 601:../../CM7/LWIP/Target/ethernetif.c ****   netif->output = etharp_output;
 602:../../CM7/LWIP/Target/ethernetif.c **** #else
ARM GAS  C:\Users\minis\AppData\Local\Temp\ccKk4sUj.s 			page 12


 603:../../CM7/LWIP/Target/ethernetif.c ****   /* The user should write its own code in low_level_output_arp_off function */
 604:../../CM7/LWIP/Target/ethernetif.c ****   netif->output = low_level_output_arp_off;
 605:../../CM7/LWIP/Target/ethernetif.c **** #endif /* LWIP_ARP */
 606:../../CM7/LWIP/Target/ethernetif.c **** #endif /* LWIP_ARP || LWIP_ETHERNET */
 607:../../CM7/LWIP/Target/ethernetif.c **** #endif /* LWIP_IPV4 */
 608:../../CM7/LWIP/Target/ethernetif.c **** 
 609:../../CM7/LWIP/Target/ethernetif.c **** #if LWIP_IPV6
 610:../../CM7/LWIP/Target/ethernetif.c ****   netif->output_ip6 = ethip6_output;
 611:../../CM7/LWIP/Target/ethernetif.c **** #endif /* LWIP_IPV6 */
 612:../../CM7/LWIP/Target/ethernetif.c **** 
 613:../../CM7/LWIP/Target/ethernetif.c ****   netif->linkoutput = low_level_output;
 614:../../CM7/LWIP/Target/ethernetif.c **** 
 615:../../CM7/LWIP/Target/ethernetif.c ****   /* initialize the hardware */
 616:../../CM7/LWIP/Target/ethernetif.c ****   low_level_init(netif);
 617:../../CM7/LWIP/Target/ethernetif.c **** 
 618:../../CM7/LWIP/Target/ethernetif.c ****   return ERR_OK;
 619:../../CM7/LWIP/Target/ethernetif.c **** }
 620:../../CM7/LWIP/Target/ethernetif.c **** 
 621:../../CM7/LWIP/Target/ethernetif.c **** /**
 622:../../CM7/LWIP/Target/ethernetif.c ****   * @brief  Custom Rx pbuf free callback
 623:../../CM7/LWIP/Target/ethernetif.c ****   * @param  pbuf: pbuf to be freed
 624:../../CM7/LWIP/Target/ethernetif.c ****   * @retval None
 625:../../CM7/LWIP/Target/ethernetif.c ****   */
 626:../../CM7/LWIP/Target/ethernetif.c **** void pbuf_free_custom(struct pbuf *p)
 627:../../CM7/LWIP/Target/ethernetif.c **** {
 628:../../CM7/LWIP/Target/ethernetif.c ****   struct pbuf_custom* custom_pbuf = (struct pbuf_custom*)p;
 629:../../CM7/LWIP/Target/ethernetif.c ****   LWIP_MEMPOOL_FREE(RX_POOL, custom_pbuf);
 630:../../CM7/LWIP/Target/ethernetif.c **** 
 631:../../CM7/LWIP/Target/ethernetif.c ****   /* If the Rx Buffer Pool was exhausted, signal the ethernetif_input task to
 632:../../CM7/LWIP/Target/ethernetif.c ****    * call HAL_ETH_GetRxDataBuffer to rebuild the Rx descriptors. */
 633:../../CM7/LWIP/Target/ethernetif.c **** 
 634:../../CM7/LWIP/Target/ethernetif.c ****   if (RxAllocStatus == RX_ALLOC_ERROR)
 635:../../CM7/LWIP/Target/ethernetif.c ****   {
 636:../../CM7/LWIP/Target/ethernetif.c ****     RxAllocStatus = RX_ALLOC_OK;
 637:../../CM7/LWIP/Target/ethernetif.c ****     osSemaphoreRelease(RxPktSemaphore);
 638:../../CM7/LWIP/Target/ethernetif.c ****   }
 639:../../CM7/LWIP/Target/ethernetif.c **** }
 640:../../CM7/LWIP/Target/ethernetif.c **** 
 641:../../CM7/LWIP/Target/ethernetif.c **** /* USER CODE BEGIN 6 */
 642:../../CM7/LWIP/Target/ethernetif.c **** 
 643:../../CM7/LWIP/Target/ethernetif.c **** /**
 644:../../CM7/LWIP/Target/ethernetif.c **** * @brief  Returns the current time in milliseconds
 645:../../CM7/LWIP/Target/ethernetif.c **** *         when LWIP_TIMERS == 1 and NO_SYS == 1
 646:../../CM7/LWIP/Target/ethernetif.c **** * @param  None
 647:../../CM7/LWIP/Target/ethernetif.c **** * @retval Current Time value
 648:../../CM7/LWIP/Target/ethernetif.c **** */
 649:../../CM7/LWIP/Target/ethernetif.c **** u32_t sys_now(void)
 650:../../CM7/LWIP/Target/ethernetif.c **** {
 651:../../CM7/LWIP/Target/ethernetif.c ****   return HAL_GetTick();
 652:../../CM7/LWIP/Target/ethernetif.c **** }
 653:../../CM7/LWIP/Target/ethernetif.c **** 
 654:../../CM7/LWIP/Target/ethernetif.c **** /* USER CODE END 6 */
 655:../../CM7/LWIP/Target/ethernetif.c **** 
 656:../../CM7/LWIP/Target/ethernetif.c **** /**
 657:../../CM7/LWIP/Target/ethernetif.c ****   * @brief  Initializes the ETH MSP.
 658:../../CM7/LWIP/Target/ethernetif.c ****   * @param  ethHandle: ETH handle
 659:../../CM7/LWIP/Target/ethernetif.c ****   * @retval None
ARM GAS  C:\Users\minis\AppData\Local\Temp\ccKk4sUj.s 			page 13


 660:../../CM7/LWIP/Target/ethernetif.c ****   */
 661:../../CM7/LWIP/Target/ethernetif.c **** 
 662:../../CM7/LWIP/Target/ethernetif.c **** void HAL_ETH_MspInit(ETH_HandleTypeDef* ethHandle)
 663:../../CM7/LWIP/Target/ethernetif.c **** {
 664:../../CM7/LWIP/Target/ethernetif.c ****   GPIO_InitTypeDef GPIO_InitStruct = {0};
 665:../../CM7/LWIP/Target/ethernetif.c ****   if(ethHandle->Instance==ETH)
 666:../../CM7/LWIP/Target/ethernetif.c ****   {
 667:../../CM7/LWIP/Target/ethernetif.c ****   /* USER CODE BEGIN ETH_MspInit 0 */
 668:../../CM7/LWIP/Target/ethernetif.c **** 
 669:../../CM7/LWIP/Target/ethernetif.c ****   /* USER CODE END ETH_MspInit 0 */
 670:../../CM7/LWIP/Target/ethernetif.c ****     /* Enable Peripheral clock */
 671:../../CM7/LWIP/Target/ethernetif.c ****     __HAL_RCC_ETH1MAC_CLK_ENABLE();
 672:../../CM7/LWIP/Target/ethernetif.c ****     __HAL_RCC_ETH1TX_CLK_ENABLE();
 673:../../CM7/LWIP/Target/ethernetif.c ****     __HAL_RCC_ETH1RX_CLK_ENABLE();
 674:../../CM7/LWIP/Target/ethernetif.c **** 
 675:../../CM7/LWIP/Target/ethernetif.c ****     __HAL_RCC_GPIOC_CLK_ENABLE();
 676:../../CM7/LWIP/Target/ethernetif.c ****     __HAL_RCC_GPIOA_CLK_ENABLE();
 677:../../CM7/LWIP/Target/ethernetif.c ****     __HAL_RCC_GPIOB_CLK_ENABLE();
 678:../../CM7/LWIP/Target/ethernetif.c ****     __HAL_RCC_GPIOG_CLK_ENABLE();
 679:../../CM7/LWIP/Target/ethernetif.c ****     /**ETH GPIO Configuration
 680:../../CM7/LWIP/Target/ethernetif.c ****     PC1     ------> ETH_MDC
 681:../../CM7/LWIP/Target/ethernetif.c ****     PA1     ------> ETH_REF_CLK
 682:../../CM7/LWIP/Target/ethernetif.c ****     PA2     ------> ETH_MDIO
 683:../../CM7/LWIP/Target/ethernetif.c ****     PA7     ------> ETH_CRS_DV
 684:../../CM7/LWIP/Target/ethernetif.c ****     PC4     ------> ETH_RXD0
 685:../../CM7/LWIP/Target/ethernetif.c ****     PC5     ------> ETH_RXD1
 686:../../CM7/LWIP/Target/ethernetif.c ****     PB13     ------> ETH_TXD1
 687:../../CM7/LWIP/Target/ethernetif.c ****     PG11     ------> ETH_TX_EN
 688:../../CM7/LWIP/Target/ethernetif.c ****     PG13     ------> ETH_TXD0
 689:../../CM7/LWIP/Target/ethernetif.c ****     */
 690:../../CM7/LWIP/Target/ethernetif.c ****     GPIO_InitStruct.Pin = GPIO_PIN_1|GPIO_PIN_4|GPIO_PIN_5;
 691:../../CM7/LWIP/Target/ethernetif.c ****     GPIO_InitStruct.Mode = GPIO_MODE_AF_PP;
 692:../../CM7/LWIP/Target/ethernetif.c ****     GPIO_InitStruct.Pull = GPIO_NOPULL;
 693:../../CM7/LWIP/Target/ethernetif.c ****     GPIO_InitStruct.Speed = GPIO_SPEED_FREQ_VERY_HIGH;
 694:../../CM7/LWIP/Target/ethernetif.c ****     GPIO_InitStruct.Alternate = GPIO_AF11_ETH;
 695:../../CM7/LWIP/Target/ethernetif.c ****     HAL_GPIO_Init(GPIOC, &GPIO_InitStruct);
 696:../../CM7/LWIP/Target/ethernetif.c **** 
 697:../../CM7/LWIP/Target/ethernetif.c ****     GPIO_InitStruct.Pin = GPIO_PIN_1|GPIO_PIN_2|GPIO_PIN_7;
 698:../../CM7/LWIP/Target/ethernetif.c ****     GPIO_InitStruct.Mode = GPIO_MODE_AF_PP;
 699:../../CM7/LWIP/Target/ethernetif.c ****     GPIO_InitStruct.Pull = GPIO_NOPULL;
 700:../../CM7/LWIP/Target/ethernetif.c ****     GPIO_InitStruct.Speed = GPIO_SPEED_FREQ_VERY_HIGH;
 701:../../CM7/LWIP/Target/ethernetif.c ****     GPIO_InitStruct.Alternate = GPIO_AF11_ETH;
 702:../../CM7/LWIP/Target/ethernetif.c ****     HAL_GPIO_Init(GPIOA, &GPIO_InitStruct);
 703:../../CM7/LWIP/Target/ethernetif.c **** 
 704:../../CM7/LWIP/Target/ethernetif.c ****     GPIO_InitStruct.Pin = GPIO_PIN_13;
 705:../../CM7/LWIP/Target/ethernetif.c ****     GPIO_InitStruct.Mode = GPIO_MODE_AF_PP;
 706:../../CM7/LWIP/Target/ethernetif.c ****     GPIO_InitStruct.Pull = GPIO_NOPULL;
 707:../../CM7/LWIP/Target/ethernetif.c ****     GPIO_InitStruct.Speed = GPIO_SPEED_FREQ_VERY_HIGH;
 708:../../CM7/LWIP/Target/ethernetif.c ****     GPIO_InitStruct.Alternate = GPIO_AF11_ETH;
 709:../../CM7/LWIP/Target/ethernetif.c ****     HAL_GPIO_Init(GPIOB, &GPIO_InitStruct);
 710:../../CM7/LWIP/Target/ethernetif.c **** 
 711:../../CM7/LWIP/Target/ethernetif.c ****     GPIO_InitStruct.Pin = GPIO_PIN_11|GPIO_PIN_13;
 712:../../CM7/LWIP/Target/ethernetif.c ****     GPIO_InitStruct.Mode = GPIO_MODE_AF_PP;
 713:../../CM7/LWIP/Target/ethernetif.c ****     GPIO_InitStruct.Pull = GPIO_NOPULL;
 714:../../CM7/LWIP/Target/ethernetif.c ****     GPIO_InitStruct.Speed = GPIO_SPEED_FREQ_VERY_HIGH;
 715:../../CM7/LWIP/Target/ethernetif.c ****     GPIO_InitStruct.Alternate = GPIO_AF11_ETH;
 716:../../CM7/LWIP/Target/ethernetif.c ****     HAL_GPIO_Init(GPIOG, &GPIO_InitStruct);
ARM GAS  C:\Users\minis\AppData\Local\Temp\ccKk4sUj.s 			page 14


 717:../../CM7/LWIP/Target/ethernetif.c **** 
 718:../../CM7/LWIP/Target/ethernetif.c ****     /* Peripheral interrupt init */
 719:../../CM7/LWIP/Target/ethernetif.c ****     HAL_NVIC_SetPriority(ETH_IRQn, 5, 0);
 720:../../CM7/LWIP/Target/ethernetif.c ****     HAL_NVIC_EnableIRQ(ETH_IRQn);
 721:../../CM7/LWIP/Target/ethernetif.c ****   /* USER CODE BEGIN ETH_MspInit 1 */
 722:../../CM7/LWIP/Target/ethernetif.c **** 
 723:../../CM7/LWIP/Target/ethernetif.c ****   /* USER CODE END ETH_MspInit 1 */
 724:../../CM7/LWIP/Target/ethernetif.c ****   }
 725:../../CM7/LWIP/Target/ethernetif.c **** }
 726:../../CM7/LWIP/Target/ethernetif.c **** 
 727:../../CM7/LWIP/Target/ethernetif.c **** void HAL_ETH_MspDeInit(ETH_HandleTypeDef* ethHandle)
 728:../../CM7/LWIP/Target/ethernetif.c **** {
 729:../../CM7/LWIP/Target/ethernetif.c ****   if(ethHandle->Instance==ETH)
 730:../../CM7/LWIP/Target/ethernetif.c ****   {
 731:../../CM7/LWIP/Target/ethernetif.c ****   /* USER CODE BEGIN ETH_MspDeInit 0 */
 732:../../CM7/LWIP/Target/ethernetif.c **** 
 733:../../CM7/LWIP/Target/ethernetif.c ****   /* USER CODE END ETH_MspDeInit 0 */
 734:../../CM7/LWIP/Target/ethernetif.c ****     /* Disable Peripheral clock */
 735:../../CM7/LWIP/Target/ethernetif.c ****     __HAL_RCC_ETH1MAC_CLK_DISABLE();
 736:../../CM7/LWIP/Target/ethernetif.c ****     __HAL_RCC_ETH1TX_CLK_DISABLE();
 737:../../CM7/LWIP/Target/ethernetif.c ****     __HAL_RCC_ETH1RX_CLK_DISABLE();
 738:../../CM7/LWIP/Target/ethernetif.c **** 
 739:../../CM7/LWIP/Target/ethernetif.c ****     /**ETH GPIO Configuration
 740:../../CM7/LWIP/Target/ethernetif.c ****     PC1     ------> ETH_MDC
 741:../../CM7/LWIP/Target/ethernetif.c ****     PA1     ------> ETH_REF_CLK
 742:../../CM7/LWIP/Target/ethernetif.c ****     PA2     ------> ETH_MDIO
 743:../../CM7/LWIP/Target/ethernetif.c ****     PA7     ------> ETH_CRS_DV
 744:../../CM7/LWIP/Target/ethernetif.c ****     PC4     ------> ETH_RXD0
 745:../../CM7/LWIP/Target/ethernetif.c ****     PC5     ------> ETH_RXD1
 746:../../CM7/LWIP/Target/ethernetif.c ****     PB13     ------> ETH_TXD1
 747:../../CM7/LWIP/Target/ethernetif.c ****     PG11     ------> ETH_TX_EN
 748:../../CM7/LWIP/Target/ethernetif.c ****     PG13     ------> ETH_TXD0
 749:../../CM7/LWIP/Target/ethernetif.c ****     */
 750:../../CM7/LWIP/Target/ethernetif.c ****     HAL_GPIO_DeInit(GPIOC, GPIO_PIN_1|GPIO_PIN_4|GPIO_PIN_5);
 751:../../CM7/LWIP/Target/ethernetif.c **** 
 752:../../CM7/LWIP/Target/ethernetif.c ****     HAL_GPIO_DeInit(GPIOA, GPIO_PIN_1|GPIO_PIN_2|GPIO_PIN_7);
 753:../../CM7/LWIP/Target/ethernetif.c **** 
 754:../../CM7/LWIP/Target/ethernetif.c ****     HAL_GPIO_DeInit(GPIOB, GPIO_PIN_13);
 755:../../CM7/LWIP/Target/ethernetif.c **** 
 756:../../CM7/LWIP/Target/ethernetif.c ****     HAL_GPIO_DeInit(GPIOG, GPIO_PIN_11|GPIO_PIN_13);
 757:../../CM7/LWIP/Target/ethernetif.c **** 
 758:../../CM7/LWIP/Target/ethernetif.c ****     /* Peripheral interrupt Deinit*/
 759:../../CM7/LWIP/Target/ethernetif.c ****     HAL_NVIC_DisableIRQ(ETH_IRQn);
 760:../../CM7/LWIP/Target/ethernetif.c **** 
 761:../../CM7/LWIP/Target/ethernetif.c ****   /* USER CODE BEGIN ETH_MspDeInit 1 */
 762:../../CM7/LWIP/Target/ethernetif.c **** 
 763:../../CM7/LWIP/Target/ethernetif.c ****   /* USER CODE END ETH_MspDeInit 1 */
 764:../../CM7/LWIP/Target/ethernetif.c ****   }
 765:../../CM7/LWIP/Target/ethernetif.c **** }
 766:../../CM7/LWIP/Target/ethernetif.c **** 
 767:../../CM7/LWIP/Target/ethernetif.c **** /*******************************************************************************
 768:../../CM7/LWIP/Target/ethernetif.c ****                        PHI IO Functions
 769:../../CM7/LWIP/Target/ethernetif.c **** *******************************************************************************/
 770:../../CM7/LWIP/Target/ethernetif.c **** /**
 771:../../CM7/LWIP/Target/ethernetif.c ****   * @brief  Initializes the MDIO interface GPIO and clocks.
 772:../../CM7/LWIP/Target/ethernetif.c ****   * @param  None
 773:../../CM7/LWIP/Target/ethernetif.c ****   * @retval 0 if OK, -1 if ERROR
ARM GAS  C:\Users\minis\AppData\Local\Temp\ccKk4sUj.s 			page 15


 774:../../CM7/LWIP/Target/ethernetif.c ****   */
 775:../../CM7/LWIP/Target/ethernetif.c **** int32_t ETH_PHY_IO_Init(void)
 776:../../CM7/LWIP/Target/ethernetif.c **** {
 777:../../CM7/LWIP/Target/ethernetif.c ****   /* We assume that MDIO GPIO configuration is already done
 778:../../CM7/LWIP/Target/ethernetif.c ****      in the ETH_MspInit() else it should be done here
 779:../../CM7/LWIP/Target/ethernetif.c ****   */
 780:../../CM7/LWIP/Target/ethernetif.c **** 
 781:../../CM7/LWIP/Target/ethernetif.c ****   /* Configure the MDIO Clock */
 782:../../CM7/LWIP/Target/ethernetif.c ****   HAL_ETH_SetMDIOClockRange(&heth);
 783:../../CM7/LWIP/Target/ethernetif.c **** 
 784:../../CM7/LWIP/Target/ethernetif.c ****   return 0;
 785:../../CM7/LWIP/Target/ethernetif.c **** }
 786:../../CM7/LWIP/Target/ethernetif.c **** 
 787:../../CM7/LWIP/Target/ethernetif.c **** /**
 788:../../CM7/LWIP/Target/ethernetif.c ****   * @brief  De-Initializes the MDIO interface .
 789:../../CM7/LWIP/Target/ethernetif.c ****   * @param  None
 790:../../CM7/LWIP/Target/ethernetif.c ****   * @retval 0 if OK, -1 if ERROR
 791:../../CM7/LWIP/Target/ethernetif.c ****   */
 792:../../CM7/LWIP/Target/ethernetif.c **** int32_t ETH_PHY_IO_DeInit (void)
 793:../../CM7/LWIP/Target/ethernetif.c **** {
  27              		.loc 1 793 1 view -0
  28              		.cfi_startproc
  29              		@ args = 0, pretend = 0, frame = 0
  30              		@ frame_needed = 0, uses_anonymous_args = 0
  31              		@ link register save eliminated.
 794:../../CM7/LWIP/Target/ethernetif.c ****   return 0;
  32              		.loc 1 794 3 view .LVU1
 795:../../CM7/LWIP/Target/ethernetif.c **** }
  33              		.loc 1 795 1 is_stmt 0 view .LVU2
  34 0000 0020     		movs	r0, #0
  35 0002 7047     		bx	lr
  36              		.cfi_endproc
  37              	.LFE188:
  39              		.section	.text.low_level_input,"ax",%progbits
  40              		.align	1
  41              		.syntax unified
  42              		.thumb
  43              		.thumb_func
  45              	low_level_input:
  46              	.LVL0:
  47              	.LFB180:
 498:../../CM7/LWIP/Target/ethernetif.c ****   struct pbuf *p = NULL;
  48              		.loc 1 498 1 is_stmt 1 view -0
  49              		.cfi_startproc
  50              		@ args = 0, pretend = 0, frame = 8
  51              		@ frame_needed = 0, uses_anonymous_args = 0
 498:../../CM7/LWIP/Target/ethernetif.c ****   struct pbuf *p = NULL;
  52              		.loc 1 498 1 is_stmt 0 view .LVU4
  53 0000 00B5     		push	{lr}
  54              	.LCFI0:
  55              		.cfi_def_cfa_offset 4
  56              		.cfi_offset 14, -4
  57 0002 83B0     		sub	sp, sp, #12
  58              	.LCFI1:
  59              		.cfi_def_cfa_offset 16
 499:../../CM7/LWIP/Target/ethernetif.c **** 
  60              		.loc 1 499 3 is_stmt 1 view .LVU5
ARM GAS  C:\Users\minis\AppData\Local\Temp\ccKk4sUj.s 			page 16


 499:../../CM7/LWIP/Target/ethernetif.c **** 
  61              		.loc 1 499 16 is_stmt 0 view .LVU6
  62 0004 0023     		movs	r3, #0
  63 0006 0193     		str	r3, [sp, #4]
 501:../../CM7/LWIP/Target/ethernetif.c ****   {
  64              		.loc 1 501 3 is_stmt 1 view .LVU7
 501:../../CM7/LWIP/Target/ethernetif.c ****   {
  65              		.loc 1 501 20 is_stmt 0 view .LVU8
  66 0008 054B     		ldr	r3, .L6
  67 000a 1B78     		ldrb	r3, [r3]	@ zero_extendqisi2
 501:../../CM7/LWIP/Target/ethernetif.c ****   {
  68              		.loc 1 501 5 view .LVU9
  69 000c 1BB1     		cbz	r3, .L5
  70              	.LVL1:
  71              	.L3:
 506:../../CM7/LWIP/Target/ethernetif.c **** }
  72              		.loc 1 506 3 is_stmt 1 view .LVU10
 507:../../CM7/LWIP/Target/ethernetif.c **** 
  73              		.loc 1 507 1 is_stmt 0 view .LVU11
  74 000e 0198     		ldr	r0, [sp, #4]
  75 0010 03B0     		add	sp, sp, #12
  76              	.LCFI2:
  77              		.cfi_remember_state
  78              		.cfi_def_cfa_offset 4
  79              		@ sp needed
  80 0012 5DF804FB 		ldr	pc, [sp], #4
  81              	.LVL2:
  82              	.L5:
  83              	.LCFI3:
  84              		.cfi_restore_state
 503:../../CM7/LWIP/Target/ethernetif.c ****   }
  85              		.loc 1 503 5 is_stmt 1 view .LVU12
  86 0016 01A9     		add	r1, sp, #4
  87 0018 0248     		ldr	r0, .L6+4
  88              	.LVL3:
 503:../../CM7/LWIP/Target/ethernetif.c ****   }
  89              		.loc 1 503 5 is_stmt 0 view .LVU13
  90 001a FFF7FEFF 		bl	HAL_ETH_ReadData
  91              	.LVL4:
  92 001e F6E7     		b	.L3
  93              	.L7:
  94              		.align	2
  95              	.L6:
  96 0020 00000000 		.word	RxAllocStatus
  97 0024 00000000 		.word	heth
  98              		.cfi_endproc
  99              	.LFE180:
 101              		.section	.text.ethernetif_input,"ax",%progbits
 102              		.align	1
 103              		.global	ethernetif_input
 104              		.syntax unified
 105              		.thumb
 106              		.thumb_func
 108              	ethernetif_input:
 109              	.LVL5:
 110              	.LFB181:
 519:../../CM7/LWIP/Target/ethernetif.c ****   struct pbuf *p = NULL;
ARM GAS  C:\Users\minis\AppData\Local\Temp\ccKk4sUj.s 			page 17


 111              		.loc 1 519 1 is_stmt 1 view -0
 112              		.cfi_startproc
 113              		@ args = 0, pretend = 0, frame = 0
 114              		@ frame_needed = 0, uses_anonymous_args = 0
 519:../../CM7/LWIP/Target/ethernetif.c ****   struct pbuf *p = NULL;
 115              		.loc 1 519 1 is_stmt 0 view .LVU15
 116 0000 38B5     		push	{r3, r4, r5, lr}
 117              	.LCFI4:
 118              		.cfi_def_cfa_offset 16
 119              		.cfi_offset 3, -16
 120              		.cfi_offset 4, -12
 121              		.cfi_offset 5, -8
 122              		.cfi_offset 14, -4
 123 0002 0546     		mov	r5, r0
 520:../../CM7/LWIP/Target/ethernetif.c ****   struct netif *netif = (struct netif *) argument;
 124              		.loc 1 520 3 is_stmt 1 view .LVU16
 125              	.LVL6:
 521:../../CM7/LWIP/Target/ethernetif.c **** 
 126              		.loc 1 521 3 view .LVU17
 127              	.L9:
 523:../../CM7/LWIP/Target/ethernetif.c ****   {
 128              		.loc 1 523 3 view .LVU18
 525:../../CM7/LWIP/Target/ethernetif.c ****     {
 129              		.loc 1 525 5 view .LVU19
 525:../../CM7/LWIP/Target/ethernetif.c ****     {
 130              		.loc 1 525 9 is_stmt 0 view .LVU20
 131 0004 4FF0FF31 		mov	r1, #-1
 132 0008 0B4B     		ldr	r3, .L14
 133 000a 1868     		ldr	r0, [r3]
 134 000c FFF7FEFF 		bl	osSemaphoreAcquire
 135              	.LVL7:
 525:../../CM7/LWIP/Target/ethernetif.c ****     {
 136              		.loc 1 525 8 discriminator 1 view .LVU21
 137 0010 0028     		cmp	r0, #0
 138 0012 F7D1     		bne	.L9
 139 0014 01E0     		b	.L11
 140              	.LVL8:
 141              	.L10:
 537:../../CM7/LWIP/Target/ethernetif.c ****     }
 142              		.loc 1 537 16 is_stmt 1 view .LVU22
 143 0016 002C     		cmp	r4, #0
 144 0018 F4D0     		beq	.L9
 145              	.LVL9:
 146              	.L11:
 527:../../CM7/LWIP/Target/ethernetif.c ****       {
 147              		.loc 1 527 7 view .LVU23
 529:../../CM7/LWIP/Target/ethernetif.c ****         if (p != NULL)
 148              		.loc 1 529 9 view .LVU24
 529:../../CM7/LWIP/Target/ethernetif.c ****         if (p != NULL)
 149              		.loc 1 529 13 is_stmt 0 view .LVU25
 150 001a 2846     		mov	r0, r5
 151 001c FFF7FEFF 		bl	low_level_input
 152              	.LVL10:
 530:../../CM7/LWIP/Target/ethernetif.c ****         {
 153              		.loc 1 530 9 is_stmt 1 view .LVU26
 530:../../CM7/LWIP/Target/ethernetif.c ****         {
 154              		.loc 1 530 12 is_stmt 0 view .LVU27
ARM GAS  C:\Users\minis\AppData\Local\Temp\ccKk4sUj.s 			page 18


 155 0020 0446     		mov	r4, r0
 156 0022 0028     		cmp	r0, #0
 157 0024 F7D0     		beq	.L10
 532:../../CM7/LWIP/Target/ethernetif.c ****           {
 158              		.loc 1 532 11 is_stmt 1 view .LVU28
 532:../../CM7/LWIP/Target/ethernetif.c ****           {
 159              		.loc 1 532 20 is_stmt 0 view .LVU29
 160 0026 2B69     		ldr	r3, [r5, #16]
 532:../../CM7/LWIP/Target/ethernetif.c ****           {
 161              		.loc 1 532 15 view .LVU30
 162 0028 2946     		mov	r1, r5
 163 002a 9847     		blx	r3
 164              	.LVL11:
 532:../../CM7/LWIP/Target/ethernetif.c ****           {
 165              		.loc 1 532 14 discriminator 1 view .LVU31
 166 002c 0028     		cmp	r0, #0
 167 002e F2D0     		beq	.L10
 534:../../CM7/LWIP/Target/ethernetif.c ****           }
 168              		.loc 1 534 13 is_stmt 1 view .LVU32
 169 0030 2046     		mov	r0, r4
 170 0032 FFF7FEFF 		bl	pbuf_free
 171              	.LVL12:
 172 0036 EEE7     		b	.L10
 173              	.L15:
 174              		.align	2
 175              	.L14:
 176 0038 00000000 		.word	RxPktSemaphore
 177              		.cfi_endproc
 178              	.LFE181:
 180              		.section	.text.ETH_PHY_IO_GetTick,"ax",%progbits
 181              		.align	1
 182              		.global	ETH_PHY_IO_GetTick
 183              		.syntax unified
 184              		.thumb
 185              		.thumb_func
 187              	ETH_PHY_IO_GetTick:
 188              	.LFB191:
 796:../../CM7/LWIP/Target/ethernetif.c **** 
 797:../../CM7/LWIP/Target/ethernetif.c **** /**
 798:../../CM7/LWIP/Target/ethernetif.c ****   * @brief  Read a PHY register through the MDIO interface.
 799:../../CM7/LWIP/Target/ethernetif.c ****   * @param  DevAddr: PHY port address
 800:../../CM7/LWIP/Target/ethernetif.c ****   * @param  RegAddr: PHY register address
 801:../../CM7/LWIP/Target/ethernetif.c ****   * @param  pRegVal: pointer to hold the register value
 802:../../CM7/LWIP/Target/ethernetif.c ****   * @retval 0 if OK -1 if Error
 803:../../CM7/LWIP/Target/ethernetif.c ****   */
 804:../../CM7/LWIP/Target/ethernetif.c **** int32_t ETH_PHY_IO_ReadReg(uint32_t DevAddr, uint32_t RegAddr, uint32_t *pRegVal)
 805:../../CM7/LWIP/Target/ethernetif.c **** {
 806:../../CM7/LWIP/Target/ethernetif.c ****   if(HAL_ETH_ReadPHYRegister(&heth, DevAddr, RegAddr, pRegVal) != HAL_OK)
 807:../../CM7/LWIP/Target/ethernetif.c ****   {
 808:../../CM7/LWIP/Target/ethernetif.c ****     return -1;
 809:../../CM7/LWIP/Target/ethernetif.c ****   }
 810:../../CM7/LWIP/Target/ethernetif.c **** 
 811:../../CM7/LWIP/Target/ethernetif.c ****   return 0;
 812:../../CM7/LWIP/Target/ethernetif.c **** }
 813:../../CM7/LWIP/Target/ethernetif.c **** 
 814:../../CM7/LWIP/Target/ethernetif.c **** /**
 815:../../CM7/LWIP/Target/ethernetif.c ****   * @brief  Write a value to a PHY register through the MDIO interface.
ARM GAS  C:\Users\minis\AppData\Local\Temp\ccKk4sUj.s 			page 19


 816:../../CM7/LWIP/Target/ethernetif.c ****   * @param  DevAddr: PHY port address
 817:../../CM7/LWIP/Target/ethernetif.c ****   * @param  RegAddr: PHY register address
 818:../../CM7/LWIP/Target/ethernetif.c ****   * @param  RegVal: Value to be written
 819:../../CM7/LWIP/Target/ethernetif.c ****   * @retval 0 if OK -1 if Error
 820:../../CM7/LWIP/Target/ethernetif.c ****   */
 821:../../CM7/LWIP/Target/ethernetif.c **** int32_t ETH_PHY_IO_WriteReg(uint32_t DevAddr, uint32_t RegAddr, uint32_t RegVal)
 822:../../CM7/LWIP/Target/ethernetif.c **** {
 823:../../CM7/LWIP/Target/ethernetif.c ****   if(HAL_ETH_WritePHYRegister(&heth, DevAddr, RegAddr, RegVal) != HAL_OK)
 824:../../CM7/LWIP/Target/ethernetif.c ****   {
 825:../../CM7/LWIP/Target/ethernetif.c ****     return -1;
 826:../../CM7/LWIP/Target/ethernetif.c ****   }
 827:../../CM7/LWIP/Target/ethernetif.c **** 
 828:../../CM7/LWIP/Target/ethernetif.c ****   return 0;
 829:../../CM7/LWIP/Target/ethernetif.c **** }
 830:../../CM7/LWIP/Target/ethernetif.c **** 
 831:../../CM7/LWIP/Target/ethernetif.c **** /**
 832:../../CM7/LWIP/Target/ethernetif.c ****   * @brief  Get the time in millisecons used for internal PHY driver process.
 833:../../CM7/LWIP/Target/ethernetif.c ****   * @retval Time value
 834:../../CM7/LWIP/Target/ethernetif.c ****   */
 835:../../CM7/LWIP/Target/ethernetif.c **** int32_t ETH_PHY_IO_GetTick(void)
 836:../../CM7/LWIP/Target/ethernetif.c **** {
 189              		.loc 1 836 1 view -0
 190              		.cfi_startproc
 191              		@ args = 0, pretend = 0, frame = 0
 192              		@ frame_needed = 0, uses_anonymous_args = 0
 193 0000 08B5     		push	{r3, lr}
 194              	.LCFI5:
 195              		.cfi_def_cfa_offset 8
 196              		.cfi_offset 3, -8
 197              		.cfi_offset 14, -4
 837:../../CM7/LWIP/Target/ethernetif.c ****   return HAL_GetTick();
 198              		.loc 1 837 3 view .LVU34
 199              		.loc 1 837 10 is_stmt 0 view .LVU35
 200 0002 FFF7FEFF 		bl	HAL_GetTick
 201              	.LVL13:
 838:../../CM7/LWIP/Target/ethernetif.c **** }
 202              		.loc 1 838 1 view .LVU36
 203 0006 08BD     		pop	{r3, pc}
 204              		.cfi_endproc
 205              	.LFE191:
 207              		.section	.text.ETH_PHY_IO_ReadReg,"ax",%progbits
 208              		.align	1
 209              		.global	ETH_PHY_IO_ReadReg
 210              		.syntax unified
 211              		.thumb
 212              		.thumb_func
 214              	ETH_PHY_IO_ReadReg:
 215              	.LVL14:
 216              	.LFB189:
 805:../../CM7/LWIP/Target/ethernetif.c ****   if(HAL_ETH_ReadPHYRegister(&heth, DevAddr, RegAddr, pRegVal) != HAL_OK)
 217              		.loc 1 805 1 is_stmt 1 view -0
 218              		.cfi_startproc
 219              		@ args = 0, pretend = 0, frame = 0
 220              		@ frame_needed = 0, uses_anonymous_args = 0
 805:../../CM7/LWIP/Target/ethernetif.c ****   if(HAL_ETH_ReadPHYRegister(&heth, DevAddr, RegAddr, pRegVal) != HAL_OK)
 221              		.loc 1 805 1 is_stmt 0 view .LVU38
 222 0000 08B5     		push	{r3, lr}
ARM GAS  C:\Users\minis\AppData\Local\Temp\ccKk4sUj.s 			page 20


 223              	.LCFI6:
 224              		.cfi_def_cfa_offset 8
 225              		.cfi_offset 3, -8
 226              		.cfi_offset 14, -4
 227 0002 1346     		mov	r3, r2
 806:../../CM7/LWIP/Target/ethernetif.c ****   {
 228              		.loc 1 806 3 is_stmt 1 view .LVU39
 806:../../CM7/LWIP/Target/ethernetif.c ****   {
 229              		.loc 1 806 6 is_stmt 0 view .LVU40
 230 0004 0A46     		mov	r2, r1
 231              	.LVL15:
 806:../../CM7/LWIP/Target/ethernetif.c ****   {
 232              		.loc 1 806 6 view .LVU41
 233 0006 0146     		mov	r1, r0
 234              	.LVL16:
 806:../../CM7/LWIP/Target/ethernetif.c ****   {
 235              		.loc 1 806 6 view .LVU42
 236 0008 0348     		ldr	r0, .L23
 237              	.LVL17:
 806:../../CM7/LWIP/Target/ethernetif.c ****   {
 238              		.loc 1 806 6 view .LVU43
 239 000a FFF7FEFF 		bl	HAL_ETH_ReadPHYRegister
 240              	.LVL18:
 806:../../CM7/LWIP/Target/ethernetif.c ****   {
 241              		.loc 1 806 5 discriminator 1 view .LVU44
 242 000e 00B9     		cbnz	r0, .L22
 243              	.L18:
 812:../../CM7/LWIP/Target/ethernetif.c **** 
 244              		.loc 1 812 1 view .LVU45
 245 0010 08BD     		pop	{r3, pc}
 246              	.L22:
 808:../../CM7/LWIP/Target/ethernetif.c ****   }
 247              		.loc 1 808 12 view .LVU46
 248 0012 4FF0FF30 		mov	r0, #-1
 249 0016 FBE7     		b	.L18
 250              	.L24:
 251              		.align	2
 252              	.L23:
 253 0018 00000000 		.word	heth
 254              		.cfi_endproc
 255              	.LFE189:
 257              		.section	.text.ETH_PHY_IO_WriteReg,"ax",%progbits
 258              		.align	1
 259              		.global	ETH_PHY_IO_WriteReg
 260              		.syntax unified
 261              		.thumb
 262              		.thumb_func
 264              	ETH_PHY_IO_WriteReg:
 265              	.LVL19:
 266              	.LFB190:
 822:../../CM7/LWIP/Target/ethernetif.c ****   if(HAL_ETH_WritePHYRegister(&heth, DevAddr, RegAddr, RegVal) != HAL_OK)
 267              		.loc 1 822 1 is_stmt 1 view -0
 268              		.cfi_startproc
 269              		@ args = 0, pretend = 0, frame = 0
 270              		@ frame_needed = 0, uses_anonymous_args = 0
 822:../../CM7/LWIP/Target/ethernetif.c ****   if(HAL_ETH_WritePHYRegister(&heth, DevAddr, RegAddr, RegVal) != HAL_OK)
 271              		.loc 1 822 1 is_stmt 0 view .LVU48
ARM GAS  C:\Users\minis\AppData\Local\Temp\ccKk4sUj.s 			page 21


 272 0000 08B5     		push	{r3, lr}
 273              	.LCFI7:
 274              		.cfi_def_cfa_offset 8
 275              		.cfi_offset 3, -8
 276              		.cfi_offset 14, -4
 277 0002 1346     		mov	r3, r2
 823:../../CM7/LWIP/Target/ethernetif.c ****   {
 278              		.loc 1 823 3 is_stmt 1 view .LVU49
 823:../../CM7/LWIP/Target/ethernetif.c ****   {
 279              		.loc 1 823 6 is_stmt 0 view .LVU50
 280 0004 0A46     		mov	r2, r1
 281              	.LVL20:
 823:../../CM7/LWIP/Target/ethernetif.c ****   {
 282              		.loc 1 823 6 view .LVU51
 283 0006 0146     		mov	r1, r0
 284              	.LVL21:
 823:../../CM7/LWIP/Target/ethernetif.c ****   {
 285              		.loc 1 823 6 view .LVU52
 286 0008 0348     		ldr	r0, .L30
 287              	.LVL22:
 823:../../CM7/LWIP/Target/ethernetif.c ****   {
 288              		.loc 1 823 6 view .LVU53
 289 000a FFF7FEFF 		bl	HAL_ETH_WritePHYRegister
 290              	.LVL23:
 823:../../CM7/LWIP/Target/ethernetif.c ****   {
 291              		.loc 1 823 5 discriminator 1 view .LVU54
 292 000e 00B9     		cbnz	r0, .L29
 293              	.L25:
 829:../../CM7/LWIP/Target/ethernetif.c **** 
 294              		.loc 1 829 1 view .LVU55
 295 0010 08BD     		pop	{r3, pc}
 296              	.L29:
 825:../../CM7/LWIP/Target/ethernetif.c ****   }
 297              		.loc 1 825 12 view .LVU56
 298 0012 4FF0FF30 		mov	r0, #-1
 299 0016 FBE7     		b	.L25
 300              	.L31:
 301              		.align	2
 302              	.L30:
 303 0018 00000000 		.word	heth
 304              		.cfi_endproc
 305              	.LFE190:
 307              		.section	.rodata.low_level_init.str1.4,"aMS",%progbits,1
 308              		.align	2
 309              	.LC0:
 310 0000 45746849 		.ascii	"EthIf\000"
 310      6600
 311              		.section	.text.low_level_init,"ax",%progbits
 312              		.align	1
 313              		.syntax unified
 314              		.thumb
 315              		.thumb_func
 317              	low_level_init:
 318              	.LVL24:
 319              	.LFB178:
 226:../../CM7/LWIP/Target/ethernetif.c ****   HAL_StatusTypeDef hal_eth_init_status = HAL_OK;
 320              		.loc 1 226 1 is_stmt 1 view -0
ARM GAS  C:\Users\minis\AppData\Local\Temp\ccKk4sUj.s 			page 22


 321              		.cfi_startproc
 322              		@ args = 0, pretend = 0, frame = 152
 323              		@ frame_needed = 0, uses_anonymous_args = 0
 226:../../CM7/LWIP/Target/ethernetif.c ****   HAL_StatusTypeDef hal_eth_init_status = HAL_OK;
 324              		.loc 1 226 1 is_stmt 0 view .LVU58
 325 0000 2DE9F043 		push	{r4, r5, r6, r7, r8, r9, lr}
 326              	.LCFI8:
 327              		.cfi_def_cfa_offset 28
 328              		.cfi_offset 4, -28
 329              		.cfi_offset 5, -24
 330              		.cfi_offset 6, -20
 331              		.cfi_offset 7, -16
 332              		.cfi_offset 8, -12
 333              		.cfi_offset 9, -8
 334              		.cfi_offset 14, -4
 335 0004 A7B0     		sub	sp, sp, #156
 336              	.LCFI9:
 337              		.cfi_def_cfa_offset 184
 338 0006 0446     		mov	r4, r0
 227:../../CM7/LWIP/Target/ethernetif.c **** /* USER CODE BEGIN OS_THREAD_ATTR_CMSIS_RTOS_V2 */
 339              		.loc 1 227 3 is_stmt 1 view .LVU59
 340              	.LVL25:
 229:../../CM7/LWIP/Target/ethernetif.c **** /* USER CODE END OS_THREAD_ATTR_CMSIS_RTOS_V2 */
 341              		.loc 1 229 3 view .LVU60
 231:../../CM7/LWIP/Target/ethernetif.c ****   int32_t PHYLinkState = 0;
 342              		.loc 1 231 3 view .LVU61
 232:../../CM7/LWIP/Target/ethernetif.c ****   ETH_MACConfigTypeDef MACConf = {0};
 343              		.loc 1 232 3 view .LVU62
 233:../../CM7/LWIP/Target/ethernetif.c ****   /* Start ETH HAL Init */
 344              		.loc 1 233 3 view .LVU63
 233:../../CM7/LWIP/Target/ethernetif.c ****   /* Start ETH HAL Init */
 345              		.loc 1 233 24 is_stmt 0 view .LVU64
 346 0008 6422     		movs	r2, #100
 347 000a 0021     		movs	r1, #0
 348 000c 04A8     		add	r0, sp, #16
 349              	.LVL26:
 233:../../CM7/LWIP/Target/ethernetif.c ****   /* Start ETH HAL Init */
 350              		.loc 1 233 24 view .LVU65
 351 000e FFF7FEFF 		bl	memset
 352              	.LVL27:
 236:../../CM7/LWIP/Target/ethernetif.c ****   heth.Instance = ETH;
 353              		.loc 1 236 4 is_stmt 1 view .LVU66
 237:../../CM7/LWIP/Target/ethernetif.c ****   MACAddr[0] = 0x00;
 354              		.loc 1 237 3 view .LVU67
 237:../../CM7/LWIP/Target/ethernetif.c ****   MACAddr[0] = 0x00;
 355              		.loc 1 237 17 is_stmt 0 view .LVU68
 356 0012 754E     		ldr	r6, .L49
 357 0014 754B     		ldr	r3, .L49+4
 358 0016 3360     		str	r3, [r6]
 238:../../CM7/LWIP/Target/ethernetif.c ****   MACAddr[1] = 0x80;
 359              		.loc 1 238 3 is_stmt 1 view .LVU69
 238:../../CM7/LWIP/Target/ethernetif.c ****   MACAddr[1] = 0x80;
 360              		.loc 1 238 14 is_stmt 0 view .LVU70
 361 0018 0025     		movs	r5, #0
 362 001a 8DF80850 		strb	r5, [sp, #8]
 239:../../CM7/LWIP/Target/ethernetif.c ****   MACAddr[2] = 0xE1;
 363              		.loc 1 239 3 is_stmt 1 view .LVU71
ARM GAS  C:\Users\minis\AppData\Local\Temp\ccKk4sUj.s 			page 23


 239:../../CM7/LWIP/Target/ethernetif.c ****   MACAddr[2] = 0xE1;
 364              		.loc 1 239 14 is_stmt 0 view .LVU72
 365 001e 8023     		movs	r3, #128
 366 0020 8DF80930 		strb	r3, [sp, #9]
 240:../../CM7/LWIP/Target/ethernetif.c ****   MACAddr[3] = 0x00;
 367              		.loc 1 240 3 is_stmt 1 view .LVU73
 240:../../CM7/LWIP/Target/ethernetif.c ****   MACAddr[3] = 0x00;
 368              		.loc 1 240 14 is_stmt 0 view .LVU74
 369 0024 E123     		movs	r3, #225
 370 0026 8DF80A30 		strb	r3, [sp, #10]
 241:../../CM7/LWIP/Target/ethernetif.c ****   MACAddr[4] = 0x00;
 371              		.loc 1 241 3 is_stmt 1 view .LVU75
 241:../../CM7/LWIP/Target/ethernetif.c ****   MACAddr[4] = 0x00;
 372              		.loc 1 241 14 is_stmt 0 view .LVU76
 373 002a 8DF80B50 		strb	r5, [sp, #11]
 242:../../CM7/LWIP/Target/ethernetif.c ****   MACAddr[5] = 0x00;
 374              		.loc 1 242 3 is_stmt 1 view .LVU77
 242:../../CM7/LWIP/Target/ethernetif.c ****   MACAddr[5] = 0x00;
 375              		.loc 1 242 14 is_stmt 0 view .LVU78
 376 002e 8DF80C50 		strb	r5, [sp, #12]
 243:../../CM7/LWIP/Target/ethernetif.c ****   heth.Init.MACAddr = &MACAddr[0];
 377              		.loc 1 243 3 is_stmt 1 view .LVU79
 243:../../CM7/LWIP/Target/ethernetif.c ****   heth.Init.MACAddr = &MACAddr[0];
 378              		.loc 1 243 14 is_stmt 0 view .LVU80
 379 0032 8DF80D50 		strb	r5, [sp, #13]
 244:../../CM7/LWIP/Target/ethernetif.c ****   heth.Init.MediaInterface = HAL_ETH_RMII_MODE;
 380              		.loc 1 244 3 is_stmt 1 view .LVU81
 244:../../CM7/LWIP/Target/ethernetif.c ****   heth.Init.MediaInterface = HAL_ETH_RMII_MODE;
 381              		.loc 1 244 21 is_stmt 0 view .LVU82
 382 0036 02AB     		add	r3, sp, #8
 383 0038 7360     		str	r3, [r6, #4]
 245:../../CM7/LWIP/Target/ethernetif.c ****   heth.Init.TxDesc = DMATxDscrTab;
 384              		.loc 1 245 3 is_stmt 1 view .LVU83
 245:../../CM7/LWIP/Target/ethernetif.c ****   heth.Init.TxDesc = DMATxDscrTab;
 385              		.loc 1 245 28 is_stmt 0 view .LVU84
 386 003a 0127     		movs	r7, #1
 387 003c 3772     		strb	r7, [r6, #8]
 246:../../CM7/LWIP/Target/ethernetif.c ****   heth.Init.RxDesc = DMARxDscrTab;
 388              		.loc 1 246 3 is_stmt 1 view .LVU85
 246:../../CM7/LWIP/Target/ethernetif.c ****   heth.Init.RxDesc = DMARxDscrTab;
 389              		.loc 1 246 20 is_stmt 0 view .LVU86
 390 003e 6C4B     		ldr	r3, .L49+8
 391 0040 F360     		str	r3, [r6, #12]
 247:../../CM7/LWIP/Target/ethernetif.c ****   heth.Init.RxBuffLen = 1536;
 392              		.loc 1 247 3 is_stmt 1 view .LVU87
 247:../../CM7/LWIP/Target/ethernetif.c ****   heth.Init.RxBuffLen = 1536;
 393              		.loc 1 247 20 is_stmt 0 view .LVU88
 394 0042 6C4B     		ldr	r3, .L49+12
 395 0044 3361     		str	r3, [r6, #16]
 248:../../CM7/LWIP/Target/ethernetif.c **** 
 396              		.loc 1 248 3 is_stmt 1 view .LVU89
 248:../../CM7/LWIP/Target/ethernetif.c **** 
 397              		.loc 1 248 23 is_stmt 0 view .LVU90
 398 0046 4FF4C063 		mov	r3, #1536
 399 004a 7361     		str	r3, [r6, #20]
 254:../../CM7/LWIP/Target/ethernetif.c **** 
 400              		.loc 1 254 3 is_stmt 1 view .LVU91
ARM GAS  C:\Users\minis\AppData\Local\Temp\ccKk4sUj.s 			page 24


 254:../../CM7/LWIP/Target/ethernetif.c **** 
 401              		.loc 1 254 25 is_stmt 0 view .LVU92
 402 004c 3046     		mov	r0, r6
 403 004e FFF7FEFF 		bl	HAL_ETH_Init
 404              	.LVL28:
 405 0052 8046     		mov	r8, r0
 406              	.LVL29:
 256:../../CM7/LWIP/Target/ethernetif.c ****   TxConfig.Attributes = ETH_TX_PACKETS_FEATURES_CSUM | ETH_TX_PACKETS_FEATURES_CRCPAD;
 407              		.loc 1 256 3 is_stmt 1 view .LVU93
 408 0054 DFF8BC91 		ldr	r9, .L49+44
 409 0058 3822     		movs	r2, #56
 410 005a 2946     		mov	r1, r5
 411 005c 4846     		mov	r0, r9
 412 005e FFF7FEFF 		bl	memset
 413              	.LVL30:
 257:../../CM7/LWIP/Target/ethernetif.c ****   TxConfig.ChecksumCtrl = ETH_CHECKSUM_IPHDR_PAYLOAD_INSERT_PHDR_CALC;
 414              		.loc 1 257 3 view .LVU94
 257:../../CM7/LWIP/Target/ethernetif.c ****   TxConfig.ChecksumCtrl = ETH_CHECKSUM_IPHDR_PAYLOAD_INSERT_PHDR_CALC;
 415              		.loc 1 257 23 is_stmt 0 view .LVU95
 416 0062 2123     		movs	r3, #33
 417 0064 C9F80030 		str	r3, [r9]
 258:../../CM7/LWIP/Target/ethernetif.c ****   TxConfig.CRCPadCtrl = ETH_CRC_PAD_INSERT;
 418              		.loc 1 258 3 is_stmt 1 view .LVU96
 258:../../CM7/LWIP/Target/ethernetif.c ****   TxConfig.CRCPadCtrl = ETH_CRC_PAD_INSERT;
 419              		.loc 1 258 25 is_stmt 0 view .LVU97
 420 0068 4FF44033 		mov	r3, #196608
 421 006c C9F81430 		str	r3, [r9, #20]
 259:../../CM7/LWIP/Target/ethernetif.c **** 
 422              		.loc 1 259 3 is_stmt 1 view .LVU98
 264:../../CM7/LWIP/Target/ethernetif.c **** 
 423              		.loc 1 264 3 view .LVU99
 424 0070 6148     		ldr	r0, .L49+16
 425 0072 FFF7FEFF 		bl	memp_init_pool
 426              	.LVL31:
 268:../../CM7/LWIP/Target/ethernetif.c **** 
 427              		.loc 1 268 3 view .LVU100
 268:../../CM7/LWIP/Target/ethernetif.c **** 
 428              		.loc 1 268 21 is_stmt 0 view .LVU101
 429 0076 0623     		movs	r3, #6
 430 0078 84F82C30 		strb	r3, [r4, #44]
 271:../../CM7/LWIP/Target/ethernetif.c ****   netif->hwaddr[1] =  heth.Init.MACAddr[1];
 431              		.loc 1 271 3 is_stmt 1 view .LVU102
 271:../../CM7/LWIP/Target/ethernetif.c ****   netif->hwaddr[1] =  heth.Init.MACAddr[1];
 432              		.loc 1 271 32 is_stmt 0 view .LVU103
 433 007c 7368     		ldr	r3, [r6, #4]
 271:../../CM7/LWIP/Target/ethernetif.c ****   netif->hwaddr[1] =  heth.Init.MACAddr[1];
 434              		.loc 1 271 40 view .LVU104
 435 007e 1A78     		ldrb	r2, [r3]	@ zero_extendqisi2
 271:../../CM7/LWIP/Target/ethernetif.c ****   netif->hwaddr[1] =  heth.Init.MACAddr[1];
 436              		.loc 1 271 20 view .LVU105
 437 0080 84F82620 		strb	r2, [r4, #38]
 272:../../CM7/LWIP/Target/ethernetif.c ****   netif->hwaddr[2] =  heth.Init.MACAddr[2];
 438              		.loc 1 272 3 is_stmt 1 view .LVU106
 272:../../CM7/LWIP/Target/ethernetif.c ****   netif->hwaddr[2] =  heth.Init.MACAddr[2];
 439              		.loc 1 272 20 is_stmt 0 view .LVU107
 440 0084 5A78     		ldrb	r2, [r3, #1]	@ zero_extendqisi2
 441 0086 84F82720 		strb	r2, [r4, #39]
ARM GAS  C:\Users\minis\AppData\Local\Temp\ccKk4sUj.s 			page 25


 273:../../CM7/LWIP/Target/ethernetif.c ****   netif->hwaddr[3] =  heth.Init.MACAddr[3];
 442              		.loc 1 273 3 is_stmt 1 view .LVU108
 273:../../CM7/LWIP/Target/ethernetif.c ****   netif->hwaddr[3] =  heth.Init.MACAddr[3];
 443              		.loc 1 273 20 is_stmt 0 view .LVU109
 444 008a 9A78     		ldrb	r2, [r3, #2]	@ zero_extendqisi2
 445 008c 84F82820 		strb	r2, [r4, #40]
 274:../../CM7/LWIP/Target/ethernetif.c ****   netif->hwaddr[4] =  heth.Init.MACAddr[4];
 446              		.loc 1 274 3 is_stmt 1 view .LVU110
 274:../../CM7/LWIP/Target/ethernetif.c ****   netif->hwaddr[4] =  heth.Init.MACAddr[4];
 447              		.loc 1 274 20 is_stmt 0 view .LVU111
 448 0090 DA78     		ldrb	r2, [r3, #3]	@ zero_extendqisi2
 449 0092 84F82920 		strb	r2, [r4, #41]
 275:../../CM7/LWIP/Target/ethernetif.c ****   netif->hwaddr[5] =  heth.Init.MACAddr[5];
 450              		.loc 1 275 3 is_stmt 1 view .LVU112
 275:../../CM7/LWIP/Target/ethernetif.c ****   netif->hwaddr[5] =  heth.Init.MACAddr[5];
 451              		.loc 1 275 20 is_stmt 0 view .LVU113
 452 0096 1A79     		ldrb	r2, [r3, #4]	@ zero_extendqisi2
 453 0098 84F82A20 		strb	r2, [r4, #42]
 276:../../CM7/LWIP/Target/ethernetif.c **** 
 454              		.loc 1 276 3 is_stmt 1 view .LVU114
 276:../../CM7/LWIP/Target/ethernetif.c **** 
 455              		.loc 1 276 20 is_stmt 0 view .LVU115
 456 009c 5B79     		ldrb	r3, [r3, #5]	@ zero_extendqisi2
 457 009e 84F82B30 		strb	r3, [r4, #43]
 279:../../CM7/LWIP/Target/ethernetif.c **** 
 458              		.loc 1 279 3 is_stmt 1 view .LVU116
 279:../../CM7/LWIP/Target/ethernetif.c **** 
 459              		.loc 1 279 14 is_stmt 0 view .LVU117
 460 00a2 40F2DC53 		movw	r3, #1500
 461 00a6 A384     		strh	r3, [r4, #36]	@ movhi
 284:../../CM7/LWIP/Target/ethernetif.c ****   #else
 462              		.loc 1 284 5 is_stmt 1 view .LVU118
 284:../../CM7/LWIP/Target/ethernetif.c ****   #else
 463              		.loc 1 284 10 is_stmt 0 view .LVU119
 464 00a8 94F82D30 		ldrb	r3, [r4, #45]	@ zero_extendqisi2
 284:../../CM7/LWIP/Target/ethernetif.c ****   #else
 465              		.loc 1 284 18 view .LVU120
 466 00ac 43F00A03 		orr	r3, r3, #10
 467 00b0 84F82D30 		strb	r3, [r4, #45]
 290:../../CM7/LWIP/Target/ethernetif.c **** 
 468              		.loc 1 290 3 is_stmt 1 view .LVU121
 290:../../CM7/LWIP/Target/ethernetif.c **** 
 469              		.loc 1 290 20 is_stmt 0 view .LVU122
 470 00b4 2A46     		mov	r2, r5
 471 00b6 2946     		mov	r1, r5
 472 00b8 3846     		mov	r0, r7
 473 00ba FFF7FEFF 		bl	osSemaphoreNew
 474              	.LVL32:
 290:../../CM7/LWIP/Target/ethernetif.c **** 
 475              		.loc 1 290 18 discriminator 1 view .LVU123
 476 00be 4F4B     		ldr	r3, .L49+20
 477 00c0 1860     		str	r0, [r3]
 293:../../CM7/LWIP/Target/ethernetif.c **** 
 478              		.loc 1 293 3 is_stmt 1 view .LVU124
 293:../../CM7/LWIP/Target/ethernetif.c **** 
 479              		.loc 1 293 20 is_stmt 0 view .LVU125
 480 00c2 2A46     		mov	r2, r5
ARM GAS  C:\Users\minis\AppData\Local\Temp\ccKk4sUj.s 			page 26


 481 00c4 2946     		mov	r1, r5
 482 00c6 3846     		mov	r0, r7
 483 00c8 FFF7FEFF 		bl	osSemaphoreNew
 484              	.LVL33:
 293:../../CM7/LWIP/Target/ethernetif.c **** 
 485              		.loc 1 293 18 discriminator 1 view .LVU126
 486 00cc 4C4B     		ldr	r3, .L49+24
 487 00ce 1860     		str	r0, [r3]
 297:../../CM7/LWIP/Target/ethernetif.c ****   attributes.name = "EthIf";
 488              		.loc 1 297 3 is_stmt 1 view .LVU127
 489 00d0 1DAF     		add	r7, sp, #116
 490 00d2 2422     		movs	r2, #36
 491 00d4 2946     		mov	r1, r5
 492 00d6 3846     		mov	r0, r7
 493 00d8 FFF7FEFF 		bl	memset
 494              	.LVL34:
 298:../../CM7/LWIP/Target/ethernetif.c ****   attributes.stack_size = INTERFACE_THREAD_STACK_SIZE;
 495              		.loc 1 298 3 view .LVU128
 298:../../CM7/LWIP/Target/ethernetif.c ****   attributes.stack_size = INTERFACE_THREAD_STACK_SIZE;
 496              		.loc 1 298 19 is_stmt 0 view .LVU129
 497 00dc 494B     		ldr	r3, .L49+28
 498 00de 1D93     		str	r3, [sp, #116]
 299:../../CM7/LWIP/Target/ethernetif.c ****   attributes.priority = osPriorityRealtime;
 499              		.loc 1 299 3 is_stmt 1 view .LVU130
 299:../../CM7/LWIP/Target/ethernetif.c ****   attributes.priority = osPriorityRealtime;
 500              		.loc 1 299 25 is_stmt 0 view .LVU131
 501 00e0 4FF4AF73 		mov	r3, #350
 502 00e4 2293     		str	r3, [sp, #136]
 300:../../CM7/LWIP/Target/ethernetif.c ****   osThreadNew(ethernetif_input, netif, &attributes);
 503              		.loc 1 300 3 is_stmt 1 view .LVU132
 300:../../CM7/LWIP/Target/ethernetif.c ****   osThreadNew(ethernetif_input, netif, &attributes);
 504              		.loc 1 300 23 is_stmt 0 view .LVU133
 505 00e6 3023     		movs	r3, #48
 506 00e8 2393     		str	r3, [sp, #140]
 301:../../CM7/LWIP/Target/ethernetif.c **** /* USER CODE END OS_THREAD_NEW_CMSIS_RTOS_V2 */
 507              		.loc 1 301 3 is_stmt 1 view .LVU134
 508 00ea 3A46     		mov	r2, r7
 509 00ec 2146     		mov	r1, r4
 510 00ee 4648     		ldr	r0, .L49+32
 511 00f0 FFF7FEFF 		bl	osThreadNew
 512              	.LVL35:
 307:../../CM7/LWIP/Target/ethernetif.c **** uint32_t tickstart = HAL_GetTick();
 513              		.loc 1 307 1 view .LVU135
 307:../../CM7/LWIP/Target/ethernetif.c **** uint32_t tickstart = HAL_GetTick();
 514              		.loc 1 307 10 is_stmt 0 view .LVU136
 515 00f4 0195     		str	r5, [sp, #4]
 308:../../CM7/LWIP/Target/ethernetif.c **** 
 516              		.loc 1 308 1 is_stmt 1 view .LVU137
 308:../../CM7/LWIP/Target/ethernetif.c **** 
 517              		.loc 1 308 22 is_stmt 0 view .LVU138
 518 00f6 FFF7FEFF 		bl	HAL_GetTick
 519              	.LVL36:
 520 00fa 0746     		mov	r7, r0
 521              	.LVL37:
 311:../../CM7/LWIP/Target/ethernetif.c **** {
 522              		.loc 1 311 1 is_stmt 1 view .LVU139
 311:../../CM7/LWIP/Target/ethernetif.c **** {
ARM GAS  C:\Users\minis\AppData\Local\Temp\ccKk4sUj.s 			page 27


 523              		.loc 1 311 4 is_stmt 0 view .LVU140
 524 00fc 01AB     		add	r3, sp, #4
 525 00fe 2A46     		mov	r2, r5
 526 0100 2946     		mov	r1, r5
 527 0102 3046     		mov	r0, r6
 528              	.LVL38:
 311:../../CM7/LWIP/Target/ethernetif.c **** {
 529              		.loc 1 311 4 view .LVU141
 530 0104 FFF7FEFF 		bl	HAL_ETH_ReadPHYRegister
 531              	.LVL39:
 311:../../CM7/LWIP/Target/ethernetif.c **** {
 532              		.loc 1 311 3 discriminator 1 view .LVU142
 533 0108 D8B1     		cbz	r0, .L46
 534              	.L33:
 337:../../CM7/LWIP/Target/ethernetif.c **** 
 535              		.loc 1 337 3 is_stmt 1 view .LVU143
 536 010a 404D     		ldr	r5, .L49+36
 537 010c 4049     		ldr	r1, .L49+40
 538 010e 2846     		mov	r0, r5
 539 0110 FFF7FEFF 		bl	LAN8742_RegisterBusIO
 540              	.LVL40:
 340:../../CM7/LWIP/Target/ethernetif.c ****   {
 541              		.loc 1 340 3 view .LVU144
 340:../../CM7/LWIP/Target/ethernetif.c ****   {
 542              		.loc 1 340 6 is_stmt 0 view .LVU145
 543 0114 2846     		mov	r0, r5
 544 0116 FFF7FEFF 		bl	LAN8742_Init
 545              	.LVL41:
 340:../../CM7/LWIP/Target/ethernetif.c ****   {
 546              		.loc 1 340 5 discriminator 1 view .LVU146
 547 011a 78BB     		cbnz	r0, .L47
 347:../../CM7/LWIP/Target/ethernetif.c ****   {
 548              		.loc 1 347 3 is_stmt 1 view .LVU147
 347:../../CM7/LWIP/Target/ethernetif.c ****   {
 549              		.loc 1 347 6 is_stmt 0 view .LVU148
 550 011c B8F1000F 		cmp	r8, #0
 551 0120 5CD1     		bne	.L38
 349:../../CM7/LWIP/Target/ethernetif.c **** 
 552              		.loc 1 349 5 is_stmt 1 view .LVU149
 349:../../CM7/LWIP/Target/ethernetif.c **** 
 553              		.loc 1 349 20 is_stmt 0 view .LVU150
 554 0122 3A48     		ldr	r0, .L49+36
 555 0124 FFF7FEFF 		bl	LAN8742_GetLinkState
 556              	.LVL42:
 352:../../CM7/LWIP/Target/ethernetif.c ****     {
 557              		.loc 1 352 5 is_stmt 1 view .LVU151
 352:../../CM7/LWIP/Target/ethernetif.c ****     {
 558              		.loc 1 352 7 is_stmt 0 view .LVU152
 559 0128 0128     		cmp	r0, #1
 560 012a 2EDD     		ble	.L48
 359:../../CM7/LWIP/Target/ethernetif.c ****       {
 561              		.loc 1 359 7 is_stmt 1 view .LVU153
 562 012c 0428     		cmp	r0, #4
 563 012e 33D0     		beq	.L42
 564 0130 0528     		cmp	r0, #5
 565 0132 35D0     		beq	.L43
 566 0134 0328     		cmp	r0, #3
ARM GAS  C:\Users\minis\AppData\Local\Temp\ccKk4sUj.s 			page 28


 567 0136 4CD1     		bne	.L44
 367:../../CM7/LWIP/Target/ethernetif.c ****         break;
 568              		.loc 1 367 15 is_stmt 0 view .LVU154
 569 0138 4FF48047 		mov	r7, #16384
 570              	.LVL43:
 366:../../CM7/LWIP/Target/ethernetif.c ****         speed = ETH_SPEED_100M;
 571              		.loc 1 366 16 view .LVU155
 572 013c 4FF00008 		mov	r8, #0
 573              	.LVL44:
 366:../../CM7/LWIP/Target/ethernetif.c ****         speed = ETH_SPEED_100M;
 574              		.loc 1 366 16 view .LVU156
 575 0140 30E0     		b	.L41
 576              	.LVL45:
 577              	.L46:
 314:../../CM7/LWIP/Target/ethernetif.c ****     HAL_ETH_WritePHYRegister(&heth, 0, LAN8742_BCR, regvalue);
 578              		.loc 1 314 5 is_stmt 1 view .LVU157
 314:../../CM7/LWIP/Target/ethernetif.c ****     HAL_ETH_WritePHYRegister(&heth, 0, LAN8742_BCR, regvalue);
 579              		.loc 1 314 14 is_stmt 0 view .LVU158
 580 0142 019B     		ldr	r3, [sp, #4]
 581 0144 43F40043 		orr	r3, r3, #32768
 582 0148 0193     		str	r3, [sp, #4]
 315:../../CM7/LWIP/Target/ethernetif.c **** 
 583              		.loc 1 315 5 is_stmt 1 view .LVU159
 584 014a 2A46     		mov	r2, r5
 585 014c 2946     		mov	r1, r5
 586 014e 3046     		mov	r0, r6
 587 0150 FFF7FEFF 		bl	HAL_ETH_WritePHYRegister
 588              	.LVL46:
 589              	.L35:
 319:../../CM7/LWIP/Target/ethernetif.c ****         HAL_ETH_ReadPHYRegister(&heth, 0, LAN8742_BCR, &regvalue);
 590              		.loc 1 319 5 view .LVU160
 320:../../CM7/LWIP/Target/ethernetif.c ****         if((HAL_GetTick() - tickstart) > 500U)
 591              		.loc 1 320 9 view .LVU161
 592 0154 01AB     		add	r3, sp, #4
 593 0156 0022     		movs	r2, #0
 594 0158 1146     		mov	r1, r2
 595 015a 2348     		ldr	r0, .L49
 596 015c FFF7FEFF 		bl	HAL_ETH_ReadPHYRegister
 597              	.LVL47:
 321:../../CM7/LWIP/Target/ethernetif.c ****         {
 598              		.loc 1 321 9 view .LVU162
 321:../../CM7/LWIP/Target/ethernetif.c ****         {
 599              		.loc 1 321 13 is_stmt 0 view .LVU163
 600 0160 FFF7FEFF 		bl	HAL_GetTick
 601              	.LVL48:
 321:../../CM7/LWIP/Target/ethernetif.c ****         {
 602              		.loc 1 321 27 discriminator 1 view .LVU164
 603 0164 C31B     		subs	r3, r0, r7
 321:../../CM7/LWIP/Target/ethernetif.c ****         {
 604              		.loc 1 321 11 discriminator 1 view .LVU165
 605 0166 B3F5FA7F 		cmp	r3, #500
 606 016a 03D8     		bhi	.L34
 326:../../CM7/LWIP/Target/ethernetif.c **** 
 607              		.loc 1 326 14 is_stmt 1 view .LVU166
 608 016c 019B     		ldr	r3, [sp, #4]
 609 016e 13F4004F 		tst	r3, #32768
 610 0172 EFD1     		bne	.L35
ARM GAS  C:\Users\minis\AppData\Local\Temp\ccKk4sUj.s 			page 29


 611              	.L34:
 329:../../CM7/LWIP/Target/ethernetif.c **** }
 612              		.loc 1 329 5 view .LVU167
 613 0174 3220     		movs	r0, #50
 614 0176 FFF7FEFF 		bl	osDelay
 615              	.LVL49:
 616 017a C6E7     		b	.L33
 617              	.L47:
 342:../../CM7/LWIP/Target/ethernetif.c ****     netif_set_down(netif);
 618              		.loc 1 342 5 view .LVU168
 619 017c 2046     		mov	r0, r4
 620 017e FFF7FEFF 		bl	netif_set_link_down
 621              	.LVL50:
 343:../../CM7/LWIP/Target/ethernetif.c ****     return;
 622              		.loc 1 343 5 view .LVU169
 623 0182 2046     		mov	r0, r4
 624 0184 FFF7FEFF 		bl	netif_set_down
 625              	.LVL51:
 344:../../CM7/LWIP/Target/ethernetif.c ****   }
 626              		.loc 1 344 5 view .LVU170
 627 0188 2AE0     		b	.L32
 628              	.LVL52:
 629              	.L48:
 354:../../CM7/LWIP/Target/ethernetif.c ****       netif_set_down(netif);
 630              		.loc 1 354 7 view .LVU171
 631 018a 2046     		mov	r0, r4
 632              	.LVL53:
 354:../../CM7/LWIP/Target/ethernetif.c ****       netif_set_down(netif);
 633              		.loc 1 354 7 is_stmt 0 view .LVU172
 634 018c FFF7FEFF 		bl	netif_set_link_down
 635              	.LVL54:
 355:../../CM7/LWIP/Target/ethernetif.c ****     }
 636              		.loc 1 355 7 is_stmt 1 view .LVU173
 637 0190 2046     		mov	r0, r4
 638 0192 FFF7FEFF 		bl	netif_set_down
 639              	.LVL55:
 640 0196 23E0     		b	.L32
 641              	.LVL56:
 642              	.L42:
 371:../../CM7/LWIP/Target/ethernetif.c ****         break;
 643              		.loc 1 371 15 is_stmt 0 view .LVU174
 644 0198 0027     		movs	r7, #0
 645              	.LVL57:
 370:../../CM7/LWIP/Target/ethernetif.c ****         speed = ETH_SPEED_10M;
 646              		.loc 1 370 16 view .LVU175
 647 019a 4FF40058 		mov	r8, #8192
 648              	.LVL58:
 370:../../CM7/LWIP/Target/ethernetif.c ****         speed = ETH_SPEED_10M;
 649              		.loc 1 370 16 view .LVU176
 650 019e 01E0     		b	.L41
 651              	.LVL59:
 652              	.L43:
 375:../../CM7/LWIP/Target/ethernetif.c ****         break;
 653              		.loc 1 375 15 view .LVU177
 654 01a0 0027     		movs	r7, #0
 655              	.LVL60:
 374:../../CM7/LWIP/Target/ethernetif.c ****         speed = ETH_SPEED_10M;
ARM GAS  C:\Users\minis\AppData\Local\Temp\ccKk4sUj.s 			page 30


 656              		.loc 1 374 16 view .LVU178
 657 01a2 B846     		mov	r8, r7
 658              	.LVL61:
 659              	.L41:
 384:../../CM7/LWIP/Target/ethernetif.c ****     MACConf.DuplexMode = duplex;
 660              		.loc 1 384 5 is_stmt 1 view .LVU179
 661 01a4 04AE     		add	r6, sp, #16
 662 01a6 104D     		ldr	r5, .L49
 663 01a8 3146     		mov	r1, r6
 664 01aa 2846     		mov	r0, r5
 665              	.LVL62:
 384:../../CM7/LWIP/Target/ethernetif.c ****     MACConf.DuplexMode = duplex;
 666              		.loc 1 384 5 is_stmt 0 view .LVU180
 667 01ac FFF7FEFF 		bl	HAL_ETH_GetMACConfig
 668              	.LVL63:
 385:../../CM7/LWIP/Target/ethernetif.c ****     MACConf.Speed = speed;
 669              		.loc 1 385 5 is_stmt 1 view .LVU181
 385:../../CM7/LWIP/Target/ethernetif.c ****     MACConf.Speed = speed;
 670              		.loc 1 385 24 is_stmt 0 view .LVU182
 671 01b0 CDF82880 		str	r8, [sp, #40]
 386:../../CM7/LWIP/Target/ethernetif.c ****     HAL_ETH_SetMACConfig(&heth, &MACConf);
 672              		.loc 1 386 5 is_stmt 1 view .LVU183
 386:../../CM7/LWIP/Target/ethernetif.c ****     HAL_ETH_SetMACConfig(&heth, &MACConf);
 673              		.loc 1 386 19 is_stmt 0 view .LVU184
 674 01b4 0997     		str	r7, [sp, #36]
 387:../../CM7/LWIP/Target/ethernetif.c **** 
 675              		.loc 1 387 5 is_stmt 1 view .LVU185
 676 01b6 3146     		mov	r1, r6
 677 01b8 2846     		mov	r0, r5
 678 01ba FFF7FEFF 		bl	HAL_ETH_SetMACConfig
 679              	.LVL64:
 389:../../CM7/LWIP/Target/ethernetif.c ****     netif_set_up(netif);
 680              		.loc 1 389 5 view .LVU186
 681 01be 2846     		mov	r0, r5
 682 01c0 FFF7FEFF 		bl	HAL_ETH_Start_IT
 683              	.LVL65:
 390:../../CM7/LWIP/Target/ethernetif.c ****     netif_set_link_up(netif);
 684              		.loc 1 390 5 view .LVU187
 685 01c4 2046     		mov	r0, r4
 686 01c6 FFF7FEFF 		bl	netif_set_up
 687              	.LVL66:
 391:../../CM7/LWIP/Target/ethernetif.c **** /* USER CODE BEGIN PHY_POST_CONFIG */
 688              		.loc 1 391 5 view .LVU188
 689 01ca 2046     		mov	r0, r4
 690 01cc FFF7FEFF 		bl	netif_set_link_up
 691              	.LVL67:
 692 01d0 06E0     		b	.L32
 693              	.LVL68:
 694              	.L44:
 359:../../CM7/LWIP/Target/ethernetif.c ****       {
 695              		.loc 1 359 7 is_stmt 0 view .LVU189
 696 01d2 4FF48047 		mov	r7, #16384
 697              	.LVL69:
 359:../../CM7/LWIP/Target/ethernetif.c ****       {
 698              		.loc 1 359 7 view .LVU190
 699 01d6 4FF40058 		mov	r8, #8192
 700              	.LVL70:
ARM GAS  C:\Users\minis\AppData\Local\Temp\ccKk4sUj.s 			page 31


 359:../../CM7/LWIP/Target/ethernetif.c ****       {
 701              		.loc 1 359 7 view .LVU191
 702 01da E3E7     		b	.L41
 703              	.LVL71:
 704              	.L38:
 400:../../CM7/LWIP/Target/ethernetif.c ****   }
 705              		.loc 1 400 5 is_stmt 1 view .LVU192
 706 01dc FFF7FEFF 		bl	Error_Handler
 707              	.LVL72:
 708              	.L32:
 407:../../CM7/LWIP/Target/ethernetif.c **** 
 709              		.loc 1 407 1 is_stmt 0 view .LVU193
 710 01e0 27B0     		add	sp, sp, #156
 711              	.LCFI10:
 712              		.cfi_def_cfa_offset 28
 713              		@ sp needed
 714 01e2 BDE8F083 		pop	{r4, r5, r6, r7, r8, r9, pc}
 715              	.LVL73:
 716              	.L50:
 407:../../CM7/LWIP/Target/ethernetif.c **** 
 717              		.loc 1 407 1 view .LVU194
 718 01e6 00BF     		.align	2
 719              	.L49:
 720 01e8 00000000 		.word	heth
 721 01ec 00800240 		.word	1073905664
 722 01f0 00000000 		.word	DMATxDscrTab
 723 01f4 00000000 		.word	DMARxDscrTab
 724 01f8 00000000 		.word	memp_RX_POOL
 725 01fc 00000000 		.word	RxPktSemaphore
 726 0200 00000000 		.word	TxPktSemaphore
 727 0204 00000000 		.word	.LC0
 728 0208 00000000 		.word	ethernetif_input
 729 020c 00000000 		.word	LAN8742
 730 0210 00000000 		.word	LAN8742_IOCtx
 731 0214 00000000 		.word	TxConfig
 732              		.cfi_endproc
 733              	.LFE178:
 735              		.section	.text.pbuf_free_custom,"ax",%progbits
 736              		.align	1
 737              		.global	pbuf_free_custom
 738              		.syntax unified
 739              		.thumb
 740              		.thumb_func
 742              	pbuf_free_custom:
 743              	.LVL74:
 744              	.LFB183:
 627:../../CM7/LWIP/Target/ethernetif.c ****   struct pbuf_custom* custom_pbuf = (struct pbuf_custom*)p;
 745              		.loc 1 627 1 is_stmt 1 view -0
 746              		.cfi_startproc
 747              		@ args = 0, pretend = 0, frame = 0
 748              		@ frame_needed = 0, uses_anonymous_args = 0
 627:../../CM7/LWIP/Target/ethernetif.c ****   struct pbuf_custom* custom_pbuf = (struct pbuf_custom*)p;
 749              		.loc 1 627 1 is_stmt 0 view .LVU196
 750 0000 08B5     		push	{r3, lr}
 751              	.LCFI11:
 752              		.cfi_def_cfa_offset 8
 753              		.cfi_offset 3, -8
ARM GAS  C:\Users\minis\AppData\Local\Temp\ccKk4sUj.s 			page 32


 754              		.cfi_offset 14, -4
 755 0002 0146     		mov	r1, r0
 628:../../CM7/LWIP/Target/ethernetif.c ****   LWIP_MEMPOOL_FREE(RX_POOL, custom_pbuf);
 756              		.loc 1 628 3 is_stmt 1 view .LVU197
 757              	.LVL75:
 629:../../CM7/LWIP/Target/ethernetif.c **** 
 758              		.loc 1 629 3 view .LVU198
 759 0004 0748     		ldr	r0, .L55
 760              	.LVL76:
 629:../../CM7/LWIP/Target/ethernetif.c **** 
 761              		.loc 1 629 3 is_stmt 0 view .LVU199
 762 0006 FFF7FEFF 		bl	memp_free_pool
 763              	.LVL77:
 634:../../CM7/LWIP/Target/ethernetif.c ****   {
 764              		.loc 1 634 3 is_stmt 1 view .LVU200
 634:../../CM7/LWIP/Target/ethernetif.c ****   {
 765              		.loc 1 634 21 is_stmt 0 view .LVU201
 766 000a 074B     		ldr	r3, .L55+4
 767 000c 1B78     		ldrb	r3, [r3]	@ zero_extendqisi2
 634:../../CM7/LWIP/Target/ethernetif.c ****   {
 768              		.loc 1 634 6 view .LVU202
 769 000e 012B     		cmp	r3, #1
 770 0010 00D0     		beq	.L54
 771              	.L51:
 639:../../CM7/LWIP/Target/ethernetif.c **** 
 772              		.loc 1 639 1 view .LVU203
 773 0012 08BD     		pop	{r3, pc}
 774              	.L54:
 636:../../CM7/LWIP/Target/ethernetif.c ****     osSemaphoreRelease(RxPktSemaphore);
 775              		.loc 1 636 5 is_stmt 1 view .LVU204
 636:../../CM7/LWIP/Target/ethernetif.c ****     osSemaphoreRelease(RxPktSemaphore);
 776              		.loc 1 636 19 is_stmt 0 view .LVU205
 777 0014 044B     		ldr	r3, .L55+4
 778 0016 0022     		movs	r2, #0
 779 0018 1A70     		strb	r2, [r3]
 637:../../CM7/LWIP/Target/ethernetif.c ****   }
 780              		.loc 1 637 5 is_stmt 1 view .LVU206
 781 001a 044B     		ldr	r3, .L55+8
 782 001c 1868     		ldr	r0, [r3]
 783 001e FFF7FEFF 		bl	osSemaphoreRelease
 784              	.LVL78:
 639:../../CM7/LWIP/Target/ethernetif.c **** 
 785              		.loc 1 639 1 is_stmt 0 view .LVU207
 786 0022 F6E7     		b	.L51
 787              	.L56:
 788              		.align	2
 789              	.L55:
 790 0024 00000000 		.word	memp_RX_POOL
 791 0028 00000000 		.word	RxAllocStatus
 792 002c 00000000 		.word	RxPktSemaphore
 793              		.cfi_endproc
 794              	.LFE183:
 796              		.section	.text.ETH_PHY_IO_Init,"ax",%progbits
 797              		.align	1
 798              		.global	ETH_PHY_IO_Init
 799              		.syntax unified
 800              		.thumb
ARM GAS  C:\Users\minis\AppData\Local\Temp\ccKk4sUj.s 			page 33


 801              		.thumb_func
 803              	ETH_PHY_IO_Init:
 804              	.LFB187:
 776:../../CM7/LWIP/Target/ethernetif.c ****   /* We assume that MDIO GPIO configuration is already done
 805              		.loc 1 776 1 is_stmt 1 view -0
 806              		.cfi_startproc
 807              		@ args = 0, pretend = 0, frame = 0
 808              		@ frame_needed = 0, uses_anonymous_args = 0
 809 0000 08B5     		push	{r3, lr}
 810              	.LCFI12:
 811              		.cfi_def_cfa_offset 8
 812              		.cfi_offset 3, -8
 813              		.cfi_offset 14, -4
 782:../../CM7/LWIP/Target/ethernetif.c **** 
 814              		.loc 1 782 3 view .LVU209
 815 0002 0248     		ldr	r0, .L59
 816 0004 FFF7FEFF 		bl	HAL_ETH_SetMDIOClockRange
 817              	.LVL79:
 784:../../CM7/LWIP/Target/ethernetif.c **** }
 818              		.loc 1 784 3 view .LVU210
 785:../../CM7/LWIP/Target/ethernetif.c **** 
 819              		.loc 1 785 1 is_stmt 0 view .LVU211
 820 0008 0020     		movs	r0, #0
 821 000a 08BD     		pop	{r3, pc}
 822              	.L60:
 823              		.align	2
 824              	.L59:
 825 000c 00000000 		.word	heth
 826              		.cfi_endproc
 827              	.LFE187:
 829              		.section	.text.HAL_ETH_Transmit_IT_Safe,"ax",%progbits
 830              		.align	1
 831              		.global	HAL_ETH_Transmit_IT_Safe
 832              		.syntax unified
 833              		.thumb
 834              		.thumb_func
 836              	HAL_ETH_Transmit_IT_Safe:
 837              	.LVL80:
 838              	.LFB174:
 166:../../CM7/LWIP/Target/ethernetif.c ****     // Ensure all descriptor writes complete before starting DMA
 839              		.loc 1 166 1 is_stmt 1 view -0
 840              		.cfi_startproc
 841              		@ args = 0, pretend = 0, frame = 0
 842              		@ frame_needed = 0, uses_anonymous_args = 0
 166:../../CM7/LWIP/Target/ethernetif.c ****     // Ensure all descriptor writes complete before starting DMA
 843              		.loc 1 166 1 is_stmt 0 view .LVU213
 844 0000 08B5     		push	{r3, lr}
 845              	.LCFI13:
 846              		.cfi_def_cfa_offset 8
 847              		.cfi_offset 3, -8
 848              		.cfi_offset 14, -4
 168:../../CM7/LWIP/Target/ethernetif.c ****     __DSB();  // Data Synchronization Barrier - flush write buffer
 849              		.loc 1 168 5 is_stmt 1 view .LVU214
 850              	.LBB6:
 851              	.LBI6:
 852              		.file 2 "../../Drivers/CMSIS/Include/cmsis_gcc.h"
   1:../../Drivers/CMSIS/Include/cmsis_gcc.h **** /**************************************************************************//**
ARM GAS  C:\Users\minis\AppData\Local\Temp\ccKk4sUj.s 			page 34


   2:../../Drivers/CMSIS/Include/cmsis_gcc.h ****  * @file     cmsis_gcc.h
   3:../../Drivers/CMSIS/Include/cmsis_gcc.h ****  * @brief    CMSIS compiler GCC header file
   4:../../Drivers/CMSIS/Include/cmsis_gcc.h ****  * @version  V5.2.0
   5:../../Drivers/CMSIS/Include/cmsis_gcc.h ****  * @date     08. May 2019
   6:../../Drivers/CMSIS/Include/cmsis_gcc.h ****  ******************************************************************************/
   7:../../Drivers/CMSIS/Include/cmsis_gcc.h **** /*
   8:../../Drivers/CMSIS/Include/cmsis_gcc.h ****  * Copyright (c) 2009-2019 Arm Limited. All rights reserved.
   9:../../Drivers/CMSIS/Include/cmsis_gcc.h ****  *
  10:../../Drivers/CMSIS/Include/cmsis_gcc.h ****  * SPDX-License-Identifier: Apache-2.0
  11:../../Drivers/CMSIS/Include/cmsis_gcc.h ****  *
  12:../../Drivers/CMSIS/Include/cmsis_gcc.h ****  * Licensed under the Apache License, Version 2.0 (the License); you may
  13:../../Drivers/CMSIS/Include/cmsis_gcc.h ****  * not use this file except in compliance with the License.
  14:../../Drivers/CMSIS/Include/cmsis_gcc.h ****  * You may obtain a copy of the License at
  15:../../Drivers/CMSIS/Include/cmsis_gcc.h ****  *
  16:../../Drivers/CMSIS/Include/cmsis_gcc.h ****  * www.apache.org/licenses/LICENSE-2.0
  17:../../Drivers/CMSIS/Include/cmsis_gcc.h ****  *
  18:../../Drivers/CMSIS/Include/cmsis_gcc.h ****  * Unless required by applicable law or agreed to in writing, software
  19:../../Drivers/CMSIS/Include/cmsis_gcc.h ****  * distributed under the License is distributed on an AS IS BASIS, WITHOUT
  20:../../Drivers/CMSIS/Include/cmsis_gcc.h ****  * WARRANTIES OR CONDITIONS OF ANY KIND, either express or implied.
  21:../../Drivers/CMSIS/Include/cmsis_gcc.h ****  * See the License for the specific language governing permissions and
  22:../../Drivers/CMSIS/Include/cmsis_gcc.h ****  * limitations under the License.
  23:../../Drivers/CMSIS/Include/cmsis_gcc.h ****  */
  24:../../Drivers/CMSIS/Include/cmsis_gcc.h **** 
  25:../../Drivers/CMSIS/Include/cmsis_gcc.h **** #ifndef __CMSIS_GCC_H
  26:../../Drivers/CMSIS/Include/cmsis_gcc.h **** #define __CMSIS_GCC_H
  27:../../Drivers/CMSIS/Include/cmsis_gcc.h **** 
  28:../../Drivers/CMSIS/Include/cmsis_gcc.h **** /* ignore some GCC warnings */
  29:../../Drivers/CMSIS/Include/cmsis_gcc.h **** #pragma GCC diagnostic push
  30:../../Drivers/CMSIS/Include/cmsis_gcc.h **** #pragma GCC diagnostic ignored "-Wsign-conversion"
  31:../../Drivers/CMSIS/Include/cmsis_gcc.h **** #pragma GCC diagnostic ignored "-Wconversion"
  32:../../Drivers/CMSIS/Include/cmsis_gcc.h **** #pragma GCC diagnostic ignored "-Wunused-parameter"
  33:../../Drivers/CMSIS/Include/cmsis_gcc.h **** 
  34:../../Drivers/CMSIS/Include/cmsis_gcc.h **** /* Fallback for __has_builtin */
  35:../../Drivers/CMSIS/Include/cmsis_gcc.h **** #ifndef __has_builtin
  36:../../Drivers/CMSIS/Include/cmsis_gcc.h ****   #define __has_builtin(x) (0)
  37:../../Drivers/CMSIS/Include/cmsis_gcc.h **** #endif
  38:../../Drivers/CMSIS/Include/cmsis_gcc.h **** 
  39:../../Drivers/CMSIS/Include/cmsis_gcc.h **** /* CMSIS compiler specific defines */
  40:../../Drivers/CMSIS/Include/cmsis_gcc.h **** #ifndef   __ASM
  41:../../Drivers/CMSIS/Include/cmsis_gcc.h ****   #define __ASM                                  __asm
  42:../../Drivers/CMSIS/Include/cmsis_gcc.h **** #endif
  43:../../Drivers/CMSIS/Include/cmsis_gcc.h **** #ifndef   __INLINE
  44:../../Drivers/CMSIS/Include/cmsis_gcc.h ****   #define __INLINE                               inline
  45:../../Drivers/CMSIS/Include/cmsis_gcc.h **** #endif
  46:../../Drivers/CMSIS/Include/cmsis_gcc.h **** #ifndef   __STATIC_INLINE
  47:../../Drivers/CMSIS/Include/cmsis_gcc.h ****   #define __STATIC_INLINE                        static inline
  48:../../Drivers/CMSIS/Include/cmsis_gcc.h **** #endif
  49:../../Drivers/CMSIS/Include/cmsis_gcc.h **** #ifndef   __STATIC_FORCEINLINE                 
  50:../../Drivers/CMSIS/Include/cmsis_gcc.h ****   #define __STATIC_FORCEINLINE                   __attribute__((always_inline)) static inline
  51:../../Drivers/CMSIS/Include/cmsis_gcc.h **** #endif                                           
  52:../../Drivers/CMSIS/Include/cmsis_gcc.h **** #ifndef   __NO_RETURN
  53:../../Drivers/CMSIS/Include/cmsis_gcc.h ****   #define __NO_RETURN                            __attribute__((__noreturn__))
  54:../../Drivers/CMSIS/Include/cmsis_gcc.h **** #endif
  55:../../Drivers/CMSIS/Include/cmsis_gcc.h **** #ifndef   __USED
  56:../../Drivers/CMSIS/Include/cmsis_gcc.h ****   #define __USED                                 __attribute__((used))
  57:../../Drivers/CMSIS/Include/cmsis_gcc.h **** #endif
  58:../../Drivers/CMSIS/Include/cmsis_gcc.h **** #ifndef   __WEAK
ARM GAS  C:\Users\minis\AppData\Local\Temp\ccKk4sUj.s 			page 35


  59:../../Drivers/CMSIS/Include/cmsis_gcc.h ****   #define __WEAK                                 __attribute__((weak))
  60:../../Drivers/CMSIS/Include/cmsis_gcc.h **** #endif
  61:../../Drivers/CMSIS/Include/cmsis_gcc.h **** #ifndef   __PACKED
  62:../../Drivers/CMSIS/Include/cmsis_gcc.h ****   #define __PACKED                               __attribute__((packed, aligned(1)))
  63:../../Drivers/CMSIS/Include/cmsis_gcc.h **** #endif
  64:../../Drivers/CMSIS/Include/cmsis_gcc.h **** #ifndef   __PACKED_STRUCT
  65:../../Drivers/CMSIS/Include/cmsis_gcc.h ****   #define __PACKED_STRUCT                        struct __attribute__((packed, aligned(1)))
  66:../../Drivers/CMSIS/Include/cmsis_gcc.h **** #endif
  67:../../Drivers/CMSIS/Include/cmsis_gcc.h **** #ifndef   __PACKED_UNION
  68:../../Drivers/CMSIS/Include/cmsis_gcc.h ****   #define __PACKED_UNION                         union __attribute__((packed, aligned(1)))
  69:../../Drivers/CMSIS/Include/cmsis_gcc.h **** #endif
  70:../../Drivers/CMSIS/Include/cmsis_gcc.h **** #ifndef   __UNALIGNED_UINT32        /* deprecated */
  71:../../Drivers/CMSIS/Include/cmsis_gcc.h ****   #pragma GCC diagnostic push
  72:../../Drivers/CMSIS/Include/cmsis_gcc.h ****   #pragma GCC diagnostic ignored "-Wpacked"
  73:../../Drivers/CMSIS/Include/cmsis_gcc.h ****   #pragma GCC diagnostic ignored "-Wattributes"
  74:../../Drivers/CMSIS/Include/cmsis_gcc.h ****   struct __attribute__((packed)) T_UINT32 { uint32_t v; };
  75:../../Drivers/CMSIS/Include/cmsis_gcc.h ****   #pragma GCC diagnostic pop
  76:../../Drivers/CMSIS/Include/cmsis_gcc.h ****   #define __UNALIGNED_UINT32(x)                  (((struct T_UINT32 *)(x))->v)
  77:../../Drivers/CMSIS/Include/cmsis_gcc.h **** #endif
  78:../../Drivers/CMSIS/Include/cmsis_gcc.h **** #ifndef   __UNALIGNED_UINT16_WRITE
  79:../../Drivers/CMSIS/Include/cmsis_gcc.h ****   #pragma GCC diagnostic push
  80:../../Drivers/CMSIS/Include/cmsis_gcc.h ****   #pragma GCC diagnostic ignored "-Wpacked"
  81:../../Drivers/CMSIS/Include/cmsis_gcc.h ****   #pragma GCC diagnostic ignored "-Wattributes"
  82:../../Drivers/CMSIS/Include/cmsis_gcc.h ****   __PACKED_STRUCT T_UINT16_WRITE { uint16_t v; };
  83:../../Drivers/CMSIS/Include/cmsis_gcc.h ****   #pragma GCC diagnostic pop
  84:../../Drivers/CMSIS/Include/cmsis_gcc.h ****   #define __UNALIGNED_UINT16_WRITE(addr, val)    (void)((((struct T_UINT16_WRITE *)(void *)(addr))-
  85:../../Drivers/CMSIS/Include/cmsis_gcc.h **** #endif
  86:../../Drivers/CMSIS/Include/cmsis_gcc.h **** #ifndef   __UNALIGNED_UINT16_READ
  87:../../Drivers/CMSIS/Include/cmsis_gcc.h ****   #pragma GCC diagnostic push
  88:../../Drivers/CMSIS/Include/cmsis_gcc.h ****   #pragma GCC diagnostic ignored "-Wpacked"
  89:../../Drivers/CMSIS/Include/cmsis_gcc.h ****   #pragma GCC diagnostic ignored "-Wattributes"
  90:../../Drivers/CMSIS/Include/cmsis_gcc.h ****   __PACKED_STRUCT T_UINT16_READ { uint16_t v; };
  91:../../Drivers/CMSIS/Include/cmsis_gcc.h ****   #pragma GCC diagnostic pop
  92:../../Drivers/CMSIS/Include/cmsis_gcc.h ****   #define __UNALIGNED_UINT16_READ(addr)          (((const struct T_UINT16_READ *)(const void *)(add
  93:../../Drivers/CMSIS/Include/cmsis_gcc.h **** #endif
  94:../../Drivers/CMSIS/Include/cmsis_gcc.h **** #ifndef   __UNALIGNED_UINT32_WRITE
  95:../../Drivers/CMSIS/Include/cmsis_gcc.h ****   #pragma GCC diagnostic push
  96:../../Drivers/CMSIS/Include/cmsis_gcc.h ****   #pragma GCC diagnostic ignored "-Wpacked"
  97:../../Drivers/CMSIS/Include/cmsis_gcc.h ****   #pragma GCC diagnostic ignored "-Wattributes"
  98:../../Drivers/CMSIS/Include/cmsis_gcc.h ****   __PACKED_STRUCT T_UINT32_WRITE { uint32_t v; };
  99:../../Drivers/CMSIS/Include/cmsis_gcc.h ****   #pragma GCC diagnostic pop
 100:../../Drivers/CMSIS/Include/cmsis_gcc.h ****   #define __UNALIGNED_UINT32_WRITE(addr, val)    (void)((((struct T_UINT32_WRITE *)(void *)(addr))-
 101:../../Drivers/CMSIS/Include/cmsis_gcc.h **** #endif
 102:../../Drivers/CMSIS/Include/cmsis_gcc.h **** #ifndef   __UNALIGNED_UINT32_READ
 103:../../Drivers/CMSIS/Include/cmsis_gcc.h ****   #pragma GCC diagnostic push
 104:../../Drivers/CMSIS/Include/cmsis_gcc.h ****   #pragma GCC diagnostic ignored "-Wpacked"
 105:../../Drivers/CMSIS/Include/cmsis_gcc.h ****   #pragma GCC diagnostic ignored "-Wattributes"
 106:../../Drivers/CMSIS/Include/cmsis_gcc.h ****   __PACKED_STRUCT T_UINT32_READ { uint32_t v; };
 107:../../Drivers/CMSIS/Include/cmsis_gcc.h ****   #pragma GCC diagnostic pop
 108:../../Drivers/CMSIS/Include/cmsis_gcc.h ****   #define __UNALIGNED_UINT32_READ(addr)          (((const struct T_UINT32_READ *)(const void *)(add
 109:../../Drivers/CMSIS/Include/cmsis_gcc.h **** #endif
 110:../../Drivers/CMSIS/Include/cmsis_gcc.h **** #ifndef   __ALIGNED
 111:../../Drivers/CMSIS/Include/cmsis_gcc.h ****   #define __ALIGNED(x)                           __attribute__((aligned(x)))
 112:../../Drivers/CMSIS/Include/cmsis_gcc.h **** #endif
 113:../../Drivers/CMSIS/Include/cmsis_gcc.h **** #ifndef   __RESTRICT
 114:../../Drivers/CMSIS/Include/cmsis_gcc.h ****   #define __RESTRICT                             __restrict
 115:../../Drivers/CMSIS/Include/cmsis_gcc.h **** #endif
ARM GAS  C:\Users\minis\AppData\Local\Temp\ccKk4sUj.s 			page 36


 116:../../Drivers/CMSIS/Include/cmsis_gcc.h **** #ifndef   __COMPILER_BARRIER
 117:../../Drivers/CMSIS/Include/cmsis_gcc.h ****   #define __COMPILER_BARRIER()                   __ASM volatile("":::"memory")
 118:../../Drivers/CMSIS/Include/cmsis_gcc.h **** #endif
 119:../../Drivers/CMSIS/Include/cmsis_gcc.h **** 
 120:../../Drivers/CMSIS/Include/cmsis_gcc.h **** /* #########################  Startup and Lowlevel Init  ######################## */
 121:../../Drivers/CMSIS/Include/cmsis_gcc.h **** 
 122:../../Drivers/CMSIS/Include/cmsis_gcc.h **** #ifndef __PROGRAM_START
 123:../../Drivers/CMSIS/Include/cmsis_gcc.h **** 
 124:../../Drivers/CMSIS/Include/cmsis_gcc.h **** /**
 125:../../Drivers/CMSIS/Include/cmsis_gcc.h ****   \brief   Initializes data and bss sections
 126:../../Drivers/CMSIS/Include/cmsis_gcc.h ****   \details This default implementations initialized all data and additional bss
 127:../../Drivers/CMSIS/Include/cmsis_gcc.h ****            sections relying on .copy.table and .zero.table specified properly
 128:../../Drivers/CMSIS/Include/cmsis_gcc.h ****            in the used linker script.
 129:../../Drivers/CMSIS/Include/cmsis_gcc.h ****   
 130:../../Drivers/CMSIS/Include/cmsis_gcc.h ****  */
 131:../../Drivers/CMSIS/Include/cmsis_gcc.h **** __STATIC_FORCEINLINE __NO_RETURN void __cmsis_start(void)
 132:../../Drivers/CMSIS/Include/cmsis_gcc.h **** {
 133:../../Drivers/CMSIS/Include/cmsis_gcc.h ****   extern void _start(void) __NO_RETURN;
 134:../../Drivers/CMSIS/Include/cmsis_gcc.h ****   
 135:../../Drivers/CMSIS/Include/cmsis_gcc.h ****   typedef struct {
 136:../../Drivers/CMSIS/Include/cmsis_gcc.h ****     uint32_t const* src;
 137:../../Drivers/CMSIS/Include/cmsis_gcc.h ****     uint32_t* dest;
 138:../../Drivers/CMSIS/Include/cmsis_gcc.h ****     uint32_t  wlen;
 139:../../Drivers/CMSIS/Include/cmsis_gcc.h ****   } __copy_table_t;
 140:../../Drivers/CMSIS/Include/cmsis_gcc.h ****   
 141:../../Drivers/CMSIS/Include/cmsis_gcc.h ****   typedef struct {
 142:../../Drivers/CMSIS/Include/cmsis_gcc.h ****     uint32_t* dest;
 143:../../Drivers/CMSIS/Include/cmsis_gcc.h ****     uint32_t  wlen;
 144:../../Drivers/CMSIS/Include/cmsis_gcc.h ****   } __zero_table_t;
 145:../../Drivers/CMSIS/Include/cmsis_gcc.h ****   
 146:../../Drivers/CMSIS/Include/cmsis_gcc.h ****   extern const __copy_table_t __copy_table_start__;
 147:../../Drivers/CMSIS/Include/cmsis_gcc.h ****   extern const __copy_table_t __copy_table_end__;
 148:../../Drivers/CMSIS/Include/cmsis_gcc.h ****   extern const __zero_table_t __zero_table_start__;
 149:../../Drivers/CMSIS/Include/cmsis_gcc.h ****   extern const __zero_table_t __zero_table_end__;
 150:../../Drivers/CMSIS/Include/cmsis_gcc.h **** 
 151:../../Drivers/CMSIS/Include/cmsis_gcc.h ****   for (__copy_table_t const* pTable = &__copy_table_start__; pTable < &__copy_table_end__; ++pTable
 152:../../Drivers/CMSIS/Include/cmsis_gcc.h ****     for(uint32_t i=0u; i<pTable->wlen; ++i) {
 153:../../Drivers/CMSIS/Include/cmsis_gcc.h ****       pTable->dest[i] = pTable->src[i];
 154:../../Drivers/CMSIS/Include/cmsis_gcc.h ****     }
 155:../../Drivers/CMSIS/Include/cmsis_gcc.h ****   }
 156:../../Drivers/CMSIS/Include/cmsis_gcc.h ****  
 157:../../Drivers/CMSIS/Include/cmsis_gcc.h ****   for (__zero_table_t const* pTable = &__zero_table_start__; pTable < &__zero_table_end__; ++pTable
 158:../../Drivers/CMSIS/Include/cmsis_gcc.h ****     for(uint32_t i=0u; i<pTable->wlen; ++i) {
 159:../../Drivers/CMSIS/Include/cmsis_gcc.h ****       pTable->dest[i] = 0u;
 160:../../Drivers/CMSIS/Include/cmsis_gcc.h ****     }
 161:../../Drivers/CMSIS/Include/cmsis_gcc.h ****   }
 162:../../Drivers/CMSIS/Include/cmsis_gcc.h ****  
 163:../../Drivers/CMSIS/Include/cmsis_gcc.h ****   _start();
 164:../../Drivers/CMSIS/Include/cmsis_gcc.h **** }
 165:../../Drivers/CMSIS/Include/cmsis_gcc.h ****   
 166:../../Drivers/CMSIS/Include/cmsis_gcc.h **** #define __PROGRAM_START           __cmsis_start
 167:../../Drivers/CMSIS/Include/cmsis_gcc.h **** #endif
 168:../../Drivers/CMSIS/Include/cmsis_gcc.h **** 
 169:../../Drivers/CMSIS/Include/cmsis_gcc.h **** #ifndef __INITIAL_SP
 170:../../Drivers/CMSIS/Include/cmsis_gcc.h **** #define __INITIAL_SP              __StackTop
 171:../../Drivers/CMSIS/Include/cmsis_gcc.h **** #endif
 172:../../Drivers/CMSIS/Include/cmsis_gcc.h **** 
ARM GAS  C:\Users\minis\AppData\Local\Temp\ccKk4sUj.s 			page 37


 173:../../Drivers/CMSIS/Include/cmsis_gcc.h **** #ifndef __STACK_LIMIT
 174:../../Drivers/CMSIS/Include/cmsis_gcc.h **** #define __STACK_LIMIT             __StackLimit
 175:../../Drivers/CMSIS/Include/cmsis_gcc.h **** #endif
 176:../../Drivers/CMSIS/Include/cmsis_gcc.h **** 
 177:../../Drivers/CMSIS/Include/cmsis_gcc.h **** #ifndef __VECTOR_TABLE
 178:../../Drivers/CMSIS/Include/cmsis_gcc.h **** #define __VECTOR_TABLE            __Vectors
 179:../../Drivers/CMSIS/Include/cmsis_gcc.h **** #endif
 180:../../Drivers/CMSIS/Include/cmsis_gcc.h **** 
 181:../../Drivers/CMSIS/Include/cmsis_gcc.h **** #ifndef __VECTOR_TABLE_ATTRIBUTE
 182:../../Drivers/CMSIS/Include/cmsis_gcc.h **** #define __VECTOR_TABLE_ATTRIBUTE  __attribute((used, section(".vectors")))
 183:../../Drivers/CMSIS/Include/cmsis_gcc.h **** #endif
 184:../../Drivers/CMSIS/Include/cmsis_gcc.h **** 
 185:../../Drivers/CMSIS/Include/cmsis_gcc.h **** /* ###########################  Core Function Access  ########################### */
 186:../../Drivers/CMSIS/Include/cmsis_gcc.h **** /** \ingroup  CMSIS_Core_FunctionInterface
 187:../../Drivers/CMSIS/Include/cmsis_gcc.h ****     \defgroup CMSIS_Core_RegAccFunctions CMSIS Core Register Access Functions
 188:../../Drivers/CMSIS/Include/cmsis_gcc.h ****   @{
 189:../../Drivers/CMSIS/Include/cmsis_gcc.h ****  */
 190:../../Drivers/CMSIS/Include/cmsis_gcc.h **** 
 191:../../Drivers/CMSIS/Include/cmsis_gcc.h **** /**
 192:../../Drivers/CMSIS/Include/cmsis_gcc.h ****   \brief   Enable IRQ Interrupts
 193:../../Drivers/CMSIS/Include/cmsis_gcc.h ****   \details Enables IRQ interrupts by clearing the I-bit in the CPSR.
 194:../../Drivers/CMSIS/Include/cmsis_gcc.h ****            Can only be executed in Privileged modes.
 195:../../Drivers/CMSIS/Include/cmsis_gcc.h ****  */
 196:../../Drivers/CMSIS/Include/cmsis_gcc.h **** __STATIC_FORCEINLINE void __enable_irq(void)
 197:../../Drivers/CMSIS/Include/cmsis_gcc.h **** {
 198:../../Drivers/CMSIS/Include/cmsis_gcc.h ****   __ASM volatile ("cpsie i" : : : "memory");
 199:../../Drivers/CMSIS/Include/cmsis_gcc.h **** }
 200:../../Drivers/CMSIS/Include/cmsis_gcc.h **** 
 201:../../Drivers/CMSIS/Include/cmsis_gcc.h **** 
 202:../../Drivers/CMSIS/Include/cmsis_gcc.h **** /**
 203:../../Drivers/CMSIS/Include/cmsis_gcc.h ****   \brief   Disable IRQ Interrupts
 204:../../Drivers/CMSIS/Include/cmsis_gcc.h ****   \details Disables IRQ interrupts by setting the I-bit in the CPSR.
 205:../../Drivers/CMSIS/Include/cmsis_gcc.h ****            Can only be executed in Privileged modes.
 206:../../Drivers/CMSIS/Include/cmsis_gcc.h ****  */
 207:../../Drivers/CMSIS/Include/cmsis_gcc.h **** __STATIC_FORCEINLINE void __disable_irq(void)
 208:../../Drivers/CMSIS/Include/cmsis_gcc.h **** {
 209:../../Drivers/CMSIS/Include/cmsis_gcc.h ****   __ASM volatile ("cpsid i" : : : "memory");
 210:../../Drivers/CMSIS/Include/cmsis_gcc.h **** }
 211:../../Drivers/CMSIS/Include/cmsis_gcc.h **** 
 212:../../Drivers/CMSIS/Include/cmsis_gcc.h **** 
 213:../../Drivers/CMSIS/Include/cmsis_gcc.h **** /**
 214:../../Drivers/CMSIS/Include/cmsis_gcc.h ****   \brief   Get Control Register
 215:../../Drivers/CMSIS/Include/cmsis_gcc.h ****   \details Returns the content of the Control Register.
 216:../../Drivers/CMSIS/Include/cmsis_gcc.h ****   \return               Control Register value
 217:../../Drivers/CMSIS/Include/cmsis_gcc.h ****  */
 218:../../Drivers/CMSIS/Include/cmsis_gcc.h **** __STATIC_FORCEINLINE uint32_t __get_CONTROL(void)
 219:../../Drivers/CMSIS/Include/cmsis_gcc.h **** {
 220:../../Drivers/CMSIS/Include/cmsis_gcc.h ****   uint32_t result;
 221:../../Drivers/CMSIS/Include/cmsis_gcc.h **** 
 222:../../Drivers/CMSIS/Include/cmsis_gcc.h ****   __ASM volatile ("MRS %0, control" : "=r" (result) );
 223:../../Drivers/CMSIS/Include/cmsis_gcc.h ****   return(result);
 224:../../Drivers/CMSIS/Include/cmsis_gcc.h **** }
 225:../../Drivers/CMSIS/Include/cmsis_gcc.h **** 
 226:../../Drivers/CMSIS/Include/cmsis_gcc.h **** 
 227:../../Drivers/CMSIS/Include/cmsis_gcc.h **** #if (defined (__ARM_FEATURE_CMSE ) && (__ARM_FEATURE_CMSE == 3))
 228:../../Drivers/CMSIS/Include/cmsis_gcc.h **** /**
 229:../../Drivers/CMSIS/Include/cmsis_gcc.h ****   \brief   Get Control Register (non-secure)
ARM GAS  C:\Users\minis\AppData\Local\Temp\ccKk4sUj.s 			page 38


 230:../../Drivers/CMSIS/Include/cmsis_gcc.h ****   \details Returns the content of the non-secure Control Register when in secure mode.
 231:../../Drivers/CMSIS/Include/cmsis_gcc.h ****   \return               non-secure Control Register value
 232:../../Drivers/CMSIS/Include/cmsis_gcc.h ****  */
 233:../../Drivers/CMSIS/Include/cmsis_gcc.h **** __STATIC_FORCEINLINE uint32_t __TZ_get_CONTROL_NS(void)
 234:../../Drivers/CMSIS/Include/cmsis_gcc.h **** {
 235:../../Drivers/CMSIS/Include/cmsis_gcc.h ****   uint32_t result;
 236:../../Drivers/CMSIS/Include/cmsis_gcc.h **** 
 237:../../Drivers/CMSIS/Include/cmsis_gcc.h ****   __ASM volatile ("MRS %0, control_ns" : "=r" (result) );
 238:../../Drivers/CMSIS/Include/cmsis_gcc.h ****   return(result);
 239:../../Drivers/CMSIS/Include/cmsis_gcc.h **** }
 240:../../Drivers/CMSIS/Include/cmsis_gcc.h **** #endif
 241:../../Drivers/CMSIS/Include/cmsis_gcc.h **** 
 242:../../Drivers/CMSIS/Include/cmsis_gcc.h **** 
 243:../../Drivers/CMSIS/Include/cmsis_gcc.h **** /**
 244:../../Drivers/CMSIS/Include/cmsis_gcc.h ****   \brief   Set Control Register
 245:../../Drivers/CMSIS/Include/cmsis_gcc.h ****   \details Writes the given value to the Control Register.
 246:../../Drivers/CMSIS/Include/cmsis_gcc.h ****   \param [in]    control  Control Register value to set
 247:../../Drivers/CMSIS/Include/cmsis_gcc.h ****  */
 248:../../Drivers/CMSIS/Include/cmsis_gcc.h **** __STATIC_FORCEINLINE void __set_CONTROL(uint32_t control)
 249:../../Drivers/CMSIS/Include/cmsis_gcc.h **** {
 250:../../Drivers/CMSIS/Include/cmsis_gcc.h ****   __ASM volatile ("MSR control, %0" : : "r" (control) : "memory");
 251:../../Drivers/CMSIS/Include/cmsis_gcc.h **** }
 252:../../Drivers/CMSIS/Include/cmsis_gcc.h **** 
 253:../../Drivers/CMSIS/Include/cmsis_gcc.h **** 
 254:../../Drivers/CMSIS/Include/cmsis_gcc.h **** #if (defined (__ARM_FEATURE_CMSE ) && (__ARM_FEATURE_CMSE == 3))
 255:../../Drivers/CMSIS/Include/cmsis_gcc.h **** /**
 256:../../Drivers/CMSIS/Include/cmsis_gcc.h ****   \brief   Set Control Register (non-secure)
 257:../../Drivers/CMSIS/Include/cmsis_gcc.h ****   \details Writes the given value to the non-secure Control Register when in secure state.
 258:../../Drivers/CMSIS/Include/cmsis_gcc.h ****   \param [in]    control  Control Register value to set
 259:../../Drivers/CMSIS/Include/cmsis_gcc.h ****  */
 260:../../Drivers/CMSIS/Include/cmsis_gcc.h **** __STATIC_FORCEINLINE void __TZ_set_CONTROL_NS(uint32_t control)
 261:../../Drivers/CMSIS/Include/cmsis_gcc.h **** {
 262:../../Drivers/CMSIS/Include/cmsis_gcc.h ****   __ASM volatile ("MSR control_ns, %0" : : "r" (control) : "memory");
 263:../../Drivers/CMSIS/Include/cmsis_gcc.h **** }
 264:../../Drivers/CMSIS/Include/cmsis_gcc.h **** #endif
 265:../../Drivers/CMSIS/Include/cmsis_gcc.h **** 
 266:../../Drivers/CMSIS/Include/cmsis_gcc.h **** 
 267:../../Drivers/CMSIS/Include/cmsis_gcc.h **** /**
 268:../../Drivers/CMSIS/Include/cmsis_gcc.h ****   \brief   Get IPSR Register
 269:../../Drivers/CMSIS/Include/cmsis_gcc.h ****   \details Returns the content of the IPSR Register.
 270:../../Drivers/CMSIS/Include/cmsis_gcc.h ****   \return               IPSR Register value
 271:../../Drivers/CMSIS/Include/cmsis_gcc.h ****  */
 272:../../Drivers/CMSIS/Include/cmsis_gcc.h **** __STATIC_FORCEINLINE uint32_t __get_IPSR(void)
 273:../../Drivers/CMSIS/Include/cmsis_gcc.h **** {
 274:../../Drivers/CMSIS/Include/cmsis_gcc.h ****   uint32_t result;
 275:../../Drivers/CMSIS/Include/cmsis_gcc.h **** 
 276:../../Drivers/CMSIS/Include/cmsis_gcc.h ****   __ASM volatile ("MRS %0, ipsr" : "=r" (result) );
 277:../../Drivers/CMSIS/Include/cmsis_gcc.h ****   return(result);
 278:../../Drivers/CMSIS/Include/cmsis_gcc.h **** }
 279:../../Drivers/CMSIS/Include/cmsis_gcc.h **** 
 280:../../Drivers/CMSIS/Include/cmsis_gcc.h **** 
 281:../../Drivers/CMSIS/Include/cmsis_gcc.h **** /**
 282:../../Drivers/CMSIS/Include/cmsis_gcc.h ****   \brief   Get APSR Register
 283:../../Drivers/CMSIS/Include/cmsis_gcc.h ****   \details Returns the content of the APSR Register.
 284:../../Drivers/CMSIS/Include/cmsis_gcc.h ****   \return               APSR Register value
 285:../../Drivers/CMSIS/Include/cmsis_gcc.h ****  */
 286:../../Drivers/CMSIS/Include/cmsis_gcc.h **** __STATIC_FORCEINLINE uint32_t __get_APSR(void)
ARM GAS  C:\Users\minis\AppData\Local\Temp\ccKk4sUj.s 			page 39


 287:../../Drivers/CMSIS/Include/cmsis_gcc.h **** {
 288:../../Drivers/CMSIS/Include/cmsis_gcc.h ****   uint32_t result;
 289:../../Drivers/CMSIS/Include/cmsis_gcc.h **** 
 290:../../Drivers/CMSIS/Include/cmsis_gcc.h ****   __ASM volatile ("MRS %0, apsr" : "=r" (result) );
 291:../../Drivers/CMSIS/Include/cmsis_gcc.h ****   return(result);
 292:../../Drivers/CMSIS/Include/cmsis_gcc.h **** }
 293:../../Drivers/CMSIS/Include/cmsis_gcc.h **** 
 294:../../Drivers/CMSIS/Include/cmsis_gcc.h **** 
 295:../../Drivers/CMSIS/Include/cmsis_gcc.h **** /**
 296:../../Drivers/CMSIS/Include/cmsis_gcc.h ****   \brief   Get xPSR Register
 297:../../Drivers/CMSIS/Include/cmsis_gcc.h ****   \details Returns the content of the xPSR Register.
 298:../../Drivers/CMSIS/Include/cmsis_gcc.h ****   \return               xPSR Register value
 299:../../Drivers/CMSIS/Include/cmsis_gcc.h ****  */
 300:../../Drivers/CMSIS/Include/cmsis_gcc.h **** __STATIC_FORCEINLINE uint32_t __get_xPSR(void)
 301:../../Drivers/CMSIS/Include/cmsis_gcc.h **** {
 302:../../Drivers/CMSIS/Include/cmsis_gcc.h ****   uint32_t result;
 303:../../Drivers/CMSIS/Include/cmsis_gcc.h **** 
 304:../../Drivers/CMSIS/Include/cmsis_gcc.h ****   __ASM volatile ("MRS %0, xpsr" : "=r" (result) );
 305:../../Drivers/CMSIS/Include/cmsis_gcc.h ****   return(result);
 306:../../Drivers/CMSIS/Include/cmsis_gcc.h **** }
 307:../../Drivers/CMSIS/Include/cmsis_gcc.h **** 
 308:../../Drivers/CMSIS/Include/cmsis_gcc.h **** 
 309:../../Drivers/CMSIS/Include/cmsis_gcc.h **** /**
 310:../../Drivers/CMSIS/Include/cmsis_gcc.h ****   \brief   Get Process Stack Pointer
 311:../../Drivers/CMSIS/Include/cmsis_gcc.h ****   \details Returns the current value of the Process Stack Pointer (PSP).
 312:../../Drivers/CMSIS/Include/cmsis_gcc.h ****   \return               PSP Register value
 313:../../Drivers/CMSIS/Include/cmsis_gcc.h ****  */
 314:../../Drivers/CMSIS/Include/cmsis_gcc.h **** __STATIC_FORCEINLINE uint32_t __get_PSP(void)
 315:../../Drivers/CMSIS/Include/cmsis_gcc.h **** {
 316:../../Drivers/CMSIS/Include/cmsis_gcc.h ****   uint32_t result;
 317:../../Drivers/CMSIS/Include/cmsis_gcc.h **** 
 318:../../Drivers/CMSIS/Include/cmsis_gcc.h ****   __ASM volatile ("MRS %0, psp"  : "=r" (result) );
 319:../../Drivers/CMSIS/Include/cmsis_gcc.h ****   return(result);
 320:../../Drivers/CMSIS/Include/cmsis_gcc.h **** }
 321:../../Drivers/CMSIS/Include/cmsis_gcc.h **** 
 322:../../Drivers/CMSIS/Include/cmsis_gcc.h **** 
 323:../../Drivers/CMSIS/Include/cmsis_gcc.h **** #if (defined (__ARM_FEATURE_CMSE ) && (__ARM_FEATURE_CMSE == 3))
 324:../../Drivers/CMSIS/Include/cmsis_gcc.h **** /**
 325:../../Drivers/CMSIS/Include/cmsis_gcc.h ****   \brief   Get Process Stack Pointer (non-secure)
 326:../../Drivers/CMSIS/Include/cmsis_gcc.h ****   \details Returns the current value of the non-secure Process Stack Pointer (PSP) when in secure s
 327:../../Drivers/CMSIS/Include/cmsis_gcc.h ****   \return               PSP Register value
 328:../../Drivers/CMSIS/Include/cmsis_gcc.h ****  */
 329:../../Drivers/CMSIS/Include/cmsis_gcc.h **** __STATIC_FORCEINLINE uint32_t __TZ_get_PSP_NS(void)
 330:../../Drivers/CMSIS/Include/cmsis_gcc.h **** {
 331:../../Drivers/CMSIS/Include/cmsis_gcc.h ****   uint32_t result;
 332:../../Drivers/CMSIS/Include/cmsis_gcc.h **** 
 333:../../Drivers/CMSIS/Include/cmsis_gcc.h ****   __ASM volatile ("MRS %0, psp_ns"  : "=r" (result) );
 334:../../Drivers/CMSIS/Include/cmsis_gcc.h ****   return(result);
 335:../../Drivers/CMSIS/Include/cmsis_gcc.h **** }
 336:../../Drivers/CMSIS/Include/cmsis_gcc.h **** #endif
 337:../../Drivers/CMSIS/Include/cmsis_gcc.h **** 
 338:../../Drivers/CMSIS/Include/cmsis_gcc.h **** 
 339:../../Drivers/CMSIS/Include/cmsis_gcc.h **** /**
 340:../../Drivers/CMSIS/Include/cmsis_gcc.h ****   \brief   Set Process Stack Pointer
 341:../../Drivers/CMSIS/Include/cmsis_gcc.h ****   \details Assigns the given value to the Process Stack Pointer (PSP).
 342:../../Drivers/CMSIS/Include/cmsis_gcc.h ****   \param [in]    topOfProcStack  Process Stack Pointer value to set
 343:../../Drivers/CMSIS/Include/cmsis_gcc.h ****  */
ARM GAS  C:\Users\minis\AppData\Local\Temp\ccKk4sUj.s 			page 40


 344:../../Drivers/CMSIS/Include/cmsis_gcc.h **** __STATIC_FORCEINLINE void __set_PSP(uint32_t topOfProcStack)
 345:../../Drivers/CMSIS/Include/cmsis_gcc.h **** {
 346:../../Drivers/CMSIS/Include/cmsis_gcc.h ****   __ASM volatile ("MSR psp, %0" : : "r" (topOfProcStack) : );
 347:../../Drivers/CMSIS/Include/cmsis_gcc.h **** }
 348:../../Drivers/CMSIS/Include/cmsis_gcc.h **** 
 349:../../Drivers/CMSIS/Include/cmsis_gcc.h **** 
 350:../../Drivers/CMSIS/Include/cmsis_gcc.h **** #if (defined (__ARM_FEATURE_CMSE ) && (__ARM_FEATURE_CMSE == 3))
 351:../../Drivers/CMSIS/Include/cmsis_gcc.h **** /**
 352:../../Drivers/CMSIS/Include/cmsis_gcc.h ****   \brief   Set Process Stack Pointer (non-secure)
 353:../../Drivers/CMSIS/Include/cmsis_gcc.h ****   \details Assigns the given value to the non-secure Process Stack Pointer (PSP) when in secure sta
 354:../../Drivers/CMSIS/Include/cmsis_gcc.h ****   \param [in]    topOfProcStack  Process Stack Pointer value to set
 355:../../Drivers/CMSIS/Include/cmsis_gcc.h ****  */
 356:../../Drivers/CMSIS/Include/cmsis_gcc.h **** __STATIC_FORCEINLINE void __TZ_set_PSP_NS(uint32_t topOfProcStack)
 357:../../Drivers/CMSIS/Include/cmsis_gcc.h **** {
 358:../../Drivers/CMSIS/Include/cmsis_gcc.h ****   __ASM volatile ("MSR psp_ns, %0" : : "r" (topOfProcStack) : );
 359:../../Drivers/CMSIS/Include/cmsis_gcc.h **** }
 360:../../Drivers/CMSIS/Include/cmsis_gcc.h **** #endif
 361:../../Drivers/CMSIS/Include/cmsis_gcc.h **** 
 362:../../Drivers/CMSIS/Include/cmsis_gcc.h **** 
 363:../../Drivers/CMSIS/Include/cmsis_gcc.h **** /**
 364:../../Drivers/CMSIS/Include/cmsis_gcc.h ****   \brief   Get Main Stack Pointer
 365:../../Drivers/CMSIS/Include/cmsis_gcc.h ****   \details Returns the current value of the Main Stack Pointer (MSP).
 366:../../Drivers/CMSIS/Include/cmsis_gcc.h ****   \return               MSP Register value
 367:../../Drivers/CMSIS/Include/cmsis_gcc.h ****  */
 368:../../Drivers/CMSIS/Include/cmsis_gcc.h **** __STATIC_FORCEINLINE uint32_t __get_MSP(void)
 369:../../Drivers/CMSIS/Include/cmsis_gcc.h **** {
 370:../../Drivers/CMSIS/Include/cmsis_gcc.h ****   uint32_t result;
 371:../../Drivers/CMSIS/Include/cmsis_gcc.h **** 
 372:../../Drivers/CMSIS/Include/cmsis_gcc.h ****   __ASM volatile ("MRS %0, msp" : "=r" (result) );
 373:../../Drivers/CMSIS/Include/cmsis_gcc.h ****   return(result);
 374:../../Drivers/CMSIS/Include/cmsis_gcc.h **** }
 375:../../Drivers/CMSIS/Include/cmsis_gcc.h **** 
 376:../../Drivers/CMSIS/Include/cmsis_gcc.h **** 
 377:../../Drivers/CMSIS/Include/cmsis_gcc.h **** #if (defined (__ARM_FEATURE_CMSE ) && (__ARM_FEATURE_CMSE == 3))
 378:../../Drivers/CMSIS/Include/cmsis_gcc.h **** /**
 379:../../Drivers/CMSIS/Include/cmsis_gcc.h ****   \brief   Get Main Stack Pointer (non-secure)
 380:../../Drivers/CMSIS/Include/cmsis_gcc.h ****   \details Returns the current value of the non-secure Main Stack Pointer (MSP) when in secure stat
 381:../../Drivers/CMSIS/Include/cmsis_gcc.h ****   \return               MSP Register value
 382:../../Drivers/CMSIS/Include/cmsis_gcc.h ****  */
 383:../../Drivers/CMSIS/Include/cmsis_gcc.h **** __STATIC_FORCEINLINE uint32_t __TZ_get_MSP_NS(void)
 384:../../Drivers/CMSIS/Include/cmsis_gcc.h **** {
 385:../../Drivers/CMSIS/Include/cmsis_gcc.h ****   uint32_t result;
 386:../../Drivers/CMSIS/Include/cmsis_gcc.h **** 
 387:../../Drivers/CMSIS/Include/cmsis_gcc.h ****   __ASM volatile ("MRS %0, msp_ns" : "=r" (result) );
 388:../../Drivers/CMSIS/Include/cmsis_gcc.h ****   return(result);
 389:../../Drivers/CMSIS/Include/cmsis_gcc.h **** }
 390:../../Drivers/CMSIS/Include/cmsis_gcc.h **** #endif
 391:../../Drivers/CMSIS/Include/cmsis_gcc.h **** 
 392:../../Drivers/CMSIS/Include/cmsis_gcc.h **** 
 393:../../Drivers/CMSIS/Include/cmsis_gcc.h **** /**
 394:../../Drivers/CMSIS/Include/cmsis_gcc.h ****   \brief   Set Main Stack Pointer
 395:../../Drivers/CMSIS/Include/cmsis_gcc.h ****   \details Assigns the given value to the Main Stack Pointer (MSP).
 396:../../Drivers/CMSIS/Include/cmsis_gcc.h ****   \param [in]    topOfMainStack  Main Stack Pointer value to set
 397:../../Drivers/CMSIS/Include/cmsis_gcc.h ****  */
 398:../../Drivers/CMSIS/Include/cmsis_gcc.h **** __STATIC_FORCEINLINE void __set_MSP(uint32_t topOfMainStack)
 399:../../Drivers/CMSIS/Include/cmsis_gcc.h **** {
 400:../../Drivers/CMSIS/Include/cmsis_gcc.h ****   __ASM volatile ("MSR msp, %0" : : "r" (topOfMainStack) : );
ARM GAS  C:\Users\minis\AppData\Local\Temp\ccKk4sUj.s 			page 41


 401:../../Drivers/CMSIS/Include/cmsis_gcc.h **** }
 402:../../Drivers/CMSIS/Include/cmsis_gcc.h **** 
 403:../../Drivers/CMSIS/Include/cmsis_gcc.h **** 
 404:../../Drivers/CMSIS/Include/cmsis_gcc.h **** #if (defined (__ARM_FEATURE_CMSE ) && (__ARM_FEATURE_CMSE == 3))
 405:../../Drivers/CMSIS/Include/cmsis_gcc.h **** /**
 406:../../Drivers/CMSIS/Include/cmsis_gcc.h ****   \brief   Set Main Stack Pointer (non-secure)
 407:../../Drivers/CMSIS/Include/cmsis_gcc.h ****   \details Assigns the given value to the non-secure Main Stack Pointer (MSP) when in secure state.
 408:../../Drivers/CMSIS/Include/cmsis_gcc.h ****   \param [in]    topOfMainStack  Main Stack Pointer value to set
 409:../../Drivers/CMSIS/Include/cmsis_gcc.h ****  */
 410:../../Drivers/CMSIS/Include/cmsis_gcc.h **** __STATIC_FORCEINLINE void __TZ_set_MSP_NS(uint32_t topOfMainStack)
 411:../../Drivers/CMSIS/Include/cmsis_gcc.h **** {
 412:../../Drivers/CMSIS/Include/cmsis_gcc.h ****   __ASM volatile ("MSR msp_ns, %0" : : "r" (topOfMainStack) : );
 413:../../Drivers/CMSIS/Include/cmsis_gcc.h **** }
 414:../../Drivers/CMSIS/Include/cmsis_gcc.h **** #endif
 415:../../Drivers/CMSIS/Include/cmsis_gcc.h **** 
 416:../../Drivers/CMSIS/Include/cmsis_gcc.h **** 
 417:../../Drivers/CMSIS/Include/cmsis_gcc.h **** #if (defined (__ARM_FEATURE_CMSE ) && (__ARM_FEATURE_CMSE == 3))
 418:../../Drivers/CMSIS/Include/cmsis_gcc.h **** /**
 419:../../Drivers/CMSIS/Include/cmsis_gcc.h ****   \brief   Get Stack Pointer (non-secure)
 420:../../Drivers/CMSIS/Include/cmsis_gcc.h ****   \details Returns the current value of the non-secure Stack Pointer (SP) when in secure state.
 421:../../Drivers/CMSIS/Include/cmsis_gcc.h ****   \return               SP Register value
 422:../../Drivers/CMSIS/Include/cmsis_gcc.h ****  */
 423:../../Drivers/CMSIS/Include/cmsis_gcc.h **** __STATIC_FORCEINLINE uint32_t __TZ_get_SP_NS(void)
 424:../../Drivers/CMSIS/Include/cmsis_gcc.h **** {
 425:../../Drivers/CMSIS/Include/cmsis_gcc.h ****   uint32_t result;
 426:../../Drivers/CMSIS/Include/cmsis_gcc.h **** 
 427:../../Drivers/CMSIS/Include/cmsis_gcc.h ****   __ASM volatile ("MRS %0, sp_ns" : "=r" (result) );
 428:../../Drivers/CMSIS/Include/cmsis_gcc.h ****   return(result);
 429:../../Drivers/CMSIS/Include/cmsis_gcc.h **** }
 430:../../Drivers/CMSIS/Include/cmsis_gcc.h **** 
 431:../../Drivers/CMSIS/Include/cmsis_gcc.h **** 
 432:../../Drivers/CMSIS/Include/cmsis_gcc.h **** /**
 433:../../Drivers/CMSIS/Include/cmsis_gcc.h ****   \brief   Set Stack Pointer (non-secure)
 434:../../Drivers/CMSIS/Include/cmsis_gcc.h ****   \details Assigns the given value to the non-secure Stack Pointer (SP) when in secure state.
 435:../../Drivers/CMSIS/Include/cmsis_gcc.h ****   \param [in]    topOfStack  Stack Pointer value to set
 436:../../Drivers/CMSIS/Include/cmsis_gcc.h ****  */
 437:../../Drivers/CMSIS/Include/cmsis_gcc.h **** __STATIC_FORCEINLINE void __TZ_set_SP_NS(uint32_t topOfStack)
 438:../../Drivers/CMSIS/Include/cmsis_gcc.h **** {
 439:../../Drivers/CMSIS/Include/cmsis_gcc.h ****   __ASM volatile ("MSR sp_ns, %0" : : "r" (topOfStack) : );
 440:../../Drivers/CMSIS/Include/cmsis_gcc.h **** }
 441:../../Drivers/CMSIS/Include/cmsis_gcc.h **** #endif
 442:../../Drivers/CMSIS/Include/cmsis_gcc.h **** 
 443:../../Drivers/CMSIS/Include/cmsis_gcc.h **** 
 444:../../Drivers/CMSIS/Include/cmsis_gcc.h **** /**
 445:../../Drivers/CMSIS/Include/cmsis_gcc.h ****   \brief   Get Priority Mask
 446:../../Drivers/CMSIS/Include/cmsis_gcc.h ****   \details Returns the current state of the priority mask bit from the Priority Mask Register.
 447:../../Drivers/CMSIS/Include/cmsis_gcc.h ****   \return               Priority Mask value
 448:../../Drivers/CMSIS/Include/cmsis_gcc.h ****  */
 449:../../Drivers/CMSIS/Include/cmsis_gcc.h **** __STATIC_FORCEINLINE uint32_t __get_PRIMASK(void)
 450:../../Drivers/CMSIS/Include/cmsis_gcc.h **** {
 451:../../Drivers/CMSIS/Include/cmsis_gcc.h ****   uint32_t result;
 452:../../Drivers/CMSIS/Include/cmsis_gcc.h **** 
 453:../../Drivers/CMSIS/Include/cmsis_gcc.h ****   __ASM volatile ("MRS %0, primask" : "=r" (result) :: "memory");
 454:../../Drivers/CMSIS/Include/cmsis_gcc.h ****   return(result);
 455:../../Drivers/CMSIS/Include/cmsis_gcc.h **** }
 456:../../Drivers/CMSIS/Include/cmsis_gcc.h **** 
 457:../../Drivers/CMSIS/Include/cmsis_gcc.h **** 
ARM GAS  C:\Users\minis\AppData\Local\Temp\ccKk4sUj.s 			page 42


 458:../../Drivers/CMSIS/Include/cmsis_gcc.h **** #if (defined (__ARM_FEATURE_CMSE ) && (__ARM_FEATURE_CMSE == 3))
 459:../../Drivers/CMSIS/Include/cmsis_gcc.h **** /**
 460:../../Drivers/CMSIS/Include/cmsis_gcc.h ****   \brief   Get Priority Mask (non-secure)
 461:../../Drivers/CMSIS/Include/cmsis_gcc.h ****   \details Returns the current state of the non-secure priority mask bit from the Priority Mask Reg
 462:../../Drivers/CMSIS/Include/cmsis_gcc.h ****   \return               Priority Mask value
 463:../../Drivers/CMSIS/Include/cmsis_gcc.h ****  */
 464:../../Drivers/CMSIS/Include/cmsis_gcc.h **** __STATIC_FORCEINLINE uint32_t __TZ_get_PRIMASK_NS(void)
 465:../../Drivers/CMSIS/Include/cmsis_gcc.h **** {
 466:../../Drivers/CMSIS/Include/cmsis_gcc.h ****   uint32_t result;
 467:../../Drivers/CMSIS/Include/cmsis_gcc.h **** 
 468:../../Drivers/CMSIS/Include/cmsis_gcc.h ****   __ASM volatile ("MRS %0, primask_ns" : "=r" (result) :: "memory");
 469:../../Drivers/CMSIS/Include/cmsis_gcc.h ****   return(result);
 470:../../Drivers/CMSIS/Include/cmsis_gcc.h **** }
 471:../../Drivers/CMSIS/Include/cmsis_gcc.h **** #endif
 472:../../Drivers/CMSIS/Include/cmsis_gcc.h **** 
 473:../../Drivers/CMSIS/Include/cmsis_gcc.h **** 
 474:../../Drivers/CMSIS/Include/cmsis_gcc.h **** /**
 475:../../Drivers/CMSIS/Include/cmsis_gcc.h ****   \brief   Set Priority Mask
 476:../../Drivers/CMSIS/Include/cmsis_gcc.h ****   \details Assigns the given value to the Priority Mask Register.
 477:../../Drivers/CMSIS/Include/cmsis_gcc.h ****   \param [in]    priMask  Priority Mask
 478:../../Drivers/CMSIS/Include/cmsis_gcc.h ****  */
 479:../../Drivers/CMSIS/Include/cmsis_gcc.h **** __STATIC_FORCEINLINE void __set_PRIMASK(uint32_t priMask)
 480:../../Drivers/CMSIS/Include/cmsis_gcc.h **** {
 481:../../Drivers/CMSIS/Include/cmsis_gcc.h ****   __ASM volatile ("MSR primask, %0" : : "r" (priMask) : "memory");
 482:../../Drivers/CMSIS/Include/cmsis_gcc.h **** }
 483:../../Drivers/CMSIS/Include/cmsis_gcc.h **** 
 484:../../Drivers/CMSIS/Include/cmsis_gcc.h **** 
 485:../../Drivers/CMSIS/Include/cmsis_gcc.h **** #if (defined (__ARM_FEATURE_CMSE ) && (__ARM_FEATURE_CMSE == 3))
 486:../../Drivers/CMSIS/Include/cmsis_gcc.h **** /**
 487:../../Drivers/CMSIS/Include/cmsis_gcc.h ****   \brief   Set Priority Mask (non-secure)
 488:../../Drivers/CMSIS/Include/cmsis_gcc.h ****   \details Assigns the given value to the non-secure Priority Mask Register when in secure state.
 489:../../Drivers/CMSIS/Include/cmsis_gcc.h ****   \param [in]    priMask  Priority Mask
 490:../../Drivers/CMSIS/Include/cmsis_gcc.h ****  */
 491:../../Drivers/CMSIS/Include/cmsis_gcc.h **** __STATIC_FORCEINLINE void __TZ_set_PRIMASK_NS(uint32_t priMask)
 492:../../Drivers/CMSIS/Include/cmsis_gcc.h **** {
 493:../../Drivers/CMSIS/Include/cmsis_gcc.h ****   __ASM volatile ("MSR primask_ns, %0" : : "r" (priMask) : "memory");
 494:../../Drivers/CMSIS/Include/cmsis_gcc.h **** }
 495:../../Drivers/CMSIS/Include/cmsis_gcc.h **** #endif
 496:../../Drivers/CMSIS/Include/cmsis_gcc.h **** 
 497:../../Drivers/CMSIS/Include/cmsis_gcc.h **** 
 498:../../Drivers/CMSIS/Include/cmsis_gcc.h **** #if ((defined (__ARM_ARCH_7M__      ) && (__ARM_ARCH_7M__      == 1)) || \
 499:../../Drivers/CMSIS/Include/cmsis_gcc.h ****      (defined (__ARM_ARCH_7EM__     ) && (__ARM_ARCH_7EM__     == 1)) || \
 500:../../Drivers/CMSIS/Include/cmsis_gcc.h ****      (defined (__ARM_ARCH_8M_MAIN__ ) && (__ARM_ARCH_8M_MAIN__ == 1))    )
 501:../../Drivers/CMSIS/Include/cmsis_gcc.h **** /**
 502:../../Drivers/CMSIS/Include/cmsis_gcc.h ****   \brief   Enable FIQ
 503:../../Drivers/CMSIS/Include/cmsis_gcc.h ****   \details Enables FIQ interrupts by clearing the F-bit in the CPSR.
 504:../../Drivers/CMSIS/Include/cmsis_gcc.h ****            Can only be executed in Privileged modes.
 505:../../Drivers/CMSIS/Include/cmsis_gcc.h ****  */
 506:../../Drivers/CMSIS/Include/cmsis_gcc.h **** __STATIC_FORCEINLINE void __enable_fault_irq(void)
 507:../../Drivers/CMSIS/Include/cmsis_gcc.h **** {
 508:../../Drivers/CMSIS/Include/cmsis_gcc.h ****   __ASM volatile ("cpsie f" : : : "memory");
 509:../../Drivers/CMSIS/Include/cmsis_gcc.h **** }
 510:../../Drivers/CMSIS/Include/cmsis_gcc.h **** 
 511:../../Drivers/CMSIS/Include/cmsis_gcc.h **** 
 512:../../Drivers/CMSIS/Include/cmsis_gcc.h **** /**
 513:../../Drivers/CMSIS/Include/cmsis_gcc.h ****   \brief   Disable FIQ
 514:../../Drivers/CMSIS/Include/cmsis_gcc.h ****   \details Disables FIQ interrupts by setting the F-bit in the CPSR.
ARM GAS  C:\Users\minis\AppData\Local\Temp\ccKk4sUj.s 			page 43


 515:../../Drivers/CMSIS/Include/cmsis_gcc.h ****            Can only be executed in Privileged modes.
 516:../../Drivers/CMSIS/Include/cmsis_gcc.h ****  */
 517:../../Drivers/CMSIS/Include/cmsis_gcc.h **** __STATIC_FORCEINLINE void __disable_fault_irq(void)
 518:../../Drivers/CMSIS/Include/cmsis_gcc.h **** {
 519:../../Drivers/CMSIS/Include/cmsis_gcc.h ****   __ASM volatile ("cpsid f" : : : "memory");
 520:../../Drivers/CMSIS/Include/cmsis_gcc.h **** }
 521:../../Drivers/CMSIS/Include/cmsis_gcc.h **** 
 522:../../Drivers/CMSIS/Include/cmsis_gcc.h **** 
 523:../../Drivers/CMSIS/Include/cmsis_gcc.h **** /**
 524:../../Drivers/CMSIS/Include/cmsis_gcc.h ****   \brief   Get Base Priority
 525:../../Drivers/CMSIS/Include/cmsis_gcc.h ****   \details Returns the current value of the Base Priority register.
 526:../../Drivers/CMSIS/Include/cmsis_gcc.h ****   \return               Base Priority register value
 527:../../Drivers/CMSIS/Include/cmsis_gcc.h ****  */
 528:../../Drivers/CMSIS/Include/cmsis_gcc.h **** __STATIC_FORCEINLINE uint32_t __get_BASEPRI(void)
 529:../../Drivers/CMSIS/Include/cmsis_gcc.h **** {
 530:../../Drivers/CMSIS/Include/cmsis_gcc.h ****   uint32_t result;
 531:../../Drivers/CMSIS/Include/cmsis_gcc.h **** 
 532:../../Drivers/CMSIS/Include/cmsis_gcc.h ****   __ASM volatile ("MRS %0, basepri" : "=r" (result) );
 533:../../Drivers/CMSIS/Include/cmsis_gcc.h ****   return(result);
 534:../../Drivers/CMSIS/Include/cmsis_gcc.h **** }
 535:../../Drivers/CMSIS/Include/cmsis_gcc.h **** 
 536:../../Drivers/CMSIS/Include/cmsis_gcc.h **** 
 537:../../Drivers/CMSIS/Include/cmsis_gcc.h **** #if (defined (__ARM_FEATURE_CMSE ) && (__ARM_FEATURE_CMSE == 3))
 538:../../Drivers/CMSIS/Include/cmsis_gcc.h **** /**
 539:../../Drivers/CMSIS/Include/cmsis_gcc.h ****   \brief   Get Base Priority (non-secure)
 540:../../Drivers/CMSIS/Include/cmsis_gcc.h ****   \details Returns the current value of the non-secure Base Priority register when in secure state.
 541:../../Drivers/CMSIS/Include/cmsis_gcc.h ****   \return               Base Priority register value
 542:../../Drivers/CMSIS/Include/cmsis_gcc.h ****  */
 543:../../Drivers/CMSIS/Include/cmsis_gcc.h **** __STATIC_FORCEINLINE uint32_t __TZ_get_BASEPRI_NS(void)
 544:../../Drivers/CMSIS/Include/cmsis_gcc.h **** {
 545:../../Drivers/CMSIS/Include/cmsis_gcc.h ****   uint32_t result;
 546:../../Drivers/CMSIS/Include/cmsis_gcc.h **** 
 547:../../Drivers/CMSIS/Include/cmsis_gcc.h ****   __ASM volatile ("MRS %0, basepri_ns" : "=r" (result) );
 548:../../Drivers/CMSIS/Include/cmsis_gcc.h ****   return(result);
 549:../../Drivers/CMSIS/Include/cmsis_gcc.h **** }
 550:../../Drivers/CMSIS/Include/cmsis_gcc.h **** #endif
 551:../../Drivers/CMSIS/Include/cmsis_gcc.h **** 
 552:../../Drivers/CMSIS/Include/cmsis_gcc.h **** 
 553:../../Drivers/CMSIS/Include/cmsis_gcc.h **** /**
 554:../../Drivers/CMSIS/Include/cmsis_gcc.h ****   \brief   Set Base Priority
 555:../../Drivers/CMSIS/Include/cmsis_gcc.h ****   \details Assigns the given value to the Base Priority register.
 556:../../Drivers/CMSIS/Include/cmsis_gcc.h ****   \param [in]    basePri  Base Priority value to set
 557:../../Drivers/CMSIS/Include/cmsis_gcc.h ****  */
 558:../../Drivers/CMSIS/Include/cmsis_gcc.h **** __STATIC_FORCEINLINE void __set_BASEPRI(uint32_t basePri)
 559:../../Drivers/CMSIS/Include/cmsis_gcc.h **** {
 560:../../Drivers/CMSIS/Include/cmsis_gcc.h ****   __ASM volatile ("MSR basepri, %0" : : "r" (basePri) : "memory");
 561:../../Drivers/CMSIS/Include/cmsis_gcc.h **** }
 562:../../Drivers/CMSIS/Include/cmsis_gcc.h **** 
 563:../../Drivers/CMSIS/Include/cmsis_gcc.h **** 
 564:../../Drivers/CMSIS/Include/cmsis_gcc.h **** #if (defined (__ARM_FEATURE_CMSE ) && (__ARM_FEATURE_CMSE == 3))
 565:../../Drivers/CMSIS/Include/cmsis_gcc.h **** /**
 566:../../Drivers/CMSIS/Include/cmsis_gcc.h ****   \brief   Set Base Priority (non-secure)
 567:../../Drivers/CMSIS/Include/cmsis_gcc.h ****   \details Assigns the given value to the non-secure Base Priority register when in secure state.
 568:../../Drivers/CMSIS/Include/cmsis_gcc.h ****   \param [in]    basePri  Base Priority value to set
 569:../../Drivers/CMSIS/Include/cmsis_gcc.h ****  */
 570:../../Drivers/CMSIS/Include/cmsis_gcc.h **** __STATIC_FORCEINLINE void __TZ_set_BASEPRI_NS(uint32_t basePri)
 571:../../Drivers/CMSIS/Include/cmsis_gcc.h **** {
ARM GAS  C:\Users\minis\AppData\Local\Temp\ccKk4sUj.s 			page 44


 572:../../Drivers/CMSIS/Include/cmsis_gcc.h ****   __ASM volatile ("MSR basepri_ns, %0" : : "r" (basePri) : "memory");
 573:../../Drivers/CMSIS/Include/cmsis_gcc.h **** }
 574:../../Drivers/CMSIS/Include/cmsis_gcc.h **** #endif
 575:../../Drivers/CMSIS/Include/cmsis_gcc.h **** 
 576:../../Drivers/CMSIS/Include/cmsis_gcc.h **** 
 577:../../Drivers/CMSIS/Include/cmsis_gcc.h **** /**
 578:../../Drivers/CMSIS/Include/cmsis_gcc.h ****   \brief   Set Base Priority with condition
 579:../../Drivers/CMSIS/Include/cmsis_gcc.h ****   \details Assigns the given value to the Base Priority register only if BASEPRI masking is disable
 580:../../Drivers/CMSIS/Include/cmsis_gcc.h ****            or the new value increases the BASEPRI priority level.
 581:../../Drivers/CMSIS/Include/cmsis_gcc.h ****   \param [in]    basePri  Base Priority value to set
 582:../../Drivers/CMSIS/Include/cmsis_gcc.h ****  */
 583:../../Drivers/CMSIS/Include/cmsis_gcc.h **** __STATIC_FORCEINLINE void __set_BASEPRI_MAX(uint32_t basePri)
 584:../../Drivers/CMSIS/Include/cmsis_gcc.h **** {
 585:../../Drivers/CMSIS/Include/cmsis_gcc.h ****   __ASM volatile ("MSR basepri_max, %0" : : "r" (basePri) : "memory");
 586:../../Drivers/CMSIS/Include/cmsis_gcc.h **** }
 587:../../Drivers/CMSIS/Include/cmsis_gcc.h **** 
 588:../../Drivers/CMSIS/Include/cmsis_gcc.h **** 
 589:../../Drivers/CMSIS/Include/cmsis_gcc.h **** /**
 590:../../Drivers/CMSIS/Include/cmsis_gcc.h ****   \brief   Get Fault Mask
 591:../../Drivers/CMSIS/Include/cmsis_gcc.h ****   \details Returns the current value of the Fault Mask register.
 592:../../Drivers/CMSIS/Include/cmsis_gcc.h ****   \return               Fault Mask register value
 593:../../Drivers/CMSIS/Include/cmsis_gcc.h ****  */
 594:../../Drivers/CMSIS/Include/cmsis_gcc.h **** __STATIC_FORCEINLINE uint32_t __get_FAULTMASK(void)
 595:../../Drivers/CMSIS/Include/cmsis_gcc.h **** {
 596:../../Drivers/CMSIS/Include/cmsis_gcc.h ****   uint32_t result;
 597:../../Drivers/CMSIS/Include/cmsis_gcc.h **** 
 598:../../Drivers/CMSIS/Include/cmsis_gcc.h ****   __ASM volatile ("MRS %0, faultmask" : "=r" (result) );
 599:../../Drivers/CMSIS/Include/cmsis_gcc.h ****   return(result);
 600:../../Drivers/CMSIS/Include/cmsis_gcc.h **** }
 601:../../Drivers/CMSIS/Include/cmsis_gcc.h **** 
 602:../../Drivers/CMSIS/Include/cmsis_gcc.h **** 
 603:../../Drivers/CMSIS/Include/cmsis_gcc.h **** #if (defined (__ARM_FEATURE_CMSE ) && (__ARM_FEATURE_CMSE == 3))
 604:../../Drivers/CMSIS/Include/cmsis_gcc.h **** /**
 605:../../Drivers/CMSIS/Include/cmsis_gcc.h ****   \brief   Get Fault Mask (non-secure)
 606:../../Drivers/CMSIS/Include/cmsis_gcc.h ****   \details Returns the current value of the non-secure Fault Mask register when in secure state.
 607:../../Drivers/CMSIS/Include/cmsis_gcc.h ****   \return               Fault Mask register value
 608:../../Drivers/CMSIS/Include/cmsis_gcc.h ****  */
 609:../../Drivers/CMSIS/Include/cmsis_gcc.h **** __STATIC_FORCEINLINE uint32_t __TZ_get_FAULTMASK_NS(void)
 610:../../Drivers/CMSIS/Include/cmsis_gcc.h **** {
 611:../../Drivers/CMSIS/Include/cmsis_gcc.h ****   uint32_t result;
 612:../../Drivers/CMSIS/Include/cmsis_gcc.h **** 
 613:../../Drivers/CMSIS/Include/cmsis_gcc.h ****   __ASM volatile ("MRS %0, faultmask_ns" : "=r" (result) );
 614:../../Drivers/CMSIS/Include/cmsis_gcc.h ****   return(result);
 615:../../Drivers/CMSIS/Include/cmsis_gcc.h **** }
 616:../../Drivers/CMSIS/Include/cmsis_gcc.h **** #endif
 617:../../Drivers/CMSIS/Include/cmsis_gcc.h **** 
 618:../../Drivers/CMSIS/Include/cmsis_gcc.h **** 
 619:../../Drivers/CMSIS/Include/cmsis_gcc.h **** /**
 620:../../Drivers/CMSIS/Include/cmsis_gcc.h ****   \brief   Set Fault Mask
 621:../../Drivers/CMSIS/Include/cmsis_gcc.h ****   \details Assigns the given value to the Fault Mask register.
 622:../../Drivers/CMSIS/Include/cmsis_gcc.h ****   \param [in]    faultMask  Fault Mask value to set
 623:../../Drivers/CMSIS/Include/cmsis_gcc.h ****  */
 624:../../Drivers/CMSIS/Include/cmsis_gcc.h **** __STATIC_FORCEINLINE void __set_FAULTMASK(uint32_t faultMask)
 625:../../Drivers/CMSIS/Include/cmsis_gcc.h **** {
 626:../../Drivers/CMSIS/Include/cmsis_gcc.h ****   __ASM volatile ("MSR faultmask, %0" : : "r" (faultMask) : "memory");
 627:../../Drivers/CMSIS/Include/cmsis_gcc.h **** }
 628:../../Drivers/CMSIS/Include/cmsis_gcc.h **** 
ARM GAS  C:\Users\minis\AppData\Local\Temp\ccKk4sUj.s 			page 45


 629:../../Drivers/CMSIS/Include/cmsis_gcc.h **** 
 630:../../Drivers/CMSIS/Include/cmsis_gcc.h **** #if (defined (__ARM_FEATURE_CMSE ) && (__ARM_FEATURE_CMSE == 3))
 631:../../Drivers/CMSIS/Include/cmsis_gcc.h **** /**
 632:../../Drivers/CMSIS/Include/cmsis_gcc.h ****   \brief   Set Fault Mask (non-secure)
 633:../../Drivers/CMSIS/Include/cmsis_gcc.h ****   \details Assigns the given value to the non-secure Fault Mask register when in secure state.
 634:../../Drivers/CMSIS/Include/cmsis_gcc.h ****   \param [in]    faultMask  Fault Mask value to set
 635:../../Drivers/CMSIS/Include/cmsis_gcc.h ****  */
 636:../../Drivers/CMSIS/Include/cmsis_gcc.h **** __STATIC_FORCEINLINE void __TZ_set_FAULTMASK_NS(uint32_t faultMask)
 637:../../Drivers/CMSIS/Include/cmsis_gcc.h **** {
 638:../../Drivers/CMSIS/Include/cmsis_gcc.h ****   __ASM volatile ("MSR faultmask_ns, %0" : : "r" (faultMask) : "memory");
 639:../../Drivers/CMSIS/Include/cmsis_gcc.h **** }
 640:../../Drivers/CMSIS/Include/cmsis_gcc.h **** #endif
 641:../../Drivers/CMSIS/Include/cmsis_gcc.h **** 
 642:../../Drivers/CMSIS/Include/cmsis_gcc.h **** #endif /* ((defined (__ARM_ARCH_7M__      ) && (__ARM_ARCH_7M__      == 1)) || \
 643:../../Drivers/CMSIS/Include/cmsis_gcc.h ****            (defined (__ARM_ARCH_7EM__     ) && (__ARM_ARCH_7EM__     == 1)) || \
 644:../../Drivers/CMSIS/Include/cmsis_gcc.h ****            (defined (__ARM_ARCH_8M_MAIN__ ) && (__ARM_ARCH_8M_MAIN__ == 1))    ) */
 645:../../Drivers/CMSIS/Include/cmsis_gcc.h **** 
 646:../../Drivers/CMSIS/Include/cmsis_gcc.h **** 
 647:../../Drivers/CMSIS/Include/cmsis_gcc.h **** #if ((defined (__ARM_ARCH_8M_MAIN__ ) && (__ARM_ARCH_8M_MAIN__ == 1)) || \
 648:../../Drivers/CMSIS/Include/cmsis_gcc.h ****      (defined (__ARM_ARCH_8M_BASE__ ) && (__ARM_ARCH_8M_BASE__ == 1))    )
 649:../../Drivers/CMSIS/Include/cmsis_gcc.h **** 
 650:../../Drivers/CMSIS/Include/cmsis_gcc.h **** /**
 651:../../Drivers/CMSIS/Include/cmsis_gcc.h ****   \brief   Get Process Stack Pointer Limit
 652:../../Drivers/CMSIS/Include/cmsis_gcc.h ****   Devices without ARMv8-M Main Extensions (i.e. Cortex-M23) lack the non-secure
 653:../../Drivers/CMSIS/Include/cmsis_gcc.h ****   Stack Pointer Limit register hence zero is returned always in non-secure
 654:../../Drivers/CMSIS/Include/cmsis_gcc.h ****   mode.
 655:../../Drivers/CMSIS/Include/cmsis_gcc.h ****   
 656:../../Drivers/CMSIS/Include/cmsis_gcc.h ****   \details Returns the current value of the Process Stack Pointer Limit (PSPLIM).
 657:../../Drivers/CMSIS/Include/cmsis_gcc.h ****   \return               PSPLIM Register value
 658:../../Drivers/CMSIS/Include/cmsis_gcc.h ****  */
 659:../../Drivers/CMSIS/Include/cmsis_gcc.h **** __STATIC_FORCEINLINE uint32_t __get_PSPLIM(void)
 660:../../Drivers/CMSIS/Include/cmsis_gcc.h **** {
 661:../../Drivers/CMSIS/Include/cmsis_gcc.h **** #if (!(defined (__ARM_ARCH_8M_MAIN__ ) && (__ARM_ARCH_8M_MAIN__ == 1)) && \
 662:../../Drivers/CMSIS/Include/cmsis_gcc.h ****     (!defined (__ARM_FEATURE_CMSE) || (__ARM_FEATURE_CMSE < 3)))
 663:../../Drivers/CMSIS/Include/cmsis_gcc.h ****     // without main extensions, the non-secure PSPLIM is RAZ/WI
 664:../../Drivers/CMSIS/Include/cmsis_gcc.h ****   return 0U;
 665:../../Drivers/CMSIS/Include/cmsis_gcc.h **** #else
 666:../../Drivers/CMSIS/Include/cmsis_gcc.h ****   uint32_t result;
 667:../../Drivers/CMSIS/Include/cmsis_gcc.h ****   __ASM volatile ("MRS %0, psplim"  : "=r" (result) );
 668:../../Drivers/CMSIS/Include/cmsis_gcc.h ****   return result;
 669:../../Drivers/CMSIS/Include/cmsis_gcc.h **** #endif
 670:../../Drivers/CMSIS/Include/cmsis_gcc.h **** }
 671:../../Drivers/CMSIS/Include/cmsis_gcc.h **** 
 672:../../Drivers/CMSIS/Include/cmsis_gcc.h **** #if (defined (__ARM_FEATURE_CMSE) && (__ARM_FEATURE_CMSE == 3))
 673:../../Drivers/CMSIS/Include/cmsis_gcc.h **** /**
 674:../../Drivers/CMSIS/Include/cmsis_gcc.h ****   \brief   Get Process Stack Pointer Limit (non-secure)
 675:../../Drivers/CMSIS/Include/cmsis_gcc.h ****   Devices without ARMv8-M Main Extensions (i.e. Cortex-M23) lack the non-secure
 676:../../Drivers/CMSIS/Include/cmsis_gcc.h ****   Stack Pointer Limit register hence zero is returned always.
 677:../../Drivers/CMSIS/Include/cmsis_gcc.h **** 
 678:../../Drivers/CMSIS/Include/cmsis_gcc.h ****   \details Returns the current value of the non-secure Process Stack Pointer Limit (PSPLIM) when in
 679:../../Drivers/CMSIS/Include/cmsis_gcc.h ****   \return               PSPLIM Register value
 680:../../Drivers/CMSIS/Include/cmsis_gcc.h ****  */
 681:../../Drivers/CMSIS/Include/cmsis_gcc.h **** __STATIC_FORCEINLINE uint32_t __TZ_get_PSPLIM_NS(void)
 682:../../Drivers/CMSIS/Include/cmsis_gcc.h **** {
 683:../../Drivers/CMSIS/Include/cmsis_gcc.h **** #if (!(defined (__ARM_ARCH_8M_MAIN__ ) && (__ARM_ARCH_8M_MAIN__ == 1)))
 684:../../Drivers/CMSIS/Include/cmsis_gcc.h ****   // without main extensions, the non-secure PSPLIM is RAZ/WI
 685:../../Drivers/CMSIS/Include/cmsis_gcc.h ****   return 0U;
ARM GAS  C:\Users\minis\AppData\Local\Temp\ccKk4sUj.s 			page 46


 686:../../Drivers/CMSIS/Include/cmsis_gcc.h **** #else
 687:../../Drivers/CMSIS/Include/cmsis_gcc.h ****   uint32_t result;
 688:../../Drivers/CMSIS/Include/cmsis_gcc.h ****   __ASM volatile ("MRS %0, psplim_ns"  : "=r" (result) );
 689:../../Drivers/CMSIS/Include/cmsis_gcc.h ****   return result;
 690:../../Drivers/CMSIS/Include/cmsis_gcc.h **** #endif
 691:../../Drivers/CMSIS/Include/cmsis_gcc.h **** }
 692:../../Drivers/CMSIS/Include/cmsis_gcc.h **** #endif
 693:../../Drivers/CMSIS/Include/cmsis_gcc.h **** 
 694:../../Drivers/CMSIS/Include/cmsis_gcc.h **** 
 695:../../Drivers/CMSIS/Include/cmsis_gcc.h **** /**
 696:../../Drivers/CMSIS/Include/cmsis_gcc.h ****   \brief   Set Process Stack Pointer Limit
 697:../../Drivers/CMSIS/Include/cmsis_gcc.h ****   Devices without ARMv8-M Main Extensions (i.e. Cortex-M23) lack the non-secure
 698:../../Drivers/CMSIS/Include/cmsis_gcc.h ****   Stack Pointer Limit register hence the write is silently ignored in non-secure
 699:../../Drivers/CMSIS/Include/cmsis_gcc.h ****   mode.
 700:../../Drivers/CMSIS/Include/cmsis_gcc.h ****   
 701:../../Drivers/CMSIS/Include/cmsis_gcc.h ****   \details Assigns the given value to the Process Stack Pointer Limit (PSPLIM).
 702:../../Drivers/CMSIS/Include/cmsis_gcc.h ****   \param [in]    ProcStackPtrLimit  Process Stack Pointer Limit value to set
 703:../../Drivers/CMSIS/Include/cmsis_gcc.h ****  */
 704:../../Drivers/CMSIS/Include/cmsis_gcc.h **** __STATIC_FORCEINLINE void __set_PSPLIM(uint32_t ProcStackPtrLimit)
 705:../../Drivers/CMSIS/Include/cmsis_gcc.h **** {
 706:../../Drivers/CMSIS/Include/cmsis_gcc.h **** #if (!(defined (__ARM_ARCH_8M_MAIN__ ) && (__ARM_ARCH_8M_MAIN__ == 1)) && \
 707:../../Drivers/CMSIS/Include/cmsis_gcc.h ****     (!defined (__ARM_FEATURE_CMSE) || (__ARM_FEATURE_CMSE < 3)))
 708:../../Drivers/CMSIS/Include/cmsis_gcc.h ****   // without main extensions, the non-secure PSPLIM is RAZ/WI
 709:../../Drivers/CMSIS/Include/cmsis_gcc.h ****   (void)ProcStackPtrLimit;
 710:../../Drivers/CMSIS/Include/cmsis_gcc.h **** #else
 711:../../Drivers/CMSIS/Include/cmsis_gcc.h ****   __ASM volatile ("MSR psplim, %0" : : "r" (ProcStackPtrLimit));
 712:../../Drivers/CMSIS/Include/cmsis_gcc.h **** #endif
 713:../../Drivers/CMSIS/Include/cmsis_gcc.h **** }
 714:../../Drivers/CMSIS/Include/cmsis_gcc.h **** 
 715:../../Drivers/CMSIS/Include/cmsis_gcc.h **** 
 716:../../Drivers/CMSIS/Include/cmsis_gcc.h **** #if (defined (__ARM_FEATURE_CMSE  ) && (__ARM_FEATURE_CMSE   == 3))
 717:../../Drivers/CMSIS/Include/cmsis_gcc.h **** /**
 718:../../Drivers/CMSIS/Include/cmsis_gcc.h ****   \brief   Set Process Stack Pointer (non-secure)
 719:../../Drivers/CMSIS/Include/cmsis_gcc.h ****   Devices without ARMv8-M Main Extensions (i.e. Cortex-M23) lack the non-secure
 720:../../Drivers/CMSIS/Include/cmsis_gcc.h ****   Stack Pointer Limit register hence the write is silently ignored.
 721:../../Drivers/CMSIS/Include/cmsis_gcc.h **** 
 722:../../Drivers/CMSIS/Include/cmsis_gcc.h ****   \details Assigns the given value to the non-secure Process Stack Pointer Limit (PSPLIM) when in s
 723:../../Drivers/CMSIS/Include/cmsis_gcc.h ****   \param [in]    ProcStackPtrLimit  Process Stack Pointer Limit value to set
 724:../../Drivers/CMSIS/Include/cmsis_gcc.h ****  */
 725:../../Drivers/CMSIS/Include/cmsis_gcc.h **** __STATIC_FORCEINLINE void __TZ_set_PSPLIM_NS(uint32_t ProcStackPtrLimit)
 726:../../Drivers/CMSIS/Include/cmsis_gcc.h **** {
 727:../../Drivers/CMSIS/Include/cmsis_gcc.h **** #if (!(defined (__ARM_ARCH_8M_MAIN__ ) && (__ARM_ARCH_8M_MAIN__ == 1)))
 728:../../Drivers/CMSIS/Include/cmsis_gcc.h ****   // without main extensions, the non-secure PSPLIM is RAZ/WI
 729:../../Drivers/CMSIS/Include/cmsis_gcc.h ****   (void)ProcStackPtrLimit;
 730:../../Drivers/CMSIS/Include/cmsis_gcc.h **** #else
 731:../../Drivers/CMSIS/Include/cmsis_gcc.h ****   __ASM volatile ("MSR psplim_ns, %0\n" : : "r" (ProcStackPtrLimit));
 732:../../Drivers/CMSIS/Include/cmsis_gcc.h **** #endif
 733:../../Drivers/CMSIS/Include/cmsis_gcc.h **** }
 734:../../Drivers/CMSIS/Include/cmsis_gcc.h **** #endif
 735:../../Drivers/CMSIS/Include/cmsis_gcc.h **** 
 736:../../Drivers/CMSIS/Include/cmsis_gcc.h **** 
 737:../../Drivers/CMSIS/Include/cmsis_gcc.h **** /**
 738:../../Drivers/CMSIS/Include/cmsis_gcc.h ****   \brief   Get Main Stack Pointer Limit
 739:../../Drivers/CMSIS/Include/cmsis_gcc.h ****   Devices without ARMv8-M Main Extensions (i.e. Cortex-M23) lack the non-secure
 740:../../Drivers/CMSIS/Include/cmsis_gcc.h ****   Stack Pointer Limit register hence zero is returned always in non-secure
 741:../../Drivers/CMSIS/Include/cmsis_gcc.h ****   mode.
 742:../../Drivers/CMSIS/Include/cmsis_gcc.h **** 
ARM GAS  C:\Users\minis\AppData\Local\Temp\ccKk4sUj.s 			page 47


 743:../../Drivers/CMSIS/Include/cmsis_gcc.h ****   \details Returns the current value of the Main Stack Pointer Limit (MSPLIM).
 744:../../Drivers/CMSIS/Include/cmsis_gcc.h ****   \return               MSPLIM Register value
 745:../../Drivers/CMSIS/Include/cmsis_gcc.h ****  */
 746:../../Drivers/CMSIS/Include/cmsis_gcc.h **** __STATIC_FORCEINLINE uint32_t __get_MSPLIM(void)
 747:../../Drivers/CMSIS/Include/cmsis_gcc.h **** {
 748:../../Drivers/CMSIS/Include/cmsis_gcc.h **** #if (!(defined (__ARM_ARCH_8M_MAIN__ ) && (__ARM_ARCH_8M_MAIN__ == 1)) && \
 749:../../Drivers/CMSIS/Include/cmsis_gcc.h ****     (!defined (__ARM_FEATURE_CMSE) || (__ARM_FEATURE_CMSE < 3)))
 750:../../Drivers/CMSIS/Include/cmsis_gcc.h ****   // without main extensions, the non-secure MSPLIM is RAZ/WI
 751:../../Drivers/CMSIS/Include/cmsis_gcc.h ****   return 0U;
 752:../../Drivers/CMSIS/Include/cmsis_gcc.h **** #else
 753:../../Drivers/CMSIS/Include/cmsis_gcc.h ****   uint32_t result;
 754:../../Drivers/CMSIS/Include/cmsis_gcc.h ****   __ASM volatile ("MRS %0, msplim" : "=r" (result) );
 755:../../Drivers/CMSIS/Include/cmsis_gcc.h ****   return result;
 756:../../Drivers/CMSIS/Include/cmsis_gcc.h **** #endif
 757:../../Drivers/CMSIS/Include/cmsis_gcc.h **** }
 758:../../Drivers/CMSIS/Include/cmsis_gcc.h **** 
 759:../../Drivers/CMSIS/Include/cmsis_gcc.h **** 
 760:../../Drivers/CMSIS/Include/cmsis_gcc.h **** #if (defined (__ARM_FEATURE_CMSE  ) && (__ARM_FEATURE_CMSE   == 3))
 761:../../Drivers/CMSIS/Include/cmsis_gcc.h **** /**
 762:../../Drivers/CMSIS/Include/cmsis_gcc.h ****   \brief   Get Main Stack Pointer Limit (non-secure)
 763:../../Drivers/CMSIS/Include/cmsis_gcc.h ****   Devices without ARMv8-M Main Extensions (i.e. Cortex-M23) lack the non-secure
 764:../../Drivers/CMSIS/Include/cmsis_gcc.h ****   Stack Pointer Limit register hence zero is returned always.
 765:../../Drivers/CMSIS/Include/cmsis_gcc.h **** 
 766:../../Drivers/CMSIS/Include/cmsis_gcc.h ****   \details Returns the current value of the non-secure Main Stack Pointer Limit(MSPLIM) when in sec
 767:../../Drivers/CMSIS/Include/cmsis_gcc.h ****   \return               MSPLIM Register value
 768:../../Drivers/CMSIS/Include/cmsis_gcc.h ****  */
 769:../../Drivers/CMSIS/Include/cmsis_gcc.h **** __STATIC_FORCEINLINE uint32_t __TZ_get_MSPLIM_NS(void)
 770:../../Drivers/CMSIS/Include/cmsis_gcc.h **** {
 771:../../Drivers/CMSIS/Include/cmsis_gcc.h **** #if (!(defined (__ARM_ARCH_8M_MAIN__ ) && (__ARM_ARCH_8M_MAIN__ == 1)))
 772:../../Drivers/CMSIS/Include/cmsis_gcc.h ****   // without main extensions, the non-secure MSPLIM is RAZ/WI
 773:../../Drivers/CMSIS/Include/cmsis_gcc.h ****   return 0U;
 774:../../Drivers/CMSIS/Include/cmsis_gcc.h **** #else
 775:../../Drivers/CMSIS/Include/cmsis_gcc.h ****   uint32_t result;
 776:../../Drivers/CMSIS/Include/cmsis_gcc.h ****   __ASM volatile ("MRS %0, msplim_ns" : "=r" (result) );
 777:../../Drivers/CMSIS/Include/cmsis_gcc.h ****   return result;
 778:../../Drivers/CMSIS/Include/cmsis_gcc.h **** #endif
 779:../../Drivers/CMSIS/Include/cmsis_gcc.h **** }
 780:../../Drivers/CMSIS/Include/cmsis_gcc.h **** #endif
 781:../../Drivers/CMSIS/Include/cmsis_gcc.h **** 
 782:../../Drivers/CMSIS/Include/cmsis_gcc.h **** 
 783:../../Drivers/CMSIS/Include/cmsis_gcc.h **** /**
 784:../../Drivers/CMSIS/Include/cmsis_gcc.h ****   \brief   Set Main Stack Pointer Limit
 785:../../Drivers/CMSIS/Include/cmsis_gcc.h ****   Devices without ARMv8-M Main Extensions (i.e. Cortex-M23) lack the non-secure
 786:../../Drivers/CMSIS/Include/cmsis_gcc.h ****   Stack Pointer Limit register hence the write is silently ignored in non-secure
 787:../../Drivers/CMSIS/Include/cmsis_gcc.h ****   mode.
 788:../../Drivers/CMSIS/Include/cmsis_gcc.h **** 
 789:../../Drivers/CMSIS/Include/cmsis_gcc.h ****   \details Assigns the given value to the Main Stack Pointer Limit (MSPLIM).
 790:../../Drivers/CMSIS/Include/cmsis_gcc.h ****   \param [in]    MainStackPtrLimit  Main Stack Pointer Limit value to set
 791:../../Drivers/CMSIS/Include/cmsis_gcc.h ****  */
 792:../../Drivers/CMSIS/Include/cmsis_gcc.h **** __STATIC_FORCEINLINE void __set_MSPLIM(uint32_t MainStackPtrLimit)
 793:../../Drivers/CMSIS/Include/cmsis_gcc.h **** {
 794:../../Drivers/CMSIS/Include/cmsis_gcc.h **** #if (!(defined (__ARM_ARCH_8M_MAIN__ ) && (__ARM_ARCH_8M_MAIN__ == 1)) && \
 795:../../Drivers/CMSIS/Include/cmsis_gcc.h ****     (!defined (__ARM_FEATURE_CMSE) || (__ARM_FEATURE_CMSE < 3)))
 796:../../Drivers/CMSIS/Include/cmsis_gcc.h ****   // without main extensions, the non-secure MSPLIM is RAZ/WI
 797:../../Drivers/CMSIS/Include/cmsis_gcc.h ****   (void)MainStackPtrLimit;
 798:../../Drivers/CMSIS/Include/cmsis_gcc.h **** #else
 799:../../Drivers/CMSIS/Include/cmsis_gcc.h ****   __ASM volatile ("MSR msplim, %0" : : "r" (MainStackPtrLimit));
ARM GAS  C:\Users\minis\AppData\Local\Temp\ccKk4sUj.s 			page 48


 800:../../Drivers/CMSIS/Include/cmsis_gcc.h **** #endif
 801:../../Drivers/CMSIS/Include/cmsis_gcc.h **** }
 802:../../Drivers/CMSIS/Include/cmsis_gcc.h **** 
 803:../../Drivers/CMSIS/Include/cmsis_gcc.h **** 
 804:../../Drivers/CMSIS/Include/cmsis_gcc.h **** #if (defined (__ARM_FEATURE_CMSE  ) && (__ARM_FEATURE_CMSE   == 3))
 805:../../Drivers/CMSIS/Include/cmsis_gcc.h **** /**
 806:../../Drivers/CMSIS/Include/cmsis_gcc.h ****   \brief   Set Main Stack Pointer Limit (non-secure)
 807:../../Drivers/CMSIS/Include/cmsis_gcc.h ****   Devices without ARMv8-M Main Extensions (i.e. Cortex-M23) lack the non-secure
 808:../../Drivers/CMSIS/Include/cmsis_gcc.h ****   Stack Pointer Limit register hence the write is silently ignored.
 809:../../Drivers/CMSIS/Include/cmsis_gcc.h **** 
 810:../../Drivers/CMSIS/Include/cmsis_gcc.h ****   \details Assigns the given value to the non-secure Main Stack Pointer Limit (MSPLIM) when in secu
 811:../../Drivers/CMSIS/Include/cmsis_gcc.h ****   \param [in]    MainStackPtrLimit  Main Stack Pointer value to set
 812:../../Drivers/CMSIS/Include/cmsis_gcc.h ****  */
 813:../../Drivers/CMSIS/Include/cmsis_gcc.h **** __STATIC_FORCEINLINE void __TZ_set_MSPLIM_NS(uint32_t MainStackPtrLimit)
 814:../../Drivers/CMSIS/Include/cmsis_gcc.h **** {
 815:../../Drivers/CMSIS/Include/cmsis_gcc.h **** #if (!(defined (__ARM_ARCH_8M_MAIN__ ) && (__ARM_ARCH_8M_MAIN__ == 1)))
 816:../../Drivers/CMSIS/Include/cmsis_gcc.h ****   // without main extensions, the non-secure MSPLIM is RAZ/WI
 817:../../Drivers/CMSIS/Include/cmsis_gcc.h ****   (void)MainStackPtrLimit;
 818:../../Drivers/CMSIS/Include/cmsis_gcc.h **** #else
 819:../../Drivers/CMSIS/Include/cmsis_gcc.h ****   __ASM volatile ("MSR msplim_ns, %0" : : "r" (MainStackPtrLimit));
 820:../../Drivers/CMSIS/Include/cmsis_gcc.h **** #endif
 821:../../Drivers/CMSIS/Include/cmsis_gcc.h **** }
 822:../../Drivers/CMSIS/Include/cmsis_gcc.h **** #endif
 823:../../Drivers/CMSIS/Include/cmsis_gcc.h **** 
 824:../../Drivers/CMSIS/Include/cmsis_gcc.h **** #endif /* ((defined (__ARM_ARCH_8M_MAIN__ ) && (__ARM_ARCH_8M_MAIN__ == 1)) || \
 825:../../Drivers/CMSIS/Include/cmsis_gcc.h ****            (defined (__ARM_ARCH_8M_BASE__ ) && (__ARM_ARCH_8M_BASE__ == 1))    ) */
 826:../../Drivers/CMSIS/Include/cmsis_gcc.h **** 
 827:../../Drivers/CMSIS/Include/cmsis_gcc.h **** 
 828:../../Drivers/CMSIS/Include/cmsis_gcc.h **** /**
 829:../../Drivers/CMSIS/Include/cmsis_gcc.h ****   \brief   Get FPSCR
 830:../../Drivers/CMSIS/Include/cmsis_gcc.h ****   \details Returns the current value of the Floating Point Status/Control register.
 831:../../Drivers/CMSIS/Include/cmsis_gcc.h ****   \return               Floating Point Status/Control register value
 832:../../Drivers/CMSIS/Include/cmsis_gcc.h ****  */
 833:../../Drivers/CMSIS/Include/cmsis_gcc.h **** __STATIC_FORCEINLINE uint32_t __get_FPSCR(void)
 834:../../Drivers/CMSIS/Include/cmsis_gcc.h **** {
 835:../../Drivers/CMSIS/Include/cmsis_gcc.h **** #if ((defined (__FPU_PRESENT) && (__FPU_PRESENT == 1U)) && \
 836:../../Drivers/CMSIS/Include/cmsis_gcc.h ****      (defined (__FPU_USED   ) && (__FPU_USED    == 1U))     )
 837:../../Drivers/CMSIS/Include/cmsis_gcc.h **** #if __has_builtin(__builtin_arm_get_fpscr) 
 838:../../Drivers/CMSIS/Include/cmsis_gcc.h **** // Re-enable using built-in when GCC has been fixed
 839:../../Drivers/CMSIS/Include/cmsis_gcc.h **** // || (__GNUC__ > 7) || (__GNUC__ == 7 && __GNUC_MINOR__ >= 2)
 840:../../Drivers/CMSIS/Include/cmsis_gcc.h ****   /* see https://gcc.gnu.org/ml/gcc-patches/2017-04/msg00443.html */
 841:../../Drivers/CMSIS/Include/cmsis_gcc.h ****   return __builtin_arm_get_fpscr();
 842:../../Drivers/CMSIS/Include/cmsis_gcc.h **** #else
 843:../../Drivers/CMSIS/Include/cmsis_gcc.h ****   uint32_t result;
 844:../../Drivers/CMSIS/Include/cmsis_gcc.h **** 
 845:../../Drivers/CMSIS/Include/cmsis_gcc.h ****   __ASM volatile ("VMRS %0, fpscr" : "=r" (result) );
 846:../../Drivers/CMSIS/Include/cmsis_gcc.h ****   return(result);
 847:../../Drivers/CMSIS/Include/cmsis_gcc.h **** #endif
 848:../../Drivers/CMSIS/Include/cmsis_gcc.h **** #else
 849:../../Drivers/CMSIS/Include/cmsis_gcc.h ****   return(0U);
 850:../../Drivers/CMSIS/Include/cmsis_gcc.h **** #endif
 851:../../Drivers/CMSIS/Include/cmsis_gcc.h **** }
 852:../../Drivers/CMSIS/Include/cmsis_gcc.h **** 
 853:../../Drivers/CMSIS/Include/cmsis_gcc.h **** 
 854:../../Drivers/CMSIS/Include/cmsis_gcc.h **** /**
 855:../../Drivers/CMSIS/Include/cmsis_gcc.h ****   \brief   Set FPSCR
 856:../../Drivers/CMSIS/Include/cmsis_gcc.h ****   \details Assigns the given value to the Floating Point Status/Control register.
ARM GAS  C:\Users\minis\AppData\Local\Temp\ccKk4sUj.s 			page 49


 857:../../Drivers/CMSIS/Include/cmsis_gcc.h ****   \param [in]    fpscr  Floating Point Status/Control value to set
 858:../../Drivers/CMSIS/Include/cmsis_gcc.h ****  */
 859:../../Drivers/CMSIS/Include/cmsis_gcc.h **** __STATIC_FORCEINLINE void __set_FPSCR(uint32_t fpscr)
 860:../../Drivers/CMSIS/Include/cmsis_gcc.h **** {
 861:../../Drivers/CMSIS/Include/cmsis_gcc.h **** #if ((defined (__FPU_PRESENT) && (__FPU_PRESENT == 1U)) && \
 862:../../Drivers/CMSIS/Include/cmsis_gcc.h ****      (defined (__FPU_USED   ) && (__FPU_USED    == 1U))     )
 863:../../Drivers/CMSIS/Include/cmsis_gcc.h **** #if __has_builtin(__builtin_arm_set_fpscr)
 864:../../Drivers/CMSIS/Include/cmsis_gcc.h **** // Re-enable using built-in when GCC has been fixed
 865:../../Drivers/CMSIS/Include/cmsis_gcc.h **** // || (__GNUC__ > 7) || (__GNUC__ == 7 && __GNUC_MINOR__ >= 2)
 866:../../Drivers/CMSIS/Include/cmsis_gcc.h ****   /* see https://gcc.gnu.org/ml/gcc-patches/2017-04/msg00443.html */
 867:../../Drivers/CMSIS/Include/cmsis_gcc.h ****   __builtin_arm_set_fpscr(fpscr);
 868:../../Drivers/CMSIS/Include/cmsis_gcc.h **** #else
 869:../../Drivers/CMSIS/Include/cmsis_gcc.h ****   __ASM volatile ("VMSR fpscr, %0" : : "r" (fpscr) : "vfpcc", "memory");
 870:../../Drivers/CMSIS/Include/cmsis_gcc.h **** #endif
 871:../../Drivers/CMSIS/Include/cmsis_gcc.h **** #else
 872:../../Drivers/CMSIS/Include/cmsis_gcc.h ****   (void)fpscr;
 873:../../Drivers/CMSIS/Include/cmsis_gcc.h **** #endif
 874:../../Drivers/CMSIS/Include/cmsis_gcc.h **** }
 875:../../Drivers/CMSIS/Include/cmsis_gcc.h **** 
 876:../../Drivers/CMSIS/Include/cmsis_gcc.h **** 
 877:../../Drivers/CMSIS/Include/cmsis_gcc.h **** /*@} end of CMSIS_Core_RegAccFunctions */
 878:../../Drivers/CMSIS/Include/cmsis_gcc.h **** 
 879:../../Drivers/CMSIS/Include/cmsis_gcc.h **** 
 880:../../Drivers/CMSIS/Include/cmsis_gcc.h **** /* ##########################  Core Instruction Access  ######################### */
 881:../../Drivers/CMSIS/Include/cmsis_gcc.h **** /** \defgroup CMSIS_Core_InstructionInterface CMSIS Core Instruction Interface
 882:../../Drivers/CMSIS/Include/cmsis_gcc.h ****   Access to dedicated instructions
 883:../../Drivers/CMSIS/Include/cmsis_gcc.h ****   @{
 884:../../Drivers/CMSIS/Include/cmsis_gcc.h **** */
 885:../../Drivers/CMSIS/Include/cmsis_gcc.h **** 
 886:../../Drivers/CMSIS/Include/cmsis_gcc.h **** /* Define macros for porting to both thumb1 and thumb2.
 887:../../Drivers/CMSIS/Include/cmsis_gcc.h ****  * For thumb1, use low register (r0-r7), specified by constraint "l"
 888:../../Drivers/CMSIS/Include/cmsis_gcc.h ****  * Otherwise, use general registers, specified by constraint "r" */
 889:../../Drivers/CMSIS/Include/cmsis_gcc.h **** #if defined (__thumb__) && !defined (__thumb2__)
 890:../../Drivers/CMSIS/Include/cmsis_gcc.h **** #define __CMSIS_GCC_OUT_REG(r) "=l" (r)
 891:../../Drivers/CMSIS/Include/cmsis_gcc.h **** #define __CMSIS_GCC_RW_REG(r) "+l" (r)
 892:../../Drivers/CMSIS/Include/cmsis_gcc.h **** #define __CMSIS_GCC_USE_REG(r) "l" (r)
 893:../../Drivers/CMSIS/Include/cmsis_gcc.h **** #else
 894:../../Drivers/CMSIS/Include/cmsis_gcc.h **** #define __CMSIS_GCC_OUT_REG(r) "=r" (r)
 895:../../Drivers/CMSIS/Include/cmsis_gcc.h **** #define __CMSIS_GCC_RW_REG(r) "+r" (r)
 896:../../Drivers/CMSIS/Include/cmsis_gcc.h **** #define __CMSIS_GCC_USE_REG(r) "r" (r)
 897:../../Drivers/CMSIS/Include/cmsis_gcc.h **** #endif
 898:../../Drivers/CMSIS/Include/cmsis_gcc.h **** 
 899:../../Drivers/CMSIS/Include/cmsis_gcc.h **** /**
 900:../../Drivers/CMSIS/Include/cmsis_gcc.h ****   \brief   No Operation
 901:../../Drivers/CMSIS/Include/cmsis_gcc.h ****   \details No Operation does nothing. This instruction can be used for code alignment purposes.
 902:../../Drivers/CMSIS/Include/cmsis_gcc.h ****  */
 903:../../Drivers/CMSIS/Include/cmsis_gcc.h **** #define __NOP()                             __ASM volatile ("nop")
 904:../../Drivers/CMSIS/Include/cmsis_gcc.h **** 
 905:../../Drivers/CMSIS/Include/cmsis_gcc.h **** /**
 906:../../Drivers/CMSIS/Include/cmsis_gcc.h ****   \brief   Wait For Interrupt
 907:../../Drivers/CMSIS/Include/cmsis_gcc.h ****   \details Wait For Interrupt is a hint instruction that suspends execution until one of a number o
 908:../../Drivers/CMSIS/Include/cmsis_gcc.h ****  */
 909:../../Drivers/CMSIS/Include/cmsis_gcc.h **** #define __WFI()                             __ASM volatile ("wfi")
 910:../../Drivers/CMSIS/Include/cmsis_gcc.h **** 
 911:../../Drivers/CMSIS/Include/cmsis_gcc.h **** 
 912:../../Drivers/CMSIS/Include/cmsis_gcc.h **** /**
 913:../../Drivers/CMSIS/Include/cmsis_gcc.h ****   \brief   Wait For Event
ARM GAS  C:\Users\minis\AppData\Local\Temp\ccKk4sUj.s 			page 50


 914:../../Drivers/CMSIS/Include/cmsis_gcc.h ****   \details Wait For Event is a hint instruction that permits the processor to enter
 915:../../Drivers/CMSIS/Include/cmsis_gcc.h ****            a low-power state until one of a number of events occurs.
 916:../../Drivers/CMSIS/Include/cmsis_gcc.h ****  */
 917:../../Drivers/CMSIS/Include/cmsis_gcc.h **** #define __WFE()                             __ASM volatile ("wfe")
 918:../../Drivers/CMSIS/Include/cmsis_gcc.h **** 
 919:../../Drivers/CMSIS/Include/cmsis_gcc.h **** 
 920:../../Drivers/CMSIS/Include/cmsis_gcc.h **** /**
 921:../../Drivers/CMSIS/Include/cmsis_gcc.h ****   \brief   Send Event
 922:../../Drivers/CMSIS/Include/cmsis_gcc.h ****   \details Send Event is a hint instruction. It causes an event to be signaled to the CPU.
 923:../../Drivers/CMSIS/Include/cmsis_gcc.h ****  */
 924:../../Drivers/CMSIS/Include/cmsis_gcc.h **** #define __SEV()                             __ASM volatile ("sev")
 925:../../Drivers/CMSIS/Include/cmsis_gcc.h **** 
 926:../../Drivers/CMSIS/Include/cmsis_gcc.h **** 
 927:../../Drivers/CMSIS/Include/cmsis_gcc.h **** /**
 928:../../Drivers/CMSIS/Include/cmsis_gcc.h ****   \brief   Instruction Synchronization Barrier
 929:../../Drivers/CMSIS/Include/cmsis_gcc.h ****   \details Instruction Synchronization Barrier flushes the pipeline in the processor,
 930:../../Drivers/CMSIS/Include/cmsis_gcc.h ****            so that all instructions following the ISB are fetched from cache or memory,
 931:../../Drivers/CMSIS/Include/cmsis_gcc.h ****            after the instruction has been completed.
 932:../../Drivers/CMSIS/Include/cmsis_gcc.h ****  */
 933:../../Drivers/CMSIS/Include/cmsis_gcc.h **** __STATIC_FORCEINLINE void __ISB(void)
 934:../../Drivers/CMSIS/Include/cmsis_gcc.h **** {
 935:../../Drivers/CMSIS/Include/cmsis_gcc.h ****   __ASM volatile ("isb 0xF":::"memory");
 936:../../Drivers/CMSIS/Include/cmsis_gcc.h **** }
 937:../../Drivers/CMSIS/Include/cmsis_gcc.h **** 
 938:../../Drivers/CMSIS/Include/cmsis_gcc.h **** 
 939:../../Drivers/CMSIS/Include/cmsis_gcc.h **** /**
 940:../../Drivers/CMSIS/Include/cmsis_gcc.h ****   \brief   Data Synchronization Barrier
 941:../../Drivers/CMSIS/Include/cmsis_gcc.h ****   \details Acts as a special kind of Data Memory Barrier.
 942:../../Drivers/CMSIS/Include/cmsis_gcc.h ****            It completes when all explicit memory accesses before this instruction complete.
 943:../../Drivers/CMSIS/Include/cmsis_gcc.h ****  */
 944:../../Drivers/CMSIS/Include/cmsis_gcc.h **** __STATIC_FORCEINLINE void __DSB(void)
 945:../../Drivers/CMSIS/Include/cmsis_gcc.h **** {
 946:../../Drivers/CMSIS/Include/cmsis_gcc.h ****   __ASM volatile ("dsb 0xF":::"memory");
 947:../../Drivers/CMSIS/Include/cmsis_gcc.h **** }
 948:../../Drivers/CMSIS/Include/cmsis_gcc.h **** 
 949:../../Drivers/CMSIS/Include/cmsis_gcc.h **** 
 950:../../Drivers/CMSIS/Include/cmsis_gcc.h **** /**
 951:../../Drivers/CMSIS/Include/cmsis_gcc.h ****   \brief   Data Memory Barrier
 952:../../Drivers/CMSIS/Include/cmsis_gcc.h ****   \details Ensures the apparent order of the explicit memory operations before
 953:../../Drivers/CMSIS/Include/cmsis_gcc.h ****            and after the instruction, without ensuring their completion.
 954:../../Drivers/CMSIS/Include/cmsis_gcc.h ****  */
 955:../../Drivers/CMSIS/Include/cmsis_gcc.h **** __STATIC_FORCEINLINE void __DMB(void)
 853              		.loc 2 955 27 view .LVU215
 854              	.LBB7:
 956:../../Drivers/CMSIS/Include/cmsis_gcc.h **** {
 957:../../Drivers/CMSIS/Include/cmsis_gcc.h ****   __ASM volatile ("dmb 0xF":::"memory");
 855              		.loc 2 957 3 view .LVU216
 856              		.syntax unified
 857              	@ 957 "../../Drivers/CMSIS/Include/cmsis_gcc.h" 1
 858 0002 BFF35F8F 		dmb 0xF
 859              	@ 0 "" 2
 860              		.thumb
 861              		.syntax unified
 862              	.LBE7:
 863              	.LBE6:
 169:../../CM7/LWIP/Target/ethernetif.c **** 
 864              		.loc 1 169 5 view .LVU217
ARM GAS  C:\Users\minis\AppData\Local\Temp\ccKk4sUj.s 			page 51


 865              	.LBB8:
 866              	.LBI8:
 944:../../Drivers/CMSIS/Include/cmsis_gcc.h **** {
 867              		.loc 2 944 27 view .LVU218
 868              	.LBB9:
 946:../../Drivers/CMSIS/Include/cmsis_gcc.h **** }
 869              		.loc 2 946 3 view .LVU219
 870              		.syntax unified
 871              	@ 946 "../../Drivers/CMSIS/Include/cmsis_gcc.h" 1
 872 0006 BFF34F8F 		dsb 0xF
 873              	@ 0 "" 2
 874              		.thumb
 875              		.syntax unified
 876              	.LBE9:
 877              	.LBE8:
 172:../../CM7/LWIP/Target/ethernetif.c **** }
 878              		.loc 1 172 5 view .LVU220
 172:../../CM7/LWIP/Target/ethernetif.c **** }
 879              		.loc 1 172 12 is_stmt 0 view .LVU221
 880 000a FFF7FEFF 		bl	HAL_ETH_Transmit_IT
 881              	.LVL81:
 173:../../CM7/LWIP/Target/ethernetif.c **** /* USER CODE END 3 */
 882              		.loc 1 173 1 view .LVU222
 883 000e 08BD     		pop	{r3, pc}
 884              		.cfi_endproc
 885              	.LFE174:
 887              		.section	.text.low_level_output,"ax",%progbits
 888              		.align	1
 889              		.syntax unified
 890              		.thumb
 891              		.thumb_func
 893              	low_level_output:
 894              	.LVL82:
 895              	.LFB179:
 426:../../CM7/LWIP/Target/ethernetif.c ****   uint32_t i = 0U;
 896              		.loc 1 426 1 is_stmt 1 view -0
 897              		.cfi_startproc
 898              		@ args = 0, pretend = 0, frame = 48
 899              		@ frame_needed = 0, uses_anonymous_args = 0
 426:../../CM7/LWIP/Target/ethernetif.c ****   uint32_t i = 0U;
 900              		.loc 1 426 1 is_stmt 0 view .LVU224
 901 0000 70B5     		push	{r4, r5, r6, lr}
 902              	.LCFI14:
 903              		.cfi_def_cfa_offset 16
 904              		.cfi_offset 4, -16
 905              		.cfi_offset 5, -12
 906              		.cfi_offset 6, -8
 907              		.cfi_offset 14, -4
 908 0002 8CB0     		sub	sp, sp, #48
 909              	.LCFI15:
 910              		.cfi_def_cfa_offset 64
 911 0004 0C46     		mov	r4, r1
 427:../../CM7/LWIP/Target/ethernetif.c ****   struct pbuf *q = NULL;
 912              		.loc 1 427 3 is_stmt 1 view .LVU225
 913              	.LVL83:
 428:../../CM7/LWIP/Target/ethernetif.c ****   err_t errval = ERR_OK;
 914              		.loc 1 428 3 view .LVU226
ARM GAS  C:\Users\minis\AppData\Local\Temp\ccKk4sUj.s 			page 52


 429:../../CM7/LWIP/Target/ethernetif.c ****   ETH_BufferTypeDef Txbuffer[ETH_TX_DESC_CNT] = {0};
 915              		.loc 1 429 3 view .LVU227
 430:../../CM7/LWIP/Target/ethernetif.c **** 
 916              		.loc 1 430 3 view .LVU228
 430:../../CM7/LWIP/Target/ethernetif.c **** 
 917              		.loc 1 430 21 is_stmt 0 view .LVU229
 918 0006 3026     		movs	r6, #48
 919 0008 3246     		mov	r2, r6
 920 000a 0021     		movs	r1, #0
 921              	.LVL84:
 430:../../CM7/LWIP/Target/ethernetif.c **** 
 922              		.loc 1 430 21 view .LVU230
 923 000c 6846     		mov	r0, sp
 924              	.LVL85:
 430:../../CM7/LWIP/Target/ethernetif.c **** 
 925              		.loc 1 430 21 view .LVU231
 926 000e FFF7FEFF 		bl	memset
 927              	.LVL86:
 432:../../CM7/LWIP/Target/ethernetif.c **** 
 928              		.loc 1 432 3 is_stmt 1 view .LVU232
 929 0012 3246     		mov	r2, r6
 930 0014 0021     		movs	r1, #0
 931 0016 6846     		mov	r0, sp
 932 0018 FFF7FEFF 		bl	memset
 933              	.LVL87:
 434:../../CM7/LWIP/Target/ethernetif.c ****   {
 934              		.loc 1 434 3 view .LVU233
 434:../../CM7/LWIP/Target/ethernetif.c ****   {
 935              		.loc 1 434 9 is_stmt 0 view .LVU234
 936 001c 2246     		mov	r2, r4
 427:../../CM7/LWIP/Target/ethernetif.c ****   struct pbuf *q = NULL;
 937              		.loc 1 427 12 view .LVU235
 938 001e 0023     		movs	r3, #0
 434:../../CM7/LWIP/Target/ethernetif.c ****   {
 939              		.loc 1 434 3 view .LVU236
 940 0020 03E0     		b	.L64
 941              	.LVL88:
 942              	.L66:
 447:../../CM7/LWIP/Target/ethernetif.c ****     {
 943              		.loc 1 447 5 is_stmt 1 view .LVU237
 447:../../CM7/LWIP/Target/ethernetif.c ****     {
 944              		.loc 1 447 9 is_stmt 0 view .LVU238
 945 0022 1168     		ldr	r1, [r2]
 447:../../CM7/LWIP/Target/ethernetif.c ****     {
 946              		.loc 1 447 7 view .LVU239
 947 0024 F9B1     		cbz	r1, .L75
 948              	.L67:
 452:../../CM7/LWIP/Target/ethernetif.c ****   }
 949              		.loc 1 452 5 is_stmt 1 view .LVU240
 452:../../CM7/LWIP/Target/ethernetif.c ****   }
 950              		.loc 1 452 6 is_stmt 0 view .LVU241
 951 0026 0133     		adds	r3, r3, #1
 952              	.LVL89:
 434:../../CM7/LWIP/Target/ethernetif.c ****   {
 953              		.loc 1 434 27 is_stmt 1 discriminator 2 view .LVU242
 954 0028 1268     		ldr	r2, [r2]
 955              	.LVL90:
ARM GAS  C:\Users\minis\AppData\Local\Temp\ccKk4sUj.s 			page 53


 956              	.L64:
 434:../../CM7/LWIP/Target/ethernetif.c ****   {
 957              		.loc 1 434 16 discriminator 1 view .LVU243
 958 002a 2AB3     		cbz	r2, .L76
 436:../../CM7/LWIP/Target/ethernetif.c ****       return ERR_IF;
 959              		.loc 1 436 5 view .LVU244
 436:../../CM7/LWIP/Target/ethernetif.c ****       return ERR_IF;
 960              		.loc 1 436 7 is_stmt 0 view .LVU245
 961 002c 032B     		cmp	r3, #3
 962 002e 4FD8     		bhi	.L72
 439:../../CM7/LWIP/Target/ethernetif.c ****     Txbuffer[i].len = q->len;
 963              		.loc 1 439 5 is_stmt 1 view .LVU246
 439:../../CM7/LWIP/Target/ethernetif.c ****     Txbuffer[i].len = q->len;
 964              		.loc 1 439 27 is_stmt 0 view .LVU247
 965 0030 5168     		ldr	r1, [r2, #4]
 439:../../CM7/LWIP/Target/ethernetif.c ****     Txbuffer[i].len = q->len;
 966              		.loc 1 439 24 view .LVU248
 967 0032 03EB430C 		add	ip, r3, r3, lsl #1
 968 0036 0CA8     		add	r0, sp, #48
 969 0038 00EB8C0C 		add	ip, r0, ip, lsl #2
 970 003c 4CF8301C 		str	r1, [ip, #-48]
 440:../../CM7/LWIP/Target/ethernetif.c **** 
 971              		.loc 1 440 5 is_stmt 1 view .LVU249
 440:../../CM7/LWIP/Target/ethernetif.c **** 
 972              		.loc 1 440 24 is_stmt 0 view .LVU250
 973 0040 5189     		ldrh	r1, [r2, #10]
 440:../../CM7/LWIP/Target/ethernetif.c **** 
 974              		.loc 1 440 21 view .LVU251
 975 0042 4CF82C1C 		str	r1, [ip, #-44]
 442:../../CM7/LWIP/Target/ethernetif.c ****     {
 976              		.loc 1 442 5 is_stmt 1 view .LVU252
 442:../../CM7/LWIP/Target/ethernetif.c ****     {
 977              		.loc 1 442 7 is_stmt 0 view .LVU253
 978 0046 002B     		cmp	r3, #0
 979 0048 EBD0     		beq	.L66
 444:../../CM7/LWIP/Target/ethernetif.c ****     }
 980              		.loc 1 444 7 is_stmt 1 view .LVU254
 444:../../CM7/LWIP/Target/ethernetif.c ****     }
 981              		.loc 1 444 17 is_stmt 0 view .LVU255
 982 004a 03F1FF3C 		add	ip, r3, #-1
 444:../../CM7/LWIP/Target/ethernetif.c ****     }
 983              		.loc 1 444 28 view .LVU256
 984 004e 03EB4300 		add	r0, r3, r3, lsl #1
 985 0052 0DEB8001 		add	r1, sp, r0, lsl #2
 444:../../CM7/LWIP/Target/ethernetif.c ****     }
 986              		.loc 1 444 26 view .LVU257
 987 0056 0CEB4C0C 		add	ip, ip, ip, lsl #1
 988 005a 0CA8     		add	r0, sp, #48
 989 005c 00EB8C0C 		add	ip, r0, ip, lsl #2
 990 0060 4CF8281C 		str	r1, [ip, #-40]
 991 0064 DDE7     		b	.L66
 992              	.L75:
 449:../../CM7/LWIP/Target/ethernetif.c ****     }
 993              		.loc 1 449 7 is_stmt 1 view .LVU258
 449:../../CM7/LWIP/Target/ethernetif.c ****     }
 994              		.loc 1 449 24 is_stmt 0 view .LVU259
 995 0066 03EB4301 		add	r1, r3, r3, lsl #1
ARM GAS  C:\Users\minis\AppData\Local\Temp\ccKk4sUj.s 			page 54


 996 006a 0CA8     		add	r0, sp, #48
 997 006c 00EB8101 		add	r1, r0, r1, lsl #2
 998 0070 0020     		movs	r0, #0
 999 0072 41F8280C 		str	r0, [r1, #-40]
 1000 0076 D6E7     		b	.L67
 1001              	.L76:
 455:../../CM7/LWIP/Target/ethernetif.c ****   TxConfig.TxBuffer = Txbuffer;
 1002              		.loc 1 455 3 is_stmt 1 view .LVU260
 455:../../CM7/LWIP/Target/ethernetif.c ****   TxConfig.TxBuffer = Txbuffer;
 1003              		.loc 1 455 22 is_stmt 0 view .LVU261
 1004 0078 2289     		ldrh	r2, [r4, #8]
 1005              	.LVL91:
 455:../../CM7/LWIP/Target/ethernetif.c ****   TxConfig.TxBuffer = Txbuffer;
 1006              		.loc 1 455 19 view .LVU262
 1007 007a 174B     		ldr	r3, .L78
 1008              	.LVL92:
 455:../../CM7/LWIP/Target/ethernetif.c ****   TxConfig.TxBuffer = Txbuffer;
 1009              		.loc 1 455 19 view .LVU263
 1010 007c 5A60     		str	r2, [r3, #4]
 456:../../CM7/LWIP/Target/ethernetif.c ****   TxConfig.pData = p;
 1011              		.loc 1 456 3 is_stmt 1 view .LVU264
 456:../../CM7/LWIP/Target/ethernetif.c ****   TxConfig.pData = p;
 1012              		.loc 1 456 21 is_stmt 0 view .LVU265
 1013 007e C3F808D0 		str	sp, [r3, #8]
 457:../../CM7/LWIP/Target/ethernetif.c **** 
 1014              		.loc 1 457 3 is_stmt 1 view .LVU266
 457:../../CM7/LWIP/Target/ethernetif.c **** 
 1015              		.loc 1 457 18 is_stmt 0 view .LVU267
 1016 0082 5C63     		str	r4, [r3, #52]
 459:../../CM7/LWIP/Target/ethernetif.c **** 
 1017              		.loc 1 459 3 is_stmt 1 view .LVU268
 1018 0084 2046     		mov	r0, r4
 1019 0086 FFF7FEFF 		bl	pbuf_ref
 1020              	.LVL93:
 1021 008a 13E0     		b	.L71
 1022              	.LVL94:
 1023              	.L77:
 470:../../CM7/LWIP/Target/ethernetif.c ****       {
 1024              		.loc 1 470 7 view .LVU269
 470:../../CM7/LWIP/Target/ethernetif.c ****       {
 1025              		.loc 1 470 10 is_stmt 0 view .LVU270
 1026 008c 1348     		ldr	r0, .L78+4
 1027 008e FFF7FEFF 		bl	HAL_ETH_GetError
 1028              	.LVL95:
 470:../../CM7/LWIP/Target/ethernetif.c ****       {
 1029              		.loc 1 470 9 discriminator 1 view .LVU271
 1030 0092 10F0020F 		tst	r0, #2
 1031 0096 15D0     		beq	.L70
 473:../../CM7/LWIP/Target/ethernetif.c ****         HAL_ETH_ReleaseTxPacket(&heth);
 1032              		.loc 1 473 9 is_stmt 1 view .LVU272
 1033 0098 4FF4FA61 		mov	r1, #2000
 1034 009c 104B     		ldr	r3, .L78+8
 1035 009e 1868     		ldr	r0, [r3]
 1036 00a0 FFF7FEFF 		bl	osSemaphoreAcquire
 1037              	.LVL96:
 474:../../CM7/LWIP/Target/ethernetif.c ****         errval = ERR_BUF;
 1038              		.loc 1 474 9 view .LVU273
ARM GAS  C:\Users\minis\AppData\Local\Temp\ccKk4sUj.s 			page 55


 1039 00a4 0D48     		ldr	r0, .L78+4
 1040 00a6 FFF7FEFF 		bl	HAL_ETH_ReleaseTxPacket
 1041              	.LVL97:
 475:../../CM7/LWIP/Target/ethernetif.c ****       }
 1042              		.loc 1 475 9 view .LVU274
 475:../../CM7/LWIP/Target/ethernetif.c ****       }
 1043              		.loc 1 475 16 is_stmt 0 view .LVU275
 1044 00aa 6FF00100 		mvn	r0, #1
 1045              	.LVL98:
 1046              	.L69:
 484:../../CM7/LWIP/Target/ethernetif.c **** 
 1047              		.loc 1 484 17 is_stmt 1 view .LVU276
 1048 00ae 10F1020F 		cmn	r0, #2
 1049 00b2 0FD1     		bne	.L65
 1050              	.LVL99:
 1051              	.L71:
 461:../../CM7/LWIP/Target/ethernetif.c ****   {
 1052              		.loc 1 461 3 view .LVU277
 463:../../CM7/LWIP/Target/ethernetif.c ****     {
 1053              		.loc 1 463 7 view .LVU278
 463:../../CM7/LWIP/Target/ethernetif.c ****     {
 1054              		.loc 1 463 10 is_stmt 0 view .LVU279
 1055 00b4 0849     		ldr	r1, .L78
 1056 00b6 0948     		ldr	r0, .L78+4
 1057 00b8 FFF7FEFF 		bl	HAL_ETH_Transmit_IT_Safe
 1058              	.LVL100:
 463:../../CM7/LWIP/Target/ethernetif.c ****     {
 1059              		.loc 1 463 9 discriminator 1 view .LVU280
 1060 00bc 0028     		cmp	r0, #0
 1061 00be E5D1     		bne	.L77
 465:../../CM7/LWIP/Target/ethernetif.c ****     }
 1062              		.loc 1 465 14 view .LVU281
 1063 00c0 0020     		movs	r0, #0
 1064 00c2 F4E7     		b	.L69
 1065              	.L70:
 480:../../CM7/LWIP/Target/ethernetif.c ****         errval =  ERR_IF;
 1066              		.loc 1 480 9 is_stmt 1 view .LVU282
 1067 00c4 2046     		mov	r0, r4
 1068 00c6 FFF7FEFF 		bl	pbuf_free
 1069              	.LVL101:
 481:../../CM7/LWIP/Target/ethernetif.c ****       }
 1070              		.loc 1 481 9 view .LVU283
 481:../../CM7/LWIP/Target/ethernetif.c ****       }
 1071              		.loc 1 481 16 is_stmt 0 view .LVU284
 1072 00ca 6FF00B00 		mvn	r0, #11
 1073 00ce EEE7     		b	.L69
 1074              	.LVL102:
 1075              	.L72:
 437:../../CM7/LWIP/Target/ethernetif.c **** 
 1076              		.loc 1 437 14 view .LVU285
 1077 00d0 6FF00B00 		mvn	r0, #11
 1078              	.LVL103:
 1079              	.L65:
 487:../../CM7/LWIP/Target/ethernetif.c **** 
 1080              		.loc 1 487 1 view .LVU286
 1081 00d4 0CB0     		add	sp, sp, #48
 1082              	.LCFI16:
ARM GAS  C:\Users\minis\AppData\Local\Temp\ccKk4sUj.s 			page 56


 1083              		.cfi_def_cfa_offset 16
 1084              		@ sp needed
 1085 00d6 70BD     		pop	{r4, r5, r6, pc}
 1086              	.LVL104:
 1087              	.L79:
 487:../../CM7/LWIP/Target/ethernetif.c **** 
 1088              		.loc 1 487 1 view .LVU287
 1089              		.align	2
 1090              	.L78:
 1091 00d8 00000000 		.word	TxConfig
 1092 00dc 00000000 		.word	heth
 1093 00e0 00000000 		.word	TxPktSemaphore
 1094              		.cfi_endproc
 1095              	.LFE179:
 1097              		.section	.text.HAL_ETH_RxCpltCallback,"ax",%progbits
 1098              		.align	1
 1099              		.global	HAL_ETH_RxCpltCallback
 1100              		.syntax unified
 1101              		.thumb
 1102              		.thumb_func
 1104              	HAL_ETH_RxCpltCallback:
 1105              	.LVL105:
 1106              	.LFB175:
 186:../../CM7/LWIP/Target/ethernetif.c ****   osSemaphoreRelease(RxPktSemaphore);
 1107              		.loc 1 186 1 is_stmt 1 view -0
 1108              		.cfi_startproc
 1109              		@ args = 0, pretend = 0, frame = 0
 1110              		@ frame_needed = 0, uses_anonymous_args = 0
 186:../../CM7/LWIP/Target/ethernetif.c ****   osSemaphoreRelease(RxPktSemaphore);
 1111              		.loc 1 186 1 is_stmt 0 view .LVU289
 1112 0000 08B5     		push	{r3, lr}
 1113              	.LCFI17:
 1114              		.cfi_def_cfa_offset 8
 1115              		.cfi_offset 3, -8
 1116              		.cfi_offset 14, -4
 187:../../CM7/LWIP/Target/ethernetif.c **** }
 1117              		.loc 1 187 3 is_stmt 1 view .LVU290
 1118 0002 024B     		ldr	r3, .L82
 1119 0004 1868     		ldr	r0, [r3]
 1120              	.LVL106:
 187:../../CM7/LWIP/Target/ethernetif.c **** }
 1121              		.loc 1 187 3 is_stmt 0 view .LVU291
 1122 0006 FFF7FEFF 		bl	osSemaphoreRelease
 1123              	.LVL107:
 188:../../CM7/LWIP/Target/ethernetif.c **** /**
 1124              		.loc 1 188 1 view .LVU292
 1125 000a 08BD     		pop	{r3, pc}
 1126              	.L83:
 1127              		.align	2
 1128              	.L82:
 1129 000c 00000000 		.word	RxPktSemaphore
 1130              		.cfi_endproc
 1131              	.LFE175:
 1133              		.section	.text.HAL_ETH_TxCpltCallback,"ax",%progbits
 1134              		.align	1
 1135              		.global	HAL_ETH_TxCpltCallback
 1136              		.syntax unified
ARM GAS  C:\Users\minis\AppData\Local\Temp\ccKk4sUj.s 			page 57


 1137              		.thumb
 1138              		.thumb_func
 1140              	HAL_ETH_TxCpltCallback:
 1141              	.LVL108:
 1142              	.LFB176:
 195:../../CM7/LWIP/Target/ethernetif.c ****   osSemaphoreRelease(TxPktSemaphore);
 1143              		.loc 1 195 1 is_stmt 1 view -0
 1144              		.cfi_startproc
 1145              		@ args = 0, pretend = 0, frame = 0
 1146              		@ frame_needed = 0, uses_anonymous_args = 0
 195:../../CM7/LWIP/Target/ethernetif.c ****   osSemaphoreRelease(TxPktSemaphore);
 1147              		.loc 1 195 1 is_stmt 0 view .LVU294
 1148 0000 08B5     		push	{r3, lr}
 1149              	.LCFI18:
 1150              		.cfi_def_cfa_offset 8
 1151              		.cfi_offset 3, -8
 1152              		.cfi_offset 14, -4
 196:../../CM7/LWIP/Target/ethernetif.c **** }
 1153              		.loc 1 196 3 is_stmt 1 view .LVU295
 1154 0002 024B     		ldr	r3, .L86
 1155 0004 1868     		ldr	r0, [r3]
 1156              	.LVL109:
 196:../../CM7/LWIP/Target/ethernetif.c **** }
 1157              		.loc 1 196 3 is_stmt 0 view .LVU296
 1158 0006 FFF7FEFF 		bl	osSemaphoreRelease
 1159              	.LVL110:
 197:../../CM7/LWIP/Target/ethernetif.c **** /**
 1160              		.loc 1 197 1 view .LVU297
 1161 000a 08BD     		pop	{r3, pc}
 1162              	.L87:
 1163              		.align	2
 1164              	.L86:
 1165 000c 00000000 		.word	TxPktSemaphore
 1166              		.cfi_endproc
 1167              	.LFE176:
 1169              		.section	.text.HAL_ETH_ErrorCallback,"ax",%progbits
 1170              		.align	1
 1171              		.global	HAL_ETH_ErrorCallback
 1172              		.syntax unified
 1173              		.thumb
 1174              		.thumb_func
 1176              	HAL_ETH_ErrorCallback:
 1177              	.LVL111:
 1178              	.LFB177:
 204:../../CM7/LWIP/Target/ethernetif.c ****   if((HAL_ETH_GetDMAError(handlerEth) & ETH_DMACSR_RBU) == ETH_DMACSR_RBU)
 1179              		.loc 1 204 1 is_stmt 1 view -0
 1180              		.cfi_startproc
 1181              		@ args = 0, pretend = 0, frame = 0
 1182              		@ frame_needed = 0, uses_anonymous_args = 0
 204:../../CM7/LWIP/Target/ethernetif.c ****   if((HAL_ETH_GetDMAError(handlerEth) & ETH_DMACSR_RBU) == ETH_DMACSR_RBU)
 1183              		.loc 1 204 1 is_stmt 0 view .LVU299
 1184 0000 08B5     		push	{r3, lr}
 1185              	.LCFI19:
 1186              		.cfi_def_cfa_offset 8
 1187              		.cfi_offset 3, -8
 1188              		.cfi_offset 14, -4
 205:../../CM7/LWIP/Target/ethernetif.c ****   {
ARM GAS  C:\Users\minis\AppData\Local\Temp\ccKk4sUj.s 			page 58


 1189              		.loc 1 205 3 is_stmt 1 view .LVU300
 205:../../CM7/LWIP/Target/ethernetif.c ****   {
 1190              		.loc 1 205 7 is_stmt 0 view .LVU301
 1191 0002 FFF7FEFF 		bl	HAL_ETH_GetDMAError
 1192              	.LVL112:
 205:../../CM7/LWIP/Target/ethernetif.c ****   {
 1193              		.loc 1 205 5 discriminator 1 view .LVU302
 1194 0006 10F0800F 		tst	r0, #128
 1195 000a 00D1     		bne	.L91
 1196              	.L88:
 209:../../CM7/LWIP/Target/ethernetif.c **** 
 1197              		.loc 1 209 1 view .LVU303
 1198 000c 08BD     		pop	{r3, pc}
 1199              	.L91:
 207:../../CM7/LWIP/Target/ethernetif.c ****   }
 1200              		.loc 1 207 6 is_stmt 1 view .LVU304
 1201 000e 024B     		ldr	r3, .L92
 1202 0010 1868     		ldr	r0, [r3]
 1203 0012 FFF7FEFF 		bl	osSemaphoreRelease
 1204              	.LVL113:
 209:../../CM7/LWIP/Target/ethernetif.c **** 
 1205              		.loc 1 209 1 is_stmt 0 view .LVU305
 1206 0016 F9E7     		b	.L88
 1207              	.L93:
 1208              		.align	2
 1209              	.L92:
 1210 0018 00000000 		.word	RxPktSemaphore
 1211              		.cfi_endproc
 1212              	.LFE177:
 1214              		.section	.rodata.ethernetif_init.str1.4,"aMS",%progbits,1
 1215              		.align	2
 1216              	.LC1:
 1217 0000 2E2E2F2E 		.ascii	"../../CM7/LWIP/Target/ethernetif.c\000"
 1217      2E2F434D 
 1217      372F4C57 
 1217      49502F54 
 1217      61726765 
 1218 0023 00       		.align	2
 1219              	.LC2:
 1220 0024 6E657469 		.ascii	"netif != NULL\000"
 1220      6620213D 
 1220      204E554C 
 1220      4C00
 1221 0032 0000     		.align	2
 1222              	.LC3:
 1223 0034 41737365 		.ascii	"Assertion \"%s\" failed at line %d in %s\012\000"
 1223      7274696F 
 1223      6E202225 
 1223      73222066 
 1223      61696C65 
 1224              		.section	.text.ethernetif_init,"ax",%progbits
 1225              		.align	1
 1226              		.global	ethernetif_init
 1227              		.syntax unified
 1228              		.thumb
 1229              		.thumb_func
 1231              	ethernetif_init:
ARM GAS  C:\Users\minis\AppData\Local\Temp\ccKk4sUj.s 			page 59


 1232              	.LVL114:
 1233              	.LFB182:
 576:../../CM7/LWIP/Target/ethernetif.c ****   LWIP_ASSERT("netif != NULL", (netif != NULL));
 1234              		.loc 1 576 1 is_stmt 1 view -0
 1235              		.cfi_startproc
 1236              		@ args = 0, pretend = 0, frame = 0
 1237              		@ frame_needed = 0, uses_anonymous_args = 0
 576:../../CM7/LWIP/Target/ethernetif.c ****   LWIP_ASSERT("netif != NULL", (netif != NULL));
 1238              		.loc 1 576 1 is_stmt 0 view .LVU307
 1239 0000 10B5     		push	{r4, lr}
 1240              	.LCFI20:
 1241              		.cfi_def_cfa_offset 8
 1242              		.cfi_offset 4, -8
 1243              		.cfi_offset 14, -4
 577:../../CM7/LWIP/Target/ethernetif.c **** 
 1244              		.loc 1 577 3 is_stmt 1 view .LVU308
 577:../../CM7/LWIP/Target/ethernetif.c **** 
 1245              		.loc 1 577 3 view .LVU309
 1246 0002 0446     		mov	r4, r0
 1247 0004 70B1     		cbz	r0, .L97
 1248              	.LVL115:
 1249              	.L95:
 577:../../CM7/LWIP/Target/ethernetif.c **** 
 1250              		.loc 1 577 3 view .LVU310
 577:../../CM7/LWIP/Target/ethernetif.c **** 
 1251              		.loc 1 577 3 view .LVU311
 591:../../CM7/LWIP/Target/ethernetif.c ****   netif->name[1] = IFNAME1;
 1252              		.loc 1 591 3 view .LVU312
 591:../../CM7/LWIP/Target/ethernetif.c ****   netif->name[1] = IFNAME1;
 1253              		.loc 1 591 18 is_stmt 0 view .LVU313
 1254 0006 7323     		movs	r3, #115
 1255 0008 84F82E30 		strb	r3, [r4, #46]
 592:../../CM7/LWIP/Target/ethernetif.c ****   /* We directly use etharp_output() here to save a function call.
 1256              		.loc 1 592 3 is_stmt 1 view .LVU314
 592:../../CM7/LWIP/Target/ethernetif.c ****   /* We directly use etharp_output() here to save a function call.
 1257              		.loc 1 592 18 is_stmt 0 view .LVU315
 1258 000c 7423     		movs	r3, #116
 1259 000e 84F82F30 		strb	r3, [r4, #47]
 601:../../CM7/LWIP/Target/ethernetif.c **** #else
 1260              		.loc 1 601 3 is_stmt 1 view .LVU316
 601:../../CM7/LWIP/Target/ethernetif.c **** #else
 1261              		.loc 1 601 17 is_stmt 0 view .LVU317
 1262 0012 084B     		ldr	r3, .L98
 1263 0014 6361     		str	r3, [r4, #20]
 613:../../CM7/LWIP/Target/ethernetif.c **** 
 1264              		.loc 1 613 3 is_stmt 1 view .LVU318
 613:../../CM7/LWIP/Target/ethernetif.c **** 
 1265              		.loc 1 613 21 is_stmt 0 view .LVU319
 1266 0016 084B     		ldr	r3, .L98+4
 1267 0018 A361     		str	r3, [r4, #24]
 616:../../CM7/LWIP/Target/ethernetif.c **** 
 1268              		.loc 1 616 3 is_stmt 1 view .LVU320
 1269 001a 2046     		mov	r0, r4
 1270 001c FFF7FEFF 		bl	low_level_init
 1271              	.LVL116:
 618:../../CM7/LWIP/Target/ethernetif.c **** }
 1272              		.loc 1 618 3 view .LVU321
ARM GAS  C:\Users\minis\AppData\Local\Temp\ccKk4sUj.s 			page 60


 619:../../CM7/LWIP/Target/ethernetif.c **** 
 1273              		.loc 1 619 1 is_stmt 0 view .LVU322
 1274 0020 0020     		movs	r0, #0
 1275 0022 10BD     		pop	{r4, pc}
 1276              	.LVL117:
 1277              	.L97:
 577:../../CM7/LWIP/Target/ethernetif.c **** 
 1278              		.loc 1 577 3 is_stmt 1 discriminator 1 view .LVU323
 577:../../CM7/LWIP/Target/ethernetif.c **** 
 1279              		.loc 1 577 3 discriminator 1 view .LVU324
 1280 0024 054B     		ldr	r3, .L98+8
 1281 0026 40F24122 		movw	r2, #577
 1282 002a 0549     		ldr	r1, .L98+12
 1283 002c 0548     		ldr	r0, .L98+16
 1284              	.LVL118:
 577:../../CM7/LWIP/Target/ethernetif.c **** 
 1285              		.loc 1 577 3 is_stmt 0 discriminator 1 view .LVU325
 1286 002e FFF7FEFF 		bl	printf
 1287              	.LVL119:
 1288 0032 E8E7     		b	.L95
 1289              	.L99:
 1290              		.align	2
 1291              	.L98:
 1292 0034 00000000 		.word	etharp_output
 1293 0038 00000000 		.word	low_level_output
 1294 003c 00000000 		.word	.LC1
 1295 0040 24000000 		.word	.LC2
 1296 0044 34000000 		.word	.LC3
 1297              		.cfi_endproc
 1298              	.LFE182:
 1300              		.section	.text.sys_now,"ax",%progbits
 1301              		.align	1
 1302              		.global	sys_now
 1303              		.syntax unified
 1304              		.thumb
 1305              		.thumb_func
 1307              	sys_now:
 1308              	.LFB184:
 650:../../CM7/LWIP/Target/ethernetif.c ****   return HAL_GetTick();
 1309              		.loc 1 650 1 is_stmt 1 view -0
 1310              		.cfi_startproc
 1311              		@ args = 0, pretend = 0, frame = 0
 1312              		@ frame_needed = 0, uses_anonymous_args = 0
 1313 0000 08B5     		push	{r3, lr}
 1314              	.LCFI21:
 1315              		.cfi_def_cfa_offset 8
 1316              		.cfi_offset 3, -8
 1317              		.cfi_offset 14, -4
 651:../../CM7/LWIP/Target/ethernetif.c **** }
 1318              		.loc 1 651 3 view .LVU327
 651:../../CM7/LWIP/Target/ethernetif.c **** }
 1319              		.loc 1 651 10 is_stmt 0 view .LVU328
 1320 0002 FFF7FEFF 		bl	HAL_GetTick
 1321              	.LVL120:
 652:../../CM7/LWIP/Target/ethernetif.c **** 
 1322              		.loc 1 652 1 view .LVU329
 1323 0006 08BD     		pop	{r3, pc}
ARM GAS  C:\Users\minis\AppData\Local\Temp\ccKk4sUj.s 			page 61


 1324              		.cfi_endproc
 1325              	.LFE184:
 1327              		.section	.text.HAL_ETH_MspInit,"ax",%progbits
 1328              		.align	1
 1329              		.global	HAL_ETH_MspInit
 1330              		.syntax unified
 1331              		.thumb
 1332              		.thumb_func
 1334              	HAL_ETH_MspInit:
 1335              	.LVL121:
 1336              	.LFB185:
 663:../../CM7/LWIP/Target/ethernetif.c ****   GPIO_InitTypeDef GPIO_InitStruct = {0};
 1337              		.loc 1 663 1 is_stmt 1 view -0
 1338              		.cfi_startproc
 1339              		@ args = 0, pretend = 0, frame = 48
 1340              		@ frame_needed = 0, uses_anonymous_args = 0
 663:../../CM7/LWIP/Target/ethernetif.c ****   GPIO_InitTypeDef GPIO_InitStruct = {0};
 1341              		.loc 1 663 1 is_stmt 0 view .LVU331
 1342 0000 2DE9F041 		push	{r4, r5, r6, r7, r8, lr}
 1343              	.LCFI22:
 1344              		.cfi_def_cfa_offset 24
 1345              		.cfi_offset 4, -24
 1346              		.cfi_offset 5, -20
 1347              		.cfi_offset 6, -16
 1348              		.cfi_offset 7, -12
 1349              		.cfi_offset 8, -8
 1350              		.cfi_offset 14, -4
 1351 0004 8CB0     		sub	sp, sp, #48
 1352              	.LCFI23:
 1353              		.cfi_def_cfa_offset 72
 664:../../CM7/LWIP/Target/ethernetif.c ****   if(ethHandle->Instance==ETH)
 1354              		.loc 1 664 3 is_stmt 1 view .LVU332
 664:../../CM7/LWIP/Target/ethernetif.c ****   if(ethHandle->Instance==ETH)
 1355              		.loc 1 664 20 is_stmt 0 view .LVU333
 1356 0006 0023     		movs	r3, #0
 1357 0008 0793     		str	r3, [sp, #28]
 1358 000a 0893     		str	r3, [sp, #32]
 1359 000c 0993     		str	r3, [sp, #36]
 1360 000e 0A93     		str	r3, [sp, #40]
 1361 0010 0B93     		str	r3, [sp, #44]
 665:../../CM7/LWIP/Target/ethernetif.c ****   {
 1362              		.loc 1 665 3 is_stmt 1 view .LVU334
 665:../../CM7/LWIP/Target/ethernetif.c ****   {
 1363              		.loc 1 665 15 is_stmt 0 view .LVU335
 1364 0012 0268     		ldr	r2, [r0]
 665:../../CM7/LWIP/Target/ethernetif.c ****   {
 1365              		.loc 1 665 5 view .LVU336
 1366 0014 4B4B     		ldr	r3, .L106
 1367 0016 9A42     		cmp	r2, r3
 1368 0018 02D0     		beq	.L105
 1369              	.LVL122:
 1370              	.L102:
 725:../../CM7/LWIP/Target/ethernetif.c **** 
 1371              		.loc 1 725 1 view .LVU337
 1372 001a 0CB0     		add	sp, sp, #48
 1373              	.LCFI24:
 1374              		.cfi_remember_state
ARM GAS  C:\Users\minis\AppData\Local\Temp\ccKk4sUj.s 			page 62


 1375              		.cfi_def_cfa_offset 24
 1376              		@ sp needed
 1377 001c BDE8F081 		pop	{r4, r5, r6, r7, r8, pc}
 1378              	.LVL123:
 1379              	.L105:
 1380              	.LCFI25:
 1381              		.cfi_restore_state
 671:../../CM7/LWIP/Target/ethernetif.c ****     __HAL_RCC_ETH1TX_CLK_ENABLE();
 1382              		.loc 1 671 5 is_stmt 1 view .LVU338
 1383              	.LBB10:
 671:../../CM7/LWIP/Target/ethernetif.c ****     __HAL_RCC_ETH1TX_CLK_ENABLE();
 1384              		.loc 1 671 5 view .LVU339
 671:../../CM7/LWIP/Target/ethernetif.c ****     __HAL_RCC_ETH1TX_CLK_ENABLE();
 1385              		.loc 1 671 5 view .LVU340
 1386 0020 494B     		ldr	r3, .L106+4
 1387 0022 D3F8D820 		ldr	r2, [r3, #216]
 1388 0026 42F40042 		orr	r2, r2, #32768
 1389 002a C3F8D820 		str	r2, [r3, #216]
 671:../../CM7/LWIP/Target/ethernetif.c ****     __HAL_RCC_ETH1TX_CLK_ENABLE();
 1390              		.loc 1 671 5 view .LVU341
 1391 002e D3F8D820 		ldr	r2, [r3, #216]
 1392 0032 02F40042 		and	r2, r2, #32768
 1393 0036 0092     		str	r2, [sp]
 671:../../CM7/LWIP/Target/ethernetif.c ****     __HAL_RCC_ETH1TX_CLK_ENABLE();
 1394              		.loc 1 671 5 view .LVU342
 1395 0038 009A     		ldr	r2, [sp]
 1396              	.LBE10:
 671:../../CM7/LWIP/Target/ethernetif.c ****     __HAL_RCC_ETH1TX_CLK_ENABLE();
 1397              		.loc 1 671 5 view .LVU343
 672:../../CM7/LWIP/Target/ethernetif.c ****     __HAL_RCC_ETH1RX_CLK_ENABLE();
 1398              		.loc 1 672 5 view .LVU344
 1399              	.LBB11:
 672:../../CM7/LWIP/Target/ethernetif.c ****     __HAL_RCC_ETH1RX_CLK_ENABLE();
 1400              		.loc 1 672 5 view .LVU345
 672:../../CM7/LWIP/Target/ethernetif.c ****     __HAL_RCC_ETH1RX_CLK_ENABLE();
 1401              		.loc 1 672 5 view .LVU346
 1402 003a D3F8D820 		ldr	r2, [r3, #216]
 1403 003e 42F48032 		orr	r2, r2, #65536
 1404 0042 C3F8D820 		str	r2, [r3, #216]
 672:../../CM7/LWIP/Target/ethernetif.c ****     __HAL_RCC_ETH1RX_CLK_ENABLE();
 1405              		.loc 1 672 5 view .LVU347
 1406 0046 D3F8D820 		ldr	r2, [r3, #216]
 1407 004a 02F48032 		and	r2, r2, #65536
 1408 004e 0192     		str	r2, [sp, #4]
 672:../../CM7/LWIP/Target/ethernetif.c ****     __HAL_RCC_ETH1RX_CLK_ENABLE();
 1409              		.loc 1 672 5 view .LVU348
 1410 0050 019A     		ldr	r2, [sp, #4]
 1411              	.LBE11:
 672:../../CM7/LWIP/Target/ethernetif.c ****     __HAL_RCC_ETH1RX_CLK_ENABLE();
 1412              		.loc 1 672 5 view .LVU349
 673:../../CM7/LWIP/Target/ethernetif.c **** 
 1413              		.loc 1 673 5 view .LVU350
 1414              	.LBB12:
 673:../../CM7/LWIP/Target/ethernetif.c **** 
 1415              		.loc 1 673 5 view .LVU351
 673:../../CM7/LWIP/Target/ethernetif.c **** 
 1416              		.loc 1 673 5 view .LVU352
ARM GAS  C:\Users\minis\AppData\Local\Temp\ccKk4sUj.s 			page 63


 1417 0052 D3F8D820 		ldr	r2, [r3, #216]
 1418 0056 42F40032 		orr	r2, r2, #131072
 1419 005a C3F8D820 		str	r2, [r3, #216]
 673:../../CM7/LWIP/Target/ethernetif.c **** 
 1420              		.loc 1 673 5 view .LVU353
 1421 005e D3F8D820 		ldr	r2, [r3, #216]
 1422 0062 02F40032 		and	r2, r2, #131072
 1423 0066 0292     		str	r2, [sp, #8]
 673:../../CM7/LWIP/Target/ethernetif.c **** 
 1424              		.loc 1 673 5 view .LVU354
 1425 0068 029A     		ldr	r2, [sp, #8]
 1426              	.LBE12:
 673:../../CM7/LWIP/Target/ethernetif.c **** 
 1427              		.loc 1 673 5 view .LVU355
 675:../../CM7/LWIP/Target/ethernetif.c ****     __HAL_RCC_GPIOA_CLK_ENABLE();
 1428              		.loc 1 675 5 view .LVU356
 1429              	.LBB13:
 675:../../CM7/LWIP/Target/ethernetif.c ****     __HAL_RCC_GPIOA_CLK_ENABLE();
 1430              		.loc 1 675 5 view .LVU357
 675:../../CM7/LWIP/Target/ethernetif.c ****     __HAL_RCC_GPIOA_CLK_ENABLE();
 1431              		.loc 1 675 5 view .LVU358
 1432 006a D3F8E020 		ldr	r2, [r3, #224]
 1433 006e 42F00402 		orr	r2, r2, #4
 1434 0072 C3F8E020 		str	r2, [r3, #224]
 675:../../CM7/LWIP/Target/ethernetif.c ****     __HAL_RCC_GPIOA_CLK_ENABLE();
 1435              		.loc 1 675 5 view .LVU359
 1436 0076 D3F8E020 		ldr	r2, [r3, #224]
 1437 007a 02F00402 		and	r2, r2, #4
 1438 007e 0392     		str	r2, [sp, #12]
 675:../../CM7/LWIP/Target/ethernetif.c ****     __HAL_RCC_GPIOA_CLK_ENABLE();
 1439              		.loc 1 675 5 view .LVU360
 1440 0080 039A     		ldr	r2, [sp, #12]
 1441              	.LBE13:
 675:../../CM7/LWIP/Target/ethernetif.c ****     __HAL_RCC_GPIOA_CLK_ENABLE();
 1442              		.loc 1 675 5 view .LVU361
 676:../../CM7/LWIP/Target/ethernetif.c ****     __HAL_RCC_GPIOB_CLK_ENABLE();
 1443              		.loc 1 676 5 view .LVU362
 1444              	.LBB14:
 676:../../CM7/LWIP/Target/ethernetif.c ****     __HAL_RCC_GPIOB_CLK_ENABLE();
 1445              		.loc 1 676 5 view .LVU363
 676:../../CM7/LWIP/Target/ethernetif.c ****     __HAL_RCC_GPIOB_CLK_ENABLE();
 1446              		.loc 1 676 5 view .LVU364
 1447 0082 D3F8E020 		ldr	r2, [r3, #224]
 1448 0086 42F00102 		orr	r2, r2, #1
 1449 008a C3F8E020 		str	r2, [r3, #224]
 676:../../CM7/LWIP/Target/ethernetif.c ****     __HAL_RCC_GPIOB_CLK_ENABLE();
 1450              		.loc 1 676 5 view .LVU365
 1451 008e D3F8E020 		ldr	r2, [r3, #224]
 1452 0092 02F00102 		and	r2, r2, #1
 1453 0096 0492     		str	r2, [sp, #16]
 676:../../CM7/LWIP/Target/ethernetif.c ****     __HAL_RCC_GPIOB_CLK_ENABLE();
 1454              		.loc 1 676 5 view .LVU366
 1455 0098 049A     		ldr	r2, [sp, #16]
 1456              	.LBE14:
 676:../../CM7/LWIP/Target/ethernetif.c ****     __HAL_RCC_GPIOB_CLK_ENABLE();
 1457              		.loc 1 676 5 view .LVU367
 677:../../CM7/LWIP/Target/ethernetif.c ****     __HAL_RCC_GPIOG_CLK_ENABLE();
ARM GAS  C:\Users\minis\AppData\Local\Temp\ccKk4sUj.s 			page 64


 1458              		.loc 1 677 5 view .LVU368
 1459              	.LBB15:
 677:../../CM7/LWIP/Target/ethernetif.c ****     __HAL_RCC_GPIOG_CLK_ENABLE();
 1460              		.loc 1 677 5 view .LVU369
 677:../../CM7/LWIP/Target/ethernetif.c ****     __HAL_RCC_GPIOG_CLK_ENABLE();
 1461              		.loc 1 677 5 view .LVU370
 1462 009a D3F8E020 		ldr	r2, [r3, #224]
 1463 009e 42F00202 		orr	r2, r2, #2
 1464 00a2 C3F8E020 		str	r2, [r3, #224]
 677:../../CM7/LWIP/Target/ethernetif.c ****     __HAL_RCC_GPIOG_CLK_ENABLE();
 1465              		.loc 1 677 5 view .LVU371
 1466 00a6 D3F8E020 		ldr	r2, [r3, #224]
 1467 00aa 02F00202 		and	r2, r2, #2
 1468 00ae 0592     		str	r2, [sp, #20]
 677:../../CM7/LWIP/Target/ethernetif.c ****     __HAL_RCC_GPIOG_CLK_ENABLE();
 1469              		.loc 1 677 5 view .LVU372
 1470 00b0 059A     		ldr	r2, [sp, #20]
 1471              	.LBE15:
 677:../../CM7/LWIP/Target/ethernetif.c ****     __HAL_RCC_GPIOG_CLK_ENABLE();
 1472              		.loc 1 677 5 view .LVU373
 678:../../CM7/LWIP/Target/ethernetif.c ****     /**ETH GPIO Configuration
 1473              		.loc 1 678 5 view .LVU374
 1474              	.LBB16:
 678:../../CM7/LWIP/Target/ethernetif.c ****     /**ETH GPIO Configuration
 1475              		.loc 1 678 5 view .LVU375
 678:../../CM7/LWIP/Target/ethernetif.c ****     /**ETH GPIO Configuration
 1476              		.loc 1 678 5 view .LVU376
 1477 00b2 D3F8E020 		ldr	r2, [r3, #224]
 1478 00b6 42F04002 		orr	r2, r2, #64
 1479 00ba C3F8E020 		str	r2, [r3, #224]
 678:../../CM7/LWIP/Target/ethernetif.c ****     /**ETH GPIO Configuration
 1480              		.loc 1 678 5 view .LVU377
 1481 00be D3F8E030 		ldr	r3, [r3, #224]
 1482 00c2 03F04003 		and	r3, r3, #64
 1483 00c6 0693     		str	r3, [sp, #24]
 678:../../CM7/LWIP/Target/ethernetif.c ****     /**ETH GPIO Configuration
 1484              		.loc 1 678 5 view .LVU378
 1485 00c8 069B     		ldr	r3, [sp, #24]
 1486              	.LBE16:
 678:../../CM7/LWIP/Target/ethernetif.c ****     /**ETH GPIO Configuration
 1487              		.loc 1 678 5 view .LVU379
 690:../../CM7/LWIP/Target/ethernetif.c ****     GPIO_InitStruct.Mode = GPIO_MODE_AF_PP;
 1488              		.loc 1 690 5 view .LVU380
 690:../../CM7/LWIP/Target/ethernetif.c ****     GPIO_InitStruct.Mode = GPIO_MODE_AF_PP;
 1489              		.loc 1 690 25 is_stmt 0 view .LVU381
 1490 00ca 3223     		movs	r3, #50
 1491 00cc 0793     		str	r3, [sp, #28]
 691:../../CM7/LWIP/Target/ethernetif.c ****     GPIO_InitStruct.Pull = GPIO_NOPULL;
 1492              		.loc 1 691 5 is_stmt 1 view .LVU382
 691:../../CM7/LWIP/Target/ethernetif.c ****     GPIO_InitStruct.Pull = GPIO_NOPULL;
 1493              		.loc 1 691 26 is_stmt 0 view .LVU383
 1494 00ce 4FF00208 		mov	r8, #2
 1495 00d2 CDF82080 		str	r8, [sp, #32]
 692:../../CM7/LWIP/Target/ethernetif.c ****     GPIO_InitStruct.Speed = GPIO_SPEED_FREQ_VERY_HIGH;
 1496              		.loc 1 692 5 is_stmt 1 view .LVU384
 693:../../CM7/LWIP/Target/ethernetif.c ****     GPIO_InitStruct.Alternate = GPIO_AF11_ETH;
 1497              		.loc 1 693 5 view .LVU385
ARM GAS  C:\Users\minis\AppData\Local\Temp\ccKk4sUj.s 			page 65


 693:../../CM7/LWIP/Target/ethernetif.c ****     GPIO_InitStruct.Alternate = GPIO_AF11_ETH;
 1498              		.loc 1 693 27 is_stmt 0 view .LVU386
 1499 00d6 0327     		movs	r7, #3
 1500 00d8 0A97     		str	r7, [sp, #40]
 694:../../CM7/LWIP/Target/ethernetif.c ****     HAL_GPIO_Init(GPIOC, &GPIO_InitStruct);
 1501              		.loc 1 694 5 is_stmt 1 view .LVU387
 694:../../CM7/LWIP/Target/ethernetif.c ****     HAL_GPIO_Init(GPIOC, &GPIO_InitStruct);
 1502              		.loc 1 694 31 is_stmt 0 view .LVU388
 1503 00da 0B26     		movs	r6, #11
 1504 00dc 0B96     		str	r6, [sp, #44]
 695:../../CM7/LWIP/Target/ethernetif.c **** 
 1505              		.loc 1 695 5 is_stmt 1 view .LVU389
 1506 00de 07AD     		add	r5, sp, #28
 1507 00e0 2946     		mov	r1, r5
 1508 00e2 1A48     		ldr	r0, .L106+8
 1509              	.LVL124:
 695:../../CM7/LWIP/Target/ethernetif.c **** 
 1510              		.loc 1 695 5 is_stmt 0 view .LVU390
 1511 00e4 FFF7FEFF 		bl	HAL_GPIO_Init
 1512              	.LVL125:
 697:../../CM7/LWIP/Target/ethernetif.c ****     GPIO_InitStruct.Mode = GPIO_MODE_AF_PP;
 1513              		.loc 1 697 5 is_stmt 1 view .LVU391
 697:../../CM7/LWIP/Target/ethernetif.c ****     GPIO_InitStruct.Mode = GPIO_MODE_AF_PP;
 1514              		.loc 1 697 25 is_stmt 0 view .LVU392
 1515 00e8 8623     		movs	r3, #134
 1516 00ea 0793     		str	r3, [sp, #28]
 698:../../CM7/LWIP/Target/ethernetif.c ****     GPIO_InitStruct.Pull = GPIO_NOPULL;
 1517              		.loc 1 698 5 is_stmt 1 view .LVU393
 698:../../CM7/LWIP/Target/ethernetif.c ****     GPIO_InitStruct.Pull = GPIO_NOPULL;
 1518              		.loc 1 698 26 is_stmt 0 view .LVU394
 1519 00ec CDF82080 		str	r8, [sp, #32]
 699:../../CM7/LWIP/Target/ethernetif.c ****     GPIO_InitStruct.Speed = GPIO_SPEED_FREQ_VERY_HIGH;
 1520              		.loc 1 699 5 is_stmt 1 view .LVU395
 699:../../CM7/LWIP/Target/ethernetif.c ****     GPIO_InitStruct.Speed = GPIO_SPEED_FREQ_VERY_HIGH;
 1521              		.loc 1 699 26 is_stmt 0 view .LVU396
 1522 00f0 0024     		movs	r4, #0
 1523 00f2 0994     		str	r4, [sp, #36]
 700:../../CM7/LWIP/Target/ethernetif.c ****     GPIO_InitStruct.Alternate = GPIO_AF11_ETH;
 1524              		.loc 1 700 5 is_stmt 1 view .LVU397
 700:../../CM7/LWIP/Target/ethernetif.c ****     GPIO_InitStruct.Alternate = GPIO_AF11_ETH;
 1525              		.loc 1 700 27 is_stmt 0 view .LVU398
 1526 00f4 0A97     		str	r7, [sp, #40]
 701:../../CM7/LWIP/Target/ethernetif.c ****     HAL_GPIO_Init(GPIOA, &GPIO_InitStruct);
 1527              		.loc 1 701 5 is_stmt 1 view .LVU399
 701:../../CM7/LWIP/Target/ethernetif.c ****     HAL_GPIO_Init(GPIOA, &GPIO_InitStruct);
 1528              		.loc 1 701 31 is_stmt 0 view .LVU400
 1529 00f6 0B96     		str	r6, [sp, #44]
 702:../../CM7/LWIP/Target/ethernetif.c **** 
 1530              		.loc 1 702 5 is_stmt 1 view .LVU401
 1531 00f8 2946     		mov	r1, r5
 1532 00fa 1548     		ldr	r0, .L106+12
 1533 00fc FFF7FEFF 		bl	HAL_GPIO_Init
 1534              	.LVL126:
 704:../../CM7/LWIP/Target/ethernetif.c ****     GPIO_InitStruct.Mode = GPIO_MODE_AF_PP;
 1535              		.loc 1 704 5 view .LVU402
 704:../../CM7/LWIP/Target/ethernetif.c ****     GPIO_InitStruct.Mode = GPIO_MODE_AF_PP;
 1536              		.loc 1 704 25 is_stmt 0 view .LVU403
ARM GAS  C:\Users\minis\AppData\Local\Temp\ccKk4sUj.s 			page 66


 1537 0100 4FF40053 		mov	r3, #8192
 1538 0104 0793     		str	r3, [sp, #28]
 705:../../CM7/LWIP/Target/ethernetif.c ****     GPIO_InitStruct.Pull = GPIO_NOPULL;
 1539              		.loc 1 705 5 is_stmt 1 view .LVU404
 705:../../CM7/LWIP/Target/ethernetif.c ****     GPIO_InitStruct.Pull = GPIO_NOPULL;
 1540              		.loc 1 705 26 is_stmt 0 view .LVU405
 1541 0106 CDF82080 		str	r8, [sp, #32]
 706:../../CM7/LWIP/Target/ethernetif.c ****     GPIO_InitStruct.Speed = GPIO_SPEED_FREQ_VERY_HIGH;
 1542              		.loc 1 706 5 is_stmt 1 view .LVU406
 706:../../CM7/LWIP/Target/ethernetif.c ****     GPIO_InitStruct.Speed = GPIO_SPEED_FREQ_VERY_HIGH;
 1543              		.loc 1 706 26 is_stmt 0 view .LVU407
 1544 010a 0994     		str	r4, [sp, #36]
 707:../../CM7/LWIP/Target/ethernetif.c ****     GPIO_InitStruct.Alternate = GPIO_AF11_ETH;
 1545              		.loc 1 707 5 is_stmt 1 view .LVU408
 707:../../CM7/LWIP/Target/ethernetif.c ****     GPIO_InitStruct.Alternate = GPIO_AF11_ETH;
 1546              		.loc 1 707 27 is_stmt 0 view .LVU409
 1547 010c 0A97     		str	r7, [sp, #40]
 708:../../CM7/LWIP/Target/ethernetif.c ****     HAL_GPIO_Init(GPIOB, &GPIO_InitStruct);
 1548              		.loc 1 708 5 is_stmt 1 view .LVU410
 708:../../CM7/LWIP/Target/ethernetif.c ****     HAL_GPIO_Init(GPIOB, &GPIO_InitStruct);
 1549              		.loc 1 708 31 is_stmt 0 view .LVU411
 1550 010e 0B96     		str	r6, [sp, #44]
 709:../../CM7/LWIP/Target/ethernetif.c **** 
 1551              		.loc 1 709 5 is_stmt 1 view .LVU412
 1552 0110 2946     		mov	r1, r5
 1553 0112 1048     		ldr	r0, .L106+16
 1554 0114 FFF7FEFF 		bl	HAL_GPIO_Init
 1555              	.LVL127:
 711:../../CM7/LWIP/Target/ethernetif.c ****     GPIO_InitStruct.Mode = GPIO_MODE_AF_PP;
 1556              		.loc 1 711 5 view .LVU413
 711:../../CM7/LWIP/Target/ethernetif.c ****     GPIO_InitStruct.Mode = GPIO_MODE_AF_PP;
 1557              		.loc 1 711 25 is_stmt 0 view .LVU414
 1558 0118 4FF42053 		mov	r3, #10240
 1559 011c 0793     		str	r3, [sp, #28]
 712:../../CM7/LWIP/Target/ethernetif.c ****     GPIO_InitStruct.Pull = GPIO_NOPULL;
 1560              		.loc 1 712 5 is_stmt 1 view .LVU415
 712:../../CM7/LWIP/Target/ethernetif.c ****     GPIO_InitStruct.Pull = GPIO_NOPULL;
 1561              		.loc 1 712 26 is_stmt 0 view .LVU416
 1562 011e CDF82080 		str	r8, [sp, #32]
 713:../../CM7/LWIP/Target/ethernetif.c ****     GPIO_InitStruct.Speed = GPIO_SPEED_FREQ_VERY_HIGH;
 1563              		.loc 1 713 5 is_stmt 1 view .LVU417
 713:../../CM7/LWIP/Target/ethernetif.c ****     GPIO_InitStruct.Speed = GPIO_SPEED_FREQ_VERY_HIGH;
 1564              		.loc 1 713 26 is_stmt 0 view .LVU418
 1565 0122 0994     		str	r4, [sp, #36]
 714:../../CM7/LWIP/Target/ethernetif.c ****     GPIO_InitStruct.Alternate = GPIO_AF11_ETH;
 1566              		.loc 1 714 5 is_stmt 1 view .LVU419
 714:../../CM7/LWIP/Target/ethernetif.c ****     GPIO_InitStruct.Alternate = GPIO_AF11_ETH;
 1567              		.loc 1 714 27 is_stmt 0 view .LVU420
 1568 0124 0A97     		str	r7, [sp, #40]
 715:../../CM7/LWIP/Target/ethernetif.c ****     HAL_GPIO_Init(GPIOG, &GPIO_InitStruct);
 1569              		.loc 1 715 5 is_stmt 1 view .LVU421
 715:../../CM7/LWIP/Target/ethernetif.c ****     HAL_GPIO_Init(GPIOG, &GPIO_InitStruct);
 1570              		.loc 1 715 31 is_stmt 0 view .LVU422
 1571 0126 0B96     		str	r6, [sp, #44]
 716:../../CM7/LWIP/Target/ethernetif.c **** 
 1572              		.loc 1 716 5 is_stmt 1 view .LVU423
 1573 0128 2946     		mov	r1, r5
ARM GAS  C:\Users\minis\AppData\Local\Temp\ccKk4sUj.s 			page 67


 1574 012a 0B48     		ldr	r0, .L106+20
 1575 012c FFF7FEFF 		bl	HAL_GPIO_Init
 1576              	.LVL128:
 719:../../CM7/LWIP/Target/ethernetif.c ****     HAL_NVIC_EnableIRQ(ETH_IRQn);
 1577              		.loc 1 719 5 view .LVU424
 1578 0130 2246     		mov	r2, r4
 1579 0132 0521     		movs	r1, #5
 1580 0134 3D20     		movs	r0, #61
 1581 0136 FFF7FEFF 		bl	HAL_NVIC_SetPriority
 1582              	.LVL129:
 720:../../CM7/LWIP/Target/ethernetif.c ****   /* USER CODE BEGIN ETH_MspInit 1 */
 1583              		.loc 1 720 5 view .LVU425
 1584 013a 3D20     		movs	r0, #61
 1585 013c FFF7FEFF 		bl	HAL_NVIC_EnableIRQ
 1586              	.LVL130:
 725:../../CM7/LWIP/Target/ethernetif.c **** 
 1587              		.loc 1 725 1 is_stmt 0 view .LVU426
 1588 0140 6BE7     		b	.L102
 1589              	.L107:
 1590 0142 00BF     		.align	2
 1591              	.L106:
 1592 0144 00800240 		.word	1073905664
 1593 0148 00440258 		.word	1476543488
 1594 014c 00080258 		.word	1476528128
 1595 0150 00000258 		.word	1476526080
 1596 0154 00040258 		.word	1476527104
 1597 0158 00180258 		.word	1476532224
 1598              		.cfi_endproc
 1599              	.LFE185:
 1601              		.section	.text.HAL_ETH_MspDeInit,"ax",%progbits
 1602              		.align	1
 1603              		.global	HAL_ETH_MspDeInit
 1604              		.syntax unified
 1605              		.thumb
 1606              		.thumb_func
 1608              	HAL_ETH_MspDeInit:
 1609              	.LVL131:
 1610              	.LFB186:
 728:../../CM7/LWIP/Target/ethernetif.c ****   if(ethHandle->Instance==ETH)
 1611              		.loc 1 728 1 is_stmt 1 view -0
 1612              		.cfi_startproc
 1613              		@ args = 0, pretend = 0, frame = 0
 1614              		@ frame_needed = 0, uses_anonymous_args = 0
 728:../../CM7/LWIP/Target/ethernetif.c ****   if(ethHandle->Instance==ETH)
 1615              		.loc 1 728 1 is_stmt 0 view .LVU428
 1616 0000 08B5     		push	{r3, lr}
 1617              	.LCFI26:
 1618              		.cfi_def_cfa_offset 8
 1619              		.cfi_offset 3, -8
 1620              		.cfi_offset 14, -4
 729:../../CM7/LWIP/Target/ethernetif.c ****   {
 1621              		.loc 1 729 3 is_stmt 1 view .LVU429
 729:../../CM7/LWIP/Target/ethernetif.c ****   {
 1622              		.loc 1 729 15 is_stmt 0 view .LVU430
 1623 0002 0268     		ldr	r2, [r0]
 729:../../CM7/LWIP/Target/ethernetif.c ****   {
 1624              		.loc 1 729 5 view .LVU431
ARM GAS  C:\Users\minis\AppData\Local\Temp\ccKk4sUj.s 			page 68


 1625 0004 164B     		ldr	r3, .L112
 1626 0006 9A42     		cmp	r2, r3
 1627 0008 00D0     		beq	.L111
 1628              	.LVL132:
 1629              	.L108:
 765:../../CM7/LWIP/Target/ethernetif.c **** 
 1630              		.loc 1 765 1 view .LVU432
 1631 000a 08BD     		pop	{r3, pc}
 1632              	.LVL133:
 1633              	.L111:
 735:../../CM7/LWIP/Target/ethernetif.c ****     __HAL_RCC_ETH1TX_CLK_DISABLE();
 1634              		.loc 1 735 5 is_stmt 1 view .LVU433
 1635 000c 154B     		ldr	r3, .L112+4
 1636 000e D3F8D820 		ldr	r2, [r3, #216]
 1637 0012 22F40042 		bic	r2, r2, #32768
 1638 0016 C3F8D820 		str	r2, [r3, #216]
 736:../../CM7/LWIP/Target/ethernetif.c ****     __HAL_RCC_ETH1RX_CLK_DISABLE();
 1639              		.loc 1 736 5 view .LVU434
 1640 001a D3F8D820 		ldr	r2, [r3, #216]
 1641 001e 22F48032 		bic	r2, r2, #65536
 1642 0022 C3F8D820 		str	r2, [r3, #216]
 737:../../CM7/LWIP/Target/ethernetif.c **** 
 1643              		.loc 1 737 5 view .LVU435
 1644 0026 D3F8D820 		ldr	r2, [r3, #216]
 1645 002a 22F40032 		bic	r2, r2, #131072
 1646 002e C3F8D820 		str	r2, [r3, #216]
 750:../../CM7/LWIP/Target/ethernetif.c **** 
 1647              		.loc 1 750 5 view .LVU436
 1648 0032 3221     		movs	r1, #50
 1649 0034 0C48     		ldr	r0, .L112+8
 1650              	.LVL134:
 750:../../CM7/LWIP/Target/ethernetif.c **** 
 1651              		.loc 1 750 5 is_stmt 0 view .LVU437
 1652 0036 FFF7FEFF 		bl	HAL_GPIO_DeInit
 1653              	.LVL135:
 752:../../CM7/LWIP/Target/ethernetif.c **** 
 1654              		.loc 1 752 5 is_stmt 1 view .LVU438
 1655 003a 8621     		movs	r1, #134
 1656 003c 0B48     		ldr	r0, .L112+12
 1657 003e FFF7FEFF 		bl	HAL_GPIO_DeInit
 1658              	.LVL136:
 754:../../CM7/LWIP/Target/ethernetif.c **** 
 1659              		.loc 1 754 5 view .LVU439
 1660 0042 4FF40051 		mov	r1, #8192
 1661 0046 0A48     		ldr	r0, .L112+16
 1662 0048 FFF7FEFF 		bl	HAL_GPIO_DeInit
 1663              	.LVL137:
 756:../../CM7/LWIP/Target/ethernetif.c **** 
 1664              		.loc 1 756 5 view .LVU440
 1665 004c 4FF42051 		mov	r1, #10240
 1666 0050 0848     		ldr	r0, .L112+20
 1667 0052 FFF7FEFF 		bl	HAL_GPIO_DeInit
 1668              	.LVL138:
 759:../../CM7/LWIP/Target/ethernetif.c **** 
 1669              		.loc 1 759 5 view .LVU441
 1670 0056 3D20     		movs	r0, #61
 1671 0058 FFF7FEFF 		bl	HAL_NVIC_DisableIRQ
ARM GAS  C:\Users\minis\AppData\Local\Temp\ccKk4sUj.s 			page 69


 1672              	.LVL139:
 765:../../CM7/LWIP/Target/ethernetif.c **** 
 1673              		.loc 1 765 1 is_stmt 0 view .LVU442
 1674 005c D5E7     		b	.L108
 1675              	.L113:
 1676 005e 00BF     		.align	2
 1677              	.L112:
 1678 0060 00800240 		.word	1073905664
 1679 0064 00440258 		.word	1476543488
 1680 0068 00080258 		.word	1476528128
 1681 006c 00000258 		.word	1476526080
 1682 0070 00040258 		.word	1476527104
 1683 0074 00180258 		.word	1476532224
 1684              		.cfi_endproc
 1685              	.LFE186:
 1687              		.section	.text.ethernet_link_thread,"ax",%progbits
 1688              		.align	1
 1689              		.global	ethernet_link_thread
 1690              		.syntax unified
 1691              		.thumb
 1692              		.thumb_func
 1694              	ethernet_link_thread:
 1695              	.LVL140:
 1696              	.LFB192:
 839:../../CM7/LWIP/Target/ethernetif.c **** 
 840:../../CM7/LWIP/Target/ethernetif.c **** /**
 841:../../CM7/LWIP/Target/ethernetif.c ****   * @brief  Check the ETH link state then update ETH driver and netif link accordingly.
 842:../../CM7/LWIP/Target/ethernetif.c ****   * @retval None
 843:../../CM7/LWIP/Target/ethernetif.c ****   */
 844:../../CM7/LWIP/Target/ethernetif.c **** void ethernet_link_thread(void* argument)
 845:../../CM7/LWIP/Target/ethernetif.c **** {
 1697              		.loc 1 845 1 is_stmt 1 view -0
 1698              		.cfi_startproc
 1699              		@ args = 0, pretend = 0, frame = 104
 1700              		@ frame_needed = 0, uses_anonymous_args = 0
 1701              		.loc 1 845 1 is_stmt 0 view .LVU444
 1702 0000 2DE9F043 		push	{r4, r5, r6, r7, r8, r9, lr}
 1703              	.LCFI27:
 1704              		.cfi_def_cfa_offset 28
 1705              		.cfi_offset 4, -28
 1706              		.cfi_offset 5, -24
 1707              		.cfi_offset 6, -20
 1708              		.cfi_offset 7, -16
 1709              		.cfi_offset 8, -12
 1710              		.cfi_offset 9, -8
 1711              		.cfi_offset 14, -4
 1712 0004 9BB0     		sub	sp, sp, #108
 1713              	.LCFI28:
 1714              		.cfi_def_cfa_offset 136
 1715 0006 0446     		mov	r4, r0
 846:../../CM7/LWIP/Target/ethernetif.c ****   ETH_MACConfigTypeDef MACConf = {0};
 1716              		.loc 1 846 3 is_stmt 1 view .LVU445
 1717              		.loc 1 846 24 is_stmt 0 view .LVU446
 1718 0008 6422     		movs	r2, #100
 1719 000a 0021     		movs	r1, #0
 1720 000c 01A8     		add	r0, sp, #4
 1721              	.LVL141:
ARM GAS  C:\Users\minis\AppData\Local\Temp\ccKk4sUj.s 			page 70


 1722              		.loc 1 846 24 view .LVU447
 1723 000e FFF7FEFF 		bl	memset
 1724              	.LVL142:
 847:../../CM7/LWIP/Target/ethernetif.c ****   int32_t PHYLinkState = 0;
 1725              		.loc 1 847 3 is_stmt 1 view .LVU448
 848:../../CM7/LWIP/Target/ethernetif.c ****   uint32_t linkchanged = 0U, speed = 0U, duplex = 0U;
 1726              		.loc 1 848 3 view .LVU449
 849:../../CM7/LWIP/Target/ethernetif.c **** 
 850:../../CM7/LWIP/Target/ethernetif.c ****   struct netif *netif = (struct netif *) argument;
 1727              		.loc 1 850 3 view .LVU450
 848:../../CM7/LWIP/Target/ethernetif.c ****   uint32_t linkchanged = 0U, speed = 0U, duplex = 0U;
 1728              		.loc 1 848 42 is_stmt 0 view .LVU451
 1729 0012 0025     		movs	r5, #0
 848:../../CM7/LWIP/Target/ethernetif.c ****   uint32_t linkchanged = 0U, speed = 0U, duplex = 0U;
 1730              		.loc 1 848 30 view .LVU452
 1731 0014 2E46     		mov	r6, r5
 848:../../CM7/LWIP/Target/ethernetif.c ****   uint32_t linkchanged = 0U, speed = 0U, duplex = 0U;
 1732              		.loc 1 848 12 view .LVU453
 1733 0016 2F46     		mov	r7, r5
 1734 0018 28E0     		b	.L123
 1735              	.LVL143:
 1736              	.L126:
 851:../../CM7/LWIP/Target/ethernetif.c **** /* USER CODE BEGIN ETH link init */
 852:../../CM7/LWIP/Target/ethernetif.c **** 
 853:../../CM7/LWIP/Target/ethernetif.c **** /* USER CODE END ETH link init */
 854:../../CM7/LWIP/Target/ethernetif.c **** 
 855:../../CM7/LWIP/Target/ethernetif.c ****   for(;;)
 856:../../CM7/LWIP/Target/ethernetif.c ****   {
 857:../../CM7/LWIP/Target/ethernetif.c ****   PHYLinkState = LAN8742_GetLinkState(&LAN8742);
 858:../../CM7/LWIP/Target/ethernetif.c **** 
 859:../../CM7/LWIP/Target/ethernetif.c ****   if(netif_is_link_up(netif) && (PHYLinkState <= LAN8742_STATUS_LINK_DOWN))
 860:../../CM7/LWIP/Target/ethernetif.c ****   {
 861:../../CM7/LWIP/Target/ethernetif.c ****     HAL_ETH_Stop_IT(&heth);
 1737              		.loc 1 861 5 is_stmt 1 view .LVU454
 1738 001a 2C48     		ldr	r0, .L127
 1739              	.LVL144:
 1740              		.loc 1 861 5 is_stmt 0 view .LVU455
 1741 001c FFF7FEFF 		bl	HAL_ETH_Stop_IT
 1742              	.LVL145:
 862:../../CM7/LWIP/Target/ethernetif.c ****     netif_set_down(netif);
 1743              		.loc 1 862 5 is_stmt 1 view .LVU456
 1744 0020 2046     		mov	r0, r4
 1745 0022 FFF7FEFF 		bl	netif_set_down
 1746              	.LVL146:
 863:../../CM7/LWIP/Target/ethernetif.c ****     netif_set_link_down(netif);
 1747              		.loc 1 863 5 view .LVU457
 1748 0026 2046     		mov	r0, r4
 1749 0028 FFF7FEFF 		bl	netif_set_link_down
 1750              	.LVL147:
 1751 002c 1BE0     		b	.L116
 1752              	.LVL148:
 1753              	.L122:
 864:../../CM7/LWIP/Target/ethernetif.c ****   }
 865:../../CM7/LWIP/Target/ethernetif.c ****   else if(!netif_is_link_up(netif) && (PHYLinkState > LAN8742_STATUS_LINK_DOWN))
 866:../../CM7/LWIP/Target/ethernetif.c ****   {
 867:../../CM7/LWIP/Target/ethernetif.c **** 
 868:../../CM7/LWIP/Target/ethernetif.c ****     switch (PHYLinkState)
ARM GAS  C:\Users\minis\AppData\Local\Temp\ccKk4sUj.s 			page 71


 1754              		.loc 1 868 5 is_stmt 0 view .LVU458
 1755 002e 4FF40055 		mov	r5, #8192
 1756              	.LVL149:
 1757              		.loc 1 868 5 view .LVU459
 1758 0032 4FF48046 		mov	r6, #16384
 1759              	.LVL150:
 1760              		.loc 1 868 5 view .LVU460
 1761 0036 0127     		movs	r7, #1
 1762              	.LVL151:
 1763              	.L118:
 869:../../CM7/LWIP/Target/ethernetif.c ****     {
 870:../../CM7/LWIP/Target/ethernetif.c ****     case LAN8742_STATUS_100MBITS_FULLDUPLEX:
 871:../../CM7/LWIP/Target/ethernetif.c ****       duplex = ETH_FULLDUPLEX_MODE;
 872:../../CM7/LWIP/Target/ethernetif.c ****       speed = ETH_SPEED_100M;
 873:../../CM7/LWIP/Target/ethernetif.c ****       linkchanged = 1;
 874:../../CM7/LWIP/Target/ethernetif.c ****       break;
 875:../../CM7/LWIP/Target/ethernetif.c ****     case LAN8742_STATUS_100MBITS_HALFDUPLEX:
 876:../../CM7/LWIP/Target/ethernetif.c ****       duplex = ETH_HALFDUPLEX_MODE;
 877:../../CM7/LWIP/Target/ethernetif.c ****       speed = ETH_SPEED_100M;
 878:../../CM7/LWIP/Target/ethernetif.c ****       linkchanged = 1;
 879:../../CM7/LWIP/Target/ethernetif.c ****       break;
 880:../../CM7/LWIP/Target/ethernetif.c ****     case LAN8742_STATUS_10MBITS_FULLDUPLEX:
 881:../../CM7/LWIP/Target/ethernetif.c ****       duplex = ETH_FULLDUPLEX_MODE;
 882:../../CM7/LWIP/Target/ethernetif.c ****       speed = ETH_SPEED_10M;
 883:../../CM7/LWIP/Target/ethernetif.c ****       linkchanged = 1;
 884:../../CM7/LWIP/Target/ethernetif.c ****       break;
 885:../../CM7/LWIP/Target/ethernetif.c ****     case LAN8742_STATUS_10MBITS_HALFDUPLEX:
 886:../../CM7/LWIP/Target/ethernetif.c ****       duplex = ETH_HALFDUPLEX_MODE;
 887:../../CM7/LWIP/Target/ethernetif.c ****       speed = ETH_SPEED_10M;
 888:../../CM7/LWIP/Target/ethernetif.c ****       linkchanged = 1;
 889:../../CM7/LWIP/Target/ethernetif.c ****       break;
 890:../../CM7/LWIP/Target/ethernetif.c ****     default:
 891:../../CM7/LWIP/Target/ethernetif.c ****       break;
 892:../../CM7/LWIP/Target/ethernetif.c ****     }
 893:../../CM7/LWIP/Target/ethernetif.c **** 
 894:../../CM7/LWIP/Target/ethernetif.c ****     if(linkchanged)
 895:../../CM7/LWIP/Target/ethernetif.c ****     {
 896:../../CM7/LWIP/Target/ethernetif.c ****       /* Get MAC Config MAC */
 897:../../CM7/LWIP/Target/ethernetif.c ****       HAL_ETH_GetMACConfig(&heth, &MACConf);
 1764              		.loc 1 897 7 is_stmt 1 view .LVU461
 1765 0038 0DF10409 		add	r9, sp, #4
 1766 003c DFF88C80 		ldr	r8, .L127
 1767 0040 4946     		mov	r1, r9
 1768 0042 4046     		mov	r0, r8
 1769              	.LVL152:
 1770              		.loc 1 897 7 is_stmt 0 view .LVU462
 1771 0044 FFF7FEFF 		bl	HAL_ETH_GetMACConfig
 1772              	.LVL153:
 898:../../CM7/LWIP/Target/ethernetif.c ****       MACConf.DuplexMode = duplex;
 1773              		.loc 1 898 7 is_stmt 1 view .LVU463
 1774              		.loc 1 898 26 is_stmt 0 view .LVU464
 1775 0048 0795     		str	r5, [sp, #28]
 899:../../CM7/LWIP/Target/ethernetif.c ****       MACConf.Speed = speed;
 1776              		.loc 1 899 7 is_stmt 1 view .LVU465
 1777              		.loc 1 899 21 is_stmt 0 view .LVU466
 1778 004a 0696     		str	r6, [sp, #24]
 900:../../CM7/LWIP/Target/ethernetif.c ****       HAL_ETH_SetMACConfig(&heth, &MACConf);
ARM GAS  C:\Users\minis\AppData\Local\Temp\ccKk4sUj.s 			page 72


 1779              		.loc 1 900 7 is_stmt 1 view .LVU467
 1780 004c 4946     		mov	r1, r9
 1781 004e 4046     		mov	r0, r8
 1782 0050 FFF7FEFF 		bl	HAL_ETH_SetMACConfig
 1783              	.LVL154:
 901:../../CM7/LWIP/Target/ethernetif.c ****       HAL_ETH_Start_IT(&heth);
 1784              		.loc 1 901 7 view .LVU468
 1785 0054 4046     		mov	r0, r8
 1786 0056 FFF7FEFF 		bl	HAL_ETH_Start_IT
 1787              	.LVL155:
 902:../../CM7/LWIP/Target/ethernetif.c ****       netif_set_up(netif);
 1788              		.loc 1 902 7 view .LVU469
 1789 005a 2046     		mov	r0, r4
 1790 005c FFF7FEFF 		bl	netif_set_up
 1791              	.LVL156:
 903:../../CM7/LWIP/Target/ethernetif.c ****       netif_set_link_up(netif);
 1792              		.loc 1 903 7 view .LVU470
 1793 0060 2046     		mov	r0, r4
 1794 0062 FFF7FEFF 		bl	netif_set_link_up
 1795              	.LVL157:
 1796              	.L116:
 904:../../CM7/LWIP/Target/ethernetif.c ****     }
 905:../../CM7/LWIP/Target/ethernetif.c ****   }
 906:../../CM7/LWIP/Target/ethernetif.c **** 
 907:../../CM7/LWIP/Target/ethernetif.c **** /* USER CODE BEGIN ETH link Thread core code for User BSP */
 908:../../CM7/LWIP/Target/ethernetif.c **** 
 909:../../CM7/LWIP/Target/ethernetif.c **** /* USER CODE END ETH link Thread core code for User BSP */
 910:../../CM7/LWIP/Target/ethernetif.c **** 
 911:../../CM7/LWIP/Target/ethernetif.c ****     osDelay(100);
 1797              		.loc 1 911 5 view .LVU471
 1798 0066 6420     		movs	r0, #100
 1799 0068 FFF7FEFF 		bl	osDelay
 1800              	.LVL158:
 855:../../CM7/LWIP/Target/ethernetif.c ****   {
 1801              		.loc 1 855 3 view .LVU472
 1802              	.L123:
 855:../../CM7/LWIP/Target/ethernetif.c ****   {
 1803              		.loc 1 855 3 view .LVU473
 857:../../CM7/LWIP/Target/ethernetif.c **** 
 1804              		.loc 1 857 3 view .LVU474
 857:../../CM7/LWIP/Target/ethernetif.c **** 
 1805              		.loc 1 857 18 is_stmt 0 view .LVU475
 1806 006c 1848     		ldr	r0, .L127+4
 1807 006e FFF7FEFF 		bl	LAN8742_GetLinkState
 1808              	.LVL159:
 859:../../CM7/LWIP/Target/ethernetif.c ****   {
 1809              		.loc 1 859 3 is_stmt 1 view .LVU476
 859:../../CM7/LWIP/Target/ethernetif.c ****   {
 1810              		.loc 1 859 6 is_stmt 0 view .LVU477
 1811 0072 94F82D30 		ldrb	r3, [r4, #45]	@ zero_extendqisi2
 859:../../CM7/LWIP/Target/ethernetif.c ****   {
 1812              		.loc 1 859 5 view .LVU478
 1813 0076 13F0040F 		tst	r3, #4
 1814 007a 01D0     		beq	.L115
