ARM GAS  C:\Users\minis\AppData\Local\Temp\ccKRzXRi.s 			page 1


   1              		.cpu cortex-m7
   2              		.arch armv7e-m
   3              		.fpu fpv5-d16
   4              		.eabi_attribute 20, 1
   5              		.eabi_attribute 21, 1
   6              		.eabi_attribute 23, 3
   7              		.eabi_attribute 24, 1
   8              		.eabi_attribute 25, 1
   9              		.eabi_attribute 26, 1
  10              		.eabi_attribute 30, 1
  11              		.eabi_attribute 34, 1
  12              		.eabi_attribute 18, 4
  13              		.file	"ip4_addr.c"
  14              		.text
  15              	.Ltext0:
  16              		.cfi_sections	.debug_frame
  17              		.file 1 "../../Middlewares/Third_Party/LwIP/src/core/ipv4/ip4_addr.c"
  18              		.section	.text.ip4_addr_isbroadcast_u32,"ax",%progbits
  19              		.align	1
  20              		.global	ip4_addr_isbroadcast_u32
  21              		.syntax unified
  22              		.thumb
  23              		.thumb_func
  25              	ip4_addr_isbroadcast_u32:
  26              	.LVL0:
  27              	.LFB170:
   1:../../Middlewares/Third_Party/LwIP/src/core/ipv4/ip4_addr.c **** /**
   2:../../Middlewares/Third_Party/LwIP/src/core/ipv4/ip4_addr.c ****  * @file
   3:../../Middlewares/Third_Party/LwIP/src/core/ipv4/ip4_addr.c ****  * This is the IPv4 address tools implementation.
   4:../../Middlewares/Third_Party/LwIP/src/core/ipv4/ip4_addr.c ****  *
   5:../../Middlewares/Third_Party/LwIP/src/core/ipv4/ip4_addr.c ****  */
   6:../../Middlewares/Third_Party/LwIP/src/core/ipv4/ip4_addr.c **** 
   7:../../Middlewares/Third_Party/LwIP/src/core/ipv4/ip4_addr.c **** /*
   8:../../Middlewares/Third_Party/LwIP/src/core/ipv4/ip4_addr.c ****  * Copyright (c) 2001-2004 Swedish Institute of Computer Science.
   9:../../Middlewares/Third_Party/LwIP/src/core/ipv4/ip4_addr.c ****  * All rights reserved.
  10:../../Middlewares/Third_Party/LwIP/src/core/ipv4/ip4_addr.c ****  *
  11:../../Middlewares/Third_Party/LwIP/src/core/ipv4/ip4_addr.c ****  * Redistribution and use in source and binary forms, with or without modification,
  12:../../Middlewares/Third_Party/LwIP/src/core/ipv4/ip4_addr.c ****  * are permitted provided that the following conditions are met:
  13:../../Middlewares/Third_Party/LwIP/src/core/ipv4/ip4_addr.c ****  *
  14:../../Middlewares/Third_Party/LwIP/src/core/ipv4/ip4_addr.c ****  * 1. Redistributions of source code must retain the above copyright notice,
  15:../../Middlewares/Third_Party/LwIP/src/core/ipv4/ip4_addr.c ****  *    this list of conditions and the following disclaimer.
  16:../../Middlewares/Third_Party/LwIP/src/core/ipv4/ip4_addr.c ****  * 2. Redistributions in binary form must reproduce the above copyright notice,
  17:../../Middlewares/Third_Party/LwIP/src/core/ipv4/ip4_addr.c ****  *    this list of conditions and the following disclaimer in the documentation
  18:../../Middlewares/Third_Party/LwIP/src/core/ipv4/ip4_addr.c ****  *    and/or other materials provided with the distribution.
  19:../../Middlewares/Third_Party/LwIP/src/core/ipv4/ip4_addr.c ****  * 3. The name of the author may not be used to endorse or promote products
  20:../../Middlewares/Third_Party/LwIP/src/core/ipv4/ip4_addr.c ****  *    derived from this software without specific prior written permission.
  21:../../Middlewares/Third_Party/LwIP/src/core/ipv4/ip4_addr.c ****  *
  22:../../Middlewares/Third_Party/LwIP/src/core/ipv4/ip4_addr.c ****  * THIS SOFTWARE IS PROVIDED BY THE AUTHOR ``AS IS'' AND ANY EXPRESS OR IMPLIED
  23:../../Middlewares/Third_Party/LwIP/src/core/ipv4/ip4_addr.c ****  * WARRANTIES, INCLUDING, BUT NOT LIMITED TO, THE IMPLIED WARRANTIES OF
  24:../../Middlewares/Third_Party/LwIP/src/core/ipv4/ip4_addr.c ****  * MERCHANTABILITY AND FITNESS FOR A PARTICULAR PURPOSE ARE DISCLAIMED. IN NO EVENT
  25:../../Middlewares/Third_Party/LwIP/src/core/ipv4/ip4_addr.c ****  * SHALL THE AUTHOR BE LIABLE FOR ANY DIRECT, INDIRECT, INCIDENTAL, SPECIAL,
  26:../../Middlewares/Third_Party/LwIP/src/core/ipv4/ip4_addr.c ****  * EXEMPLARY, OR CONSEQUENTIAL DAMAGES (INCLUDING, BUT NOT LIMITED TO, PROCUREMENT
  27:../../Middlewares/Third_Party/LwIP/src/core/ipv4/ip4_addr.c ****  * OF SUBSTITUTE GOODS OR SERVICES; LOSS OF USE, DATA, OR PROFITS; OR BUSINESS
  28:../../Middlewares/Third_Party/LwIP/src/core/ipv4/ip4_addr.c ****  * INTERRUPTION) HOWEVER CAUSED AND ON ANY THEORY OF LIABILITY, WHETHER IN
  29:../../Middlewares/Third_Party/LwIP/src/core/ipv4/ip4_addr.c ****  * CONTRACT, STRICT LIABILITY, OR TORT (INCLUDING NEGLIGENCE OR OTHERWISE) ARISING
  30:../../Middlewares/Third_Party/LwIP/src/core/ipv4/ip4_addr.c ****  * IN ANY WAY OUT OF THE USE OF THIS SOFTWARE, EVEN IF ADVISED OF THE POSSIBILITY
  31:../../Middlewares/Third_Party/LwIP/src/core/ipv4/ip4_addr.c ****  * OF SUCH DAMAGE.
ARM GAS  C:\Users\minis\AppData\Local\Temp\ccKRzXRi.s 			page 2


  32:../../Middlewares/Third_Party/LwIP/src/core/ipv4/ip4_addr.c ****  *
  33:../../Middlewares/Third_Party/LwIP/src/core/ipv4/ip4_addr.c ****  * This file is part of the lwIP TCP/IP stack.
  34:../../Middlewares/Third_Party/LwIP/src/core/ipv4/ip4_addr.c ****  *
  35:../../Middlewares/Third_Party/LwIP/src/core/ipv4/ip4_addr.c ****  * Author: Adam Dunkels <adam@sics.se>
  36:../../Middlewares/Third_Party/LwIP/src/core/ipv4/ip4_addr.c ****  *
  37:../../Middlewares/Third_Party/LwIP/src/core/ipv4/ip4_addr.c ****  */
  38:../../Middlewares/Third_Party/LwIP/src/core/ipv4/ip4_addr.c **** 
  39:../../Middlewares/Third_Party/LwIP/src/core/ipv4/ip4_addr.c **** #include "lwip/opt.h"
  40:../../Middlewares/Third_Party/LwIP/src/core/ipv4/ip4_addr.c **** 
  41:../../Middlewares/Third_Party/LwIP/src/core/ipv4/ip4_addr.c **** #if LWIP_IPV4
  42:../../Middlewares/Third_Party/LwIP/src/core/ipv4/ip4_addr.c **** 
  43:../../Middlewares/Third_Party/LwIP/src/core/ipv4/ip4_addr.c **** #include "lwip/ip_addr.h"
  44:../../Middlewares/Third_Party/LwIP/src/core/ipv4/ip4_addr.c **** #include "lwip/netif.h"
  45:../../Middlewares/Third_Party/LwIP/src/core/ipv4/ip4_addr.c **** 
  46:../../Middlewares/Third_Party/LwIP/src/core/ipv4/ip4_addr.c **** /* used by IP4_ADDR_ANY and IP_ADDR_BROADCAST in ip_addr.h */
  47:../../Middlewares/Third_Party/LwIP/src/core/ipv4/ip4_addr.c **** const ip_addr_t ip_addr_any = IPADDR4_INIT(IPADDR_ANY);
  48:../../Middlewares/Third_Party/LwIP/src/core/ipv4/ip4_addr.c **** const ip_addr_t ip_addr_broadcast = IPADDR4_INIT(IPADDR_BROADCAST);
  49:../../Middlewares/Third_Party/LwIP/src/core/ipv4/ip4_addr.c **** 
  50:../../Middlewares/Third_Party/LwIP/src/core/ipv4/ip4_addr.c **** /**
  51:../../Middlewares/Third_Party/LwIP/src/core/ipv4/ip4_addr.c ****  * Determine if an address is a broadcast address on a network interface
  52:../../Middlewares/Third_Party/LwIP/src/core/ipv4/ip4_addr.c ****  *
  53:../../Middlewares/Third_Party/LwIP/src/core/ipv4/ip4_addr.c ****  * @param addr address to be checked
  54:../../Middlewares/Third_Party/LwIP/src/core/ipv4/ip4_addr.c ****  * @param netif the network interface against which the address is checked
  55:../../Middlewares/Third_Party/LwIP/src/core/ipv4/ip4_addr.c ****  * @return returns non-zero if the address is a broadcast address
  56:../../Middlewares/Third_Party/LwIP/src/core/ipv4/ip4_addr.c ****  */
  57:../../Middlewares/Third_Party/LwIP/src/core/ipv4/ip4_addr.c **** u8_t
  58:../../Middlewares/Third_Party/LwIP/src/core/ipv4/ip4_addr.c **** ip4_addr_isbroadcast_u32(u32_t addr, const struct netif *netif)
  59:../../Middlewares/Third_Party/LwIP/src/core/ipv4/ip4_addr.c **** {
  28              		.loc 1 59 1 view -0
  29              		.cfi_startproc
  30              		@ args = 0, pretend = 0, frame = 0
  31              		@ frame_needed = 0, uses_anonymous_args = 0
  32              		@ link register save eliminated.
  33              		.loc 1 59 1 is_stmt 0 view .LVU1
  34 0000 0346     		mov	r3, r0
  60:../../Middlewares/Third_Party/LwIP/src/core/ipv4/ip4_addr.c ****   ip4_addr_t ipaddr;
  35              		.loc 1 60 3 is_stmt 1 view .LVU2
  61:../../Middlewares/Third_Party/LwIP/src/core/ipv4/ip4_addr.c ****   ip4_addr_set_u32(&ipaddr, addr);
  36              		.loc 1 61 3 view .LVU3
  62:../../Middlewares/Third_Party/LwIP/src/core/ipv4/ip4_addr.c **** 
  63:../../Middlewares/Third_Party/LwIP/src/core/ipv4/ip4_addr.c ****   /* all ones (broadcast) or all zeroes (old skool broadcast) */
  64:../../Middlewares/Third_Party/LwIP/src/core/ipv4/ip4_addr.c ****   if ((~addr == IPADDR_ANY) ||
  37              		.loc 1 64 3 view .LVU4
  38              		.loc 1 64 29 is_stmt 0 view .LVU5
  39 0002 421E     		subs	r2, r0, #1
  40              		.loc 1 64 6 view .LVU6
  41 0004 12F1030F 		cmn	r2, #3
  42 0008 12D8     		bhi	.L3
  65:../../Middlewares/Third_Party/LwIP/src/core/ipv4/ip4_addr.c ****       (addr == IPADDR_ANY)) {
  66:../../Middlewares/Third_Party/LwIP/src/core/ipv4/ip4_addr.c ****     return 1;
  67:../../Middlewares/Third_Party/LwIP/src/core/ipv4/ip4_addr.c ****     /* no broadcast support on this network interface? */
  68:../../Middlewares/Third_Party/LwIP/src/core/ipv4/ip4_addr.c ****   } else if ((netif->flags & NETIF_FLAG_BROADCAST) == 0) {
  43              		.loc 1 68 10 is_stmt 1 view .LVU7
  44              		.loc 1 68 20 is_stmt 0 view .LVU8
  45 000a 91F82D00 		ldrb	r0, [r1, #45]	@ zero_extendqisi2
  46              	.LVL1:
  47              		.loc 1 68 13 view .LVU9
ARM GAS  C:\Users\minis\AppData\Local\Temp\ccKRzXRi.s 			page 3


  48 000e 10F00200 		ands	r0, r0, #2
  49 0012 14D0     		beq	.L2
  69:../../Middlewares/Third_Party/LwIP/src/core/ipv4/ip4_addr.c ****     /* the given address cannot be a broadcast address
  70:../../Middlewares/Third_Party/LwIP/src/core/ipv4/ip4_addr.c ****      * nor can we check against any broadcast addresses */
  71:../../Middlewares/Third_Party/LwIP/src/core/ipv4/ip4_addr.c ****     return 0;
  72:../../Middlewares/Third_Party/LwIP/src/core/ipv4/ip4_addr.c ****     /* address matches network interface address exactly? => no broadcast */
  73:../../Middlewares/Third_Party/LwIP/src/core/ipv4/ip4_addr.c ****   } else if (addr == ip4_addr_get_u32(netif_ip4_addr(netif))) {
  50              		.loc 1 73 10 is_stmt 1 view .LVU10
  51              		.loc 1 73 22 is_stmt 0 view .LVU11
  52 0014 4A68     		ldr	r2, [r1, #4]
  53              		.loc 1 73 13 view .LVU12
  54 0016 9A42     		cmp	r2, r3
  55 0018 0CD0     		beq	.L4
  74:../../Middlewares/Third_Party/LwIP/src/core/ipv4/ip4_addr.c ****     return 0;
  75:../../Middlewares/Third_Party/LwIP/src/core/ipv4/ip4_addr.c ****     /*  on the same (sub) network... */
  76:../../Middlewares/Third_Party/LwIP/src/core/ipv4/ip4_addr.c ****   } else if (ip4_addr_netcmp(&ipaddr, netif_ip4_addr(netif), netif_ip4_netmask(netif))
  56              		.loc 1 76 10 is_stmt 1 view .LVU13
  57              		.loc 1 76 14 is_stmt 0 view .LVU14
  58 001a 8968     		ldr	r1, [r1, #8]
  59              	.LVL2:
  60              		.loc 1 76 14 view .LVU15
  61 001c 5A40     		eors	r2, r2, r3
  62              		.loc 1 76 13 view .LVU16
  63 001e 0A42     		tst	r2, r1
  64 0020 0AD1     		bne	.L5
  77:../../Middlewares/Third_Party/LwIP/src/core/ipv4/ip4_addr.c ****              /* ...and host identifier bits are all ones? =>... */
  78:../../Middlewares/Third_Party/LwIP/src/core/ipv4/ip4_addr.c ****              && ((addr & ~ip4_addr_get_u32(netif_ip4_netmask(netif))) ==
  65              		.loc 1 78 26 view .LVU17
  66 0022 CA43     		mvns	r2, r1
  67              		.loc 1 78 24 view .LVU18
  68 0024 23EA0103 		bic	r3, r3, r1
  69              	.LVL3:
  70              		.loc 1 78 14 view .LVU19
  71 0028 9A42     		cmp	r2, r3
  72 002a 07D0     		beq	.L6
  79:../../Middlewares/Third_Party/LwIP/src/core/ipv4/ip4_addr.c ****                  (IPADDR_BROADCAST & ~ip4_addr_get_u32(netif_ip4_netmask(netif))))) {
  80:../../Middlewares/Third_Party/LwIP/src/core/ipv4/ip4_addr.c ****     /* => network broadcast address */
  81:../../Middlewares/Third_Party/LwIP/src/core/ipv4/ip4_addr.c ****     return 1;
  82:../../Middlewares/Third_Party/LwIP/src/core/ipv4/ip4_addr.c ****   } else {
  83:../../Middlewares/Third_Party/LwIP/src/core/ipv4/ip4_addr.c ****     return 0;
  73              		.loc 1 83 12 view .LVU20
  74 002c 0020     		movs	r0, #0
  75 002e 7047     		bx	lr
  76              	.LVL4:
  77              	.L3:
  66:../../Middlewares/Third_Party/LwIP/src/core/ipv4/ip4_addr.c ****     /* no broadcast support on this network interface? */
  78              		.loc 1 66 12 view .LVU21
  79 0030 0120     		movs	r0, #1
  80              	.LVL5:
  66:../../Middlewares/Third_Party/LwIP/src/core/ipv4/ip4_addr.c ****     /* no broadcast support on this network interface? */
  81              		.loc 1 66 12 view .LVU22
  82 0032 7047     		bx	lr
  83              	.L4:
  74:../../Middlewares/Third_Party/LwIP/src/core/ipv4/ip4_addr.c ****     /*  on the same (sub) network... */
  84              		.loc 1 74 12 view .LVU23
  85 0034 0020     		movs	r0, #0
  86 0036 7047     		bx	lr
ARM GAS  C:\Users\minis\AppData\Local\Temp\ccKRzXRi.s 			page 4


  87              	.LVL6:
  88              	.L5:
  89              		.loc 1 83 12 view .LVU24
  90 0038 0020     		movs	r0, #0
  91 003a 7047     		bx	lr
  92              	.LVL7:
  93              	.L6:
  81:../../Middlewares/Third_Party/LwIP/src/core/ipv4/ip4_addr.c ****   } else {
  94              		.loc 1 81 12 view .LVU25
  95 003c 0120     		movs	r0, #1
  96              	.L2:
  84:../../Middlewares/Third_Party/LwIP/src/core/ipv4/ip4_addr.c ****   }
  85:../../Middlewares/Third_Party/LwIP/src/core/ipv4/ip4_addr.c **** }
  97              		.loc 1 85 1 view .LVU26
  98 003e 7047     		bx	lr
  99              		.cfi_endproc
 100              	.LFE170:
 102              		.section	.text.ip4_addr_netmask_valid,"ax",%progbits
 103              		.align	1
 104              		.global	ip4_addr_netmask_valid
 105              		.syntax unified
 106              		.thumb
 107              		.thumb_func
 109              	ip4_addr_netmask_valid:
 110              	.LVL8:
 111              	.LFB171:
  86:../../Middlewares/Third_Party/LwIP/src/core/ipv4/ip4_addr.c **** 
  87:../../Middlewares/Third_Party/LwIP/src/core/ipv4/ip4_addr.c **** /** Checks if a netmask is valid (starting with ones, then only zeros)
  88:../../Middlewares/Third_Party/LwIP/src/core/ipv4/ip4_addr.c ****  *
  89:../../Middlewares/Third_Party/LwIP/src/core/ipv4/ip4_addr.c ****  * @param netmask the IPv4 netmask to check (in network byte order!)
  90:../../Middlewares/Third_Party/LwIP/src/core/ipv4/ip4_addr.c ****  * @return 1 if the netmask is valid, 0 if it is not
  91:../../Middlewares/Third_Party/LwIP/src/core/ipv4/ip4_addr.c ****  */
  92:../../Middlewares/Third_Party/LwIP/src/core/ipv4/ip4_addr.c **** u8_t
  93:../../Middlewares/Third_Party/LwIP/src/core/ipv4/ip4_addr.c **** ip4_addr_netmask_valid(u32_t netmask)
  94:../../Middlewares/Third_Party/LwIP/src/core/ipv4/ip4_addr.c **** {
 112              		.loc 1 94 1 is_stmt 1 view -0
 113              		.cfi_startproc
 114              		@ args = 0, pretend = 0, frame = 0
 115              		@ frame_needed = 0, uses_anonymous_args = 0
 116              		.loc 1 94 1 is_stmt 0 view .LVU28
 117 0000 08B5     		push	{r3, lr}
 118              	.LCFI0:
 119              		.cfi_def_cfa_offset 8
 120              		.cfi_offset 3, -8
 121              		.cfi_offset 14, -4
  95:../../Middlewares/Third_Party/LwIP/src/core/ipv4/ip4_addr.c ****   u32_t mask;
 122              		.loc 1 95 3 is_stmt 1 view .LVU29
  96:../../Middlewares/Third_Party/LwIP/src/core/ipv4/ip4_addr.c ****   u32_t nm_hostorder = lwip_htonl(netmask);
 123              		.loc 1 96 3 view .LVU30
 124              		.loc 1 96 24 is_stmt 0 view .LVU31
 125 0002 FFF7FEFF 		bl	lwip_htonl
 126              	.LVL9:
  97:../../Middlewares/Third_Party/LwIP/src/core/ipv4/ip4_addr.c **** 
  98:../../Middlewares/Third_Party/LwIP/src/core/ipv4/ip4_addr.c ****   /* first, check for the first zero */
  99:../../Middlewares/Third_Party/LwIP/src/core/ipv4/ip4_addr.c ****   for (mask = 1UL << 31 ; mask != 0; mask >>= 1) {
 127              		.loc 1 99 3 is_stmt 1 view .LVU32
 128              		.loc 1 99 13 is_stmt 0 view .LVU33
ARM GAS  C:\Users\minis\AppData\Local\Temp\ccKRzXRi.s 			page 5


 129 0006 4FF00043 		mov	r3, #-2147483648
 130              	.LVL10:
 131              	.L8:
 132              		.loc 1 99 32 is_stmt 1 discriminator 1 view .LVU34
 133 000a 1BB1     		cbz	r3, .L12
 100:../../Middlewares/Third_Party/LwIP/src/core/ipv4/ip4_addr.c ****     if ((nm_hostorder & mask) == 0) {
 134              		.loc 1 100 5 view .LVU35
 135              		.loc 1 100 8 is_stmt 0 view .LVU36
 136 000c 0342     		tst	r3, r0
 137 000e 01D0     		beq	.L12
  99:../../Middlewares/Third_Party/LwIP/src/core/ipv4/ip4_addr.c ****     if ((nm_hostorder & mask) == 0) {
 138              		.loc 1 99 43 is_stmt 1 discriminator 2 view .LVU37
 139 0010 5B08     		lsrs	r3, r3, #1
 140              	.LVL11:
  99:../../Middlewares/Third_Party/LwIP/src/core/ipv4/ip4_addr.c ****     if ((nm_hostorder & mask) == 0) {
 141              		.loc 1 99 43 is_stmt 0 discriminator 2 view .LVU38
 142 0012 FAE7     		b	.L8
 143              	.LVL12:
 144              	.L12:
 101:../../Middlewares/Third_Party/LwIP/src/core/ipv4/ip4_addr.c ****       break;
 102:../../Middlewares/Third_Party/LwIP/src/core/ipv4/ip4_addr.c ****     }
 103:../../Middlewares/Third_Party/LwIP/src/core/ipv4/ip4_addr.c ****   }
 104:../../Middlewares/Third_Party/LwIP/src/core/ipv4/ip4_addr.c ****   /* then check that there is no one */
 105:../../Middlewares/Third_Party/LwIP/src/core/ipv4/ip4_addr.c ****   for (; mask != 0; mask >>= 1) {
 145              		.loc 1 105 15 is_stmt 1 discriminator 1 view .LVU39
 146 0014 1BB1     		cbz	r3, .L16
 106:../../Middlewares/Third_Party/LwIP/src/core/ipv4/ip4_addr.c ****     if ((nm_hostorder & mask) != 0) {
 147              		.loc 1 106 5 view .LVU40
 148              		.loc 1 106 8 is_stmt 0 view .LVU41
 149 0016 0342     		tst	r3, r0
 150 0018 03D1     		bne	.L14
 105:../../Middlewares/Third_Party/LwIP/src/core/ipv4/ip4_addr.c ****     if ((nm_hostorder & mask) != 0) {
 151              		.loc 1 105 26 is_stmt 1 view .LVU42
 152 001a 5B08     		lsrs	r3, r3, #1
 153              	.LVL13:
 105:../../Middlewares/Third_Party/LwIP/src/core/ipv4/ip4_addr.c ****     if ((nm_hostorder & mask) != 0) {
 154              		.loc 1 105 26 is_stmt 0 view .LVU43
 155 001c FAE7     		b	.L12
 156              	.LVL14:
 157              	.L16:
 107:../../Middlewares/Third_Party/LwIP/src/core/ipv4/ip4_addr.c ****       /* there is a one after the first zero -> invalid */
 108:../../Middlewares/Third_Party/LwIP/src/core/ipv4/ip4_addr.c ****       return 0;
 109:../../Middlewares/Third_Party/LwIP/src/core/ipv4/ip4_addr.c ****     }
 110:../../Middlewares/Third_Party/LwIP/src/core/ipv4/ip4_addr.c ****   }
 111:../../Middlewares/Third_Party/LwIP/src/core/ipv4/ip4_addr.c ****   /* no one after the first zero -> valid */
 112:../../Middlewares/Third_Party/LwIP/src/core/ipv4/ip4_addr.c ****   return 1;
 158              		.loc 1 112 10 view .LVU44
 159 001e 0120     		movs	r0, #1
 160              	.LVL15:
 161              	.L11:
 113:../../Middlewares/Third_Party/LwIP/src/core/ipv4/ip4_addr.c **** }
 162              		.loc 1 113 1 view .LVU45
 163 0020 08BD     		pop	{r3, pc}
 164              	.LVL16:
 165              	.L14:
 108:../../Middlewares/Third_Party/LwIP/src/core/ipv4/ip4_addr.c ****     }
 166              		.loc 1 108 14 view .LVU46
ARM GAS  C:\Users\minis\AppData\Local\Temp\ccKRzXRi.s 			page 6


 167 0022 0020     		movs	r0, #0
 168              	.LVL17:
 108:../../Middlewares/Third_Party/LwIP/src/core/ipv4/ip4_addr.c ****     }
 169              		.loc 1 108 14 view .LVU47
 170 0024 FCE7     		b	.L11
 171              		.cfi_endproc
 172              	.LFE171:
 174              		.section	.rodata.ip4addr_aton.str1.4,"aMS",%progbits,1
 175              		.align	2
 176              	.LC0:
 177 0000 2E2E2F2E 		.ascii	"../../Middlewares/Third_Party/LwIP/src/core/ipv4/ip"
 177      2E2F4D69 
 177      64646C65 
 177      77617265 
 177      732F5468 
 178 0033 345F6164 		.ascii	"4_addr.c\000"
 178      64722E63 
 178      00
 179              		.align	2
 180              	.LC1:
 181 003c 756E6861 		.ascii	"unhandled\000"
 181      6E646C65 
 181      6400
 182 0046 0000     		.align	2
 183              	.LC2:
 184 0048 41737365 		.ascii	"Assertion \"%s\" failed at line %d in %s\012\000"
 184      7274696F 
 184      6E202225 
 184      73222066 
 184      61696C65 
 185              		.section	.text.ip4addr_aton,"ax",%progbits
 186              		.align	1
 187              		.global	ip4addr_aton
 188              		.syntax unified
 189              		.thumb
 190              		.thumb_func
 192              	ip4addr_aton:
 193              	.LVL18:
 194              	.LFB173:
 114:../../Middlewares/Third_Party/LwIP/src/core/ipv4/ip4_addr.c **** 
 115:../../Middlewares/Third_Party/LwIP/src/core/ipv4/ip4_addr.c **** /**
 116:../../Middlewares/Third_Party/LwIP/src/core/ipv4/ip4_addr.c ****  * Ascii internet address interpretation routine.
 117:../../Middlewares/Third_Party/LwIP/src/core/ipv4/ip4_addr.c ****  * The value returned is in network order.
 118:../../Middlewares/Third_Party/LwIP/src/core/ipv4/ip4_addr.c ****  *
 119:../../Middlewares/Third_Party/LwIP/src/core/ipv4/ip4_addr.c ****  * @param cp IP address in ascii representation (e.g. "127.0.0.1")
 120:../../Middlewares/Third_Party/LwIP/src/core/ipv4/ip4_addr.c ****  * @return ip address in network order
 121:../../Middlewares/Third_Party/LwIP/src/core/ipv4/ip4_addr.c ****  */
 122:../../Middlewares/Third_Party/LwIP/src/core/ipv4/ip4_addr.c **** u32_t
 123:../../Middlewares/Third_Party/LwIP/src/core/ipv4/ip4_addr.c **** ipaddr_addr(const char *cp)
 124:../../Middlewares/Third_Party/LwIP/src/core/ipv4/ip4_addr.c **** {
 125:../../Middlewares/Third_Party/LwIP/src/core/ipv4/ip4_addr.c ****   ip4_addr_t val;
 126:../../Middlewares/Third_Party/LwIP/src/core/ipv4/ip4_addr.c **** 
 127:../../Middlewares/Third_Party/LwIP/src/core/ipv4/ip4_addr.c ****   if (ip4addr_aton(cp, &val)) {
 128:../../Middlewares/Third_Party/LwIP/src/core/ipv4/ip4_addr.c ****     return ip4_addr_get_u32(&val);
 129:../../Middlewares/Third_Party/LwIP/src/core/ipv4/ip4_addr.c ****   }
 130:../../Middlewares/Third_Party/LwIP/src/core/ipv4/ip4_addr.c ****   return (IPADDR_NONE);
 131:../../Middlewares/Third_Party/LwIP/src/core/ipv4/ip4_addr.c **** }
ARM GAS  C:\Users\minis\AppData\Local\Temp\ccKRzXRi.s 			page 7


 132:../../Middlewares/Third_Party/LwIP/src/core/ipv4/ip4_addr.c **** 
 133:../../Middlewares/Third_Party/LwIP/src/core/ipv4/ip4_addr.c **** /**
 134:../../Middlewares/Third_Party/LwIP/src/core/ipv4/ip4_addr.c ****  * Check whether "cp" is a valid ascii representation
 135:../../Middlewares/Third_Party/LwIP/src/core/ipv4/ip4_addr.c ****  * of an Internet address and convert to a binary address.
 136:../../Middlewares/Third_Party/LwIP/src/core/ipv4/ip4_addr.c ****  * Returns 1 if the address is valid, 0 if not.
 137:../../Middlewares/Third_Party/LwIP/src/core/ipv4/ip4_addr.c ****  * This replaces inet_addr, the return value from which
 138:../../Middlewares/Third_Party/LwIP/src/core/ipv4/ip4_addr.c ****  * cannot distinguish between failure and a local broadcast address.
 139:../../Middlewares/Third_Party/LwIP/src/core/ipv4/ip4_addr.c ****  *
 140:../../Middlewares/Third_Party/LwIP/src/core/ipv4/ip4_addr.c ****  * @param cp IP address in ascii representation (e.g. "127.0.0.1")
 141:../../Middlewares/Third_Party/LwIP/src/core/ipv4/ip4_addr.c ****  * @param addr pointer to which to save the ip address in network order
 142:../../Middlewares/Third_Party/LwIP/src/core/ipv4/ip4_addr.c ****  * @return 1 if cp could be converted to addr, 0 on failure
 143:../../Middlewares/Third_Party/LwIP/src/core/ipv4/ip4_addr.c ****  */
 144:../../Middlewares/Third_Party/LwIP/src/core/ipv4/ip4_addr.c **** int
 145:../../Middlewares/Third_Party/LwIP/src/core/ipv4/ip4_addr.c **** ip4addr_aton(const char *cp, ip4_addr_t *addr)
 146:../../Middlewares/Third_Party/LwIP/src/core/ipv4/ip4_addr.c **** {
 195              		.loc 1 146 1 is_stmt 1 view -0
 196              		.cfi_startproc
 197              		@ args = 0, pretend = 0, frame = 16
 198              		@ frame_needed = 0, uses_anonymous_args = 0
 199              		.loc 1 146 1 is_stmt 0 view .LVU49
 200 0000 30B5     		push	{r4, r5, lr}
 201              	.LCFI1:
 202              		.cfi_def_cfa_offset 12
 203              		.cfi_offset 4, -12
 204              		.cfi_offset 5, -8
 205              		.cfi_offset 14, -4
 206 0002 85B0     		sub	sp, sp, #20
 207              	.LCFI2:
 208              		.cfi_def_cfa_offset 32
 209 0004 0D46     		mov	r5, r1
 147:../../Middlewares/Third_Party/LwIP/src/core/ipv4/ip4_addr.c ****   u32_t val;
 210              		.loc 1 147 3 is_stmt 1 view .LVU50
 148:../../Middlewares/Third_Party/LwIP/src/core/ipv4/ip4_addr.c ****   u8_t base;
 211              		.loc 1 148 3 view .LVU51
 149:../../Middlewares/Third_Party/LwIP/src/core/ipv4/ip4_addr.c ****   char c;
 212              		.loc 1 149 3 view .LVU52
 150:../../Middlewares/Third_Party/LwIP/src/core/ipv4/ip4_addr.c ****   u32_t parts[4];
 213              		.loc 1 150 3 view .LVU53
 151:../../Middlewares/Third_Party/LwIP/src/core/ipv4/ip4_addr.c ****   u32_t *pp = parts;
 214              		.loc 1 151 3 view .LVU54
 215              	.LVL19:
 152:../../Middlewares/Third_Party/LwIP/src/core/ipv4/ip4_addr.c **** 
 153:../../Middlewares/Third_Party/LwIP/src/core/ipv4/ip4_addr.c ****   c = *cp;
 216              		.loc 1 153 3 view .LVU55
 217              		.loc 1 153 5 is_stmt 0 view .LVU56
 218 0006 0378     		ldrb	r3, [r0]	@ zero_extendqisi2
 219              	.LVL20:
 151:../../Middlewares/Third_Party/LwIP/src/core/ipv4/ip4_addr.c ****   u32_t *pp = parts;
 220              		.loc 1 151 10 view .LVU57
 221 0008 EC46     		mov	ip, sp
 222 000a 35E0     		b	.L26
 223              	.LVL21:
 224              	.L54:
 154:../../Middlewares/Third_Party/LwIP/src/core/ipv4/ip4_addr.c ****   for (;;) {
 155:../../Middlewares/Third_Party/LwIP/src/core/ipv4/ip4_addr.c ****     /*
 156:../../Middlewares/Third_Party/LwIP/src/core/ipv4/ip4_addr.c ****      * Collect number up to ``.''.
 157:../../Middlewares/Third_Party/LwIP/src/core/ipv4/ip4_addr.c ****      * Values are specified as for C:
ARM GAS  C:\Users\minis\AppData\Local\Temp\ccKRzXRi.s 			page 8


 158:../../Middlewares/Third_Party/LwIP/src/core/ipv4/ip4_addr.c ****      * 0x=hex, 0=octal, 1-9=decimal.
 159:../../Middlewares/Third_Party/LwIP/src/core/ipv4/ip4_addr.c ****      */
 160:../../Middlewares/Third_Party/LwIP/src/core/ipv4/ip4_addr.c ****     if (!lwip_isdigit(c)) {
 161:../../Middlewares/Third_Party/LwIP/src/core/ipv4/ip4_addr.c ****       return 0;
 162:../../Middlewares/Third_Party/LwIP/src/core/ipv4/ip4_addr.c ****     }
 163:../../Middlewares/Third_Party/LwIP/src/core/ipv4/ip4_addr.c ****     val = 0;
 164:../../Middlewares/Third_Party/LwIP/src/core/ipv4/ip4_addr.c ****     base = 10;
 165:../../Middlewares/Third_Party/LwIP/src/core/ipv4/ip4_addr.c ****     if (c == '0') {
 166:../../Middlewares/Third_Party/LwIP/src/core/ipv4/ip4_addr.c ****       c = *++cp;
 225              		.loc 1 166 7 is_stmt 1 view .LVU58
 226              		.loc 1 166 9 is_stmt 0 view .LVU59
 227 000c 421C     		adds	r2, r0, #1
 228              	.LVL22:
 229              		.loc 1 166 9 view .LVU60
 230 000e 4378     		ldrb	r3, [r0, #1]	@ zero_extendqisi2
 231              	.LVL23:
 167:../../Middlewares/Third_Party/LwIP/src/core/ipv4/ip4_addr.c ****       if (c == 'x' || c == 'X') {
 232              		.loc 1 167 7 is_stmt 1 view .LVU61
 233              		.loc 1 167 10 is_stmt 0 view .LVU62
 234 0010 582B     		cmp	r3, #88
 235 0012 18BF     		it	ne
 236 0014 782B     		cmpne	r3, #120
 237 0016 03D1     		bne	.L36
 168:../../Middlewares/Third_Party/LwIP/src/core/ipv4/ip4_addr.c ****         base = 16;
 238              		.loc 1 168 9 is_stmt 1 view .LVU63
 239              	.LVL24:
 169:../../Middlewares/Third_Party/LwIP/src/core/ipv4/ip4_addr.c ****         c = *++cp;
 240              		.loc 1 169 9 view .LVU64
 241              		.loc 1 169 11 is_stmt 0 view .LVU65
 242 0018 8378     		ldrb	r3, [r0, #2]	@ zero_extendqisi2
 243              	.LVL25:
 244              		.loc 1 169 11 view .LVU66
 245 001a 0230     		adds	r0, r0, #2
 246              	.LVL26:
 168:../../Middlewares/Third_Party/LwIP/src/core/ipv4/ip4_addr.c ****         base = 16;
 247              		.loc 1 168 14 view .LVU67
 248 001c 1021     		movs	r1, #16
 249 001e 33E0     		b	.L19
 250              	.LVL27:
 251              	.L36:
 166:../../Middlewares/Third_Party/LwIP/src/core/ipv4/ip4_addr.c ****       if (c == 'x' || c == 'X') {
 252              		.loc 1 166 9 view .LVU68
 253 0020 1046     		mov	r0, r2
 170:../../Middlewares/Third_Party/LwIP/src/core/ipv4/ip4_addr.c ****       } else {
 171:../../Middlewares/Third_Party/LwIP/src/core/ipv4/ip4_addr.c ****         base = 8;
 254              		.loc 1 171 14 view .LVU69
 255 0022 0821     		movs	r1, #8
 256 0024 30E0     		b	.L19
 257              	.LVL28:
 258              	.L21:
 172:../../Middlewares/Third_Party/LwIP/src/core/ipv4/ip4_addr.c ****       }
 173:../../Middlewares/Third_Party/LwIP/src/core/ipv4/ip4_addr.c ****     }
 174:../../Middlewares/Third_Party/LwIP/src/core/ipv4/ip4_addr.c ****     for (;;) {
 175:../../Middlewares/Third_Party/LwIP/src/core/ipv4/ip4_addr.c ****       if (lwip_isdigit(c)) {
 176:../../Middlewares/Third_Party/LwIP/src/core/ipv4/ip4_addr.c ****         val = (val * base) + (u32_t)(c - '0');
 177:../../Middlewares/Third_Party/LwIP/src/core/ipv4/ip4_addr.c ****         c = *++cp;
 178:../../Middlewares/Third_Party/LwIP/src/core/ipv4/ip4_addr.c ****       } else if (base == 16 && lwip_isxdigit(c)) {
ARM GAS  C:\Users\minis\AppData\Local\Temp\ccKRzXRi.s 			page 9


 259              		.loc 1 178 14 is_stmt 1 view .LVU70
 260              		.loc 1 178 17 is_stmt 0 view .LVU71
 261 0026 1029     		cmp	r1, #16
 262 0028 1BD1     		bne	.L23
 263              		.loc 1 178 29 discriminator 1 view .LVU72
 264 002a 12F0440F 		tst	r2, #68
 265 002e 18D0     		beq	.L23
 179:../../Middlewares/Third_Party/LwIP/src/core/ipv4/ip4_addr.c ****         val = (val << 4) | (u32_t)(c + 10 - (lwip_islower(c) ? 'a' : 'A'));
 266              		.loc 1 179 9 is_stmt 1 view .LVU73
 267              		.loc 1 179 20 is_stmt 0 view .LVU74
 268 0030 2401     		lsls	r4, r4, #4
 269              	.LVL29:
 270              		.loc 1 179 38 view .LVU75
 271 0032 0A33     		adds	r3, r3, #10
 272              	.LVL30:
 273              		.loc 1 179 68 view .LVU76
 274 0034 02F00302 		and	r2, r2, #3
 275 0038 022A     		cmp	r2, #2
 276 003a 10D0     		beq	.L53
 277              		.loc 1 179 68 discriminator 2 view .LVU77
 278 003c 4122     		movs	r2, #65
 279              	.L24:
 280              		.loc 1 179 43 discriminator 4 view .LVU78
 281 003e 9B1A     		subs	r3, r3, r2
 282              	.LVL31:
 283              		.loc 1 179 13 discriminator 4 view .LVU79
 284 0040 1C43     		orrs	r4, r4, r3
 285              	.LVL32:
 180:../../Middlewares/Third_Party/LwIP/src/core/ipv4/ip4_addr.c ****         c = *++cp;
 286              		.loc 1 180 9 is_stmt 1 view .LVU80
 287              		.loc 1 180 11 is_stmt 0 view .LVU81
 288 0042 10F8013F 		ldrb	r3, [r0, #1]!	@ zero_extendqisi2
 289              	.LVL33:
 290              	.L20:
 174:../../Middlewares/Third_Party/LwIP/src/core/ipv4/ip4_addr.c ****       if (lwip_isdigit(c)) {
 291              		.loc 1 174 5 is_stmt 1 view .LVU82
 175:../../Middlewares/Third_Party/LwIP/src/core/ipv4/ip4_addr.c ****         val = (val * base) + (u32_t)(c - '0');
 292              		.loc 1 175 7 view .LVU83
 175:../../Middlewares/Third_Party/LwIP/src/core/ipv4/ip4_addr.c ****         val = (val * base) + (u32_t)(c - '0');
 293              		.loc 1 175 11 is_stmt 0 view .LVU84
 294 0046 424A     		ldr	r2, .L55
 295 0048 D25C     		ldrb	r2, [r2, r3]	@ zero_extendqisi2
 175:../../Middlewares/Third_Party/LwIP/src/core/ipv4/ip4_addr.c ****         val = (val * base) + (u32_t)(c - '0');
 296              		.loc 1 175 10 view .LVU85
 297 004a 12F0040F 		tst	r2, #4
 298 004e EAD0     		beq	.L21
 176:../../Middlewares/Third_Party/LwIP/src/core/ipv4/ip4_addr.c ****         c = *++cp;
 299              		.loc 1 176 9 is_stmt 1 view .LVU86
 176:../../Middlewares/Third_Party/LwIP/src/core/ipv4/ip4_addr.c ****         c = *++cp;
 300              		.loc 1 176 28 is_stmt 0 view .LVU87
 301 0050 04FB0133 		mla	r3, r4, r1, r3
 302              	.LVL34:
 176:../../Middlewares/Third_Party/LwIP/src/core/ipv4/ip4_addr.c ****         c = *++cp;
 303              		.loc 1 176 13 view .LVU88
 304 0054 A3F13004 		sub	r4, r3, #48
 305              	.LVL35:
 177:../../Middlewares/Third_Party/LwIP/src/core/ipv4/ip4_addr.c ****       } else if (base == 16 && lwip_isxdigit(c)) {
ARM GAS  C:\Users\minis\AppData\Local\Temp\ccKRzXRi.s 			page 10


 306              		.loc 1 177 9 is_stmt 1 view .LVU89
 177:../../Middlewares/Third_Party/LwIP/src/core/ipv4/ip4_addr.c ****       } else if (base == 16 && lwip_isxdigit(c)) {
 307              		.loc 1 177 11 is_stmt 0 view .LVU90
 308 0058 10F8013F 		ldrb	r3, [r0, #1]!	@ zero_extendqisi2
 309              	.LVL36:
 177:../../Middlewares/Third_Party/LwIP/src/core/ipv4/ip4_addr.c ****       } else if (base == 16 && lwip_isxdigit(c)) {
 310              		.loc 1 177 11 view .LVU91
 311 005c F3E7     		b	.L20
 312              	.LVL37:
 313              	.L53:
 179:../../Middlewares/Third_Party/LwIP/src/core/ipv4/ip4_addr.c ****         c = *++cp;
 314              		.loc 1 179 68 discriminator 1 view .LVU92
 315 005e 6122     		movs	r2, #97
 316 0060 EDE7     		b	.L24
 317              	.LVL38:
 318              	.L23:
 181:../../Middlewares/Third_Party/LwIP/src/core/ipv4/ip4_addr.c ****       } else {
 182:../../Middlewares/Third_Party/LwIP/src/core/ipv4/ip4_addr.c ****         break;
 183:../../Middlewares/Third_Party/LwIP/src/core/ipv4/ip4_addr.c ****       }
 184:../../Middlewares/Third_Party/LwIP/src/core/ipv4/ip4_addr.c ****     }
 185:../../Middlewares/Third_Party/LwIP/src/core/ipv4/ip4_addr.c ****     if (c == '.') {
 319              		.loc 1 185 5 is_stmt 1 view .LVU93
 320              		.loc 1 185 8 is_stmt 0 view .LVU94
 321 0062 2E2B     		cmp	r3, #46
 322 0064 12D1     		bne	.L25
 186:../../Middlewares/Third_Party/LwIP/src/core/ipv4/ip4_addr.c ****       /*
 187:../../Middlewares/Third_Party/LwIP/src/core/ipv4/ip4_addr.c ****        * Internet format:
 188:../../Middlewares/Third_Party/LwIP/src/core/ipv4/ip4_addr.c ****        *  a.b.c.d
 189:../../Middlewares/Third_Party/LwIP/src/core/ipv4/ip4_addr.c ****        *  a.b.c   (with c treated as 16 bits)
 190:../../Middlewares/Third_Party/LwIP/src/core/ipv4/ip4_addr.c ****        *  a.b (with b treated as 24 bits)
 191:../../Middlewares/Third_Party/LwIP/src/core/ipv4/ip4_addr.c ****        */
 192:../../Middlewares/Third_Party/LwIP/src/core/ipv4/ip4_addr.c ****       if (pp >= parts + 3) {
 323              		.loc 1 192 7 is_stmt 1 view .LVU95
 324              		.loc 1 192 10 is_stmt 0 view .LVU96
 325 0066 03AB     		add	r3, sp, #12
 326              	.LVL39:
 327              		.loc 1 192 10 view .LVU97
 328 0068 9C45     		cmp	ip, r3
 329 006a 58D2     		bcs	.L38
 193:../../Middlewares/Third_Party/LwIP/src/core/ipv4/ip4_addr.c ****         return 0;
 194:../../Middlewares/Third_Party/LwIP/src/core/ipv4/ip4_addr.c ****       }
 195:../../Middlewares/Third_Party/LwIP/src/core/ipv4/ip4_addr.c ****       *pp++ = val;
 330              		.loc 1 195 7 is_stmt 1 view .LVU98
 331              		.loc 1 195 10 is_stmt 0 view .LVU99
 332 006c 6246     		mov	r2, ip
 333              	.LVL40:
 334              		.loc 1 195 13 view .LVU100
 335 006e 42F8044B 		str	r4, [r2], #4
 336              	.LVL41:
 196:../../Middlewares/Third_Party/LwIP/src/core/ipv4/ip4_addr.c ****       c = *++cp;
 337              		.loc 1 196 7 is_stmt 1 view .LVU101
 338              		.loc 1 196 9 is_stmt 0 view .LVU102
 339 0072 4378     		ldrb	r3, [r0, #1]	@ zero_extendqisi2
 340              	.LVL42:
 154:../../Middlewares/Third_Party/LwIP/src/core/ipv4/ip4_addr.c ****     /*
 341              		.loc 1 154 3 is_stmt 1 view .LVU103
 195:../../Middlewares/Third_Party/LwIP/src/core/ipv4/ip4_addr.c ****       c = *++cp;
ARM GAS  C:\Users\minis\AppData\Local\Temp\ccKRzXRi.s 			page 11


 342              		.loc 1 195 10 is_stmt 0 view .LVU104
 343 0074 9446     		mov	ip, r2
 344              		.loc 1 196 9 view .LVU105
 345 0076 0130     		adds	r0, r0, #1
 346              	.LVL43:
 347              	.L26:
 154:../../Middlewares/Third_Party/LwIP/src/core/ipv4/ip4_addr.c ****     /*
 348              		.loc 1 154 3 is_stmt 1 view .LVU106
 160:../../Middlewares/Third_Party/LwIP/src/core/ipv4/ip4_addr.c ****       return 0;
 349              		.loc 1 160 5 view .LVU107
 160:../../Middlewares/Third_Party/LwIP/src/core/ipv4/ip4_addr.c ****       return 0;
 350              		.loc 1 160 10 is_stmt 0 view .LVU108
 351 0078 354A     		ldr	r2, .L55
 352 007a D25C     		ldrb	r2, [r2, r3]	@ zero_extendqisi2
 160:../../Middlewares/Third_Party/LwIP/src/core/ipv4/ip4_addr.c ****       return 0;
 353              		.loc 1 160 8 view .LVU109
 354 007c 12F0040F 		tst	r2, #4
 355 0080 4BD0     		beq	.L34
 163:../../Middlewares/Third_Party/LwIP/src/core/ipv4/ip4_addr.c ****     base = 10;
 356              		.loc 1 163 5 is_stmt 1 view .LVU110
 357              	.LVL44:
 164:../../Middlewares/Third_Party/LwIP/src/core/ipv4/ip4_addr.c ****     if (c == '0') {
 358              		.loc 1 164 5 view .LVU111
 165:../../Middlewares/Third_Party/LwIP/src/core/ipv4/ip4_addr.c ****       c = *++cp;
 359              		.loc 1 165 5 view .LVU112
 165:../../Middlewares/Third_Party/LwIP/src/core/ipv4/ip4_addr.c ****       c = *++cp;
 360              		.loc 1 165 8 is_stmt 0 view .LVU113
 361 0082 302B     		cmp	r3, #48
 362 0084 C2D0     		beq	.L54
 164:../../Middlewares/Third_Party/LwIP/src/core/ipv4/ip4_addr.c ****     if (c == '0') {
 363              		.loc 1 164 10 view .LVU114
 364 0086 0A21     		movs	r1, #10
 365              	.LVL45:
 366              	.L19:
 171:../../Middlewares/Third_Party/LwIP/src/core/ipv4/ip4_addr.c ****       }
 367              		.loc 1 171 14 view .LVU115
 368 0088 0024     		movs	r4, #0
 369 008a DCE7     		b	.L20
 370              	.LVL46:
 371              	.L25:
 197:../../Middlewares/Third_Party/LwIP/src/core/ipv4/ip4_addr.c ****     } else {
 198:../../Middlewares/Third_Party/LwIP/src/core/ipv4/ip4_addr.c ****       break;
 199:../../Middlewares/Third_Party/LwIP/src/core/ipv4/ip4_addr.c ****     }
 200:../../Middlewares/Third_Party/LwIP/src/core/ipv4/ip4_addr.c ****   }
 201:../../Middlewares/Third_Party/LwIP/src/core/ipv4/ip4_addr.c ****   /*
 202:../../Middlewares/Third_Party/LwIP/src/core/ipv4/ip4_addr.c ****    * Check for trailing characters.
 203:../../Middlewares/Third_Party/LwIP/src/core/ipv4/ip4_addr.c ****    */
 204:../../Middlewares/Third_Party/LwIP/src/core/ipv4/ip4_addr.c ****   if (c != '\0' && !lwip_isspace(c)) {
 372              		.loc 1 204 3 is_stmt 1 view .LVU116
 373              		.loc 1 204 6 is_stmt 0 view .LVU117
 374 008c 13B1     		cbz	r3, .L27
 375              		.loc 1 204 17 discriminator 1 view .LVU118
 376 008e 12F0080F 		tst	r2, #8
 377 0092 47D0     		beq	.L39
 378              	.L27:
 205:../../Middlewares/Third_Party/LwIP/src/core/ipv4/ip4_addr.c ****     return 0;
 206:../../Middlewares/Third_Party/LwIP/src/core/ipv4/ip4_addr.c ****   }
ARM GAS  C:\Users\minis\AppData\Local\Temp\ccKRzXRi.s 			page 12


 207:../../Middlewares/Third_Party/LwIP/src/core/ipv4/ip4_addr.c ****   /*
 208:../../Middlewares/Third_Party/LwIP/src/core/ipv4/ip4_addr.c ****    * Concoct the address according to
 209:../../Middlewares/Third_Party/LwIP/src/core/ipv4/ip4_addr.c ****    * the number of parts specified.
 210:../../Middlewares/Third_Party/LwIP/src/core/ipv4/ip4_addr.c ****    */
 211:../../Middlewares/Third_Party/LwIP/src/core/ipv4/ip4_addr.c ****   switch (pp - parts + 1) {
 379              		.loc 1 211 3 is_stmt 1 view .LVU119
 380              		.loc 1 211 14 is_stmt 0 view .LVU120
 381 0094 6B46     		mov	r3, sp
 382              	.LVL47:
 383              		.loc 1 211 14 view .LVU121
 384 0096 ACEB0300 		sub	r0, ip, r3
 385              	.LVL48:
 386              		.loc 1 211 14 view .LVU122
 387 009a 8010     		asrs	r0, r0, #2
 388              		.loc 1 211 22 view .LVU123
 389 009c 0130     		adds	r0, r0, #1
 390              		.loc 1 211 3 view .LVU124
 391 009e 0428     		cmp	r0, #4
 392 00a0 34D8     		bhi	.L28
 393 00a2 DFE800F0 		tbb	[pc, r0]
 394              	.L30:
 395 00a6 3D       		.byte	(.L17-.L30)/2
 396 00a7 0B       		.byte	(.L33-.L30)/2
 397 00a8 03       		.byte	(.L32-.L30)/2
 398 00a9 13       		.byte	(.L31-.L30)/2
 399 00aa 21       		.byte	(.L29-.L30)/2
 400 00ab 00       		.p2align 1
 401              	.L32:
 212:../../Middlewares/Third_Party/LwIP/src/core/ipv4/ip4_addr.c **** 
 213:../../Middlewares/Third_Party/LwIP/src/core/ipv4/ip4_addr.c ****     case 0:
 214:../../Middlewares/Third_Party/LwIP/src/core/ipv4/ip4_addr.c ****       return 0;       /* initial nondigit */
 215:../../Middlewares/Third_Party/LwIP/src/core/ipv4/ip4_addr.c **** 
 216:../../Middlewares/Third_Party/LwIP/src/core/ipv4/ip4_addr.c ****     case 1:             /* a -- 32 bits */
 217:../../Middlewares/Third_Party/LwIP/src/core/ipv4/ip4_addr.c ****       break;
 218:../../Middlewares/Third_Party/LwIP/src/core/ipv4/ip4_addr.c **** 
 219:../../Middlewares/Third_Party/LwIP/src/core/ipv4/ip4_addr.c ****     case 2:             /* a.b -- 8.24 bits */
 220:../../Middlewares/Third_Party/LwIP/src/core/ipv4/ip4_addr.c ****       if (val > 0xffffffUL) {
 402              		.loc 1 220 7 is_stmt 1 view .LVU125
 403              		.loc 1 220 10 is_stmt 0 view .LVU126
 404 00ac B4F1807F 		cmp	r4, #16777216
 405 00b0 3AD2     		bcs	.L40
 221:../../Middlewares/Third_Party/LwIP/src/core/ipv4/ip4_addr.c ****         return 0;
 222:../../Middlewares/Third_Party/LwIP/src/core/ipv4/ip4_addr.c ****       }
 223:../../Middlewares/Third_Party/LwIP/src/core/ipv4/ip4_addr.c ****       if (parts[0] > 0xff) {
 406              		.loc 1 223 7 is_stmt 1 view .LVU127
 407              		.loc 1 223 16 is_stmt 0 view .LVU128
 408 00b2 009B     		ldr	r3, [sp]
 409              		.loc 1 223 10 view .LVU129
 410 00b4 FF2B     		cmp	r3, #255
 411 00b6 39D8     		bhi	.L41
 224:../../Middlewares/Third_Party/LwIP/src/core/ipv4/ip4_addr.c ****         return 0;
 225:../../Middlewares/Third_Party/LwIP/src/core/ipv4/ip4_addr.c ****       }
 226:../../Middlewares/Third_Party/LwIP/src/core/ipv4/ip4_addr.c ****       val |= parts[0] << 24;
 412              		.loc 1 226 7 is_stmt 1 view .LVU130
 413              		.loc 1 226 11 is_stmt 0 view .LVU131
 414 00b8 44EA0364 		orr	r4, r4, r3, lsl #24
 415              	.LVL49:
ARM GAS  C:\Users\minis\AppData\Local\Temp\ccKRzXRi.s 			page 13


 227:../../Middlewares/Third_Party/LwIP/src/core/ipv4/ip4_addr.c ****       break;
 416              		.loc 1 227 7 is_stmt 1 view .LVU132
 417              	.L33:
 228:../../Middlewares/Third_Party/LwIP/src/core/ipv4/ip4_addr.c **** 
 229:../../Middlewares/Third_Party/LwIP/src/core/ipv4/ip4_addr.c ****     case 3:             /* a.b.c -- 8.8.16 bits */
 230:../../Middlewares/Third_Party/LwIP/src/core/ipv4/ip4_addr.c ****       if (val > 0xffff) {
 231:../../Middlewares/Third_Party/LwIP/src/core/ipv4/ip4_addr.c ****         return 0;
 232:../../Middlewares/Third_Party/LwIP/src/core/ipv4/ip4_addr.c ****       }
 233:../../Middlewares/Third_Party/LwIP/src/core/ipv4/ip4_addr.c ****       if ((parts[0] > 0xff) || (parts[1] > 0xff)) {
 234:../../Middlewares/Third_Party/LwIP/src/core/ipv4/ip4_addr.c ****         return 0;
 235:../../Middlewares/Third_Party/LwIP/src/core/ipv4/ip4_addr.c ****       }
 236:../../Middlewares/Third_Party/LwIP/src/core/ipv4/ip4_addr.c ****       val |= (parts[0] << 24) | (parts[1] << 16);
 237:../../Middlewares/Third_Party/LwIP/src/core/ipv4/ip4_addr.c ****       break;
 238:../../Middlewares/Third_Party/LwIP/src/core/ipv4/ip4_addr.c **** 
 239:../../Middlewares/Third_Party/LwIP/src/core/ipv4/ip4_addr.c ****     case 4:             /* a.b.c.d -- 8.8.8.8 bits */
 240:../../Middlewares/Third_Party/LwIP/src/core/ipv4/ip4_addr.c ****       if (val > 0xff) {
 241:../../Middlewares/Third_Party/LwIP/src/core/ipv4/ip4_addr.c ****         return 0;
 242:../../Middlewares/Third_Party/LwIP/src/core/ipv4/ip4_addr.c ****       }
 243:../../Middlewares/Third_Party/LwIP/src/core/ipv4/ip4_addr.c ****       if ((parts[0] > 0xff) || (parts[1] > 0xff) || (parts[2] > 0xff)) {
 244:../../Middlewares/Third_Party/LwIP/src/core/ipv4/ip4_addr.c ****         return 0;
 245:../../Middlewares/Third_Party/LwIP/src/core/ipv4/ip4_addr.c ****       }
 246:../../Middlewares/Third_Party/LwIP/src/core/ipv4/ip4_addr.c ****       val |= (parts[0] << 24) | (parts[1] << 16) | (parts[2] << 8);
 247:../../Middlewares/Third_Party/LwIP/src/core/ipv4/ip4_addr.c ****       break;
 248:../../Middlewares/Third_Party/LwIP/src/core/ipv4/ip4_addr.c ****     default:
 249:../../Middlewares/Third_Party/LwIP/src/core/ipv4/ip4_addr.c ****       LWIP_ASSERT("unhandled", 0);
 250:../../Middlewares/Third_Party/LwIP/src/core/ipv4/ip4_addr.c ****       break;
 251:../../Middlewares/Third_Party/LwIP/src/core/ipv4/ip4_addr.c ****   }
 252:../../Middlewares/Third_Party/LwIP/src/core/ipv4/ip4_addr.c ****   if (addr) {
 418              		.loc 1 252 3 view .LVU133
 419              		.loc 1 252 6 is_stmt 0 view .LVU134
 420 00bc 002D     		cmp	r5, #0
 421 00be 45D0     		beq	.L49
 253:../../Middlewares/Third_Party/LwIP/src/core/ipv4/ip4_addr.c ****     ip4_addr_set_u32(addr, lwip_htonl(val));
 422              		.loc 1 253 5 is_stmt 1 view .LVU135
 423 00c0 2046     		mov	r0, r4
 424 00c2 FFF7FEFF 		bl	lwip_htonl
 425              	.LVL50:
 426              		.loc 1 253 5 is_stmt 0 discriminator 1 view .LVU136
 427 00c6 2860     		str	r0, [r5]
 254:../../Middlewares/Third_Party/LwIP/src/core/ipv4/ip4_addr.c ****   }
 255:../../Middlewares/Third_Party/LwIP/src/core/ipv4/ip4_addr.c ****   return 1;
 428              		.loc 1 255 10 view .LVU137
 429 00c8 0120     		movs	r0, #1
 430 00ca 29E0     		b	.L17
 431              	.LVL51:
 432              	.L31:
 230:../../Middlewares/Third_Party/LwIP/src/core/ipv4/ip4_addr.c ****         return 0;
 433              		.loc 1 230 7 is_stmt 1 view .LVU138
 230:../../Middlewares/Third_Party/LwIP/src/core/ipv4/ip4_addr.c ****         return 0;
 434              		.loc 1 230 10 is_stmt 0 view .LVU139
 435 00cc B4F5803F 		cmp	r4, #65536
 436 00d0 2ED2     		bcs	.L42
 233:../../Middlewares/Third_Party/LwIP/src/core/ipv4/ip4_addr.c ****         return 0;
 437              		.loc 1 233 7 is_stmt 1 view .LVU140
 233:../../Middlewares/Third_Party/LwIP/src/core/ipv4/ip4_addr.c ****         return 0;
 438              		.loc 1 233 17 is_stmt 0 view .LVU141
 439 00d2 009A     		ldr	r2, [sp]
ARM GAS  C:\Users\minis\AppData\Local\Temp\ccKRzXRi.s 			page 14


 233:../../Middlewares/Third_Party/LwIP/src/core/ipv4/ip4_addr.c ****         return 0;
 440              		.loc 1 233 10 view .LVU142
 441 00d4 FF2A     		cmp	r2, #255
 442 00d6 2DD8     		bhi	.L43
 233:../../Middlewares/Third_Party/LwIP/src/core/ipv4/ip4_addr.c ****         return 0;
 443              		.loc 1 233 38 discriminator 1 view .LVU143
 444 00d8 019B     		ldr	r3, [sp, #4]
 233:../../Middlewares/Third_Party/LwIP/src/core/ipv4/ip4_addr.c ****         return 0;
 445              		.loc 1 233 29 discriminator 1 view .LVU144
 446 00da FF2B     		cmp	r3, #255
 447 00dc 2CD8     		bhi	.L44
 236:../../Middlewares/Third_Party/LwIP/src/core/ipv4/ip4_addr.c ****       break;
 448              		.loc 1 236 7 is_stmt 1 view .LVU145
 236:../../Middlewares/Third_Party/LwIP/src/core/ipv4/ip4_addr.c ****       break;
 449              		.loc 1 236 43 is_stmt 0 view .LVU146
 450 00de 1B04     		lsls	r3, r3, #16
 236:../../Middlewares/Third_Party/LwIP/src/core/ipv4/ip4_addr.c ****       break;
 451              		.loc 1 236 31 view .LVU147
 452 00e0 43EA0263 		orr	r3, r3, r2, lsl #24
 236:../../Middlewares/Third_Party/LwIP/src/core/ipv4/ip4_addr.c ****       break;
 453              		.loc 1 236 11 view .LVU148
 454 00e4 1C43     		orrs	r4, r4, r3
 455              	.LVL52:
 237:../../Middlewares/Third_Party/LwIP/src/core/ipv4/ip4_addr.c **** 
 456              		.loc 1 237 7 is_stmt 1 view .LVU149
 457 00e6 E9E7     		b	.L33
 458              	.L29:
 240:../../Middlewares/Third_Party/LwIP/src/core/ipv4/ip4_addr.c ****         return 0;
 459              		.loc 1 240 7 view .LVU150
 240:../../Middlewares/Third_Party/LwIP/src/core/ipv4/ip4_addr.c ****         return 0;
 460              		.loc 1 240 10 is_stmt 0 view .LVU151
 461 00e8 FF2C     		cmp	r4, #255
 462 00ea 27D8     		bhi	.L45
 243:../../Middlewares/Third_Party/LwIP/src/core/ipv4/ip4_addr.c ****         return 0;
 463              		.loc 1 243 7 is_stmt 1 view .LVU152
 243:../../Middlewares/Third_Party/LwIP/src/core/ipv4/ip4_addr.c ****         return 0;
 464              		.loc 1 243 17 is_stmt 0 view .LVU153
 465 00ec 0099     		ldr	r1, [sp]
 466              	.LVL53:
 243:../../Middlewares/Third_Party/LwIP/src/core/ipv4/ip4_addr.c ****         return 0;
 467              		.loc 1 243 10 view .LVU154
 468 00ee FF29     		cmp	r1, #255
 469 00f0 26D8     		bhi	.L46
 243:../../Middlewares/Third_Party/LwIP/src/core/ipv4/ip4_addr.c ****         return 0;
 470              		.loc 1 243 38 discriminator 1 view .LVU155
 471 00f2 019B     		ldr	r3, [sp, #4]
 243:../../Middlewares/Third_Party/LwIP/src/core/ipv4/ip4_addr.c ****         return 0;
 472              		.loc 1 243 29 discriminator 1 view .LVU156
 473 00f4 FF2B     		cmp	r3, #255
 474 00f6 25D8     		bhi	.L47
 243:../../Middlewares/Third_Party/LwIP/src/core/ipv4/ip4_addr.c ****         return 0;
 475              		.loc 1 243 59 discriminator 2 view .LVU157
 476 00f8 029A     		ldr	r2, [sp, #8]
 243:../../Middlewares/Third_Party/LwIP/src/core/ipv4/ip4_addr.c ****         return 0;
 477              		.loc 1 243 50 discriminator 2 view .LVU158
 478 00fa FF2A     		cmp	r2, #255
 479 00fc 24D8     		bhi	.L48
ARM GAS  C:\Users\minis\AppData\Local\Temp\ccKRzXRi.s 			page 15


 246:../../Middlewares/Third_Party/LwIP/src/core/ipv4/ip4_addr.c ****       break;
 480              		.loc 1 246 7 is_stmt 1 view .LVU159
 246:../../Middlewares/Third_Party/LwIP/src/core/ipv4/ip4_addr.c ****       break;
 481              		.loc 1 246 43 is_stmt 0 view .LVU160
 482 00fe 1B04     		lsls	r3, r3, #16
 246:../../Middlewares/Third_Party/LwIP/src/core/ipv4/ip4_addr.c ****       break;
 483              		.loc 1 246 31 view .LVU161
 484 0100 43EA0163 		orr	r3, r3, r1, lsl #24
 246:../../Middlewares/Third_Party/LwIP/src/core/ipv4/ip4_addr.c ****       break;
 485              		.loc 1 246 50 view .LVU162
 486 0104 43EA0223 		orr	r3, r3, r2, lsl #8
 246:../../Middlewares/Third_Party/LwIP/src/core/ipv4/ip4_addr.c ****       break;
 487              		.loc 1 246 11 view .LVU163
 488 0108 1C43     		orrs	r4, r4, r3
 489              	.LVL54:
 247:../../Middlewares/Third_Party/LwIP/src/core/ipv4/ip4_addr.c ****     default:
 490              		.loc 1 247 7 is_stmt 1 view .LVU164
 491 010a D7E7     		b	.L33
 492              	.LVL55:
 493              	.L28:
 249:../../Middlewares/Third_Party/LwIP/src/core/ipv4/ip4_addr.c ****       break;
 494              		.loc 1 249 7 view .LVU165
 249:../../Middlewares/Third_Party/LwIP/src/core/ipv4/ip4_addr.c ****       break;
 495              		.loc 1 249 7 view .LVU166
 249:../../Middlewares/Third_Party/LwIP/src/core/ipv4/ip4_addr.c ****       break;
 496              		.loc 1 249 7 discriminator 1 view .LVU167
 249:../../Middlewares/Third_Party/LwIP/src/core/ipv4/ip4_addr.c ****       break;
 497              		.loc 1 249 7 discriminator 1 view .LVU168
 498 010c 114B     		ldr	r3, .L55+4
 499 010e F922     		movs	r2, #249
 500 0110 1149     		ldr	r1, .L55+8
 501              	.LVL56:
 249:../../Middlewares/Third_Party/LwIP/src/core/ipv4/ip4_addr.c ****       break;
 502              		.loc 1 249 7 is_stmt 0 discriminator 1 view .LVU169
 503 0112 1248     		ldr	r0, .L55+12
 504 0114 FFF7FEFF 		bl	printf
 505              	.LVL57:
 249:../../Middlewares/Third_Party/LwIP/src/core/ipv4/ip4_addr.c ****       break;
 506              		.loc 1 249 7 is_stmt 1 view .LVU170
 249:../../Middlewares/Third_Party/LwIP/src/core/ipv4/ip4_addr.c ****       break;
 507              		.loc 1 249 7 view .LVU171
 250:../../Middlewares/Third_Party/LwIP/src/core/ipv4/ip4_addr.c ****   }
 508              		.loc 1 250 7 view .LVU172
 509 0118 D0E7     		b	.L33
 510              	.LVL58:
 511              	.L34:
 161:../../Middlewares/Third_Party/LwIP/src/core/ipv4/ip4_addr.c ****     }
 512              		.loc 1 161 14 is_stmt 0 view .LVU173
 513 011a 0020     		movs	r0, #0
 514              	.LVL59:
 161:../../Middlewares/Third_Party/LwIP/src/core/ipv4/ip4_addr.c ****     }
 515              		.loc 1 161 14 view .LVU174
 516 011c 00E0     		b	.L17
 517              	.LVL60:
 518              	.L38:
 193:../../Middlewares/Third_Party/LwIP/src/core/ipv4/ip4_addr.c ****       }
 519              		.loc 1 193 16 view .LVU175
ARM GAS  C:\Users\minis\AppData\Local\Temp\ccKRzXRi.s 			page 16


 520 011e 0020     		movs	r0, #0
 521              	.LVL61:
 522              	.L17:
 256:../../Middlewares/Third_Party/LwIP/src/core/ipv4/ip4_addr.c **** }
 523              		.loc 1 256 1 view .LVU176
 524 0120 05B0     		add	sp, sp, #20
 525              	.LCFI3:
 526              		.cfi_remember_state
 527              		.cfi_def_cfa_offset 12
 528              		@ sp needed
 529 0122 30BD     		pop	{r4, r5, pc}
 530              	.LVL62:
 531              	.L39:
 532              	.LCFI4:
 533              		.cfi_restore_state
 205:../../Middlewares/Third_Party/LwIP/src/core/ipv4/ip4_addr.c ****   }
 534              		.loc 1 205 12 view .LVU177
 535 0124 0020     		movs	r0, #0
 536              	.LVL63:
 205:../../Middlewares/Third_Party/LwIP/src/core/ipv4/ip4_addr.c ****   }
 537              		.loc 1 205 12 view .LVU178
 538 0126 FBE7     		b	.L17
 539              	.LVL64:
 540              	.L40:
 221:../../Middlewares/Third_Party/LwIP/src/core/ipv4/ip4_addr.c ****       }
 541              		.loc 1 221 16 view .LVU179
 542 0128 0020     		movs	r0, #0
 543 012a F9E7     		b	.L17
 544              	.L41:
 224:../../Middlewares/Third_Party/LwIP/src/core/ipv4/ip4_addr.c ****       }
 545              		.loc 1 224 16 view .LVU180
 546 012c 0020     		movs	r0, #0
 547 012e F7E7     		b	.L17
 548              	.L42:
 231:../../Middlewares/Third_Party/LwIP/src/core/ipv4/ip4_addr.c ****       }
 549              		.loc 1 231 16 view .LVU181
 550 0130 0020     		movs	r0, #0
 551 0132 F5E7     		b	.L17
 552              	.L43:
 234:../../Middlewares/Third_Party/LwIP/src/core/ipv4/ip4_addr.c ****       }
 553              		.loc 1 234 16 view .LVU182
 554 0134 0020     		movs	r0, #0
 555 0136 F3E7     		b	.L17
 556              	.L44:
 557 0138 0020     		movs	r0, #0
 558 013a F1E7     		b	.L17
 559              	.L45:
 241:../../Middlewares/Third_Party/LwIP/src/core/ipv4/ip4_addr.c ****       }
 560              		.loc 1 241 16 view .LVU183
 561 013c 0020     		movs	r0, #0
 562 013e EFE7     		b	.L17
 563              	.LVL65:
 564              	.L46:
 244:../../Middlewares/Third_Party/LwIP/src/core/ipv4/ip4_addr.c ****       }
 565              		.loc 1 244 16 view .LVU184
 566 0140 0020     		movs	r0, #0
 567 0142 EDE7     		b	.L17
ARM GAS  C:\Users\minis\AppData\Local\Temp\ccKRzXRi.s 			page 17


 568              	.L47:
 569 0144 0020     		movs	r0, #0
 570 0146 EBE7     		b	.L17
 571              	.L48:
 572 0148 0020     		movs	r0, #0
 573 014a E9E7     		b	.L17
 574              	.LVL66:
 575              	.L49:
 255:../../Middlewares/Third_Party/LwIP/src/core/ipv4/ip4_addr.c **** }
 576              		.loc 1 255 10 view .LVU185
 577 014c 0120     		movs	r0, #1
 578 014e E7E7     		b	.L17
 579              	.L56:
 580              		.align	2
 581              	.L55:
 582 0150 01000000 		.word	_ctype_+1
 583 0154 00000000 		.word	.LC0
 584 0158 3C000000 		.word	.LC1
 585 015c 48000000 		.word	.LC2
 586              		.cfi_endproc
 587              	.LFE173:
 589              		.section	.text.ipaddr_addr,"ax",%progbits
 590              		.align	1
 591              		.global	ipaddr_addr
 592              		.syntax unified
 593              		.thumb
 594              		.thumb_func
 596              	ipaddr_addr:
 597              	.LVL67:
 598              	.LFB172:
 124:../../Middlewares/Third_Party/LwIP/src/core/ipv4/ip4_addr.c ****   ip4_addr_t val;
 599              		.loc 1 124 1 is_stmt 1 view -0
 600              		.cfi_startproc
 601              		@ args = 0, pretend = 0, frame = 8
 602              		@ frame_needed = 0, uses_anonymous_args = 0
 124:../../Middlewares/Third_Party/LwIP/src/core/ipv4/ip4_addr.c ****   ip4_addr_t val;
 603              		.loc 1 124 1 is_stmt 0 view .LVU187
 604 0000 00B5     		push	{lr}
 605              	.LCFI5:
 606              		.cfi_def_cfa_offset 4
 607              		.cfi_offset 14, -4
 608 0002 83B0     		sub	sp, sp, #12
 609              	.LCFI6:
 610              		.cfi_def_cfa_offset 16
 125:../../Middlewares/Third_Party/LwIP/src/core/ipv4/ip4_addr.c **** 
 611              		.loc 1 125 3 is_stmt 1 view .LVU188
 127:../../Middlewares/Third_Party/LwIP/src/core/ipv4/ip4_addr.c ****     return ip4_addr_get_u32(&val);
 612              		.loc 1 127 3 view .LVU189
 127:../../Middlewares/Third_Party/LwIP/src/core/ipv4/ip4_addr.c ****     return ip4_addr_get_u32(&val);
 613              		.loc 1 127 7 is_stmt 0 view .LVU190
 614 0004 01A9     		add	r1, sp, #4
 615 0006 FFF7FEFF 		bl	ip4addr_aton
 616              	.LVL68:
 127:../../Middlewares/Third_Party/LwIP/src/core/ipv4/ip4_addr.c ****     return ip4_addr_get_u32(&val);
 617              		.loc 1 127 6 discriminator 1 view .LVU191
 618 000a 20B9     		cbnz	r0, .L61
 130:../../Middlewares/Third_Party/LwIP/src/core/ipv4/ip4_addr.c **** }
ARM GAS  C:\Users\minis\AppData\Local\Temp\ccKRzXRi.s 			page 18


 619              		.loc 1 130 10 view .LVU192
 620 000c 4FF0FF30 		mov	r0, #-1
 621              	.L57:
 131:../../Middlewares/Third_Party/LwIP/src/core/ipv4/ip4_addr.c **** 
 622              		.loc 1 131 1 view .LVU193
 623 0010 03B0     		add	sp, sp, #12
 624              	.LCFI7:
 625              		.cfi_remember_state
 626              		.cfi_def_cfa_offset 4
 627              		@ sp needed
 628 0012 5DF804FB 		ldr	pc, [sp], #4
 629              	.L61:
 630              	.LCFI8:
 631              		.cfi_restore_state
 128:../../Middlewares/Third_Party/LwIP/src/core/ipv4/ip4_addr.c ****   }
 632              		.loc 1 128 5 is_stmt 1 view .LVU194
 128:../../Middlewares/Third_Party/LwIP/src/core/ipv4/ip4_addr.c ****   }
 633              		.loc 1 128 12 is_stmt 0 view .LVU195
 634 0016 0198     		ldr	r0, [sp, #4]
 635 0018 FAE7     		b	.L57
 636              		.cfi_endproc
 637              	.LFE172:
 639              		.section	.text.ip4addr_ntoa_r,"ax",%progbits
 640              		.align	1
 641              		.global	ip4addr_ntoa_r
 642              		.syntax unified
 643              		.thumb
 644              		.thumb_func
 646              	ip4addr_ntoa_r:
 647              	.LVL69:
 648              	.LFB175:
 257:../../Middlewares/Third_Party/LwIP/src/core/ipv4/ip4_addr.c **** 
 258:../../Middlewares/Third_Party/LwIP/src/core/ipv4/ip4_addr.c **** /**
 259:../../Middlewares/Third_Party/LwIP/src/core/ipv4/ip4_addr.c ****  * Convert numeric IP address into decimal dotted ASCII representation.
 260:../../Middlewares/Third_Party/LwIP/src/core/ipv4/ip4_addr.c ****  * returns ptr to static buffer; not reentrant!
 261:../../Middlewares/Third_Party/LwIP/src/core/ipv4/ip4_addr.c ****  *
 262:../../Middlewares/Third_Party/LwIP/src/core/ipv4/ip4_addr.c ****  * @param addr ip address in network order to convert
 263:../../Middlewares/Third_Party/LwIP/src/core/ipv4/ip4_addr.c ****  * @return pointer to a global static (!) buffer that holds the ASCII
 264:../../Middlewares/Third_Party/LwIP/src/core/ipv4/ip4_addr.c ****  *         representation of addr
 265:../../Middlewares/Third_Party/LwIP/src/core/ipv4/ip4_addr.c ****  */
 266:../../Middlewares/Third_Party/LwIP/src/core/ipv4/ip4_addr.c **** char *
 267:../../Middlewares/Third_Party/LwIP/src/core/ipv4/ip4_addr.c **** ip4addr_ntoa(const ip4_addr_t *addr)
 268:../../Middlewares/Third_Party/LwIP/src/core/ipv4/ip4_addr.c **** {
 269:../../Middlewares/Third_Party/LwIP/src/core/ipv4/ip4_addr.c ****   static char str[IP4ADDR_STRLEN_MAX];
 270:../../Middlewares/Third_Party/LwIP/src/core/ipv4/ip4_addr.c ****   return ip4addr_ntoa_r(addr, str, IP4ADDR_STRLEN_MAX);
 271:../../Middlewares/Third_Party/LwIP/src/core/ipv4/ip4_addr.c **** }
 272:../../Middlewares/Third_Party/LwIP/src/core/ipv4/ip4_addr.c **** 
 273:../../Middlewares/Third_Party/LwIP/src/core/ipv4/ip4_addr.c **** /**
 274:../../Middlewares/Third_Party/LwIP/src/core/ipv4/ip4_addr.c ****  * Same as ip4addr_ntoa, but reentrant since a user-supplied buffer is used.
 275:../../Middlewares/Third_Party/LwIP/src/core/ipv4/ip4_addr.c ****  *
 276:../../Middlewares/Third_Party/LwIP/src/core/ipv4/ip4_addr.c ****  * @param addr ip address in network order to convert
 277:../../Middlewares/Third_Party/LwIP/src/core/ipv4/ip4_addr.c ****  * @param buf target buffer where the string is stored
 278:../../Middlewares/Third_Party/LwIP/src/core/ipv4/ip4_addr.c ****  * @param buflen length of buf
 279:../../Middlewares/Third_Party/LwIP/src/core/ipv4/ip4_addr.c ****  * @return either pointer to buf which now holds the ASCII
 280:../../Middlewares/Third_Party/LwIP/src/core/ipv4/ip4_addr.c ****  *         representation of addr or NULL if buf was too small
 281:../../Middlewares/Third_Party/LwIP/src/core/ipv4/ip4_addr.c ****  */
 282:../../Middlewares/Third_Party/LwIP/src/core/ipv4/ip4_addr.c **** char *
ARM GAS  C:\Users\minis\AppData\Local\Temp\ccKRzXRi.s 			page 19


 283:../../Middlewares/Third_Party/LwIP/src/core/ipv4/ip4_addr.c **** ip4addr_ntoa_r(const ip4_addr_t *addr, char *buf, int buflen)
 284:../../Middlewares/Third_Party/LwIP/src/core/ipv4/ip4_addr.c **** {
 649              		.loc 1 284 1 is_stmt 1 view -0
 650              		.cfi_startproc
 651              		@ args = 0, pretend = 0, frame = 8
 652              		@ frame_needed = 0, uses_anonymous_args = 0
 653              		.loc 1 284 1 is_stmt 0 view .LVU197
 654 0000 2DE9F041 		push	{r4, r5, r6, r7, r8, lr}
 655              	.LCFI9:
 656              		.cfi_def_cfa_offset 24
 657              		.cfi_offset 4, -24
 658              		.cfi_offset 5, -20
 659              		.cfi_offset 6, -16
 660              		.cfi_offset 7, -12
 661              		.cfi_offset 8, -8
 662              		.cfi_offset 14, -4
 663 0004 82B0     		sub	sp, sp, #8
 664              	.LCFI10:
 665              		.cfi_def_cfa_offset 32
 666 0006 8846     		mov	r8, r1
 285:../../Middlewares/Third_Party/LwIP/src/core/ipv4/ip4_addr.c ****   u32_t s_addr;
 667              		.loc 1 285 3 is_stmt 1 view .LVU198
 286:../../Middlewares/Third_Party/LwIP/src/core/ipv4/ip4_addr.c ****   char inv[3];
 668              		.loc 1 286 3 view .LVU199
 287:../../Middlewares/Third_Party/LwIP/src/core/ipv4/ip4_addr.c ****   char *rp;
 669              		.loc 1 287 3 view .LVU200
 288:../../Middlewares/Third_Party/LwIP/src/core/ipv4/ip4_addr.c ****   u8_t *ap;
 670              		.loc 1 288 3 view .LVU201
 289:../../Middlewares/Third_Party/LwIP/src/core/ipv4/ip4_addr.c ****   u8_t rem;
 671              		.loc 1 289 3 view .LVU202
 290:../../Middlewares/Third_Party/LwIP/src/core/ipv4/ip4_addr.c ****   u8_t n;
 672              		.loc 1 290 3 view .LVU203
 291:../../Middlewares/Third_Party/LwIP/src/core/ipv4/ip4_addr.c ****   u8_t i;
 673              		.loc 1 291 3 view .LVU204
 292:../../Middlewares/Third_Party/LwIP/src/core/ipv4/ip4_addr.c ****   int len = 0;
 674              		.loc 1 292 3 view .LVU205
 675              	.LVL70:
 293:../../Middlewares/Third_Party/LwIP/src/core/ipv4/ip4_addr.c **** 
 294:../../Middlewares/Third_Party/LwIP/src/core/ipv4/ip4_addr.c ****   s_addr = ip4_addr_get_u32(addr);
 676              		.loc 1 294 3 view .LVU206
 677              		.loc 1 294 12 is_stmt 0 view .LVU207
 678 0008 0368     		ldr	r3, [r0]
 679              		.loc 1 294 10 view .LVU208
 680 000a 0193     		str	r3, [sp, #4]
 295:../../Middlewares/Third_Party/LwIP/src/core/ipv4/ip4_addr.c **** 
 296:../../Middlewares/Third_Party/LwIP/src/core/ipv4/ip4_addr.c ****   rp = buf;
 681              		.loc 1 296 3 is_stmt 1 view .LVU209
 682              	.LVL71:
 297:../../Middlewares/Third_Party/LwIP/src/core/ipv4/ip4_addr.c ****   ap = (u8_t *)&s_addr;
 683              		.loc 1 297 3 view .LVU210
 298:../../Middlewares/Third_Party/LwIP/src/core/ipv4/ip4_addr.c ****   for (n = 0; n < 4; n++) {
 684              		.loc 1 298 3 view .LVU211
 296:../../Middlewares/Third_Party/LwIP/src/core/ipv4/ip4_addr.c ****   ap = (u8_t *)&s_addr;
 685              		.loc 1 296 6 is_stmt 0 view .LVU212
 686 000c 0C46     		mov	r4, r1
 292:../../Middlewares/Third_Party/LwIP/src/core/ipv4/ip4_addr.c **** 
 687              		.loc 1 292 7 view .LVU213
ARM GAS  C:\Users\minis\AppData\Local\Temp\ccKRzXRi.s 			page 20


 688 000e 0026     		movs	r6, #0
 689              		.loc 1 298 10 view .LVU214
 690 0010 3046     		mov	r0, r6
 691              	.LVL72:
 297:../../Middlewares/Third_Party/LwIP/src/core/ipv4/ip4_addr.c ****   for (n = 0; n < 4; n++) {
 692              		.loc 1 297 6 view .LVU215
 693 0012 01AF     		add	r7, sp, #4
 694              	.LVL73:
 695              	.L63:
 696              		.loc 1 298 17 is_stmt 1 discriminator 1 view .LVU216
 697 0014 0328     		cmp	r0, #3
 698 0016 3BD8     		bhi	.L72
 299:../../Middlewares/Third_Party/LwIP/src/core/ipv4/ip4_addr.c ****     i = 0;
 699              		.loc 1 299 7 is_stmt 0 view .LVU217
 700 0018 0023     		movs	r3, #0
 701              	.L64:
 702              	.LVL74:
 300:../../Middlewares/Third_Party/LwIP/src/core/ipv4/ip4_addr.c ****     do {
 703              		.loc 1 300 5 is_stmt 1 view .LVU218
 301:../../Middlewares/Third_Party/LwIP/src/core/ipv4/ip4_addr.c ****       rem = *ap % (u8_t)10;
 704              		.loc 1 301 7 view .LVU219
 705              		.loc 1 301 13 is_stmt 0 view .LVU220
 706 001a 3D78     		ldrb	r5, [r7]	@ zero_extendqisi2
 707              		.loc 1 301 11 view .LVU221
 708 001c 2049     		ldr	r1, .L75
 709 001e A1FB05CE 		umull	ip, lr, r1, r5
 710 0022 4FEADE0E 		lsr	lr, lr, #3
 711 0026 0EEB8E0C 		add	ip, lr, lr, lsl #2
 712 002a A5EB4C0C 		sub	ip, r5, ip, lsl #1
 713 002e 5FFA8CFC 		uxtb	ip, ip
 714              	.LVL75:
 302:../../Middlewares/Third_Party/LwIP/src/core/ipv4/ip4_addr.c ****       *ap /= (u8_t)10;
 715              		.loc 1 302 7 is_stmt 1 view .LVU222
 716              		.loc 1 302 11 is_stmt 0 view .LVU223
 717 0032 87F800E0 		strb	lr, [r7]
 303:../../Middlewares/Third_Party/LwIP/src/core/ipv4/ip4_addr.c ****       inv[i++] = (char)('0' + rem);
 718              		.loc 1 303 7 is_stmt 1 view .LVU224
 719 0036 9E46     		mov	lr, r3
 720              		.loc 1 303 12 is_stmt 0 view .LVU225
 721 0038 0133     		adds	r3, r3, #1
 722              	.LVL76:
 723              		.loc 1 303 12 view .LVU226
 724 003a DBB2     		uxtb	r3, r3
 725              	.LVL77:
 726              		.loc 1 303 18 view .LVU227
 727 003c 0CF1300C 		add	ip, ip, #48
 728              	.LVL78:
 729              		.loc 1 303 16 view .LVU228
 730 0040 0EF10801 		add	r1, lr, #8
 731 0044 0DEB010E 		add	lr, sp, r1
 732 0048 0EF808CC 		strb	ip, [lr, #-8]
 304:../../Middlewares/Third_Party/LwIP/src/core/ipv4/ip4_addr.c ****     } while (*ap);
 733              		.loc 1 304 14 is_stmt 1 discriminator 1 view .LVU229
 734 004c 092D     		cmp	r5, #9
 735 004e E4D8     		bhi	.L64
 736 0050 09E0     		b	.L65
 737              	.LVL79:
ARM GAS  C:\Users\minis\AppData\Local\Temp\ccKRzXRi.s 			page 21


 738              	.L74:
 305:../../Middlewares/Third_Party/LwIP/src/core/ipv4/ip4_addr.c ****     while (i--) {
 306:../../Middlewares/Third_Party/LwIP/src/core/ipv4/ip4_addr.c ****       if (len++ >= buflen) {
 307:../../Middlewares/Third_Party/LwIP/src/core/ipv4/ip4_addr.c ****         return NULL;
 308:../../Middlewares/Third_Party/LwIP/src/core/ipv4/ip4_addr.c ****       }
 309:../../Middlewares/Third_Party/LwIP/src/core/ipv4/ip4_addr.c ****       *rp++ = inv[i];
 739              		.loc 1 309 7 view .LVU230
 740              		.loc 1 309 18 is_stmt 0 view .LVU231
 741 0052 05F10801 		add	r1, r5, #8
 742 0056 0DEB0106 		add	r6, sp, r1
 743 005a 16F8086C 		ldrb	r6, [r6, #-8]	@ zero_extendqisi2
 744              		.loc 1 309 13 view .LVU232
 745 005e 04F8016B 		strb	r6, [r4], #1
 746              	.LVL80:
 306:../../Middlewares/Third_Party/LwIP/src/core/ipv4/ip4_addr.c ****         return NULL;
 747              		.loc 1 306 14 view .LVU233
 748 0062 1E46     		mov	r6, r3
 305:../../Middlewares/Third_Party/LwIP/src/core/ipv4/ip4_addr.c ****     while (i--) {
 749              		.loc 1 305 13 view .LVU234
 750 0064 2B46     		mov	r3, r5
 751              	.LVL81:
 752              	.L65:
 305:../../Middlewares/Third_Party/LwIP/src/core/ipv4/ip4_addr.c ****     while (i--) {
 753              		.loc 1 305 12 is_stmt 1 view .LVU235
 305:../../Middlewares/Third_Party/LwIP/src/core/ipv4/ip4_addr.c ****     while (i--) {
 754              		.loc 1 305 13 is_stmt 0 view .LVU236
 755 0066 5D1E     		subs	r5, r3, #1
 756 0068 EDB2     		uxtb	r5, r5
 757              	.LVL82:
 305:../../Middlewares/Third_Party/LwIP/src/core/ipv4/ip4_addr.c ****     while (i--) {
 758              		.loc 1 305 12 view .LVU237
 759 006a 33B1     		cbz	r3, .L73
 306:../../Middlewares/Third_Party/LwIP/src/core/ipv4/ip4_addr.c ****         return NULL;
 760              		.loc 1 306 7 is_stmt 1 view .LVU238
 306:../../Middlewares/Third_Party/LwIP/src/core/ipv4/ip4_addr.c ****         return NULL;
 761              		.loc 1 306 14 is_stmt 0 view .LVU239
 762 006c 731C     		adds	r3, r6, #1
 763              	.LVL83:
 306:../../Middlewares/Third_Party/LwIP/src/core/ipv4/ip4_addr.c ****         return NULL;
 764              		.loc 1 306 10 view .LVU240
 765 006e 9642     		cmp	r6, r2
 766 0070 EFDB     		blt	.L74
 307:../../Middlewares/Third_Party/LwIP/src/core/ipv4/ip4_addr.c ****       }
 767              		.loc 1 307 16 view .LVU241
 768 0072 0020     		movs	r0, #0
 769              	.LVL84:
 770              	.L62:
 310:../../Middlewares/Third_Party/LwIP/src/core/ipv4/ip4_addr.c ****     }
 311:../../Middlewares/Third_Party/LwIP/src/core/ipv4/ip4_addr.c ****     if (len++ >= buflen) {
 312:../../Middlewares/Third_Party/LwIP/src/core/ipv4/ip4_addr.c ****       return NULL;
 313:../../Middlewares/Third_Party/LwIP/src/core/ipv4/ip4_addr.c ****     }
 314:../../Middlewares/Third_Party/LwIP/src/core/ipv4/ip4_addr.c ****     *rp++ = '.';
 315:../../Middlewares/Third_Party/LwIP/src/core/ipv4/ip4_addr.c ****     ap++;
 316:../../Middlewares/Third_Party/LwIP/src/core/ipv4/ip4_addr.c ****   }
 317:../../Middlewares/Third_Party/LwIP/src/core/ipv4/ip4_addr.c ****   *--rp = 0;
 318:../../Middlewares/Third_Party/LwIP/src/core/ipv4/ip4_addr.c ****   return buf;
 319:../../Middlewares/Third_Party/LwIP/src/core/ipv4/ip4_addr.c **** }
ARM GAS  C:\Users\minis\AppData\Local\Temp\ccKRzXRi.s 			page 22


 771              		.loc 1 319 1 view .LVU242
 772 0074 02B0     		add	sp, sp, #8
 773              	.LCFI11:
 774              		.cfi_remember_state
 775              		.cfi_def_cfa_offset 24
 776              		@ sp needed
 777 0076 BDE8F081 		pop	{r4, r5, r6, r7, r8, pc}
 778              	.LVL85:
 779              	.L73:
 780              	.LCFI12:
 781              		.cfi_restore_state
 311:../../Middlewares/Third_Party/LwIP/src/core/ipv4/ip4_addr.c ****       return NULL;
 782              		.loc 1 311 5 is_stmt 1 view .LVU243
 311:../../Middlewares/Third_Party/LwIP/src/core/ipv4/ip4_addr.c ****       return NULL;
 783              		.loc 1 311 12 is_stmt 0 view .LVU244
 784 007a 731C     		adds	r3, r6, #1
 785              	.LVL86:
 311:../../Middlewares/Third_Party/LwIP/src/core/ipv4/ip4_addr.c ****       return NULL;
 786              		.loc 1 311 8 view .LVU245
 787 007c 9642     		cmp	r6, r2
 788 007e 0CDA     		bge	.L69
 314:../../Middlewares/Third_Party/LwIP/src/core/ipv4/ip4_addr.c ****     ap++;
 789              		.loc 1 314 5 is_stmt 1 view .LVU246
 790              	.LVL87:
 314:../../Middlewares/Third_Party/LwIP/src/core/ipv4/ip4_addr.c ****     ap++;
 791              		.loc 1 314 11 is_stmt 0 view .LVU247
 792 0080 2E25     		movs	r5, #46
 793              	.LVL88:
 314:../../Middlewares/Third_Party/LwIP/src/core/ipv4/ip4_addr.c ****     ap++;
 794              		.loc 1 314 11 view .LVU248
 795 0082 04F8015B 		strb	r5, [r4], #1
 796              	.LVL89:
 315:../../Middlewares/Third_Party/LwIP/src/core/ipv4/ip4_addr.c ****   }
 797              		.loc 1 315 5 is_stmt 1 view .LVU249
 315:../../Middlewares/Third_Party/LwIP/src/core/ipv4/ip4_addr.c ****   }
 798              		.loc 1 315 7 is_stmt 0 view .LVU250
 799 0086 0137     		adds	r7, r7, #1
 800              	.LVL90:
 298:../../Middlewares/Third_Party/LwIP/src/core/ipv4/ip4_addr.c ****     i = 0;
 801              		.loc 1 298 23 is_stmt 1 discriminator 2 view .LVU251
 802 0088 0130     		adds	r0, r0, #1
 803              	.LVL91:
 298:../../Middlewares/Third_Party/LwIP/src/core/ipv4/ip4_addr.c ****     i = 0;
 804              		.loc 1 298 23 is_stmt 0 discriminator 2 view .LVU252
 805 008a C0B2     		uxtb	r0, r0
 806              	.LVL92:
 311:../../Middlewares/Third_Party/LwIP/src/core/ipv4/ip4_addr.c ****       return NULL;
 807              		.loc 1 311 12 view .LVU253
 808 008c 1E46     		mov	r6, r3
 809 008e C1E7     		b	.L63
 810              	.LVL93:
 811              	.L72:
 317:../../Middlewares/Third_Party/LwIP/src/core/ipv4/ip4_addr.c ****   return buf;
 812              		.loc 1 317 3 is_stmt 1 view .LVU254
 317:../../Middlewares/Third_Party/LwIP/src/core/ipv4/ip4_addr.c ****   return buf;
 813              		.loc 1 317 9 is_stmt 0 view .LVU255
 814 0090 0023     		movs	r3, #0
ARM GAS  C:\Users\minis\AppData\Local\Temp\ccKRzXRi.s 			page 23


 815 0092 04F8013C 		strb	r3, [r4, #-1]
 318:../../Middlewares/Third_Party/LwIP/src/core/ipv4/ip4_addr.c **** }
 816              		.loc 1 318 3 is_stmt 1 view .LVU256
 318:../../Middlewares/Third_Party/LwIP/src/core/ipv4/ip4_addr.c **** }
 817              		.loc 1 318 10 is_stmt 0 view .LVU257
 818 0096 4046     		mov	r0, r8
 819              	.LVL94:
 318:../../Middlewares/Third_Party/LwIP/src/core/ipv4/ip4_addr.c **** }
 820              		.loc 1 318 10 view .LVU258
 821 0098 ECE7     		b	.L62
 822              	.LVL95:
 823              	.L69:
 312:../../Middlewares/Third_Party/LwIP/src/core/ipv4/ip4_addr.c ****     }
 824              		.loc 1 312 14 view .LVU259
 825 009a 0020     		movs	r0, #0
 826              	.LVL96:
 312:../../Middlewares/Third_Party/LwIP/src/core/ipv4/ip4_addr.c ****     }
 827              		.loc 1 312 14 view .LVU260
 828 009c EAE7     		b	.L62
 829              	.L76:
 830 009e 00BF     		.align	2
 831              	.L75:
 832 00a0 CDCCCCCC 		.word	-858993459
 833              		.cfi_endproc
 834              	.LFE175:
 836              		.section	.text.ip4addr_ntoa,"ax",%progbits
 837              		.align	1
 838              		.global	ip4addr_ntoa
 839              		.syntax unified
 840              		.thumb
 841              		.thumb_func
 843              	ip4addr_ntoa:
 844              	.LVL97:
 845              	.LFB174:
 268:../../Middlewares/Third_Party/LwIP/src/core/ipv4/ip4_addr.c ****   static char str[IP4ADDR_STRLEN_MAX];
 846              		.loc 1 268 1 is_stmt 1 view -0
 847              		.cfi_startproc
 848              		@ args = 0, pretend = 0, frame = 0
 849              		@ frame_needed = 0, uses_anonymous_args = 0
 268:../../Middlewares/Third_Party/LwIP/src/core/ipv4/ip4_addr.c ****   static char str[IP4ADDR_STRLEN_MAX];
 850              		.loc 1 268 1 is_stmt 0 view .LVU262
 851 0000 08B5     		push	{r3, lr}
 852              	.LCFI13:
 853              		.cfi_def_cfa_offset 8
 854              		.cfi_offset 3, -8
 855              		.cfi_offset 14, -4
 269:../../Middlewares/Third_Party/LwIP/src/core/ipv4/ip4_addr.c ****   return ip4addr_ntoa_r(addr, str, IP4ADDR_STRLEN_MAX);
 856              		.loc 1 269 3 is_stmt 1 view .LVU263
 270:../../Middlewares/Third_Party/LwIP/src/core/ipv4/ip4_addr.c **** }
 857              		.loc 1 270 3 view .LVU264
 270:../../Middlewares/Third_Party/LwIP/src/core/ipv4/ip4_addr.c **** }
 858              		.loc 1 270 10 is_stmt 0 view .LVU265
 859 0002 1022     		movs	r2, #16
 860 0004 0149     		ldr	r1, .L79
 861 0006 FFF7FEFF 		bl	ip4addr_ntoa_r
 862              	.LVL98:
 271:../../Middlewares/Third_Party/LwIP/src/core/ipv4/ip4_addr.c **** 
ARM GAS  C:\Users\minis\AppData\Local\Temp\ccKRzXRi.s 			page 24


 863              		.loc 1 271 1 view .LVU266
 864 000a 08BD     		pop	{r3, pc}
 865              	.L80:
 866              		.align	2
 867              	.L79:
 868 000c 00000000 		.word	str.0
 869              		.cfi_endproc
 870              	.LFE174:
 872              		.section	.bss.str.0,"aw",%nobits
 873              		.align	2
 876              	str.0:
 877 0000 00000000 		.space	16
 877      00000000 
 877      00000000 
 877      00000000 
 878              		.global	ip_addr_broadcast
 879              		.section	.rodata.ip_addr_broadcast,"a"
 880              		.align	2
 883              	ip_addr_broadcast:
 884 0000 FFFFFFFF 		.word	-1
 885              		.global	ip_addr_any
 886              		.section	.rodata.ip_addr_any,"a"
 887              		.align	2
 890              	ip_addr_any:
 891 0000 00000000 		.space	4
 892              		.text
 893              	.Letext0:
 894              		.file 2 "C:/Program Files (x86)/Arm GNU Toolchain arm-none-eabi/14.3 rel1/arm-none-eabi/include/ma
 895              		.file 3 "C:/Program Files (x86)/Arm GNU Toolchain arm-none-eabi/14.3 rel1/arm-none-eabi/include/sy
 896              		.file 4 "../../Middlewares/Third_Party/LwIP/src/include/lwip/arch.h"
 897              		.file 5 "../../Middlewares/Third_Party/LwIP/src/include/lwip/ip4_addr.h"
 898              		.file 6 "../../Middlewares/Third_Party/LwIP/src/include/lwip/ip_addr.h"
 899              		.file 7 "C:/Program Files (x86)/Arm GNU Toolchain arm-none-eabi/14.3 rel1/arm-none-eabi/include/ct
 900              		.file 8 "../../Middlewares/Third_Party/LwIP/src/include/lwip/err.h"
 901              		.file 9 "../../Middlewares/Third_Party/LwIP/src/include/lwip/pbuf.h"
 902              		.file 10 "../../Middlewares/Third_Party/LwIP/src/include/lwip/netif.h"
 903              		.file 11 "C:/Program Files (x86)/Arm GNU Toolchain arm-none-eabi/14.3 rel1/arm-none-eabi/include/s
 904              		.file 12 "../../Middlewares/Third_Party/LwIP/src/include/lwip/def.h"
 905              		.file 13 "../../Middlewares/Third_Party/LwIP/src/include/lwip/memp.h"
ARM GAS  C:\Users\minis\AppData\Local\Temp\ccKRzXRi.s 			page 25

