ARM GAS  C:\Users\minis\AppData\Local\Temp\ccmXzkXc.s 			page 1


   1              		.cpu cortex-m7
   2              		.arch armv7e-m
   3              		.fpu fpv5-d16
   4              		.eabi_attribute 20, 1
   5              		.eabi_attribute 21, 1
   6              		.eabi_attribute 23, 3
   7              		.eabi_attribute 24, 1
   8              		.eabi_attribute 25, 1
   9              		.eabi_attribute 26, 1
  10              		.eabi_attribute 30, 1
  11              		.eabi_attribute 34, 1
  12              		.eabi_attribute 18, 4
  13              		.file	"microros_allocators.c"
  14              		.text
  15              	.Ltext0:
  16              		.cfi_sections	.debug_frame
  17              		.file 1 "../../micro_ros_stm32cubemx_utils/extra_sources/microros_allocators.c"
  18              		.section	.rodata.ensure_mutex_init.str1.4,"aMS",%progbits,1
  19              		.align	2
  20              	.LC0:
  21 0000 6D656D5F 		.ascii	"mem_mutex\000"
  21      6D757465 
  21      7800
  22              		.section	.text.ensure_mutex_init,"ax",%progbits
  23              		.align	1
  24              		.syntax unified
  25              		.thumb
  26              		.thumb_func
  28              	ensure_mutex_init:
  29              	.LFB4:
   1:../../micro_ros_stm32cubemx_utils/extra_sources/microros_allocators.c **** 
   2:../../micro_ros_stm32cubemx_utils/extra_sources/microros_allocators.c **** #include <unistd.h>
   3:../../micro_ros_stm32cubemx_utils/extra_sources/microros_allocators.c **** #include "cmsis_os.h"
   4:../../micro_ros_stm32cubemx_utils/extra_sources/microros_allocators.c **** 
   5:../../micro_ros_stm32cubemx_utils/extra_sources/microros_allocators.c **** /* Memory tracking variables with mutex protection */
   6:../../micro_ros_stm32cubemx_utils/extra_sources/microros_allocators.c **** static int absoluteUsedMemory = 0;
   7:../../micro_ros_stm32cubemx_utils/extra_sources/microros_allocators.c **** static int usedMemory = 0;
   8:../../micro_ros_stm32cubemx_utils/extra_sources/microros_allocators.c **** static osMutexId_t mem_mutex = NULL;
   9:../../micro_ros_stm32cubemx_utils/extra_sources/microros_allocators.c **** 
  10:../../micro_ros_stm32cubemx_utils/extra_sources/microros_allocators.c **** /* Forward declarations */
  11:../../micro_ros_stm32cubemx_utils/extra_sources/microros_allocators.c **** void *pvPortMallocMicroROS( size_t xWantedSize );
  12:../../micro_ros_stm32cubemx_utils/extra_sources/microros_allocators.c **** void vPortFreeMicroROS( void *pv );
  13:../../micro_ros_stm32cubemx_utils/extra_sources/microros_allocators.c **** void *pvPortReallocMicroROS( void *pv, size_t xWantedSize );
  14:../../micro_ros_stm32cubemx_utils/extra_sources/microros_allocators.c **** size_t getBlockSize( void *pv );
  15:../../micro_ros_stm32cubemx_utils/extra_sources/microros_allocators.c **** void *pvPortCallocMicroROS( size_t num, size_t xWantedSize );
  16:../../micro_ros_stm32cubemx_utils/extra_sources/microros_allocators.c **** 
  17:../../micro_ros_stm32cubemx_utils/extra_sources/microros_allocators.c **** /* Initialize mutex on first use */
  18:../../micro_ros_stm32cubemx_utils/extra_sources/microros_allocators.c **** static void ensure_mutex_init(void) {
  30              		.loc 1 18 37 view -0
  31              		.cfi_startproc
  32              		@ args = 0, pretend = 0, frame = 16
  33              		@ frame_needed = 0, uses_anonymous_args = 0
  19:../../micro_ros_stm32cubemx_utils/extra_sources/microros_allocators.c ****     if (mem_mutex == NULL) {
  34              		.loc 1 19 5 view .LVU1
  35              		.loc 1 19 19 is_stmt 0 view .LVU2
  36 0000 0A4B     		ldr	r3, .L8
  37 0002 1B68     		ldr	r3, [r3]
ARM GAS  C:\Users\minis\AppData\Local\Temp\ccmXzkXc.s 			page 2


  38              		.loc 1 19 8 view .LVU3
  39 0004 03B1     		cbz	r3, .L7
  40 0006 7047     		bx	lr
  41              	.L7:
  18:../../micro_ros_stm32cubemx_utils/extra_sources/microros_allocators.c ****     if (mem_mutex == NULL) {
  42              		.loc 1 18 37 view .LVU4
  43 0008 00B5     		push	{lr}
  44              	.LCFI0:
  45              		.cfi_def_cfa_offset 4
  46              		.cfi_offset 14, -4
  47 000a 85B0     		sub	sp, sp, #20
  48              	.LCFI1:
  49              		.cfi_def_cfa_offset 24
  50              	.LBB2:
  20:../../micro_ros_stm32cubemx_utils/extra_sources/microros_allocators.c ****         const osMutexAttr_t mem_mutex_attr = {
  51              		.loc 1 20 9 is_stmt 1 view .LVU5
  52              		.loc 1 20 29 is_stmt 0 view .LVU6
  53 000c 6846     		mov	r0, sp
  54 000e 0093     		str	r3, [sp]
  55 0010 0193     		str	r3, [sp, #4]
  56 0012 0293     		str	r3, [sp, #8]
  57 0014 0393     		str	r3, [sp, #12]
  58 0016 064B     		ldr	r3, .L8+4
  59 0018 0093     		str	r3, [sp]
  60 001a 0323     		movs	r3, #3
  61 001c 0193     		str	r3, [sp, #4]
  21:../../micro_ros_stm32cubemx_utils/extra_sources/microros_allocators.c ****             .name = "mem_mutex",
  22:../../micro_ros_stm32cubemx_utils/extra_sources/microros_allocators.c ****             .attr_bits = osMutexRecursive | osMutexPrioInherit,
  23:../../micro_ros_stm32cubemx_utils/extra_sources/microros_allocators.c ****         };
  24:../../micro_ros_stm32cubemx_utils/extra_sources/microros_allocators.c ****         mem_mutex = osMutexNew(&mem_mutex_attr);
  62              		.loc 1 24 9 is_stmt 1 view .LVU7
  63              		.loc 1 24 21 is_stmt 0 view .LVU8
  64 001e FFF7FEFF 		bl	osMutexNew
  65              	.LVL0:
  66              		.loc 1 24 19 discriminator 1 view .LVU9
  67 0022 024B     		ldr	r3, .L8
  68 0024 1860     		str	r0, [r3]
  69              	.LBE2:
  25:../../micro_ros_stm32cubemx_utils/extra_sources/microros_allocators.c ****     }
  26:../../micro_ros_stm32cubemx_utils/extra_sources/microros_allocators.c **** }
  70              		.loc 1 26 1 view .LVU10
  71 0026 05B0     		add	sp, sp, #20
  72              	.LCFI2:
  73              		.cfi_def_cfa_offset 4
  74              		@ sp needed
  75 0028 5DF804FB 		ldr	pc, [sp], #4
  76              	.L9:
  77              		.align	2
  78              	.L8:
  79 002c 00000000 		.word	mem_mutex
  80 0030 00000000 		.word	.LC0
  81              		.cfi_endproc
  82              	.LFE4:
  84              		.section	.text.microros_allocate,"ax",%progbits
  85              		.align	1
  86              		.global	microros_allocate
  87              		.syntax unified
ARM GAS  C:\Users\minis\AppData\Local\Temp\ccmXzkXc.s 			page 3


  88              		.thumb
  89              		.thumb_func
  91              	microros_allocate:
  92              	.LVL1:
  93              	.LFB5:
  27:../../micro_ros_stm32cubemx_utils/extra_sources/microros_allocators.c **** 
  28:../../micro_ros_stm32cubemx_utils/extra_sources/microros_allocators.c **** void * microros_allocate(size_t size, void * state){
  94              		.loc 1 28 52 is_stmt 1 view -0
  95              		.cfi_startproc
  96              		@ args = 0, pretend = 0, frame = 0
  97              		@ frame_needed = 0, uses_anonymous_args = 0
  98              		.loc 1 28 52 is_stmt 0 view .LVU12
  99 0000 38B5     		push	{r3, r4, r5, lr}
 100              	.LCFI3:
 101              		.cfi_def_cfa_offset 16
 102              		.cfi_offset 3, -16
 103              		.cfi_offset 4, -12
 104              		.cfi_offset 5, -8
 105              		.cfi_offset 14, -4
 106 0002 0446     		mov	r4, r0
  29:../../micro_ros_stm32cubemx_utils/extra_sources/microros_allocators.c ****   (void) state;
 107              		.loc 1 29 3 is_stmt 1 view .LVU13
  30:../../micro_ros_stm32cubemx_utils/extra_sources/microros_allocators.c ****   
  31:../../micro_ros_stm32cubemx_utils/extra_sources/microros_allocators.c ****   ensure_mutex_init();
 108              		.loc 1 31 3 view .LVU14
 109 0004 FFF7FEFF 		bl	ensure_mutex_init
 110              	.LVL2:
  32:../../micro_ros_stm32cubemx_utils/extra_sources/microros_allocators.c ****   
  33:../../micro_ros_stm32cubemx_utils/extra_sources/microros_allocators.c ****   void *ptr = pvPortMallocMicroROS(size);
 111              		.loc 1 33 3 view .LVU15
 112              		.loc 1 33 15 is_stmt 0 view .LVU16
 113 0008 2046     		mov	r0, r4
 114 000a FFF7FEFF 		bl	pvPortMallocMicroROS
 115              	.LVL3:
  34:../../micro_ros_stm32cubemx_utils/extra_sources/microros_allocators.c ****   
  35:../../micro_ros_stm32cubemx_utils/extra_sources/microros_allocators.c ****   if (ptr != NULL && mem_mutex != NULL) {
 116              		.loc 1 35 3 is_stmt 1 view .LVU17
 117              		.loc 1 35 6 is_stmt 0 view .LVU18
 118 000e 0546     		mov	r5, r0
 119 0010 90B1     		cbz	r0, .L10
 120              		.loc 1 35 32 discriminator 1 view .LVU19
 121 0012 0A4B     		ldr	r3, .L13
 122 0014 1868     		ldr	r0, [r3]
 123              	.LVL4:
 124              		.loc 1 35 19 discriminator 1 view .LVU20
 125 0016 78B1     		cbz	r0, .L10
  36:../../micro_ros_stm32cubemx_utils/extra_sources/microros_allocators.c ****     osMutexAcquire(mem_mutex, osWaitForever);
 126              		.loc 1 36 5 is_stmt 1 view .LVU21
 127 0018 4FF0FF31 		mov	r1, #-1
 128 001c FFF7FEFF 		bl	osMutexAcquire
 129              	.LVL5:
  37:../../micro_ros_stm32cubemx_utils/extra_sources/microros_allocators.c ****     absoluteUsedMemory += size;
 130              		.loc 1 37 5 view .LVU22
 131              		.loc 1 37 24 is_stmt 0 view .LVU23
 132 0020 074A     		ldr	r2, .L13+4
 133 0022 1368     		ldr	r3, [r2]
 134 0024 2344     		add	r3, r3, r4
ARM GAS  C:\Users\minis\AppData\Local\Temp\ccmXzkXc.s 			page 4


 135 0026 1360     		str	r3, [r2]
  38:../../micro_ros_stm32cubemx_utils/extra_sources/microros_allocators.c ****     usedMemory += size;
 136              		.loc 1 38 5 is_stmt 1 view .LVU24
 137              		.loc 1 38 16 is_stmt 0 view .LVU25
 138 0028 064A     		ldr	r2, .L13+8
 139 002a 1368     		ldr	r3, [r2]
 140 002c 2344     		add	r3, r3, r4
 141 002e 1360     		str	r3, [r2]
  39:../../micro_ros_stm32cubemx_utils/extra_sources/microros_allocators.c ****     osMutexRelease(mem_mutex);
 142              		.loc 1 39 5 is_stmt 1 view .LVU26
 143 0030 024B     		ldr	r3, .L13
 144 0032 1868     		ldr	r0, [r3]
 145 0034 FFF7FEFF 		bl	osMutexRelease
 146              	.LVL6:
  40:../../micro_ros_stm32cubemx_utils/extra_sources/microros_allocators.c ****   }
  41:../../micro_ros_stm32cubemx_utils/extra_sources/microros_allocators.c ****   
  42:../../micro_ros_stm32cubemx_utils/extra_sources/microros_allocators.c ****   return ptr;
 147              		.loc 1 42 3 view .LVU27
 148              	.L10:
  43:../../micro_ros_stm32cubemx_utils/extra_sources/microros_allocators.c **** }
 149              		.loc 1 43 1 is_stmt 0 view .LVU28
 150 0038 2846     		mov	r0, r5
 151 003a 38BD     		pop	{r3, r4, r5, pc}
 152              	.LVL7:
 153              	.L14:
 154              		.loc 1 43 1 view .LVU29
 155              		.align	2
 156              	.L13:
 157 003c 00000000 		.word	mem_mutex
 158 0040 00000000 		.word	absoluteUsedMemory
 159 0044 00000000 		.word	usedMemory
 160              		.cfi_endproc
 161              	.LFE5:
 163              		.section	.text.microros_deallocate,"ax",%progbits
 164              		.align	1
 165              		.global	microros_deallocate
 166              		.syntax unified
 167              		.thumb
 168              		.thumb_func
 170              	microros_deallocate:
 171              	.LVL8:
 172              	.LFB6:
  44:../../micro_ros_stm32cubemx_utils/extra_sources/microros_allocators.c **** 
  45:../../micro_ros_stm32cubemx_utils/extra_sources/microros_allocators.c **** void microros_deallocate(void * pointer, void * state){
 173              		.loc 1 45 55 is_stmt 1 view -0
 174              		.cfi_startproc
 175              		@ args = 0, pretend = 0, frame = 0
 176              		@ frame_needed = 0, uses_anonymous_args = 0
  46:../../micro_ros_stm32cubemx_utils/extra_sources/microros_allocators.c ****   (void) state;
 177              		.loc 1 46 3 view .LVU31
  47:../../micro_ros_stm32cubemx_utils/extra_sources/microros_allocators.c ****   
  48:../../micro_ros_stm32cubemx_utils/extra_sources/microros_allocators.c ****   if (pointer != NULL) {
 178              		.loc 1 48 3 view .LVU32
 179              		.loc 1 48 6 is_stmt 0 view .LVU33
 180 0000 B8B1     		cbz	r0, .L19
  45:../../micro_ros_stm32cubemx_utils/extra_sources/microros_allocators.c ****   (void) state;
 181              		.loc 1 45 55 view .LVU34
ARM GAS  C:\Users\minis\AppData\Local\Temp\ccmXzkXc.s 			page 5


 182 0002 38B5     		push	{r3, r4, r5, lr}
 183              	.LCFI4:
 184              		.cfi_def_cfa_offset 16
 185              		.cfi_offset 3, -16
 186              		.cfi_offset 4, -12
 187              		.cfi_offset 5, -8
 188              		.cfi_offset 14, -4
 189 0004 0446     		mov	r4, r0
 190              	.LBB3:
  49:../../micro_ros_stm32cubemx_utils/extra_sources/microros_allocators.c ****     size_t block_size = getBlockSize(pointer);
 191              		.loc 1 49 5 is_stmt 1 view .LVU35
 192              		.loc 1 49 25 is_stmt 0 view .LVU36
 193 0006 FFF7FEFF 		bl	getBlockSize
 194              	.LVL9:
 195              		.loc 1 49 25 view .LVU37
 196 000a 0546     		mov	r5, r0
 197              	.LVL10:
  50:../../micro_ros_stm32cubemx_utils/extra_sources/microros_allocators.c ****     
  51:../../micro_ros_stm32cubemx_utils/extra_sources/microros_allocators.c ****     if (mem_mutex != NULL) {
 198              		.loc 1 51 5 is_stmt 1 view .LVU38
 199              		.loc 1 51 19 is_stmt 0 view .LVU39
 200 000c 094B     		ldr	r3, .L22
 201 000e 1868     		ldr	r0, [r3]
 202              	.LVL11:
 203              		.loc 1 51 8 view .LVU40
 204 0010 58B1     		cbz	r0, .L17
  52:../../micro_ros_stm32cubemx_utils/extra_sources/microros_allocators.c ****       osMutexAcquire(mem_mutex, osWaitForever);
 205              		.loc 1 52 7 is_stmt 1 view .LVU41
 206 0012 4FF0FF31 		mov	r1, #-1
 207 0016 FFF7FEFF 		bl	osMutexAcquire
 208              	.LVL12:
  53:../../micro_ros_stm32cubemx_utils/extra_sources/microros_allocators.c ****       usedMemory -= block_size;
 209              		.loc 1 53 7 view .LVU42
 210              		.loc 1 53 18 is_stmt 0 view .LVU43
 211 001a 074A     		ldr	r2, .L22+4
 212 001c 1368     		ldr	r3, [r2]
 213 001e 5B1B     		subs	r3, r3, r5
 214 0020 1360     		str	r3, [r2]
  54:../../micro_ros_stm32cubemx_utils/extra_sources/microros_allocators.c ****       osMutexRelease(mem_mutex);
 215              		.loc 1 54 7 is_stmt 1 view .LVU44
 216 0022 044B     		ldr	r3, .L22
 217 0024 1868     		ldr	r0, [r3]
 218 0026 FFF7FEFF 		bl	osMutexRelease
 219              	.LVL13:
 220              	.L17:
  55:../../micro_ros_stm32cubemx_utils/extra_sources/microros_allocators.c ****     }
  56:../../micro_ros_stm32cubemx_utils/extra_sources/microros_allocators.c ****     
  57:../../micro_ros_stm32cubemx_utils/extra_sources/microros_allocators.c ****     vPortFreeMicroROS(pointer);
 221              		.loc 1 57 5 view .LVU45
 222 002a 2046     		mov	r0, r4
 223 002c FFF7FEFF 		bl	vPortFreeMicroROS
 224              	.LVL14:
 225              	.LBE3:
  58:../../micro_ros_stm32cubemx_utils/extra_sources/microros_allocators.c ****   }
  59:../../micro_ros_stm32cubemx_utils/extra_sources/microros_allocators.c **** }
 226              		.loc 1 59 1 is_stmt 0 view .LVU46
 227 0030 38BD     		pop	{r3, r4, r5, pc}
ARM GAS  C:\Users\minis\AppData\Local\Temp\ccmXzkXc.s 			page 6


 228              	.LVL15:
 229              	.L19:
 230              	.LCFI5:
 231              		.cfi_def_cfa_offset 0
 232              		.cfi_restore 3
 233              		.cfi_restore 4
 234              		.cfi_restore 5
 235              		.cfi_restore 14
 236              		.loc 1 59 1 view .LVU47
 237 0032 7047     		bx	lr
 238              	.L23:
 239              		.align	2
 240              	.L22:
 241 0034 00000000 		.word	mem_mutex
 242 0038 00000000 		.word	usedMemory
 243              		.cfi_endproc
 244              	.LFE6:
 246              		.section	.text.microros_reallocate,"ax",%progbits
 247              		.align	1
 248              		.global	microros_reallocate
 249              		.syntax unified
 250              		.thumb
 251              		.thumb_func
 253              	microros_reallocate:
 254              	.LVL16:
 255              	.LFB7:
  60:../../micro_ros_stm32cubemx_utils/extra_sources/microros_allocators.c **** 
  61:../../micro_ros_stm32cubemx_utils/extra_sources/microros_allocators.c **** void * microros_reallocate(void * pointer, size_t size, void * state){
 256              		.loc 1 61 70 is_stmt 1 view -0
 257              		.cfi_startproc
 258              		@ args = 0, pretend = 0, frame = 0
 259              		@ frame_needed = 0, uses_anonymous_args = 0
 260              		.loc 1 61 70 is_stmt 0 view .LVU49
 261 0000 70B5     		push	{r4, r5, r6, lr}
 262              	.LCFI6:
 263              		.cfi_def_cfa_offset 16
 264              		.cfi_offset 4, -16
 265              		.cfi_offset 5, -12
 266              		.cfi_offset 6, -8
 267              		.cfi_offset 14, -4
 268 0002 0546     		mov	r5, r0
 269 0004 0C46     		mov	r4, r1
  62:../../micro_ros_stm32cubemx_utils/extra_sources/microros_allocators.c ****   (void) state;
 270              		.loc 1 62 3 is_stmt 1 view .LVU50
  63:../../micro_ros_stm32cubemx_utils/extra_sources/microros_allocators.c ****   
  64:../../micro_ros_stm32cubemx_utils/extra_sources/microros_allocators.c ****   ensure_mutex_init();
 271              		.loc 1 64 3 view .LVU51
 272 0006 FFF7FEFF 		bl	ensure_mutex_init
 273              	.LVL17:
  65:../../micro_ros_stm32cubemx_utils/extra_sources/microros_allocators.c ****   
  66:../../micro_ros_stm32cubemx_utils/extra_sources/microros_allocators.c ****   size_t old_size = 0;
 274              		.loc 1 66 3 view .LVU52
  67:../../micro_ros_stm32cubemx_utils/extra_sources/microros_allocators.c ****   if (pointer != NULL) {
 275              		.loc 1 67 3 view .LVU53
 276              		.loc 1 67 6 is_stmt 0 view .LVU54
 277 000a 05B3     		cbz	r5, .L29
  68:../../micro_ros_stm32cubemx_utils/extra_sources/microros_allocators.c ****     old_size = getBlockSize(pointer);
ARM GAS  C:\Users\minis\AppData\Local\Temp\ccmXzkXc.s 			page 7


 278              		.loc 1 68 5 is_stmt 1 view .LVU55
 279              		.loc 1 68 16 is_stmt 0 view .LVU56
 280 000c 2846     		mov	r0, r5
 281 000e FFF7FEFF 		bl	getBlockSize
 282              	.LVL18:
 283 0012 0646     		mov	r6, r0
 284              	.LVL19:
  69:../../micro_ros_stm32cubemx_utils/extra_sources/microros_allocators.c ****   }
  70:../../micro_ros_stm32cubemx_utils/extra_sources/microros_allocators.c ****   
  71:../../micro_ros_stm32cubemx_utils/extra_sources/microros_allocators.c ****   void *ptr;
 285              		.loc 1 71 3 is_stmt 1 view .LVU57
  72:../../micro_ros_stm32cubemx_utils/extra_sources/microros_allocators.c ****   if (pointer == NULL) {
 286              		.loc 1 72 3 view .LVU58
  73:../../micro_ros_stm32cubemx_utils/extra_sources/microros_allocators.c ****     ptr = pvPortMallocMicroROS(size);
  74:../../micro_ros_stm32cubemx_utils/extra_sources/microros_allocators.c ****   } else {
  75:../../micro_ros_stm32cubemx_utils/extra_sources/microros_allocators.c ****     ptr = pvPortReallocMicroROS(pointer, size);
 287              		.loc 1 75 5 view .LVU59
 288              		.loc 1 75 11 is_stmt 0 view .LVU60
 289 0014 2146     		mov	r1, r4
 290 0016 2846     		mov	r0, r5
 291              	.LVL20:
 292              		.loc 1 75 11 view .LVU61
 293 0018 FFF7FEFF 		bl	pvPortReallocMicroROS
 294              	.LVL21:
 295 001c 0546     		mov	r5, r0
 296              	.LVL22:
 297              	.L26:
  76:../../micro_ros_stm32cubemx_utils/extra_sources/microros_allocators.c ****   }
  77:../../micro_ros_stm32cubemx_utils/extra_sources/microros_allocators.c ****   
  78:../../micro_ros_stm32cubemx_utils/extra_sources/microros_allocators.c ****   if (ptr != NULL && mem_mutex != NULL) {
 298              		.loc 1 78 3 is_stmt 1 view .LVU62
 299              		.loc 1 78 6 is_stmt 0 view .LVU63
 300 001e A5B1     		cbz	r5, .L24
 301              		.loc 1 78 32 discriminator 1 view .LVU64
 302 0020 0E4B     		ldr	r3, .L30
 303 0022 1868     		ldr	r0, [r3]
 304              		.loc 1 78 19 discriminator 1 view .LVU65
 305 0024 88B1     		cbz	r0, .L24
  79:../../micro_ros_stm32cubemx_utils/extra_sources/microros_allocators.c ****     osMutexAcquire(mem_mutex, osWaitForever);
 306              		.loc 1 79 5 is_stmt 1 view .LVU66
 307 0026 4FF0FF31 		mov	r1, #-1
 308 002a FFF7FEFF 		bl	osMutexAcquire
 309              	.LVL23:
  80:../../micro_ros_stm32cubemx_utils/extra_sources/microros_allocators.c ****     absoluteUsedMemory += size;
 310              		.loc 1 80 5 view .LVU67
 311              		.loc 1 80 24 is_stmt 0 view .LVU68
 312 002e 0C4A     		ldr	r2, .L30+4
 313 0030 1368     		ldr	r3, [r2]
 314 0032 2344     		add	r3, r3, r4
 315 0034 1360     		str	r3, [r2]
  81:../../micro_ros_stm32cubemx_utils/extra_sources/microros_allocators.c ****     usedMemory += size;
 316              		.loc 1 81 5 is_stmt 1 view .LVU69
 317              		.loc 1 81 16 is_stmt 0 view .LVU70
 318 0036 0B4B     		ldr	r3, .L30+8
 319 0038 1A68     		ldr	r2, [r3]
 320 003a 1444     		add	r4, r4, r2
 321              	.LVL24:
ARM GAS  C:\Users\minis\AppData\Local\Temp\ccmXzkXc.s 			page 8


 322              		.loc 1 81 16 view .LVU71
 323 003c 1C60     		str	r4, [r3]
  82:../../micro_ros_stm32cubemx_utils/extra_sources/microros_allocators.c ****     usedMemory -= old_size;
 324              		.loc 1 82 5 is_stmt 1 view .LVU72
 325              		.loc 1 82 16 is_stmt 0 view .LVU73
 326 003e A41B     		subs	r4, r4, r6
 327 0040 1C60     		str	r4, [r3]
  83:../../micro_ros_stm32cubemx_utils/extra_sources/microros_allocators.c ****     osMutexRelease(mem_mutex);
 328              		.loc 1 83 5 is_stmt 1 view .LVU74
 329 0042 064B     		ldr	r3, .L30
 330 0044 1868     		ldr	r0, [r3]
 331 0046 FFF7FEFF 		bl	osMutexRelease
 332              	.LVL25:
  84:../../micro_ros_stm32cubemx_utils/extra_sources/microros_allocators.c ****   }
  85:../../micro_ros_stm32cubemx_utils/extra_sources/microros_allocators.c ****   
  86:../../micro_ros_stm32cubemx_utils/extra_sources/microros_allocators.c ****   return ptr;
 333              		.loc 1 86 3 view .LVU75
 334              	.L24:
  87:../../micro_ros_stm32cubemx_utils/extra_sources/microros_allocators.c **** }
 335              		.loc 1 87 1 is_stmt 0 view .LVU76
 336 004a 2846     		mov	r0, r5
 337 004c 70BD     		pop	{r4, r5, r6, pc}
 338              	.LVL26:
 339              	.L29:
  71:../../micro_ros_stm32cubemx_utils/extra_sources/microros_allocators.c ****   if (pointer == NULL) {
 340              		.loc 1 71 3 is_stmt 1 view .LVU77
  72:../../micro_ros_stm32cubemx_utils/extra_sources/microros_allocators.c ****     ptr = pvPortMallocMicroROS(size);
 341              		.loc 1 72 3 view .LVU78
  73:../../micro_ros_stm32cubemx_utils/extra_sources/microros_allocators.c ****   } else {
 342              		.loc 1 73 5 view .LVU79
  73:../../micro_ros_stm32cubemx_utils/extra_sources/microros_allocators.c ****   } else {
 343              		.loc 1 73 11 is_stmt 0 view .LVU80
 344 004e 2046     		mov	r0, r4
 345 0050 FFF7FEFF 		bl	pvPortMallocMicroROS
 346              	.LVL27:
 347 0054 0546     		mov	r5, r0
 348              	.LVL28:
  73:../../micro_ros_stm32cubemx_utils/extra_sources/microros_allocators.c ****   } else {
 349              		.loc 1 73 11 view .LVU81
 350 0056 0026     		movs	r6, #0
 351 0058 E1E7     		b	.L26
 352              	.L31:
 353 005a 00BF     		.align	2
 354              	.L30:
 355 005c 00000000 		.word	mem_mutex
 356 0060 00000000 		.word	absoluteUsedMemory
 357 0064 00000000 		.word	usedMemory
 358              		.cfi_endproc
 359              	.LFE7:
 361              		.section	.text.microros_zero_allocate,"ax",%progbits
 362              		.align	1
 363              		.global	microros_zero_allocate
 364              		.syntax unified
 365              		.thumb
 366              		.thumb_func
 368              	microros_zero_allocate:
 369              	.LVL29:
ARM GAS  C:\Users\minis\AppData\Local\Temp\ccmXzkXc.s 			page 9


 370              	.LFB8:
  88:../../micro_ros_stm32cubemx_utils/extra_sources/microros_allocators.c **** 
  89:../../micro_ros_stm32cubemx_utils/extra_sources/microros_allocators.c **** void * microros_zero_allocate(size_t number_of_elements, size_t size_of_element, void * state){
 371              		.loc 1 89 95 is_stmt 1 view -0
 372              		.cfi_startproc
 373              		@ args = 0, pretend = 0, frame = 0
 374              		@ frame_needed = 0, uses_anonymous_args = 0
 375              		.loc 1 89 95 is_stmt 0 view .LVU83
 376 0000 70B5     		push	{r4, r5, r6, lr}
 377              	.LCFI7:
 378              		.cfi_def_cfa_offset 16
 379              		.cfi_offset 4, -16
 380              		.cfi_offset 5, -12
 381              		.cfi_offset 6, -8
 382              		.cfi_offset 14, -4
 383 0002 0446     		mov	r4, r0
 384 0004 0D46     		mov	r5, r1
  90:../../micro_ros_stm32cubemx_utils/extra_sources/microros_allocators.c ****   (void) state;
 385              		.loc 1 90 3 is_stmt 1 view .LVU84
  91:../../micro_ros_stm32cubemx_utils/extra_sources/microros_allocators.c ****   
  92:../../micro_ros_stm32cubemx_utils/extra_sources/microros_allocators.c ****   ensure_mutex_init();
 386              		.loc 1 92 3 view .LVU85
 387 0006 FFF7FEFF 		bl	ensure_mutex_init
 388              	.LVL30:
  93:../../micro_ros_stm32cubemx_utils/extra_sources/microros_allocators.c ****   
  94:../../micro_ros_stm32cubemx_utils/extra_sources/microros_allocators.c ****   size_t total_size = number_of_elements * size_of_element;
 389              		.loc 1 94 3 view .LVU86
 390              		.loc 1 94 10 is_stmt 0 view .LVU87
 391 000a 05FB04F6 		mul	r6, r5, r4
 392              	.LVL31:
  95:../../micro_ros_stm32cubemx_utils/extra_sources/microros_allocators.c ****   void *ptr = pvPortCallocMicroROS(number_of_elements, size_of_element);
 393              		.loc 1 95 3 is_stmt 1 view .LVU88
 394              		.loc 1 95 15 is_stmt 0 view .LVU89
 395 000e 2946     		mov	r1, r5
 396 0010 2046     		mov	r0, r4
 397 0012 FFF7FEFF 		bl	pvPortCallocMicroROS
 398              	.LVL32:
  96:../../micro_ros_stm32cubemx_utils/extra_sources/microros_allocators.c ****   
  97:../../micro_ros_stm32cubemx_utils/extra_sources/microros_allocators.c ****   if (ptr != NULL && mem_mutex != NULL) {
 399              		.loc 1 97 3 is_stmt 1 view .LVU90
 400              		.loc 1 97 6 is_stmt 0 view .LVU91
 401 0016 0446     		mov	r4, r0
 402              	.LVL33:
 403              		.loc 1 97 6 view .LVU92
 404 0018 90B1     		cbz	r0, .L32
 405              		.loc 1 97 32 discriminator 1 view .LVU93
 406 001a 0A4B     		ldr	r3, .L35
 407 001c 1868     		ldr	r0, [r3]
 408              	.LVL34:
 409              		.loc 1 97 19 discriminator 1 view .LVU94
 410 001e 78B1     		cbz	r0, .L32
  98:../../micro_ros_stm32cubemx_utils/extra_sources/microros_allocators.c ****     osMutexAcquire(mem_mutex, osWaitForever);
 411              		.loc 1 98 5 is_stmt 1 view .LVU95
 412 0020 4FF0FF31 		mov	r1, #-1
 413 0024 FFF7FEFF 		bl	osMutexAcquire
 414              	.LVL35:
  99:../../micro_ros_stm32cubemx_utils/extra_sources/microros_allocators.c ****     absoluteUsedMemory += total_size;
ARM GAS  C:\Users\minis\AppData\Local\Temp\ccmXzkXc.s 			page 10


 415              		.loc 1 99 5 view .LVU96
 416              		.loc 1 99 24 is_stmt 0 view .LVU97
 417 0028 074A     		ldr	r2, .L35+4
 418 002a 1368     		ldr	r3, [r2]
 419 002c 3344     		add	r3, r3, r6
 420 002e 1360     		str	r3, [r2]
 100:../../micro_ros_stm32cubemx_utils/extra_sources/microros_allocators.c ****     usedMemory += total_size;
 421              		.loc 1 100 5 is_stmt 1 view .LVU98
 422              		.loc 1 100 16 is_stmt 0 view .LVU99
 423 0030 064A     		ldr	r2, .L35+8
 424 0032 1368     		ldr	r3, [r2]
 425 0034 3344     		add	r3, r3, r6
 426 0036 1360     		str	r3, [r2]
 101:../../micro_ros_stm32cubemx_utils/extra_sources/microros_allocators.c ****     osMutexRelease(mem_mutex);
 427              		.loc 1 101 5 is_stmt 1 view .LVU100
 428 0038 024B     		ldr	r3, .L35
 429 003a 1868     		ldr	r0, [r3]
 430 003c FFF7FEFF 		bl	osMutexRelease
 431              	.LVL36:
 102:../../micro_ros_stm32cubemx_utils/extra_sources/microros_allocators.c ****   }
 103:../../micro_ros_stm32cubemx_utils/extra_sources/microros_allocators.c ****   
 104:../../micro_ros_stm32cubemx_utils/extra_sources/microros_allocators.c ****   return ptr;
 432              		.loc 1 104 3 view .LVU101
 433              	.L32:
 105:../../micro_ros_stm32cubemx_utils/extra_sources/microros_allocators.c **** }
 434              		.loc 1 105 1 is_stmt 0 view .LVU102
 435 0040 2046     		mov	r0, r4
 436 0042 70BD     		pop	{r4, r5, r6, pc}
 437              	.LVL37:
 438              	.L36:
 439              		.loc 1 105 1 view .LVU103
 440              		.align	2
 441              	.L35:
 442 0044 00000000 		.word	mem_mutex
 443 0048 00000000 		.word	absoluteUsedMemory
 444 004c 00000000 		.word	usedMemory
 445              		.cfi_endproc
 446              	.LFE8:
 448              		.section	.text.microros_get_absolute_used_memory,"ax",%progbits
 449              		.align	1
 450              		.global	microros_get_absolute_used_memory
 451              		.syntax unified
 452              		.thumb
 453              		.thumb_func
 455              	microros_get_absolute_used_memory:
 456              	.LFB9:
 106:../../micro_ros_stm32cubemx_utils/extra_sources/microros_allocators.c **** 
 107:../../micro_ros_stm32cubemx_utils/extra_sources/microros_allocators.c **** /* Utility functions for memory diagnostics */
 108:../../micro_ros_stm32cubemx_utils/extra_sources/microros_allocators.c **** int microros_get_absolute_used_memory(void) {
 457              		.loc 1 108 45 is_stmt 1 view -0
 458              		.cfi_startproc
 459              		@ args = 0, pretend = 0, frame = 0
 460              		@ frame_needed = 0, uses_anonymous_args = 0
 461              		@ link register save eliminated.
 109:../../micro_ros_stm32cubemx_utils/extra_sources/microros_allocators.c ****     return absoluteUsedMemory;
 462              		.loc 1 109 5 view .LVU105
 110:../../micro_ros_stm32cubemx_utils/extra_sources/microros_allocators.c **** }
ARM GAS  C:\Users\minis\AppData\Local\Temp\ccmXzkXc.s 			page 11


 463              		.loc 1 110 1 is_stmt 0 view .LVU106
 464 0000 014B     		ldr	r3, .L38
 465 0002 1868     		ldr	r0, [r3]
 466 0004 7047     		bx	lr
 467              	.L39:
 468 0006 00BF     		.align	2
 469              	.L38:
 470 0008 00000000 		.word	absoluteUsedMemory
 471              		.cfi_endproc
 472              	.LFE9:
 474              		.section	.text.microros_get_used_memory,"ax",%progbits
 475              		.align	1
 476              		.global	microros_get_used_memory
 477              		.syntax unified
 478              		.thumb
 479              		.thumb_func
 481              	microros_get_used_memory:
 482              	.LFB10:
 111:../../micro_ros_stm32cubemx_utils/extra_sources/microros_allocators.c **** 
 112:../../micro_ros_stm32cubemx_utils/extra_sources/microros_allocators.c **** int microros_get_used_memory(void) {
 483              		.loc 1 112 36 is_stmt 1 view -0
 484              		.cfi_startproc
 485              		@ args = 0, pretend = 0, frame = 0
 486              		@ frame_needed = 0, uses_anonymous_args = 0
 487              		@ link register save eliminated.
 113:../../micro_ros_stm32cubemx_utils/extra_sources/microros_allocators.c ****     return usedMemory;
 488              		.loc 1 113 5 view .LVU108
 114:../../micro_ros_stm32cubemx_utils/extra_sources/microros_allocators.c **** }
 489              		.loc 1 114 1 is_stmt 0 view .LVU109
 490 0000 014B     		ldr	r3, .L41
 491 0002 1868     		ldr	r0, [r3]
 492 0004 7047     		bx	lr
 493              	.L42:
 494 0006 00BF     		.align	2
 495              	.L41:
 496 0008 00000000 		.word	usedMemory
 497              		.cfi_endproc
 498              	.LFE10:
 500              		.section	.bss.mem_mutex,"aw",%nobits
 501              		.align	2
 504              	mem_mutex:
 505 0000 00000000 		.space	4
 506              		.section	.bss.usedMemory,"aw",%nobits
 507              		.align	2
 510              	usedMemory:
 511 0000 00000000 		.space	4
 512              		.section	.bss.absoluteUsedMemory,"aw",%nobits
 513              		.align	2
 516              	absoluteUsedMemory:
 517 0000 00000000 		.space	4
 518              		.text
 519              	.Letext0:
 520              		.file 2 "C:/Program Files (x86)/Arm GNU Toolchain arm-none-eabi/14.3 rel1/arm-none-eabi/include/ma
 521              		.file 3 "C:/Program Files (x86)/Arm GNU Toolchain arm-none-eabi/14.3 rel1/lib/gcc/arm-none-eabi/14
 522              		.file 4 "C:/Program Files (x86)/Arm GNU Toolchain arm-none-eabi/14.3 rel1/arm-none-eabi/include/sy
 523              		.file 5 "../../Middlewares/Third_Party/FreeRTOS/Source/CMSIS_RTOS_V2/cmsis_os2.h"
ARM GAS  C:\Users\minis\AppData\Local\Temp\ccmXzkXc.s 			page 12

