ARM GAS  C:\Users\minis\AppData\Local\Temp\ccG6JyYg.s 			page 1


   1              		.cpu cortex-m7
   2              		.arch armv7e-m
   3              		.fpu fpv5-d16
   4              		.eabi_attribute 20, 1
   5              		.eabi_attribute 21, 1
   6              		.eabi_attribute 23, 3
   7              		.eabi_attribute 24, 1
   8              		.eabi_attribute 25, 1
   9              		.eabi_attribute 26, 1
  10              		.eabi_attribute 30, 1
  11              		.eabi_attribute 34, 1
  12              		.eabi_attribute 18, 4
  13              		.file	"mqtt.c"
  14              		.text
  15              	.Ltext0:
  16              		.cfi_sections	.debug_frame
  17              		.file 1 "../../Middlewares/Third_Party/LwIP/src/apps/mqtt/mqtt.c"
  18              		.section	.text.msg_generate_packet_id,"ax",%progbits
  19              		.align	1
  20              		.syntax unified
  21              		.thumb
  22              		.thumb_func
  24              	msg_generate_packet_id:
  25              	.LVL0:
  26              	.LFB174:
   1:../../Middlewares/Third_Party/LwIP/src/apps/mqtt/mqtt.c **** /**
   2:../../Middlewares/Third_Party/LwIP/src/apps/mqtt/mqtt.c ****  * @file
   3:../../Middlewares/Third_Party/LwIP/src/apps/mqtt/mqtt.c ****  * MQTT client
   4:../../Middlewares/Third_Party/LwIP/src/apps/mqtt/mqtt.c ****  *
   5:../../Middlewares/Third_Party/LwIP/src/apps/mqtt/mqtt.c ****  * @defgroup mqtt MQTT client
   6:../../Middlewares/Third_Party/LwIP/src/apps/mqtt/mqtt.c ****  * @ingroup apps
   7:../../Middlewares/Third_Party/LwIP/src/apps/mqtt/mqtt.c ****  * @verbinclude mqtt_client.txt
   8:../../Middlewares/Third_Party/LwIP/src/apps/mqtt/mqtt.c ****  */
   9:../../Middlewares/Third_Party/LwIP/src/apps/mqtt/mqtt.c **** 
  10:../../Middlewares/Third_Party/LwIP/src/apps/mqtt/mqtt.c **** /*
  11:../../Middlewares/Third_Party/LwIP/src/apps/mqtt/mqtt.c ****  * Copyright (c) 2016 Erik Andersson <erian747@gmail.com>
  12:../../Middlewares/Third_Party/LwIP/src/apps/mqtt/mqtt.c ****  * All rights reserved.
  13:../../Middlewares/Third_Party/LwIP/src/apps/mqtt/mqtt.c ****  *
  14:../../Middlewares/Third_Party/LwIP/src/apps/mqtt/mqtt.c ****  * Redistribution and use in source and binary forms, with or without modification,
  15:../../Middlewares/Third_Party/LwIP/src/apps/mqtt/mqtt.c ****  * are permitted provided that the following conditions are met:
  16:../../Middlewares/Third_Party/LwIP/src/apps/mqtt/mqtt.c ****  *
  17:../../Middlewares/Third_Party/LwIP/src/apps/mqtt/mqtt.c ****  * 1. Redistributions of source code must retain the above copyright notice,
  18:../../Middlewares/Third_Party/LwIP/src/apps/mqtt/mqtt.c ****  *    this list of conditions and the following disclaimer.
  19:../../Middlewares/Third_Party/LwIP/src/apps/mqtt/mqtt.c ****  * 2. Redistributions in binary form must reproduce the above copyright notice,
  20:../../Middlewares/Third_Party/LwIP/src/apps/mqtt/mqtt.c ****  *    this list of conditions and the following disclaimer in the documentation
  21:../../Middlewares/Third_Party/LwIP/src/apps/mqtt/mqtt.c ****  *    and/or other materials provided with the distribution.
  22:../../Middlewares/Third_Party/LwIP/src/apps/mqtt/mqtt.c ****  * 3. The name of the author may not be used to endorse or promote products
  23:../../Middlewares/Third_Party/LwIP/src/apps/mqtt/mqtt.c ****  *    derived from this software without specific prior written permission.
  24:../../Middlewares/Third_Party/LwIP/src/apps/mqtt/mqtt.c ****  *
  25:../../Middlewares/Third_Party/LwIP/src/apps/mqtt/mqtt.c ****  * THIS SOFTWARE IS PROVIDED BY THE AUTHOR ``AS IS'' AND ANY EXPRESS OR IMPLIED
  26:../../Middlewares/Third_Party/LwIP/src/apps/mqtt/mqtt.c ****  * WARRANTIES, INCLUDING, BUT NOT LIMITED TO, THE IMPLIED WARRANTIES OF
  27:../../Middlewares/Third_Party/LwIP/src/apps/mqtt/mqtt.c ****  * MERCHANTABILITY AND FITNESS FOR A PARTICULAR PURPOSE ARE DISCLAIMED. IN NO EVENT
  28:../../Middlewares/Third_Party/LwIP/src/apps/mqtt/mqtt.c ****  * SHALL THE AUTHOR BE LIABLE FOR ANY DIRECT, INDIRECT, INCIDENTAL, SPECIAL,
  29:../../Middlewares/Third_Party/LwIP/src/apps/mqtt/mqtt.c ****  * EXEMPLARY, OR CONSEQUENTIAL DAMAGES (INCLUDING, BUT NOT LIMITED TO, PROCUREMENT
  30:../../Middlewares/Third_Party/LwIP/src/apps/mqtt/mqtt.c ****  * OF SUBSTITUTE GOODS OR SERVICES; LOSS OF USE, DATA, OR PROFITS; OR BUSINESS
  31:../../Middlewares/Third_Party/LwIP/src/apps/mqtt/mqtt.c ****  * INTERRUPTION) HOWEVER CAUSED AND ON ANY THEORY OF LIABILITY, WHETHER IN
  32:../../Middlewares/Third_Party/LwIP/src/apps/mqtt/mqtt.c ****  * CONTRACT, STRICT LIABILITY, OR TORT (INCLUDING NEGLIGENCE OR OTHERWISE) ARISING
ARM GAS  C:\Users\minis\AppData\Local\Temp\ccG6JyYg.s 			page 2


  33:../../Middlewares/Third_Party/LwIP/src/apps/mqtt/mqtt.c ****  * IN ANY WAY OUT OF THE USE OF THIS SOFTWARE, EVEN IF ADVISED OF THE POSSIBILITY
  34:../../Middlewares/Third_Party/LwIP/src/apps/mqtt/mqtt.c ****  * OF SUCH DAMAGE.
  35:../../Middlewares/Third_Party/LwIP/src/apps/mqtt/mqtt.c ****  *
  36:../../Middlewares/Third_Party/LwIP/src/apps/mqtt/mqtt.c ****  * This file is part of the lwIP TCP/IP stack
  37:../../Middlewares/Third_Party/LwIP/src/apps/mqtt/mqtt.c ****  *
  38:../../Middlewares/Third_Party/LwIP/src/apps/mqtt/mqtt.c ****  * Author: Erik Andersson <erian747@gmail.com>
  39:../../Middlewares/Third_Party/LwIP/src/apps/mqtt/mqtt.c ****  *
  40:../../Middlewares/Third_Party/LwIP/src/apps/mqtt/mqtt.c ****  *
  41:../../Middlewares/Third_Party/LwIP/src/apps/mqtt/mqtt.c ****  * @todo:
  42:../../Middlewares/Third_Party/LwIP/src/apps/mqtt/mqtt.c ****  * - Handle large outgoing payloads for PUBLISH messages
  43:../../Middlewares/Third_Party/LwIP/src/apps/mqtt/mqtt.c ****  * - Fix restriction of a single topic in each (UN)SUBSCRIBE message (protocol has support for mult
  44:../../Middlewares/Third_Party/LwIP/src/apps/mqtt/mqtt.c ****  * - Add support for legacy MQTT protocol version
  45:../../Middlewares/Third_Party/LwIP/src/apps/mqtt/mqtt.c ****  *
  46:../../Middlewares/Third_Party/LwIP/src/apps/mqtt/mqtt.c ****  * Please coordinate changes and requests with Erik Andersson
  47:../../Middlewares/Third_Party/LwIP/src/apps/mqtt/mqtt.c ****  * Erik Andersson <erian747@gmail.com>
  48:../../Middlewares/Third_Party/LwIP/src/apps/mqtt/mqtt.c ****  *
  49:../../Middlewares/Third_Party/LwIP/src/apps/mqtt/mqtt.c ****  */
  50:../../Middlewares/Third_Party/LwIP/src/apps/mqtt/mqtt.c **** #include "lwip/apps/mqtt.h"
  51:../../Middlewares/Third_Party/LwIP/src/apps/mqtt/mqtt.c **** #include "lwip/apps/mqtt_priv.h"
  52:../../Middlewares/Third_Party/LwIP/src/apps/mqtt/mqtt.c **** #include "lwip/timeouts.h"
  53:../../Middlewares/Third_Party/LwIP/src/apps/mqtt/mqtt.c **** #include "lwip/ip_addr.h"
  54:../../Middlewares/Third_Party/LwIP/src/apps/mqtt/mqtt.c **** #include "lwip/mem.h"
  55:../../Middlewares/Third_Party/LwIP/src/apps/mqtt/mqtt.c **** #include "lwip/err.h"
  56:../../Middlewares/Third_Party/LwIP/src/apps/mqtt/mqtt.c **** #include "lwip/pbuf.h"
  57:../../Middlewares/Third_Party/LwIP/src/apps/mqtt/mqtt.c **** #include "lwip/altcp.h"
  58:../../Middlewares/Third_Party/LwIP/src/apps/mqtt/mqtt.c **** #include "lwip/altcp_tcp.h"
  59:../../Middlewares/Third_Party/LwIP/src/apps/mqtt/mqtt.c **** #include "lwip/altcp_tls.h"
  60:../../Middlewares/Third_Party/LwIP/src/apps/mqtt/mqtt.c **** #include <string.h>
  61:../../Middlewares/Third_Party/LwIP/src/apps/mqtt/mqtt.c **** 
  62:../../Middlewares/Third_Party/LwIP/src/apps/mqtt/mqtt.c **** #if LWIP_TCP && LWIP_CALLBACK_API
  63:../../Middlewares/Third_Party/LwIP/src/apps/mqtt/mqtt.c **** 
  64:../../Middlewares/Third_Party/LwIP/src/apps/mqtt/mqtt.c **** /**
  65:../../Middlewares/Third_Party/LwIP/src/apps/mqtt/mqtt.c ****  * MQTT_DEBUG: Default is off.
  66:../../Middlewares/Third_Party/LwIP/src/apps/mqtt/mqtt.c ****  */
  67:../../Middlewares/Third_Party/LwIP/src/apps/mqtt/mqtt.c **** #if !defined MQTT_DEBUG || defined __DOXYGEN__
  68:../../Middlewares/Third_Party/LwIP/src/apps/mqtt/mqtt.c **** #define MQTT_DEBUG                  LWIP_DBG_OFF
  69:../../Middlewares/Third_Party/LwIP/src/apps/mqtt/mqtt.c **** #endif
  70:../../Middlewares/Third_Party/LwIP/src/apps/mqtt/mqtt.c **** 
  71:../../Middlewares/Third_Party/LwIP/src/apps/mqtt/mqtt.c **** #define MQTT_DEBUG_TRACE        (MQTT_DEBUG | LWIP_DBG_TRACE)
  72:../../Middlewares/Third_Party/LwIP/src/apps/mqtt/mqtt.c **** #define MQTT_DEBUG_STATE        (MQTT_DEBUG | LWIP_DBG_STATE)
  73:../../Middlewares/Third_Party/LwIP/src/apps/mqtt/mqtt.c **** #define MQTT_DEBUG_WARN         (MQTT_DEBUG | LWIP_DBG_LEVEL_WARNING)
  74:../../Middlewares/Third_Party/LwIP/src/apps/mqtt/mqtt.c **** #define MQTT_DEBUG_WARN_STATE   (MQTT_DEBUG | LWIP_DBG_LEVEL_WARNING | LWIP_DBG_STATE)
  75:../../Middlewares/Third_Party/LwIP/src/apps/mqtt/mqtt.c **** #define MQTT_DEBUG_SERIOUS      (MQTT_DEBUG | LWIP_DBG_LEVEL_SERIOUS)
  76:../../Middlewares/Third_Party/LwIP/src/apps/mqtt/mqtt.c **** 
  77:../../Middlewares/Third_Party/LwIP/src/apps/mqtt/mqtt.c **** 
  78:../../Middlewares/Third_Party/LwIP/src/apps/mqtt/mqtt.c **** 
  79:../../Middlewares/Third_Party/LwIP/src/apps/mqtt/mqtt.c **** /**
  80:../../Middlewares/Third_Party/LwIP/src/apps/mqtt/mqtt.c ****  * MQTT client connection states
  81:../../Middlewares/Third_Party/LwIP/src/apps/mqtt/mqtt.c ****  */
  82:../../Middlewares/Third_Party/LwIP/src/apps/mqtt/mqtt.c **** enum {
  83:../../Middlewares/Third_Party/LwIP/src/apps/mqtt/mqtt.c ****   TCP_DISCONNECTED,
  84:../../Middlewares/Third_Party/LwIP/src/apps/mqtt/mqtt.c ****   TCP_CONNECTING,
  85:../../Middlewares/Third_Party/LwIP/src/apps/mqtt/mqtt.c ****   MQTT_CONNECTING,
  86:../../Middlewares/Third_Party/LwIP/src/apps/mqtt/mqtt.c ****   MQTT_CONNECTED
  87:../../Middlewares/Third_Party/LwIP/src/apps/mqtt/mqtt.c **** };
  88:../../Middlewares/Third_Party/LwIP/src/apps/mqtt/mqtt.c **** 
  89:../../Middlewares/Third_Party/LwIP/src/apps/mqtt/mqtt.c **** /**
ARM GAS  C:\Users\minis\AppData\Local\Temp\ccG6JyYg.s 			page 3


  90:../../Middlewares/Third_Party/LwIP/src/apps/mqtt/mqtt.c ****  * MQTT control message types
  91:../../Middlewares/Third_Party/LwIP/src/apps/mqtt/mqtt.c ****  */
  92:../../Middlewares/Third_Party/LwIP/src/apps/mqtt/mqtt.c **** enum mqtt_message_type {
  93:../../Middlewares/Third_Party/LwIP/src/apps/mqtt/mqtt.c ****   MQTT_MSG_TYPE_CONNECT = 1,
  94:../../Middlewares/Third_Party/LwIP/src/apps/mqtt/mqtt.c ****   MQTT_MSG_TYPE_CONNACK = 2,
  95:../../Middlewares/Third_Party/LwIP/src/apps/mqtt/mqtt.c ****   MQTT_MSG_TYPE_PUBLISH = 3,
  96:../../Middlewares/Third_Party/LwIP/src/apps/mqtt/mqtt.c ****   MQTT_MSG_TYPE_PUBACK = 4,
  97:../../Middlewares/Third_Party/LwIP/src/apps/mqtt/mqtt.c ****   MQTT_MSG_TYPE_PUBREC = 5,
  98:../../Middlewares/Third_Party/LwIP/src/apps/mqtt/mqtt.c ****   MQTT_MSG_TYPE_PUBREL = 6,
  99:../../Middlewares/Third_Party/LwIP/src/apps/mqtt/mqtt.c ****   MQTT_MSG_TYPE_PUBCOMP = 7,
 100:../../Middlewares/Third_Party/LwIP/src/apps/mqtt/mqtt.c ****   MQTT_MSG_TYPE_SUBSCRIBE = 8,
 101:../../Middlewares/Third_Party/LwIP/src/apps/mqtt/mqtt.c ****   MQTT_MSG_TYPE_SUBACK = 9,
 102:../../Middlewares/Third_Party/LwIP/src/apps/mqtt/mqtt.c ****   MQTT_MSG_TYPE_UNSUBSCRIBE = 10,
 103:../../Middlewares/Third_Party/LwIP/src/apps/mqtt/mqtt.c ****   MQTT_MSG_TYPE_UNSUBACK = 11,
 104:../../Middlewares/Third_Party/LwIP/src/apps/mqtt/mqtt.c ****   MQTT_MSG_TYPE_PINGREQ = 12,
 105:../../Middlewares/Third_Party/LwIP/src/apps/mqtt/mqtt.c ****   MQTT_MSG_TYPE_PINGRESP = 13,
 106:../../Middlewares/Third_Party/LwIP/src/apps/mqtt/mqtt.c ****   MQTT_MSG_TYPE_DISCONNECT = 14
 107:../../Middlewares/Third_Party/LwIP/src/apps/mqtt/mqtt.c **** };
 108:../../Middlewares/Third_Party/LwIP/src/apps/mqtt/mqtt.c **** 
 109:../../Middlewares/Third_Party/LwIP/src/apps/mqtt/mqtt.c **** /** Helpers to extract control packet type and qos from first byte in fixed header */
 110:../../Middlewares/Third_Party/LwIP/src/apps/mqtt/mqtt.c **** #define MQTT_CTL_PACKET_TYPE(fixed_hdr_byte0) ((fixed_hdr_byte0 & 0xf0) >> 4)
 111:../../Middlewares/Third_Party/LwIP/src/apps/mqtt/mqtt.c **** #define MQTT_CTL_PACKET_QOS(fixed_hdr_byte0) ((fixed_hdr_byte0 & 0x6) >> 1)
 112:../../Middlewares/Third_Party/LwIP/src/apps/mqtt/mqtt.c **** 
 113:../../Middlewares/Third_Party/LwIP/src/apps/mqtt/mqtt.c **** /**
 114:../../Middlewares/Third_Party/LwIP/src/apps/mqtt/mqtt.c ****  * MQTT connect flags, only used in CONNECT message
 115:../../Middlewares/Third_Party/LwIP/src/apps/mqtt/mqtt.c ****  */
 116:../../Middlewares/Third_Party/LwIP/src/apps/mqtt/mqtt.c **** enum mqtt_connect_flag {
 117:../../Middlewares/Third_Party/LwIP/src/apps/mqtt/mqtt.c ****   MQTT_CONNECT_FLAG_USERNAME = 1 << 7,
 118:../../Middlewares/Third_Party/LwIP/src/apps/mqtt/mqtt.c ****   MQTT_CONNECT_FLAG_PASSWORD = 1 << 6,
 119:../../Middlewares/Third_Party/LwIP/src/apps/mqtt/mqtt.c ****   MQTT_CONNECT_FLAG_WILL_RETAIN = 1 << 5,
 120:../../Middlewares/Third_Party/LwIP/src/apps/mqtt/mqtt.c ****   MQTT_CONNECT_FLAG_WILL = 1 << 2,
 121:../../Middlewares/Third_Party/LwIP/src/apps/mqtt/mqtt.c ****   MQTT_CONNECT_FLAG_CLEAN_SESSION = 1 << 1
 122:../../Middlewares/Third_Party/LwIP/src/apps/mqtt/mqtt.c **** };
 123:../../Middlewares/Third_Party/LwIP/src/apps/mqtt/mqtt.c **** 
 124:../../Middlewares/Third_Party/LwIP/src/apps/mqtt/mqtt.c **** 
 125:../../Middlewares/Third_Party/LwIP/src/apps/mqtt/mqtt.c **** static void mqtt_cyclic_timer(void *arg);
 126:../../Middlewares/Third_Party/LwIP/src/apps/mqtt/mqtt.c **** 
 127:../../Middlewares/Third_Party/LwIP/src/apps/mqtt/mqtt.c **** #if defined(LWIP_DEBUG)
 128:../../Middlewares/Third_Party/LwIP/src/apps/mqtt/mqtt.c **** static const char *const mqtt_message_type_str[15] = {
 129:../../Middlewares/Third_Party/LwIP/src/apps/mqtt/mqtt.c ****   "UNDEFINED",
 130:../../Middlewares/Third_Party/LwIP/src/apps/mqtt/mqtt.c ****   "CONNECT",
 131:../../Middlewares/Third_Party/LwIP/src/apps/mqtt/mqtt.c ****   "CONNACK",
 132:../../Middlewares/Third_Party/LwIP/src/apps/mqtt/mqtt.c ****   "PUBLISH",
 133:../../Middlewares/Third_Party/LwIP/src/apps/mqtt/mqtt.c ****   "PUBACK",
 134:../../Middlewares/Third_Party/LwIP/src/apps/mqtt/mqtt.c ****   "PUBREC",
 135:../../Middlewares/Third_Party/LwIP/src/apps/mqtt/mqtt.c ****   "PUBREL",
 136:../../Middlewares/Third_Party/LwIP/src/apps/mqtt/mqtt.c ****   "PUBCOMP",
 137:../../Middlewares/Third_Party/LwIP/src/apps/mqtt/mqtt.c ****   "SUBSCRIBE",
 138:../../Middlewares/Third_Party/LwIP/src/apps/mqtt/mqtt.c ****   "SUBACK",
 139:../../Middlewares/Third_Party/LwIP/src/apps/mqtt/mqtt.c ****   "UNSUBSCRIBE",
 140:../../Middlewares/Third_Party/LwIP/src/apps/mqtt/mqtt.c ****   "UNSUBACK",
 141:../../Middlewares/Third_Party/LwIP/src/apps/mqtt/mqtt.c ****   "PINGREQ",
 142:../../Middlewares/Third_Party/LwIP/src/apps/mqtt/mqtt.c ****   "PINGRESP",
 143:../../Middlewares/Third_Party/LwIP/src/apps/mqtt/mqtt.c ****   "DISCONNECT"
 144:../../Middlewares/Third_Party/LwIP/src/apps/mqtt/mqtt.c **** };
 145:../../Middlewares/Third_Party/LwIP/src/apps/mqtt/mqtt.c **** 
 146:../../Middlewares/Third_Party/LwIP/src/apps/mqtt/mqtt.c **** /**
ARM GAS  C:\Users\minis\AppData\Local\Temp\ccG6JyYg.s 			page 4


 147:../../Middlewares/Third_Party/LwIP/src/apps/mqtt/mqtt.c ****  * Message type value to string
 148:../../Middlewares/Third_Party/LwIP/src/apps/mqtt/mqtt.c ****  * @param msg_type see enum mqtt_message_type
 149:../../Middlewares/Third_Party/LwIP/src/apps/mqtt/mqtt.c ****  *
 150:../../Middlewares/Third_Party/LwIP/src/apps/mqtt/mqtt.c ****  * @return Control message type text string
 151:../../Middlewares/Third_Party/LwIP/src/apps/mqtt/mqtt.c ****  */
 152:../../Middlewares/Third_Party/LwIP/src/apps/mqtt/mqtt.c **** static const char *
 153:../../Middlewares/Third_Party/LwIP/src/apps/mqtt/mqtt.c **** mqtt_msg_type_to_str(u8_t msg_type)
 154:../../Middlewares/Third_Party/LwIP/src/apps/mqtt/mqtt.c **** {
 155:../../Middlewares/Third_Party/LwIP/src/apps/mqtt/mqtt.c ****   if (msg_type >= LWIP_ARRAYSIZE(mqtt_message_type_str)) {
 156:../../Middlewares/Third_Party/LwIP/src/apps/mqtt/mqtt.c ****     msg_type = 0;
 157:../../Middlewares/Third_Party/LwIP/src/apps/mqtt/mqtt.c ****   }
 158:../../Middlewares/Third_Party/LwIP/src/apps/mqtt/mqtt.c ****   return mqtt_message_type_str[msg_type];
 159:../../Middlewares/Third_Party/LwIP/src/apps/mqtt/mqtt.c **** }
 160:../../Middlewares/Third_Party/LwIP/src/apps/mqtt/mqtt.c **** 
 161:../../Middlewares/Third_Party/LwIP/src/apps/mqtt/mqtt.c **** #endif
 162:../../Middlewares/Third_Party/LwIP/src/apps/mqtt/mqtt.c **** 
 163:../../Middlewares/Third_Party/LwIP/src/apps/mqtt/mqtt.c **** 
 164:../../Middlewares/Third_Party/LwIP/src/apps/mqtt/mqtt.c **** /**
 165:../../Middlewares/Third_Party/LwIP/src/apps/mqtt/mqtt.c ****  * Generate MQTT packet identifier
 166:../../Middlewares/Third_Party/LwIP/src/apps/mqtt/mqtt.c ****  * @param client MQTT client
 167:../../Middlewares/Third_Party/LwIP/src/apps/mqtt/mqtt.c ****  * @return New packet identifier, range 1 to 65535
 168:../../Middlewares/Third_Party/LwIP/src/apps/mqtt/mqtt.c ****  */
 169:../../Middlewares/Third_Party/LwIP/src/apps/mqtt/mqtt.c **** static u16_t
 170:../../Middlewares/Third_Party/LwIP/src/apps/mqtt/mqtt.c **** msg_generate_packet_id(mqtt_client_t *client)
 171:../../Middlewares/Third_Party/LwIP/src/apps/mqtt/mqtt.c **** {
  27              		.loc 1 171 1 view -0
  28              		.cfi_startproc
  29              		@ args = 0, pretend = 0, frame = 0
  30              		@ frame_needed = 0, uses_anonymous_args = 0
  31              		@ link register save eliminated.
 172:../../Middlewares/Third_Party/LwIP/src/apps/mqtt/mqtt.c ****   client->pkt_id_seq++;
  32              		.loc 1 172 3 view .LVU1
  33              		.loc 1 172 9 is_stmt 0 view .LVU2
  34 0000 C288     		ldrh	r2, [r0, #6]
  35              		.loc 1 172 21 view .LVU3
  36 0002 531C     		adds	r3, r2, #1
  37 0004 9BB2     		uxth	r3, r3
  38 0006 C380     		strh	r3, [r0, #6]	@ movhi
 173:../../Middlewares/Third_Party/LwIP/src/apps/mqtt/mqtt.c ****   if (client->pkt_id_seq == 0) {
  39              		.loc 1 173 3 is_stmt 1 view .LVU4
  40              		.loc 1 173 6 is_stmt 0 view .LVU5
  41 0008 0BB9     		cbnz	r3, .L2
 174:../../Middlewares/Third_Party/LwIP/src/apps/mqtt/mqtt.c ****     client->pkt_id_seq++;
  42              		.loc 1 174 5 is_stmt 1 view .LVU6
  43              		.loc 1 174 23 is_stmt 0 view .LVU7
  44 000a 0232     		adds	r2, r2, #2
  45 000c C280     		strh	r2, [r0, #6]	@ movhi
  46              	.L2:
 175:../../Middlewares/Third_Party/LwIP/src/apps/mqtt/mqtt.c ****   }
 176:../../Middlewares/Third_Party/LwIP/src/apps/mqtt/mqtt.c ****   return client->pkt_id_seq;
  47              		.loc 1 176 3 is_stmt 1 view .LVU8
 177:../../Middlewares/Third_Party/LwIP/src/apps/mqtt/mqtt.c **** }
  48              		.loc 1 177 1 is_stmt 0 view .LVU9
  49 000e C088     		ldrh	r0, [r0, #6]
  50              	.LVL1:
  51              		.loc 1 177 1 view .LVU10
  52 0010 7047     		bx	lr
ARM GAS  C:\Users\minis\AppData\Local\Temp\ccG6JyYg.s 			page 5


  53              		.cfi_endproc
  54              	.LFE174:
  56              		.section	.text.mqtt_ringbuf_put,"ax",%progbits
  57              		.align	1
  58              		.syntax unified
  59              		.thumb
  60              		.thumb_func
  62              	mqtt_ringbuf_put:
  63              	.LVL2:
  64              	.LFB175:
 178:../../Middlewares/Third_Party/LwIP/src/apps/mqtt/mqtt.c **** 
 179:../../Middlewares/Third_Party/LwIP/src/apps/mqtt/mqtt.c **** /*-------------------------------------------------------------------------------------------------
 180:../../Middlewares/Third_Party/LwIP/src/apps/mqtt/mqtt.c **** /* Output ring buffer */
 181:../../Middlewares/Third_Party/LwIP/src/apps/mqtt/mqtt.c **** 
 182:../../Middlewares/Third_Party/LwIP/src/apps/mqtt/mqtt.c **** /** Add single item to ring buffer */
 183:../../Middlewares/Third_Party/LwIP/src/apps/mqtt/mqtt.c **** static void
 184:../../Middlewares/Third_Party/LwIP/src/apps/mqtt/mqtt.c **** mqtt_ringbuf_put(struct mqtt_ringbuf_t *rb, u8_t item)
 185:../../Middlewares/Third_Party/LwIP/src/apps/mqtt/mqtt.c **** {
  65              		.loc 1 185 1 is_stmt 1 view -0
  66              		.cfi_startproc
  67              		@ args = 0, pretend = 0, frame = 0
  68              		@ frame_needed = 0, uses_anonymous_args = 0
  69              		@ link register save eliminated.
 186:../../Middlewares/Third_Party/LwIP/src/apps/mqtt/mqtt.c ****   rb->buf[rb->put] = item;
  70              		.loc 1 186 3 view .LVU12
  71              		.loc 1 186 13 is_stmt 0 view .LVU13
  72 0000 0388     		ldrh	r3, [r0]
  73              		.loc 1 186 20 view .LVU14
  74 0002 C218     		adds	r2, r0, r3
  75 0004 1171     		strb	r1, [r2, #4]
 187:../../Middlewares/Third_Party/LwIP/src/apps/mqtt/mqtt.c ****   rb->put++;
  76              		.loc 1 187 3 is_stmt 1 view .LVU15
  77              		.loc 1 187 10 is_stmt 0 view .LVU16
  78 0006 0133     		adds	r3, r3, #1
  79 0008 9BB2     		uxth	r3, r3
  80 000a 0380     		strh	r3, [r0]	@ movhi
 188:../../Middlewares/Third_Party/LwIP/src/apps/mqtt/mqtt.c ****   if (rb->put >= MQTT_OUTPUT_RINGBUF_SIZE) {
  81              		.loc 1 188 3 is_stmt 1 view .LVU17
  82              		.loc 1 188 6 is_stmt 0 view .LVU18
  83 000c FF2B     		cmp	r3, #255
  84 000e 01D9     		bls	.L3
 189:../../Middlewares/Third_Party/LwIP/src/apps/mqtt/mqtt.c ****     rb->put = 0;
  85              		.loc 1 189 5 is_stmt 1 view .LVU19
  86              		.loc 1 189 13 is_stmt 0 view .LVU20
  87 0010 0023     		movs	r3, #0
  88 0012 0380     		strh	r3, [r0]	@ movhi
  89              	.L3:
 190:../../Middlewares/Third_Party/LwIP/src/apps/mqtt/mqtt.c ****   }
 191:../../Middlewares/Third_Party/LwIP/src/apps/mqtt/mqtt.c **** }
  90              		.loc 1 191 1 view .LVU21
  91 0014 7047     		bx	lr
  92              		.cfi_endproc
  93              	.LFE175:
  95              		.section	.text.mqtt_ringbuf_get_ptr,"ax",%progbits
  96              		.align	1
  97              		.syntax unified
  98              		.thumb
ARM GAS  C:\Users\minis\AppData\Local\Temp\ccG6JyYg.s 			page 6


  99              		.thumb_func
 101              	mqtt_ringbuf_get_ptr:
 102              	.LVL3:
 103              	.LFB176:
 192:../../Middlewares/Third_Party/LwIP/src/apps/mqtt/mqtt.c **** 
 193:../../Middlewares/Third_Party/LwIP/src/apps/mqtt/mqtt.c **** /** Return pointer to ring buffer get position */
 194:../../Middlewares/Third_Party/LwIP/src/apps/mqtt/mqtt.c **** static u8_t *
 195:../../Middlewares/Third_Party/LwIP/src/apps/mqtt/mqtt.c **** mqtt_ringbuf_get_ptr(struct mqtt_ringbuf_t *rb)
 196:../../Middlewares/Third_Party/LwIP/src/apps/mqtt/mqtt.c **** {
 104              		.loc 1 196 1 is_stmt 1 view -0
 105              		.cfi_startproc
 106              		@ args = 0, pretend = 0, frame = 0
 107              		@ frame_needed = 0, uses_anonymous_args = 0
 108              		@ link register save eliminated.
 197:../../Middlewares/Third_Party/LwIP/src/apps/mqtt/mqtt.c ****   return &rb->buf[rb->get];
 109              		.loc 1 197 3 view .LVU23
 110              		.loc 1 197 21 is_stmt 0 view .LVU24
 111 0000 4388     		ldrh	r3, [r0, #2]
 112              		.loc 1 197 10 view .LVU25
 113 0002 1844     		add	r0, r0, r3
 114              	.LVL4:
 198:../../Middlewares/Third_Party/LwIP/src/apps/mqtt/mqtt.c **** }
 115              		.loc 1 198 1 view .LVU26
 116 0004 0430     		adds	r0, r0, #4
 117 0006 7047     		bx	lr
 118              		.cfi_endproc
 119              	.LFE176:
 121              		.section	.text.mqtt_ringbuf_len,"ax",%progbits
 122              		.align	1
 123              		.syntax unified
 124              		.thumb
 125              		.thumb_func
 127              	mqtt_ringbuf_len:
 128              	.LVL5:
 129              	.LFB178:
 199:../../Middlewares/Third_Party/LwIP/src/apps/mqtt/mqtt.c **** 
 200:../../Middlewares/Third_Party/LwIP/src/apps/mqtt/mqtt.c **** static void
 201:../../Middlewares/Third_Party/LwIP/src/apps/mqtt/mqtt.c **** mqtt_ringbuf_advance_get_idx(struct mqtt_ringbuf_t *rb, u16_t len)
 202:../../Middlewares/Third_Party/LwIP/src/apps/mqtt/mqtt.c **** {
 203:../../Middlewares/Third_Party/LwIP/src/apps/mqtt/mqtt.c ****   LWIP_ASSERT("mqtt_ringbuf_advance_get_idx: len < MQTT_OUTPUT_RINGBUF_SIZE", len < MQTT_OUTPUT_RIN
 204:../../Middlewares/Third_Party/LwIP/src/apps/mqtt/mqtt.c **** 
 205:../../Middlewares/Third_Party/LwIP/src/apps/mqtt/mqtt.c ****   rb->get += len;
 206:../../Middlewares/Third_Party/LwIP/src/apps/mqtt/mqtt.c ****   if (rb->get >= MQTT_OUTPUT_RINGBUF_SIZE) {
 207:../../Middlewares/Third_Party/LwIP/src/apps/mqtt/mqtt.c ****     rb->get = rb->get - MQTT_OUTPUT_RINGBUF_SIZE;
 208:../../Middlewares/Third_Party/LwIP/src/apps/mqtt/mqtt.c ****   }
 209:../../Middlewares/Third_Party/LwIP/src/apps/mqtt/mqtt.c **** }
 210:../../Middlewares/Third_Party/LwIP/src/apps/mqtt/mqtt.c **** 
 211:../../Middlewares/Third_Party/LwIP/src/apps/mqtt/mqtt.c **** /** Return number of bytes in ring buffer */
 212:../../Middlewares/Third_Party/LwIP/src/apps/mqtt/mqtt.c **** static u16_t
 213:../../Middlewares/Third_Party/LwIP/src/apps/mqtt/mqtt.c **** mqtt_ringbuf_len(struct mqtt_ringbuf_t *rb)
 214:../../Middlewares/Third_Party/LwIP/src/apps/mqtt/mqtt.c **** {
 130              		.loc 1 214 1 is_stmt 1 view -0
 131              		.cfi_startproc
 132              		@ args = 0, pretend = 0, frame = 0
 133              		@ frame_needed = 0, uses_anonymous_args = 0
 134              		@ link register save eliminated.
 215:../../Middlewares/Third_Party/LwIP/src/apps/mqtt/mqtt.c ****   u32_t len = rb->put - rb->get;
ARM GAS  C:\Users\minis\AppData\Local\Temp\ccG6JyYg.s 			page 7


 135              		.loc 1 215 3 view .LVU28
 136              		.loc 1 215 17 is_stmt 0 view .LVU29
 137 0000 0388     		ldrh	r3, [r0]
 138              		.loc 1 215 27 view .LVU30
 139 0002 4288     		ldrh	r2, [r0, #2]
 140              		.loc 1 215 23 view .LVU31
 141 0004 981A     		subs	r0, r3, r2
 142              	.LVL6:
 216:../../Middlewares/Third_Party/LwIP/src/apps/mqtt/mqtt.c ****   if (len > 0xFFFF) {
 143              		.loc 1 216 3 is_stmt 1 view .LVU32
 144              		.loc 1 216 6 is_stmt 0 view .LVU33
 145 0006 B0F5803F 		cmp	r0, #65536
 146 000a 01D3     		bcc	.L7
 217:../../Middlewares/Third_Party/LwIP/src/apps/mqtt/mqtt.c ****     len += MQTT_OUTPUT_RINGBUF_SIZE;
 147              		.loc 1 217 5 is_stmt 1 view .LVU34
 148              		.loc 1 217 9 is_stmt 0 view .LVU35
 149 000c 00F58070 		add	r0, r0, #256
 150              	.LVL7:
 151              	.L7:
 218:../../Middlewares/Third_Party/LwIP/src/apps/mqtt/mqtt.c ****   }
 219:../../Middlewares/Third_Party/LwIP/src/apps/mqtt/mqtt.c ****   return (u16_t)len;
 152              		.loc 1 219 3 is_stmt 1 view .LVU36
 220:../../Middlewares/Third_Party/LwIP/src/apps/mqtt/mqtt.c **** }
 153              		.loc 1 220 1 is_stmt 0 view .LVU37
 154 0010 80B2     		uxth	r0, r0
 155              	.LVL8:
 156              		.loc 1 220 1 view .LVU38
 157 0012 7047     		bx	lr
 158              		.cfi_endproc
 159              	.LFE178:
 161              		.section	.text.mqtt_delete_request,"ax",%progbits
 162              		.align	1
 163              		.syntax unified
 164              		.thumb
 165              		.thumb_func
 167              	mqtt_delete_request:
 168              	.LVL9:
 169              	.LFB182:
 221:../../Middlewares/Third_Party/LwIP/src/apps/mqtt/mqtt.c **** 
 222:../../Middlewares/Third_Party/LwIP/src/apps/mqtt/mqtt.c **** /** Return number of bytes free in ring buffer */
 223:../../Middlewares/Third_Party/LwIP/src/apps/mqtt/mqtt.c **** #define mqtt_ringbuf_free(rb) (MQTT_OUTPUT_RINGBUF_SIZE - mqtt_ringbuf_len(rb))
 224:../../Middlewares/Third_Party/LwIP/src/apps/mqtt/mqtt.c **** 
 225:../../Middlewares/Third_Party/LwIP/src/apps/mqtt/mqtt.c **** /** Return number of bytes possible to read without wrapping around */
 226:../../Middlewares/Third_Party/LwIP/src/apps/mqtt/mqtt.c **** #define mqtt_ringbuf_linear_read_length(rb) LWIP_MIN(mqtt_ringbuf_len(rb), (MQTT_OUTPUT_RINGBUF_SIZ
 227:../../Middlewares/Third_Party/LwIP/src/apps/mqtt/mqtt.c **** 
 228:../../Middlewares/Third_Party/LwIP/src/apps/mqtt/mqtt.c **** /**
 229:../../Middlewares/Third_Party/LwIP/src/apps/mqtt/mqtt.c ****  * Try send as many bytes as possible from output ring buffer
 230:../../Middlewares/Third_Party/LwIP/src/apps/mqtt/mqtt.c ****  * @param rb Output ring buffer
 231:../../Middlewares/Third_Party/LwIP/src/apps/mqtt/mqtt.c ****  * @param tpcb TCP connection handle
 232:../../Middlewares/Third_Party/LwIP/src/apps/mqtt/mqtt.c ****  */
 233:../../Middlewares/Third_Party/LwIP/src/apps/mqtt/mqtt.c **** static void
 234:../../Middlewares/Third_Party/LwIP/src/apps/mqtt/mqtt.c **** mqtt_output_send(struct mqtt_ringbuf_t *rb, struct altcp_pcb *tpcb)
 235:../../Middlewares/Third_Party/LwIP/src/apps/mqtt/mqtt.c **** {
 236:../../Middlewares/Third_Party/LwIP/src/apps/mqtt/mqtt.c ****   err_t err;
 237:../../Middlewares/Third_Party/LwIP/src/apps/mqtt/mqtt.c ****   u8_t wrap = 0;
 238:../../Middlewares/Third_Party/LwIP/src/apps/mqtt/mqtt.c ****   u16_t ringbuf_lin_len = mqtt_ringbuf_linear_read_length(rb);
 239:../../Middlewares/Third_Party/LwIP/src/apps/mqtt/mqtt.c ****   u16_t send_len = altcp_sndbuf(tpcb);
ARM GAS  C:\Users\minis\AppData\Local\Temp\ccG6JyYg.s 			page 8


 240:../../Middlewares/Third_Party/LwIP/src/apps/mqtt/mqtt.c ****   LWIP_ASSERT("mqtt_output_send: tpcb != NULL", tpcb != NULL);
 241:../../Middlewares/Third_Party/LwIP/src/apps/mqtt/mqtt.c **** 
 242:../../Middlewares/Third_Party/LwIP/src/apps/mqtt/mqtt.c ****   if (send_len == 0 || ringbuf_lin_len == 0) {
 243:../../Middlewares/Third_Party/LwIP/src/apps/mqtt/mqtt.c ****     return;
 244:../../Middlewares/Third_Party/LwIP/src/apps/mqtt/mqtt.c ****   }
 245:../../Middlewares/Third_Party/LwIP/src/apps/mqtt/mqtt.c **** 
 246:../../Middlewares/Third_Party/LwIP/src/apps/mqtt/mqtt.c ****   LWIP_DEBUGF(MQTT_DEBUG_TRACE, ("mqtt_output_send: tcp_sndbuf: %d bytes, ringbuf_linear_available:
 247:../../Middlewares/Third_Party/LwIP/src/apps/mqtt/mqtt.c ****                                  send_len, ringbuf_lin_len, rb->get, rb->put));
 248:../../Middlewares/Third_Party/LwIP/src/apps/mqtt/mqtt.c **** 
 249:../../Middlewares/Third_Party/LwIP/src/apps/mqtt/mqtt.c ****   if (send_len > ringbuf_lin_len) {
 250:../../Middlewares/Third_Party/LwIP/src/apps/mqtt/mqtt.c ****     /* Space in TCP output buffer is larger than available in ring buffer linear portion */
 251:../../Middlewares/Third_Party/LwIP/src/apps/mqtt/mqtt.c ****     send_len = ringbuf_lin_len;
 252:../../Middlewares/Third_Party/LwIP/src/apps/mqtt/mqtt.c ****     /* Wrap around if more data in ring buffer after linear portion */
 253:../../Middlewares/Third_Party/LwIP/src/apps/mqtt/mqtt.c ****     wrap = (mqtt_ringbuf_len(rb) > ringbuf_lin_len);
 254:../../Middlewares/Third_Party/LwIP/src/apps/mqtt/mqtt.c ****   }
 255:../../Middlewares/Third_Party/LwIP/src/apps/mqtt/mqtt.c ****   err = altcp_write(tpcb, mqtt_ringbuf_get_ptr(rb), send_len, TCP_WRITE_FLAG_COPY | (wrap ? TCP_WRI
 256:../../Middlewares/Third_Party/LwIP/src/apps/mqtt/mqtt.c ****   if ((err == ERR_OK) && wrap) {
 257:../../Middlewares/Third_Party/LwIP/src/apps/mqtt/mqtt.c ****     mqtt_ringbuf_advance_get_idx(rb, send_len);
 258:../../Middlewares/Third_Party/LwIP/src/apps/mqtt/mqtt.c ****     /* Use the lesser one of ring buffer linear length and TCP send buffer size */
 259:../../Middlewares/Third_Party/LwIP/src/apps/mqtt/mqtt.c ****     send_len = LWIP_MIN(altcp_sndbuf(tpcb), mqtt_ringbuf_linear_read_length(rb));
 260:../../Middlewares/Third_Party/LwIP/src/apps/mqtt/mqtt.c ****     err = altcp_write(tpcb, mqtt_ringbuf_get_ptr(rb), send_len, TCP_WRITE_FLAG_COPY);
 261:../../Middlewares/Third_Party/LwIP/src/apps/mqtt/mqtt.c ****   }
 262:../../Middlewares/Third_Party/LwIP/src/apps/mqtt/mqtt.c **** 
 263:../../Middlewares/Third_Party/LwIP/src/apps/mqtt/mqtt.c ****   if (err == ERR_OK) {
 264:../../Middlewares/Third_Party/LwIP/src/apps/mqtt/mqtt.c ****     mqtt_ringbuf_advance_get_idx(rb, send_len);
 265:../../Middlewares/Third_Party/LwIP/src/apps/mqtt/mqtt.c ****     /* Flush */
 266:../../Middlewares/Third_Party/LwIP/src/apps/mqtt/mqtt.c ****     altcp_output(tpcb);
 267:../../Middlewares/Third_Party/LwIP/src/apps/mqtt/mqtt.c ****   } else {
 268:../../Middlewares/Third_Party/LwIP/src/apps/mqtt/mqtt.c ****     LWIP_DEBUGF(MQTT_DEBUG_WARN, ("mqtt_output_send: Send failed with err %d (\"%s\")\n", err, lwip
 269:../../Middlewares/Third_Party/LwIP/src/apps/mqtt/mqtt.c ****   }
 270:../../Middlewares/Third_Party/LwIP/src/apps/mqtt/mqtt.c **** }
 271:../../Middlewares/Third_Party/LwIP/src/apps/mqtt/mqtt.c **** 
 272:../../Middlewares/Third_Party/LwIP/src/apps/mqtt/mqtt.c **** 
 273:../../Middlewares/Third_Party/LwIP/src/apps/mqtt/mqtt.c **** 
 274:../../Middlewares/Third_Party/LwIP/src/apps/mqtt/mqtt.c **** /*-------------------------------------------------------------------------------------------------
 275:../../Middlewares/Third_Party/LwIP/src/apps/mqtt/mqtt.c **** /* Request queue */
 276:../../Middlewares/Third_Party/LwIP/src/apps/mqtt/mqtt.c **** 
 277:../../Middlewares/Third_Party/LwIP/src/apps/mqtt/mqtt.c **** /**
 278:../../Middlewares/Third_Party/LwIP/src/apps/mqtt/mqtt.c ****  * Create request item
 279:../../Middlewares/Third_Party/LwIP/src/apps/mqtt/mqtt.c ****  * @param r_objs Pointer to request objects
 280:../../Middlewares/Third_Party/LwIP/src/apps/mqtt/mqtt.c ****  * @param r_objs_len Number of array entries
 281:../../Middlewares/Third_Party/LwIP/src/apps/mqtt/mqtt.c ****  * @param pkt_id Packet identifier of request
 282:../../Middlewares/Third_Party/LwIP/src/apps/mqtt/mqtt.c ****  * @param cb Packet callback to call when requests lifetime ends
 283:../../Middlewares/Third_Party/LwIP/src/apps/mqtt/mqtt.c ****  * @param arg Parameter following callback
 284:../../Middlewares/Third_Party/LwIP/src/apps/mqtt/mqtt.c ****  * @return Request or NULL if failed to create
 285:../../Middlewares/Third_Party/LwIP/src/apps/mqtt/mqtt.c ****  */
 286:../../Middlewares/Third_Party/LwIP/src/apps/mqtt/mqtt.c **** static struct mqtt_request_t *
 287:../../Middlewares/Third_Party/LwIP/src/apps/mqtt/mqtt.c **** mqtt_create_request(struct mqtt_request_t *r_objs, size_t r_objs_len, u16_t pkt_id, mqtt_request_cb
 288:../../Middlewares/Third_Party/LwIP/src/apps/mqtt/mqtt.c **** {
 289:../../Middlewares/Third_Party/LwIP/src/apps/mqtt/mqtt.c ****   struct mqtt_request_t *r = NULL;
 290:../../Middlewares/Third_Party/LwIP/src/apps/mqtt/mqtt.c ****   u8_t n;
 291:../../Middlewares/Third_Party/LwIP/src/apps/mqtt/mqtt.c ****   LWIP_ASSERT("mqtt_create_request: r_objs != NULL", r_objs != NULL);
 292:../../Middlewares/Third_Party/LwIP/src/apps/mqtt/mqtt.c ****   for (n = 0; n < r_objs_len; n++) {
 293:../../Middlewares/Third_Party/LwIP/src/apps/mqtt/mqtt.c ****     /* Item point to itself if not in use */
 294:../../Middlewares/Third_Party/LwIP/src/apps/mqtt/mqtt.c ****     if (r_objs[n].next == &r_objs[n]) {
 295:../../Middlewares/Third_Party/LwIP/src/apps/mqtt/mqtt.c ****       r = &r_objs[n];
 296:../../Middlewares/Third_Party/LwIP/src/apps/mqtt/mqtt.c ****       r->next = NULL;
ARM GAS  C:\Users\minis\AppData\Local\Temp\ccG6JyYg.s 			page 9


 297:../../Middlewares/Third_Party/LwIP/src/apps/mqtt/mqtt.c ****       r->cb = cb;
 298:../../Middlewares/Third_Party/LwIP/src/apps/mqtt/mqtt.c ****       r->arg = arg;
 299:../../Middlewares/Third_Party/LwIP/src/apps/mqtt/mqtt.c ****       r->pkt_id = pkt_id;
 300:../../Middlewares/Third_Party/LwIP/src/apps/mqtt/mqtt.c ****       break;
 301:../../Middlewares/Third_Party/LwIP/src/apps/mqtt/mqtt.c ****     }
 302:../../Middlewares/Third_Party/LwIP/src/apps/mqtt/mqtt.c ****   }
 303:../../Middlewares/Third_Party/LwIP/src/apps/mqtt/mqtt.c ****   return r;
 304:../../Middlewares/Third_Party/LwIP/src/apps/mqtt/mqtt.c **** }
 305:../../Middlewares/Third_Party/LwIP/src/apps/mqtt/mqtt.c **** 
 306:../../Middlewares/Third_Party/LwIP/src/apps/mqtt/mqtt.c **** 
 307:../../Middlewares/Third_Party/LwIP/src/apps/mqtt/mqtt.c **** /**
 308:../../Middlewares/Third_Party/LwIP/src/apps/mqtt/mqtt.c ****  * Append request to pending request queue
 309:../../Middlewares/Third_Party/LwIP/src/apps/mqtt/mqtt.c ****  * @param tail Pointer to request queue tail pointer
 310:../../Middlewares/Third_Party/LwIP/src/apps/mqtt/mqtt.c ****  * @param r Request to append
 311:../../Middlewares/Third_Party/LwIP/src/apps/mqtt/mqtt.c ****  */
 312:../../Middlewares/Third_Party/LwIP/src/apps/mqtt/mqtt.c **** static void
 313:../../Middlewares/Third_Party/LwIP/src/apps/mqtt/mqtt.c **** mqtt_append_request(struct mqtt_request_t **tail, struct mqtt_request_t *r)
 314:../../Middlewares/Third_Party/LwIP/src/apps/mqtt/mqtt.c **** {
 315:../../Middlewares/Third_Party/LwIP/src/apps/mqtt/mqtt.c ****   struct mqtt_request_t *head = NULL;
 316:../../Middlewares/Third_Party/LwIP/src/apps/mqtt/mqtt.c ****   s16_t time_before = 0;
 317:../../Middlewares/Third_Party/LwIP/src/apps/mqtt/mqtt.c ****   struct mqtt_request_t *iter;
 318:../../Middlewares/Third_Party/LwIP/src/apps/mqtt/mqtt.c **** 
 319:../../Middlewares/Third_Party/LwIP/src/apps/mqtt/mqtt.c ****   LWIP_ASSERT("mqtt_append_request: tail != NULL", tail != NULL);
 320:../../Middlewares/Third_Party/LwIP/src/apps/mqtt/mqtt.c **** 
 321:../../Middlewares/Third_Party/LwIP/src/apps/mqtt/mqtt.c ****   /* Iterate trough queue to find head, and count total timeout time */
 322:../../Middlewares/Third_Party/LwIP/src/apps/mqtt/mqtt.c ****   for (iter = *tail; iter != NULL; iter = iter->next) {
 323:../../Middlewares/Third_Party/LwIP/src/apps/mqtt/mqtt.c ****     time_before += iter->timeout_diff;
 324:../../Middlewares/Third_Party/LwIP/src/apps/mqtt/mqtt.c ****     head = iter;
 325:../../Middlewares/Third_Party/LwIP/src/apps/mqtt/mqtt.c ****   }
 326:../../Middlewares/Third_Party/LwIP/src/apps/mqtt/mqtt.c **** 
 327:../../Middlewares/Third_Party/LwIP/src/apps/mqtt/mqtt.c ****   LWIP_ASSERT("mqtt_append_request: time_before <= MQTT_REQ_TIMEOUT", time_before <= MQTT_REQ_TIMEO
 328:../../Middlewares/Third_Party/LwIP/src/apps/mqtt/mqtt.c ****   r->timeout_diff = MQTT_REQ_TIMEOUT - time_before;
 329:../../Middlewares/Third_Party/LwIP/src/apps/mqtt/mqtt.c ****   if (head == NULL) {
 330:../../Middlewares/Third_Party/LwIP/src/apps/mqtt/mqtt.c ****     *tail = r;
 331:../../Middlewares/Third_Party/LwIP/src/apps/mqtt/mqtt.c ****   } else {
 332:../../Middlewares/Third_Party/LwIP/src/apps/mqtt/mqtt.c ****     head->next = r;
 333:../../Middlewares/Third_Party/LwIP/src/apps/mqtt/mqtt.c ****   }
 334:../../Middlewares/Third_Party/LwIP/src/apps/mqtt/mqtt.c **** }
 335:../../Middlewares/Third_Party/LwIP/src/apps/mqtt/mqtt.c **** 
 336:../../Middlewares/Third_Party/LwIP/src/apps/mqtt/mqtt.c **** 
 337:../../Middlewares/Third_Party/LwIP/src/apps/mqtt/mqtt.c **** /**
 338:../../Middlewares/Third_Party/LwIP/src/apps/mqtt/mqtt.c ****  * Delete request item
 339:../../Middlewares/Third_Party/LwIP/src/apps/mqtt/mqtt.c ****  * @param r Request item to delete
 340:../../Middlewares/Third_Party/LwIP/src/apps/mqtt/mqtt.c ****  */
 341:../../Middlewares/Third_Party/LwIP/src/apps/mqtt/mqtt.c **** static void
 342:../../Middlewares/Third_Party/LwIP/src/apps/mqtt/mqtt.c **** mqtt_delete_request(struct mqtt_request_t *r)
 343:../../Middlewares/Third_Party/LwIP/src/apps/mqtt/mqtt.c **** {
 170              		.loc 1 343 1 is_stmt 1 view -0
 171              		.cfi_startproc
 172              		@ args = 0, pretend = 0, frame = 0
 173              		@ frame_needed = 0, uses_anonymous_args = 0
 174              		@ link register save eliminated.
 344:../../Middlewares/Third_Party/LwIP/src/apps/mqtt/mqtt.c ****   if (r != NULL) {
 175              		.loc 1 344 3 view .LVU40
 176              		.loc 1 344 6 is_stmt 0 view .LVU41
 177 0000 0346     		mov	r3, r0
 178 0002 00B1     		cbz	r0, .L8
ARM GAS  C:\Users\minis\AppData\Local\Temp\ccG6JyYg.s 			page 10


 345:../../Middlewares/Third_Party/LwIP/src/apps/mqtt/mqtt.c ****     r->next = r;
 179              		.loc 1 345 5 is_stmt 1 view .LVU42
 180              		.loc 1 345 13 is_stmt 0 view .LVU43
 181 0004 1860     		str	r0, [r3]
 182              	.L8:
 346:../../Middlewares/Third_Party/LwIP/src/apps/mqtt/mqtt.c ****   }
 347:../../Middlewares/Third_Party/LwIP/src/apps/mqtt/mqtt.c **** }
 183              		.loc 1 347 1 view .LVU44
 184 0006 7047     		bx	lr
 185              		.cfi_endproc
 186              	.LFE182:
 188              		.section	.text.mqtt_output_append_u8,"ax",%progbits
 189              		.align	1
 190              		.syntax unified
 191              		.thumb
 192              		.thumb_func
 194              	mqtt_output_append_u8:
 195              	.LVL10:
 196              	.LFB187:
 348:../../Middlewares/Third_Party/LwIP/src/apps/mqtt/mqtt.c **** 
 349:../../Middlewares/Third_Party/LwIP/src/apps/mqtt/mqtt.c **** /**
 350:../../Middlewares/Third_Party/LwIP/src/apps/mqtt/mqtt.c ****  * Remove a request item with a specific packet identifier from request queue
 351:../../Middlewares/Third_Party/LwIP/src/apps/mqtt/mqtt.c ****  * @param tail Pointer to request queue tail pointer
 352:../../Middlewares/Third_Party/LwIP/src/apps/mqtt/mqtt.c ****  * @param pkt_id Packet identifier of request to take
 353:../../Middlewares/Third_Party/LwIP/src/apps/mqtt/mqtt.c ****  * @return Request item if found, NULL if not
 354:../../Middlewares/Third_Party/LwIP/src/apps/mqtt/mqtt.c ****  */
 355:../../Middlewares/Third_Party/LwIP/src/apps/mqtt/mqtt.c **** static struct mqtt_request_t *
 356:../../Middlewares/Third_Party/LwIP/src/apps/mqtt/mqtt.c **** mqtt_take_request(struct mqtt_request_t **tail, u16_t pkt_id)
 357:../../Middlewares/Third_Party/LwIP/src/apps/mqtt/mqtt.c **** {
 358:../../Middlewares/Third_Party/LwIP/src/apps/mqtt/mqtt.c ****   struct mqtt_request_t *iter = NULL, *prev = NULL;
 359:../../Middlewares/Third_Party/LwIP/src/apps/mqtt/mqtt.c ****   LWIP_ASSERT("mqtt_take_request: tail != NULL", tail != NULL);
 360:../../Middlewares/Third_Party/LwIP/src/apps/mqtt/mqtt.c ****   /* Search all request for pkt_id */
 361:../../Middlewares/Third_Party/LwIP/src/apps/mqtt/mqtt.c ****   for (iter = *tail; iter != NULL; iter = iter->next) {
 362:../../Middlewares/Third_Party/LwIP/src/apps/mqtt/mqtt.c ****     if (iter->pkt_id == pkt_id) {
 363:../../Middlewares/Third_Party/LwIP/src/apps/mqtt/mqtt.c ****       break;
 364:../../Middlewares/Third_Party/LwIP/src/apps/mqtt/mqtt.c ****     }
 365:../../Middlewares/Third_Party/LwIP/src/apps/mqtt/mqtt.c ****     prev = iter;
 366:../../Middlewares/Third_Party/LwIP/src/apps/mqtt/mqtt.c ****   }
 367:../../Middlewares/Third_Party/LwIP/src/apps/mqtt/mqtt.c **** 
 368:../../Middlewares/Third_Party/LwIP/src/apps/mqtt/mqtt.c ****   /* If request was found */
 369:../../Middlewares/Third_Party/LwIP/src/apps/mqtt/mqtt.c ****   if (iter != NULL) {
 370:../../Middlewares/Third_Party/LwIP/src/apps/mqtt/mqtt.c ****     /* unchain */
 371:../../Middlewares/Third_Party/LwIP/src/apps/mqtt/mqtt.c ****     if (prev == NULL) {
 372:../../Middlewares/Third_Party/LwIP/src/apps/mqtt/mqtt.c ****       *tail = iter->next;
 373:../../Middlewares/Third_Party/LwIP/src/apps/mqtt/mqtt.c ****     } else {
 374:../../Middlewares/Third_Party/LwIP/src/apps/mqtt/mqtt.c ****       prev->next = iter->next;
 375:../../Middlewares/Third_Party/LwIP/src/apps/mqtt/mqtt.c ****     }
 376:../../Middlewares/Third_Party/LwIP/src/apps/mqtt/mqtt.c ****     /* If exists, add remaining timeout time for the request to next */
 377:../../Middlewares/Third_Party/LwIP/src/apps/mqtt/mqtt.c ****     if (iter->next != NULL) {
 378:../../Middlewares/Third_Party/LwIP/src/apps/mqtt/mqtt.c ****       iter->next->timeout_diff += iter->timeout_diff;
 379:../../Middlewares/Third_Party/LwIP/src/apps/mqtt/mqtt.c ****     }
 380:../../Middlewares/Third_Party/LwIP/src/apps/mqtt/mqtt.c ****     iter->next = NULL;
 381:../../Middlewares/Third_Party/LwIP/src/apps/mqtt/mqtt.c ****   }
 382:../../Middlewares/Third_Party/LwIP/src/apps/mqtt/mqtt.c ****   return iter;
 383:../../Middlewares/Third_Party/LwIP/src/apps/mqtt/mqtt.c **** }
 384:../../Middlewares/Third_Party/LwIP/src/apps/mqtt/mqtt.c **** 
 385:../../Middlewares/Third_Party/LwIP/src/apps/mqtt/mqtt.c **** /**
ARM GAS  C:\Users\minis\AppData\Local\Temp\ccG6JyYg.s 			page 11


 386:../../Middlewares/Third_Party/LwIP/src/apps/mqtt/mqtt.c ****  * Handle requests timeout
 387:../../Middlewares/Third_Party/LwIP/src/apps/mqtt/mqtt.c ****  * @param tail Pointer to request queue tail pointer
 388:../../Middlewares/Third_Party/LwIP/src/apps/mqtt/mqtt.c ****  * @param t Time since last call in seconds
 389:../../Middlewares/Third_Party/LwIP/src/apps/mqtt/mqtt.c ****  */
 390:../../Middlewares/Third_Party/LwIP/src/apps/mqtt/mqtt.c **** static void
 391:../../Middlewares/Third_Party/LwIP/src/apps/mqtt/mqtt.c **** mqtt_request_time_elapsed(struct mqtt_request_t **tail, u8_t t)
 392:../../Middlewares/Third_Party/LwIP/src/apps/mqtt/mqtt.c **** {
 393:../../Middlewares/Third_Party/LwIP/src/apps/mqtt/mqtt.c ****   struct mqtt_request_t *r;
 394:../../Middlewares/Third_Party/LwIP/src/apps/mqtt/mqtt.c ****   LWIP_ASSERT("mqtt_request_time_elapsed: tail != NULL", tail != NULL);
 395:../../Middlewares/Third_Party/LwIP/src/apps/mqtt/mqtt.c ****   r = *tail;
 396:../../Middlewares/Third_Party/LwIP/src/apps/mqtt/mqtt.c ****   while (t > 0 && r != NULL) {
 397:../../Middlewares/Third_Party/LwIP/src/apps/mqtt/mqtt.c ****     if (t >= r->timeout_diff) {
 398:../../Middlewares/Third_Party/LwIP/src/apps/mqtt/mqtt.c ****       t -= (u8_t)r->timeout_diff;
 399:../../Middlewares/Third_Party/LwIP/src/apps/mqtt/mqtt.c ****       /* Unchain */
 400:../../Middlewares/Third_Party/LwIP/src/apps/mqtt/mqtt.c ****       *tail = r->next;
 401:../../Middlewares/Third_Party/LwIP/src/apps/mqtt/mqtt.c ****       /* Notify upper layer about timeout */
 402:../../Middlewares/Third_Party/LwIP/src/apps/mqtt/mqtt.c ****       if (r->cb != NULL) {
 403:../../Middlewares/Third_Party/LwIP/src/apps/mqtt/mqtt.c ****         r->cb(r->arg, ERR_TIMEOUT);
 404:../../Middlewares/Third_Party/LwIP/src/apps/mqtt/mqtt.c ****       }
 405:../../Middlewares/Third_Party/LwIP/src/apps/mqtt/mqtt.c ****       mqtt_delete_request(r);
 406:../../Middlewares/Third_Party/LwIP/src/apps/mqtt/mqtt.c ****       /* Tail might be be modified in callback, so re-read it in every iteration */
 407:../../Middlewares/Third_Party/LwIP/src/apps/mqtt/mqtt.c ****       r = *(struct mqtt_request_t *const volatile *)tail;
 408:../../Middlewares/Third_Party/LwIP/src/apps/mqtt/mqtt.c ****     } else {
 409:../../Middlewares/Third_Party/LwIP/src/apps/mqtt/mqtt.c ****       r->timeout_diff -= t;
 410:../../Middlewares/Third_Party/LwIP/src/apps/mqtt/mqtt.c ****       t = 0;
 411:../../Middlewares/Third_Party/LwIP/src/apps/mqtt/mqtt.c ****     }
 412:../../Middlewares/Third_Party/LwIP/src/apps/mqtt/mqtt.c ****   }
 413:../../Middlewares/Third_Party/LwIP/src/apps/mqtt/mqtt.c **** }
 414:../../Middlewares/Third_Party/LwIP/src/apps/mqtt/mqtt.c **** 
 415:../../Middlewares/Third_Party/LwIP/src/apps/mqtt/mqtt.c **** /**
 416:../../Middlewares/Third_Party/LwIP/src/apps/mqtt/mqtt.c ****  * Free all request items
 417:../../Middlewares/Third_Party/LwIP/src/apps/mqtt/mqtt.c ****  * @param tail Pointer to request queue tail pointer
 418:../../Middlewares/Third_Party/LwIP/src/apps/mqtt/mqtt.c ****  */
 419:../../Middlewares/Third_Party/LwIP/src/apps/mqtt/mqtt.c **** static void
 420:../../Middlewares/Third_Party/LwIP/src/apps/mqtt/mqtt.c **** mqtt_clear_requests(struct mqtt_request_t **tail)
 421:../../Middlewares/Third_Party/LwIP/src/apps/mqtt/mqtt.c **** {
 422:../../Middlewares/Third_Party/LwIP/src/apps/mqtt/mqtt.c ****   struct mqtt_request_t *iter, *next;
 423:../../Middlewares/Third_Party/LwIP/src/apps/mqtt/mqtt.c ****   LWIP_ASSERT("mqtt_clear_requests: tail != NULL", tail != NULL);
 424:../../Middlewares/Third_Party/LwIP/src/apps/mqtt/mqtt.c ****   for (iter = *tail; iter != NULL; iter = next) {
 425:../../Middlewares/Third_Party/LwIP/src/apps/mqtt/mqtt.c ****     next = iter->next;
 426:../../Middlewares/Third_Party/LwIP/src/apps/mqtt/mqtt.c ****     mqtt_delete_request(iter);
 427:../../Middlewares/Third_Party/LwIP/src/apps/mqtt/mqtt.c ****   }
 428:../../Middlewares/Third_Party/LwIP/src/apps/mqtt/mqtt.c ****   *tail = NULL;
 429:../../Middlewares/Third_Party/LwIP/src/apps/mqtt/mqtt.c **** }
 430:../../Middlewares/Third_Party/LwIP/src/apps/mqtt/mqtt.c **** /**
 431:../../Middlewares/Third_Party/LwIP/src/apps/mqtt/mqtt.c ****  * Initialize all request items
 432:../../Middlewares/Third_Party/LwIP/src/apps/mqtt/mqtt.c ****  * @param r_objs Pointer to request objects
 433:../../Middlewares/Third_Party/LwIP/src/apps/mqtt/mqtt.c ****  * @param r_objs_len Number of array entries
 434:../../Middlewares/Third_Party/LwIP/src/apps/mqtt/mqtt.c ****  */
 435:../../Middlewares/Third_Party/LwIP/src/apps/mqtt/mqtt.c **** static void
 436:../../Middlewares/Third_Party/LwIP/src/apps/mqtt/mqtt.c **** mqtt_init_requests(struct mqtt_request_t *r_objs, size_t r_objs_len)
 437:../../Middlewares/Third_Party/LwIP/src/apps/mqtt/mqtt.c **** {
 438:../../Middlewares/Third_Party/LwIP/src/apps/mqtt/mqtt.c ****   u8_t n;
 439:../../Middlewares/Third_Party/LwIP/src/apps/mqtt/mqtt.c ****   LWIP_ASSERT("mqtt_init_requests: r_objs != NULL", r_objs != NULL);
 440:../../Middlewares/Third_Party/LwIP/src/apps/mqtt/mqtt.c ****   for (n = 0; n < r_objs_len; n++) {
 441:../../Middlewares/Third_Party/LwIP/src/apps/mqtt/mqtt.c ****     /* Item pointing to itself indicates unused */
 442:../../Middlewares/Third_Party/LwIP/src/apps/mqtt/mqtt.c ****     r_objs[n].next = &r_objs[n];
ARM GAS  C:\Users\minis\AppData\Local\Temp\ccG6JyYg.s 			page 12


 443:../../Middlewares/Third_Party/LwIP/src/apps/mqtt/mqtt.c ****   }
 444:../../Middlewares/Third_Party/LwIP/src/apps/mqtt/mqtt.c **** }
 445:../../Middlewares/Third_Party/LwIP/src/apps/mqtt/mqtt.c **** 
 446:../../Middlewares/Third_Party/LwIP/src/apps/mqtt/mqtt.c **** /*-------------------------------------------------------------------------------------------------
 447:../../Middlewares/Third_Party/LwIP/src/apps/mqtt/mqtt.c **** /* Output message build helpers */
 448:../../Middlewares/Third_Party/LwIP/src/apps/mqtt/mqtt.c **** 
 449:../../Middlewares/Third_Party/LwIP/src/apps/mqtt/mqtt.c **** 
 450:../../Middlewares/Third_Party/LwIP/src/apps/mqtt/mqtt.c **** static void
 451:../../Middlewares/Third_Party/LwIP/src/apps/mqtt/mqtt.c **** mqtt_output_append_u8(struct mqtt_ringbuf_t *rb, u8_t value)
 452:../../Middlewares/Third_Party/LwIP/src/apps/mqtt/mqtt.c **** {
 197              		.loc 1 452 1 is_stmt 1 view -0
 198              		.cfi_startproc
 199              		@ args = 0, pretend = 0, frame = 0
 200              		@ frame_needed = 0, uses_anonymous_args = 0
 201              		.loc 1 452 1 is_stmt 0 view .LVU46
 202 0000 08B5     		push	{r3, lr}
 203              	.LCFI0:
 204              		.cfi_def_cfa_offset 8
 205              		.cfi_offset 3, -8
 206              		.cfi_offset 14, -4
 453:../../Middlewares/Third_Party/LwIP/src/apps/mqtt/mqtt.c ****   mqtt_ringbuf_put(rb, value);
 207              		.loc 1 453 3 is_stmt 1 view .LVU47
 208 0002 FFF7FEFF 		bl	mqtt_ringbuf_put
 209              	.LVL11:
 454:../../Middlewares/Third_Party/LwIP/src/apps/mqtt/mqtt.c **** }
 210              		.loc 1 454 1 is_stmt 0 view .LVU48
 211 0006 08BD     		pop	{r3, pc}
 212              		.cfi_endproc
 213              	.LFE187:
 215              		.section	.text.mqtt_output_append_u16,"ax",%progbits
 216              		.align	1
 217              		.syntax unified
 218              		.thumb
 219              		.thumb_func
 221              	mqtt_output_append_u16:
 222              	.LVL12:
 223              	.LFB188:
 455:../../Middlewares/Third_Party/LwIP/src/apps/mqtt/mqtt.c **** 
 456:../../Middlewares/Third_Party/LwIP/src/apps/mqtt/mqtt.c **** static
 457:../../Middlewares/Third_Party/LwIP/src/apps/mqtt/mqtt.c **** void mqtt_output_append_u16(struct mqtt_ringbuf_t *rb, u16_t value)
 458:../../Middlewares/Third_Party/LwIP/src/apps/mqtt/mqtt.c **** {
 224              		.loc 1 458 1 is_stmt 1 view -0
 225              		.cfi_startproc
 226              		@ args = 0, pretend = 0, frame = 0
 227              		@ frame_needed = 0, uses_anonymous_args = 0
 228              		.loc 1 458 1 is_stmt 0 view .LVU50
 229 0000 38B5     		push	{r3, r4, r5, lr}
 230              	.LCFI1:
 231              		.cfi_def_cfa_offset 16
 232              		.cfi_offset 3, -16
 233              		.cfi_offset 4, -12
 234              		.cfi_offset 5, -8
 235              		.cfi_offset 14, -4
 236 0002 0546     		mov	r5, r0
 237 0004 0C46     		mov	r4, r1
 459:../../Middlewares/Third_Party/LwIP/src/apps/mqtt/mqtt.c ****   mqtt_ringbuf_put(rb, value >> 8);
 238              		.loc 1 459 3 is_stmt 1 view .LVU51
ARM GAS  C:\Users\minis\AppData\Local\Temp\ccG6JyYg.s 			page 13


 239 0006 090A     		lsrs	r1, r1, #8
 240              	.LVL13:
 241              		.loc 1 459 3 is_stmt 0 view .LVU52
 242 0008 FFF7FEFF 		bl	mqtt_ringbuf_put
 243              	.LVL14:
 460:../../Middlewares/Third_Party/LwIP/src/apps/mqtt/mqtt.c ****   mqtt_ringbuf_put(rb, value & 0xff);
 244              		.loc 1 460 3 is_stmt 1 view .LVU53
 245 000c E1B2     		uxtb	r1, r4
 246 000e 2846     		mov	r0, r5
 247 0010 FFF7FEFF 		bl	mqtt_ringbuf_put
 248              	.LVL15:
 461:../../Middlewares/Third_Party/LwIP/src/apps/mqtt/mqtt.c **** }
 249              		.loc 1 461 1 is_stmt 0 view .LVU54
 250 0014 38BD     		pop	{r3, r4, r5, pc}
 251              		.loc 1 461 1 view .LVU55
 252              		.cfi_endproc
 253              	.LFE188:
 255              		.section	.text.mqtt_output_append_buf,"ax",%progbits
 256              		.align	1
 257              		.syntax unified
 258              		.thumb
 259              		.thumb_func
 261              	mqtt_output_append_buf:
 262              	.LVL16:
 263              	.LFB189:
 462:../../Middlewares/Third_Party/LwIP/src/apps/mqtt/mqtt.c **** 
 463:../../Middlewares/Third_Party/LwIP/src/apps/mqtt/mqtt.c **** static void
 464:../../Middlewares/Third_Party/LwIP/src/apps/mqtt/mqtt.c **** mqtt_output_append_buf(struct mqtt_ringbuf_t *rb, const void *data, u16_t length)
 465:../../Middlewares/Third_Party/LwIP/src/apps/mqtt/mqtt.c **** {
 264              		.loc 1 465 1 is_stmt 1 view -0
 265              		.cfi_startproc
 266              		@ args = 0, pretend = 0, frame = 0
 267              		@ frame_needed = 0, uses_anonymous_args = 0
 268              		.loc 1 465 1 is_stmt 0 view .LVU57
 269 0000 F8B5     		push	{r3, r4, r5, r6, r7, lr}
 270              	.LCFI2:
 271              		.cfi_def_cfa_offset 24
 272              		.cfi_offset 3, -24
 273              		.cfi_offset 4, -20
 274              		.cfi_offset 5, -16
 275              		.cfi_offset 6, -12
 276              		.cfi_offset 7, -8
 277              		.cfi_offset 14, -4
 278 0002 0746     		mov	r7, r0
 279 0004 0E46     		mov	r6, r1
 280 0006 1546     		mov	r5, r2
 466:../../Middlewares/Third_Party/LwIP/src/apps/mqtt/mqtt.c ****   u16_t n;
 281              		.loc 1 466 3 is_stmt 1 view .LVU58
 467:../../Middlewares/Third_Party/LwIP/src/apps/mqtt/mqtt.c ****   for (n = 0; n < length; n++) {
 282              		.loc 1 467 3 view .LVU59
 283              	.LVL17:
 284              		.loc 1 467 10 is_stmt 0 view .LVU60
 285 0008 0024     		movs	r4, #0
 286              		.loc 1 467 3 view .LVU61
 287 000a 05E0     		b	.L15
 288              	.LVL18:
 289              	.L16:
ARM GAS  C:\Users\minis\AppData\Local\Temp\ccG6JyYg.s 			page 14


 468:../../Middlewares/Third_Party/LwIP/src/apps/mqtt/mqtt.c ****     mqtt_ringbuf_put(rb, ((const u8_t *)data)[n]);
 290              		.loc 1 468 5 is_stmt 1 view .LVU62
 291 000c 315D     		ldrb	r1, [r6, r4]	@ zero_extendqisi2
 292 000e 3846     		mov	r0, r7
 293 0010 FFF7FEFF 		bl	mqtt_ringbuf_put
 294              	.LVL19:
 467:../../Middlewares/Third_Party/LwIP/src/apps/mqtt/mqtt.c ****   for (n = 0; n < length; n++) {
 295              		.loc 1 467 28 discriminator 3 view .LVU63
 296 0014 0134     		adds	r4, r4, #1
 297              	.LVL20:
 467:../../Middlewares/Third_Party/LwIP/src/apps/mqtt/mqtt.c ****   for (n = 0; n < length; n++) {
 298              		.loc 1 467 28 is_stmt 0 discriminator 3 view .LVU64
 299 0016 A4B2     		uxth	r4, r4
 300              	.LVL21:
 301              	.L15:
 467:../../Middlewares/Third_Party/LwIP/src/apps/mqtt/mqtt.c ****   for (n = 0; n < length; n++) {
 302              		.loc 1 467 17 is_stmt 1 discriminator 1 view .LVU65
 303 0018 AC42     		cmp	r4, r5
 304 001a F7D3     		bcc	.L16
 469:../../Middlewares/Third_Party/LwIP/src/apps/mqtt/mqtt.c ****   }
 470:../../Middlewares/Third_Party/LwIP/src/apps/mqtt/mqtt.c **** }
 305              		.loc 1 470 1 is_stmt 0 view .LVU66
 306 001c F8BD     		pop	{r3, r4, r5, r6, r7, pc}
 307              		.loc 1 470 1 view .LVU67
 308              		.cfi_endproc
 309              	.LFE189:
 311              		.section	.text.mqtt_output_append_string,"ax",%progbits
 312              		.align	1
 313              		.syntax unified
 314              		.thumb
 315              		.thumb_func
 317              	mqtt_output_append_string:
 318              	.LVL22:
 319              	.LFB190:
 471:../../Middlewares/Third_Party/LwIP/src/apps/mqtt/mqtt.c **** 
 472:../../Middlewares/Third_Party/LwIP/src/apps/mqtt/mqtt.c **** static void
 473:../../Middlewares/Third_Party/LwIP/src/apps/mqtt/mqtt.c **** mqtt_output_append_string(struct mqtt_ringbuf_t *rb, const char *str, u16_t length)
 474:../../Middlewares/Third_Party/LwIP/src/apps/mqtt/mqtt.c **** {
 320              		.loc 1 474 1 is_stmt 1 view -0
 321              		.cfi_startproc
 322              		@ args = 0, pretend = 0, frame = 0
 323              		@ frame_needed = 0, uses_anonymous_args = 0
 324              		.loc 1 474 1 is_stmt 0 view .LVU69
 325 0000 F8B5     		push	{r3, r4, r5, r6, r7, lr}
 326              	.LCFI3:
 327              		.cfi_def_cfa_offset 24
 328              		.cfi_offset 3, -24
 329              		.cfi_offset 4, -20
 330              		.cfi_offset 5, -16
 331              		.cfi_offset 6, -12
 332              		.cfi_offset 7, -8
 333              		.cfi_offset 14, -4
 334 0002 0646     		mov	r6, r0
 335 0004 0F46     		mov	r7, r1
 336 0006 1546     		mov	r5, r2
 475:../../Middlewares/Third_Party/LwIP/src/apps/mqtt/mqtt.c ****   u16_t n;
 337              		.loc 1 475 3 is_stmt 1 view .LVU70
ARM GAS  C:\Users\minis\AppData\Local\Temp\ccG6JyYg.s 			page 15


 476:../../Middlewares/Third_Party/LwIP/src/apps/mqtt/mqtt.c ****   mqtt_ringbuf_put(rb, length >> 8);
 338              		.loc 1 476 3 view .LVU71
 339 0008 110A     		lsrs	r1, r2, #8
 340              	.LVL23:
 341              		.loc 1 476 3 is_stmt 0 view .LVU72
 342 000a FFF7FEFF 		bl	mqtt_ringbuf_put
 343              	.LVL24:
 477:../../Middlewares/Third_Party/LwIP/src/apps/mqtt/mqtt.c ****   mqtt_ringbuf_put(rb, length & 0xff);
 344              		.loc 1 477 3 is_stmt 1 view .LVU73
 345 000e E9B2     		uxtb	r1, r5
 346 0010 3046     		mov	r0, r6
 347 0012 FFF7FEFF 		bl	mqtt_ringbuf_put
 348              	.LVL25:
 478:../../Middlewares/Third_Party/LwIP/src/apps/mqtt/mqtt.c ****   for (n = 0; n < length; n++) {
 349              		.loc 1 478 3 view .LVU74
 350              		.loc 1 478 10 is_stmt 0 view .LVU75
 351 0016 0024     		movs	r4, #0
 352              		.loc 1 478 3 view .LVU76
 353 0018 05E0     		b	.L19
 354              	.LVL26:
 355              	.L20:
 479:../../Middlewares/Third_Party/LwIP/src/apps/mqtt/mqtt.c ****     mqtt_ringbuf_put(rb, str[n]);
 356              		.loc 1 479 5 is_stmt 1 view .LVU77
 357 001a 395D     		ldrb	r1, [r7, r4]	@ zero_extendqisi2
 358 001c 3046     		mov	r0, r6
 359 001e FFF7FEFF 		bl	mqtt_ringbuf_put
 360              	.LVL27:
 478:../../Middlewares/Third_Party/LwIP/src/apps/mqtt/mqtt.c ****   for (n = 0; n < length; n++) {
 361              		.loc 1 478 28 discriminator 3 view .LVU78
 362 0022 0134     		adds	r4, r4, #1
 363              	.LVL28:
 478:../../Middlewares/Third_Party/LwIP/src/apps/mqtt/mqtt.c ****   for (n = 0; n < length; n++) {
 364              		.loc 1 478 28 is_stmt 0 discriminator 3 view .LVU79
 365 0024 A4B2     		uxth	r4, r4
 366              	.LVL29:
 367              	.L19:
 478:../../Middlewares/Third_Party/LwIP/src/apps/mqtt/mqtt.c ****   for (n = 0; n < length; n++) {
 368              		.loc 1 478 17 is_stmt 1 discriminator 1 view .LVU80
 369 0026 AC42     		cmp	r4, r5
 370 0028 F7D3     		bcc	.L20
 480:../../Middlewares/Third_Party/LwIP/src/apps/mqtt/mqtt.c ****   }
 481:../../Middlewares/Third_Party/LwIP/src/apps/mqtt/mqtt.c **** }
 371              		.loc 1 481 1 is_stmt 0 view .LVU81
 372 002a F8BD     		pop	{r3, r4, r5, r6, r7, pc}
 373              		.loc 1 481 1 view .LVU82
 374              		.cfi_endproc
 375              	.LFE190:
 377              		.section	.text.mqtt_output_append_fixed_header,"ax",%progbits
 378              		.align	1
 379              		.syntax unified
 380              		.thumb
 381              		.thumb_func
 383              	mqtt_output_append_fixed_header:
 384              	.LVL30:
 385              	.LFB191:
 482:../../Middlewares/Third_Party/LwIP/src/apps/mqtt/mqtt.c **** 
 483:../../Middlewares/Third_Party/LwIP/src/apps/mqtt/mqtt.c **** /**
ARM GAS  C:\Users\minis\AppData\Local\Temp\ccG6JyYg.s 			page 16


 484:../../Middlewares/Third_Party/LwIP/src/apps/mqtt/mqtt.c ****  * Append fixed header
 485:../../Middlewares/Third_Party/LwIP/src/apps/mqtt/mqtt.c ****  * @param rb Output ring buffer
 486:../../Middlewares/Third_Party/LwIP/src/apps/mqtt/mqtt.c ****  * @param msg_type see enum mqtt_message_type
 487:../../Middlewares/Third_Party/LwIP/src/apps/mqtt/mqtt.c ****  * @param fdup MQTT DUP flag
 488:../../Middlewares/Third_Party/LwIP/src/apps/mqtt/mqtt.c ****  * @param fqos MQTT QoS field
 489:../../Middlewares/Third_Party/LwIP/src/apps/mqtt/mqtt.c ****  * @param fretain MQTT retain flag
 490:../../Middlewares/Third_Party/LwIP/src/apps/mqtt/mqtt.c ****  * @param r_length Remaining length after fixed header
 491:../../Middlewares/Third_Party/LwIP/src/apps/mqtt/mqtt.c ****  */
 492:../../Middlewares/Third_Party/LwIP/src/apps/mqtt/mqtt.c **** 
 493:../../Middlewares/Third_Party/LwIP/src/apps/mqtt/mqtt.c **** static void
 494:../../Middlewares/Third_Party/LwIP/src/apps/mqtt/mqtt.c **** mqtt_output_append_fixed_header(struct mqtt_ringbuf_t *rb, u8_t msg_type, u8_t fdup,
 495:../../Middlewares/Third_Party/LwIP/src/apps/mqtt/mqtt.c ****                                 u8_t fqos, u8_t fretain, u16_t r_length)
 496:../../Middlewares/Third_Party/LwIP/src/apps/mqtt/mqtt.c **** {
 386              		.loc 1 496 1 is_stmt 1 view -0
 387              		.cfi_startproc
 388              		@ args = 8, pretend = 0, frame = 0
 389              		@ frame_needed = 0, uses_anonymous_args = 0
 390              		.loc 1 496 1 is_stmt 0 view .LVU84
 391 0000 38B5     		push	{r3, r4, r5, lr}
 392              	.LCFI4:
 393              		.cfi_def_cfa_offset 16
 394              		.cfi_offset 3, -16
 395              		.cfi_offset 4, -12
 396              		.cfi_offset 5, -8
 397              		.cfi_offset 14, -4
 398 0002 0546     		mov	r5, r0
 399 0004 BDF81440 		ldrh	r4, [sp, #20]
 497:../../Middlewares/Third_Party/LwIP/src/apps/mqtt/mqtt.c ****   /* Start with control byte */
 498:../../Middlewares/Third_Party/LwIP/src/apps/mqtt/mqtt.c ****   mqtt_output_append_u8(rb, (((msg_type & 0x0f) << 4) | ((fdup & 1) << 3) | ((fqos & 3) << 1) | (fr
 400              		.loc 1 498 3 is_stmt 1 view .LVU85
 401              		.loc 1 498 69 is_stmt 0 view .LVU86
 402 0008 D200     		lsls	r2, r2, #3
 403              	.LVL31:
 404              		.loc 1 498 69 view .LVU87
 405 000a 02F00802 		and	r2, r2, #8
 406              		.loc 1 498 55 view .LVU88
 407 000e 42EA0112 		orr	r2, r2, r1, lsl #4
 408 0012 52B2     		sxtb	r2, r2
 409              		.loc 1 498 89 view .LVU89
 410 0014 5B00     		lsls	r3, r3, #1
 411              	.LVL32:
 412              		.loc 1 498 89 view .LVU90
 413 0016 03F00603 		and	r3, r3, #6
 414              		.loc 1 498 75 view .LVU91
 415 001a 1A43     		orrs	r2, r2, r3
 416              		.loc 1 498 3 view .LVU92
 417 001c 9DF81010 		ldrb	r1, [sp, #16]	@ zero_extendqisi2
 418              	.LVL33:
 419              		.loc 1 498 3 view .LVU93
 420 0020 01F00101 		and	r1, r1, #1
 421 0024 1143     		orrs	r1, r1, r2
 422 0026 C9B2     		uxtb	r1, r1
 423 0028 FFF7FEFF 		bl	mqtt_output_append_u8
 424              	.LVL34:
 425              		.loc 1 498 3 view .LVU94
 426 002c 07E0     		b	.L24
 427              	.LVL35:
ARM GAS  C:\Users\minis\AppData\Local\Temp\ccG6JyYg.s 			page 17


 428              	.L25:
 499:../../Middlewares/Third_Party/LwIP/src/apps/mqtt/mqtt.c ****   /* Encode remaining length field */
 500:../../Middlewares/Third_Party/LwIP/src/apps/mqtt/mqtt.c ****   do {
 501:../../Middlewares/Third_Party/LwIP/src/apps/mqtt/mqtt.c ****     mqtt_output_append_u8(rb, (r_length & 0x7f) | (r_length >= 128 ? 0x80 : 0));
 429              		.loc 1 501 49 discriminator 2 view .LVU95
 430 002e 0023     		movs	r3, #0
 431              	.L23:
 432              		.loc 1 501 49 discriminator 4 view .LVU96
 433 0030 1943     		orrs	r1, r1, r3
 434              		.loc 1 501 5 discriminator 4 view .LVU97
 435 0032 C9B2     		uxtb	r1, r1
 436 0034 2846     		mov	r0, r5
 437 0036 FFF7FEFF 		bl	mqtt_output_append_u8
 438              	.LVL36:
 502:../../Middlewares/Third_Party/LwIP/src/apps/mqtt/mqtt.c ****     r_length >>= 7;
 439              		.loc 1 502 5 is_stmt 1 view .LVU98
 503:../../Middlewares/Third_Party/LwIP/src/apps/mqtt/mqtt.c ****   } while (r_length > 0);
 440              		.loc 1 503 21 view .LVU99
 441 003a E409     		lsrs	r4, r4, #7
 442              	.LVL37:
 443              		.loc 1 503 21 is_stmt 0 view .LVU100
 444 003c 06D0     		beq	.L27
 445              	.LVL38:
 446              	.L24:
 500:../../Middlewares/Third_Party/LwIP/src/apps/mqtt/mqtt.c ****     mqtt_output_append_u8(rb, (r_length & 0x7f) | (r_length >= 128 ? 0x80 : 0));
 447              		.loc 1 500 3 is_stmt 1 view .LVU101
 501:../../Middlewares/Third_Party/LwIP/src/apps/mqtt/mqtt.c ****     r_length >>= 7;
 448              		.loc 1 501 5 view .LVU102
 501:../../Middlewares/Third_Party/LwIP/src/apps/mqtt/mqtt.c ****     r_length >>= 7;
 449              		.loc 1 501 41 is_stmt 0 view .LVU103
 450 003e 04F07F01 		and	r1, r4, #127
 501:../../Middlewares/Third_Party/LwIP/src/apps/mqtt/mqtt.c ****     r_length >>= 7;
 451              		.loc 1 501 49 view .LVU104
 452 0042 7F2C     		cmp	r4, #127
 453 0044 F3D9     		bls	.L25
 501:../../Middlewares/Third_Party/LwIP/src/apps/mqtt/mqtt.c ****     r_length >>= 7;
 454              		.loc 1 501 49 discriminator 1 view .LVU105
 455 0046 6FF07F03 		mvn	r3, #127
 456 004a F1E7     		b	.L23
 457              	.LVL39:
 458              	.L27:
 504:../../Middlewares/Third_Party/LwIP/src/apps/mqtt/mqtt.c **** }
 459              		.loc 1 504 1 view .LVU106
 460 004c 38BD     		pop	{r3, r4, r5, pc}
 461              		.loc 1 504 1 view .LVU107
 462              		.cfi_endproc
 463              	.LFE191:
 465              		.section	.text.mqtt_incomming_suback,"ax",%progbits
 466              		.align	1
 467              		.syntax unified
 468              		.thumb
 469              		.thumb_func
 471              	mqtt_incomming_suback:
 472              	.LVL40:
 473              	.LFB196:
 505:../../Middlewares/Third_Party/LwIP/src/apps/mqtt/mqtt.c **** 
 506:../../Middlewares/Third_Party/LwIP/src/apps/mqtt/mqtt.c **** 
ARM GAS  C:\Users\minis\AppData\Local\Temp\ccG6JyYg.s 			page 18


 507:../../Middlewares/Third_Party/LwIP/src/apps/mqtt/mqtt.c **** /**
 508:../../Middlewares/Third_Party/LwIP/src/apps/mqtt/mqtt.c ****  * Check output buffer space
 509:../../Middlewares/Third_Party/LwIP/src/apps/mqtt/mqtt.c ****  * @param rb Output ring buffer
 510:../../Middlewares/Third_Party/LwIP/src/apps/mqtt/mqtt.c ****  * @param r_length Remaining length after fixed header
 511:../../Middlewares/Third_Party/LwIP/src/apps/mqtt/mqtt.c ****  * @return 1 if message will fit, 0 if not enough buffer space
 512:../../Middlewares/Third_Party/LwIP/src/apps/mqtt/mqtt.c ****  */
 513:../../Middlewares/Third_Party/LwIP/src/apps/mqtt/mqtt.c **** static u8_t
 514:../../Middlewares/Third_Party/LwIP/src/apps/mqtt/mqtt.c **** mqtt_output_check_space(struct mqtt_ringbuf_t *rb, u16_t r_length)
 515:../../Middlewares/Third_Party/LwIP/src/apps/mqtt/mqtt.c **** {
 516:../../Middlewares/Third_Party/LwIP/src/apps/mqtt/mqtt.c ****   /* Start with length of type byte + remaining length */
 517:../../Middlewares/Third_Party/LwIP/src/apps/mqtt/mqtt.c ****   u16_t total_len = 1 + r_length;
 518:../../Middlewares/Third_Party/LwIP/src/apps/mqtt/mqtt.c **** 
 519:../../Middlewares/Third_Party/LwIP/src/apps/mqtt/mqtt.c ****   LWIP_ASSERT("mqtt_output_check_space: rb != NULL", rb != NULL);
 520:../../Middlewares/Third_Party/LwIP/src/apps/mqtt/mqtt.c **** 
 521:../../Middlewares/Third_Party/LwIP/src/apps/mqtt/mqtt.c ****   /* Calculate number of required bytes to contain the remaining bytes field and add to total*/
 522:../../Middlewares/Third_Party/LwIP/src/apps/mqtt/mqtt.c ****   do {
 523:../../Middlewares/Third_Party/LwIP/src/apps/mqtt/mqtt.c ****     total_len++;
 524:../../Middlewares/Third_Party/LwIP/src/apps/mqtt/mqtt.c ****     r_length >>= 7;
 525:../../Middlewares/Third_Party/LwIP/src/apps/mqtt/mqtt.c ****   } while (r_length > 0);
 526:../../Middlewares/Third_Party/LwIP/src/apps/mqtt/mqtt.c **** 
 527:../../Middlewares/Third_Party/LwIP/src/apps/mqtt/mqtt.c ****   return (total_len <= mqtt_ringbuf_free(rb));
 528:../../Middlewares/Third_Party/LwIP/src/apps/mqtt/mqtt.c **** }
 529:../../Middlewares/Third_Party/LwIP/src/apps/mqtt/mqtt.c **** 
 530:../../Middlewares/Third_Party/LwIP/src/apps/mqtt/mqtt.c **** 
 531:../../Middlewares/Third_Party/LwIP/src/apps/mqtt/mqtt.c **** /**
 532:../../Middlewares/Third_Party/LwIP/src/apps/mqtt/mqtt.c ****  * Close connection to server
 533:../../Middlewares/Third_Party/LwIP/src/apps/mqtt/mqtt.c ****  * @param client MQTT client
 534:../../Middlewares/Third_Party/LwIP/src/apps/mqtt/mqtt.c ****  * @param reason Reason for disconnection
 535:../../Middlewares/Third_Party/LwIP/src/apps/mqtt/mqtt.c ****  */
 536:../../Middlewares/Third_Party/LwIP/src/apps/mqtt/mqtt.c **** static void
 537:../../Middlewares/Third_Party/LwIP/src/apps/mqtt/mqtt.c **** mqtt_close(mqtt_client_t *client, mqtt_connection_status_t reason)
 538:../../Middlewares/Third_Party/LwIP/src/apps/mqtt/mqtt.c **** {
 539:../../Middlewares/Third_Party/LwIP/src/apps/mqtt/mqtt.c ****   LWIP_ASSERT("mqtt_close: client != NULL", client != NULL);
 540:../../Middlewares/Third_Party/LwIP/src/apps/mqtt/mqtt.c **** 
 541:../../Middlewares/Third_Party/LwIP/src/apps/mqtt/mqtt.c ****   /* Bring down TCP connection if not already done */
 542:../../Middlewares/Third_Party/LwIP/src/apps/mqtt/mqtt.c ****   if (client->conn != NULL) {
 543:../../Middlewares/Third_Party/LwIP/src/apps/mqtt/mqtt.c ****     err_t res;
 544:../../Middlewares/Third_Party/LwIP/src/apps/mqtt/mqtt.c ****     altcp_recv(client->conn, NULL);
 545:../../Middlewares/Third_Party/LwIP/src/apps/mqtt/mqtt.c ****     altcp_err(client->conn,  NULL);
 546:../../Middlewares/Third_Party/LwIP/src/apps/mqtt/mqtt.c ****     altcp_sent(client->conn, NULL);
 547:../../Middlewares/Third_Party/LwIP/src/apps/mqtt/mqtt.c ****     res = altcp_close(client->conn);
 548:../../Middlewares/Third_Party/LwIP/src/apps/mqtt/mqtt.c ****     if (res != ERR_OK) {
 549:../../Middlewares/Third_Party/LwIP/src/apps/mqtt/mqtt.c ****       altcp_abort(client->conn);
 550:../../Middlewares/Third_Party/LwIP/src/apps/mqtt/mqtt.c ****       LWIP_DEBUGF(MQTT_DEBUG_TRACE, ("mqtt_close: Close err=%s\n", lwip_strerr(res)));
 551:../../Middlewares/Third_Party/LwIP/src/apps/mqtt/mqtt.c ****     }
 552:../../Middlewares/Third_Party/LwIP/src/apps/mqtt/mqtt.c ****     client->conn = NULL;
 553:../../Middlewares/Third_Party/LwIP/src/apps/mqtt/mqtt.c ****   }
 554:../../Middlewares/Third_Party/LwIP/src/apps/mqtt/mqtt.c **** 
 555:../../Middlewares/Third_Party/LwIP/src/apps/mqtt/mqtt.c ****   /* Remove all pending requests */
 556:../../Middlewares/Third_Party/LwIP/src/apps/mqtt/mqtt.c ****   mqtt_clear_requests(&client->pend_req_queue);
 557:../../Middlewares/Third_Party/LwIP/src/apps/mqtt/mqtt.c ****   /* Stop cyclic timer */
 558:../../Middlewares/Third_Party/LwIP/src/apps/mqtt/mqtt.c ****   sys_untimeout(mqtt_cyclic_timer, client);
 559:../../Middlewares/Third_Party/LwIP/src/apps/mqtt/mqtt.c **** 
 560:../../Middlewares/Third_Party/LwIP/src/apps/mqtt/mqtt.c ****   /* Notify upper layer of disconnection if changed state */
 561:../../Middlewares/Third_Party/LwIP/src/apps/mqtt/mqtt.c ****   if (client->conn_state != TCP_DISCONNECTED) {
 562:../../Middlewares/Third_Party/LwIP/src/apps/mqtt/mqtt.c **** 
 563:../../Middlewares/Third_Party/LwIP/src/apps/mqtt/mqtt.c ****     client->conn_state = TCP_DISCONNECTED;
ARM GAS  C:\Users\minis\AppData\Local\Temp\ccG6JyYg.s 			page 19


 564:../../Middlewares/Third_Party/LwIP/src/apps/mqtt/mqtt.c ****     if (client->connect_cb != NULL) {
 565:../../Middlewares/Third_Party/LwIP/src/apps/mqtt/mqtt.c ****       client->connect_cb(client, client->connect_arg, reason);
 566:../../Middlewares/Third_Party/LwIP/src/apps/mqtt/mqtt.c ****     }
 567:../../Middlewares/Third_Party/LwIP/src/apps/mqtt/mqtt.c ****   }
 568:../../Middlewares/Third_Party/LwIP/src/apps/mqtt/mqtt.c **** }
 569:../../Middlewares/Third_Party/LwIP/src/apps/mqtt/mqtt.c **** 
 570:../../Middlewares/Third_Party/LwIP/src/apps/mqtt/mqtt.c **** 
 571:../../Middlewares/Third_Party/LwIP/src/apps/mqtt/mqtt.c **** /**
 572:../../Middlewares/Third_Party/LwIP/src/apps/mqtt/mqtt.c ****  * Interval timer, called every MQTT_CYCLIC_TIMER_INTERVAL seconds in MQTT_CONNECTING and MQTT_CONN
 573:../../Middlewares/Third_Party/LwIP/src/apps/mqtt/mqtt.c ****  * @param arg MQTT client
 574:../../Middlewares/Third_Party/LwIP/src/apps/mqtt/mqtt.c ****  */
 575:../../Middlewares/Third_Party/LwIP/src/apps/mqtt/mqtt.c **** static void
 576:../../Middlewares/Third_Party/LwIP/src/apps/mqtt/mqtt.c **** mqtt_cyclic_timer(void *arg)
 577:../../Middlewares/Third_Party/LwIP/src/apps/mqtt/mqtt.c **** {
 578:../../Middlewares/Third_Party/LwIP/src/apps/mqtt/mqtt.c ****   u8_t restart_timer = 1;
 579:../../Middlewares/Third_Party/LwIP/src/apps/mqtt/mqtt.c ****   mqtt_client_t *client = (mqtt_client_t *)arg;
 580:../../Middlewares/Third_Party/LwIP/src/apps/mqtt/mqtt.c ****   LWIP_ASSERT("mqtt_cyclic_timer: client != NULL", client != NULL);
 581:../../Middlewares/Third_Party/LwIP/src/apps/mqtt/mqtt.c **** 
 582:../../Middlewares/Third_Party/LwIP/src/apps/mqtt/mqtt.c ****   if (client->conn_state == MQTT_CONNECTING) {
 583:../../Middlewares/Third_Party/LwIP/src/apps/mqtt/mqtt.c ****     client->cyclic_tick++;
 584:../../Middlewares/Third_Party/LwIP/src/apps/mqtt/mqtt.c ****     if ((client->cyclic_tick * MQTT_CYCLIC_TIMER_INTERVAL) >= MQTT_CONNECT_TIMOUT) {
 585:../../Middlewares/Third_Party/LwIP/src/apps/mqtt/mqtt.c ****       LWIP_DEBUGF(MQTT_DEBUG_TRACE, ("mqtt_cyclic_timer: CONNECT attempt to server timed out\n"));
 586:../../Middlewares/Third_Party/LwIP/src/apps/mqtt/mqtt.c ****       /* Disconnect TCP */
 587:../../Middlewares/Third_Party/LwIP/src/apps/mqtt/mqtt.c ****       mqtt_close(client, MQTT_CONNECT_TIMEOUT);
 588:../../Middlewares/Third_Party/LwIP/src/apps/mqtt/mqtt.c ****       restart_timer = 0;
 589:../../Middlewares/Third_Party/LwIP/src/apps/mqtt/mqtt.c ****     }
 590:../../Middlewares/Third_Party/LwIP/src/apps/mqtt/mqtt.c ****   } else if (client->conn_state == MQTT_CONNECTED) {
 591:../../Middlewares/Third_Party/LwIP/src/apps/mqtt/mqtt.c ****     /* Handle timeout for pending requests */
 592:../../Middlewares/Third_Party/LwIP/src/apps/mqtt/mqtt.c ****     mqtt_request_time_elapsed(&client->pend_req_queue, MQTT_CYCLIC_TIMER_INTERVAL);
 593:../../Middlewares/Third_Party/LwIP/src/apps/mqtt/mqtt.c **** 
 594:../../Middlewares/Third_Party/LwIP/src/apps/mqtt/mqtt.c ****     /* keep_alive > 0 means keep alive functionality shall be used */
 595:../../Middlewares/Third_Party/LwIP/src/apps/mqtt/mqtt.c ****     if (client->keep_alive > 0) {
 596:../../Middlewares/Third_Party/LwIP/src/apps/mqtt/mqtt.c **** 
 597:../../Middlewares/Third_Party/LwIP/src/apps/mqtt/mqtt.c ****       client->server_watchdog++;
 598:../../Middlewares/Third_Party/LwIP/src/apps/mqtt/mqtt.c ****       /* If reception from server has been idle for 1.5*keep_alive time, server is considered unres
 599:../../Middlewares/Third_Party/LwIP/src/apps/mqtt/mqtt.c ****       if ((client->server_watchdog * MQTT_CYCLIC_TIMER_INTERVAL) > (client->keep_alive + client->ke
 600:../../Middlewares/Third_Party/LwIP/src/apps/mqtt/mqtt.c ****         LWIP_DEBUGF(MQTT_DEBUG_WARN, ("mqtt_cyclic_timer: Server incoming keep-alive timeout\n"));
 601:../../Middlewares/Third_Party/LwIP/src/apps/mqtt/mqtt.c ****         mqtt_close(client, MQTT_CONNECT_TIMEOUT);
 602:../../Middlewares/Third_Party/LwIP/src/apps/mqtt/mqtt.c ****         restart_timer = 0;
 603:../../Middlewares/Third_Party/LwIP/src/apps/mqtt/mqtt.c ****       }
 604:../../Middlewares/Third_Party/LwIP/src/apps/mqtt/mqtt.c **** 
 605:../../Middlewares/Third_Party/LwIP/src/apps/mqtt/mqtt.c ****       /* If time for a keep alive message to be sent, transmission has been idle for keep_alive tim
 606:../../Middlewares/Third_Party/LwIP/src/apps/mqtt/mqtt.c ****       if ((client->cyclic_tick * MQTT_CYCLIC_TIMER_INTERVAL) >= client->keep_alive) {
 607:../../Middlewares/Third_Party/LwIP/src/apps/mqtt/mqtt.c ****         LWIP_DEBUGF(MQTT_DEBUG_TRACE, ("mqtt_cyclic_timer: Sending keep-alive message to server\n")
 608:../../Middlewares/Third_Party/LwIP/src/apps/mqtt/mqtt.c ****         if (mqtt_output_check_space(&client->output, 0) != 0) {
 609:../../Middlewares/Third_Party/LwIP/src/apps/mqtt/mqtt.c ****           mqtt_output_append_fixed_header(&client->output, MQTT_MSG_TYPE_PINGREQ, 0, 0, 0, 0);
 610:../../Middlewares/Third_Party/LwIP/src/apps/mqtt/mqtt.c ****           client->cyclic_tick = 0;
 611:../../Middlewares/Third_Party/LwIP/src/apps/mqtt/mqtt.c ****         }
 612:../../Middlewares/Third_Party/LwIP/src/apps/mqtt/mqtt.c ****       } else {
 613:../../Middlewares/Third_Party/LwIP/src/apps/mqtt/mqtt.c ****         client->cyclic_tick++;
 614:../../Middlewares/Third_Party/LwIP/src/apps/mqtt/mqtt.c ****       }
 615:../../Middlewares/Third_Party/LwIP/src/apps/mqtt/mqtt.c ****     }
 616:../../Middlewares/Third_Party/LwIP/src/apps/mqtt/mqtt.c ****   } else {
 617:../../Middlewares/Third_Party/LwIP/src/apps/mqtt/mqtt.c ****     LWIP_DEBUGF(MQTT_DEBUG_WARN, ("mqtt_cyclic_timer: Timer should not be running in state %d\n", c
 618:../../Middlewares/Third_Party/LwIP/src/apps/mqtt/mqtt.c ****     restart_timer = 0;
 619:../../Middlewares/Third_Party/LwIP/src/apps/mqtt/mqtt.c ****   }
 620:../../Middlewares/Third_Party/LwIP/src/apps/mqtt/mqtt.c ****   if (restart_timer) {
ARM GAS  C:\Users\minis\AppData\Local\Temp\ccG6JyYg.s 			page 20


 621:../../Middlewares/Third_Party/LwIP/src/apps/mqtt/mqtt.c ****     sys_timeout(MQTT_CYCLIC_TIMER_INTERVAL * 1000, mqtt_cyclic_timer, arg);
 622:../../Middlewares/Third_Party/LwIP/src/apps/mqtt/mqtt.c ****   }
 623:../../Middlewares/Third_Party/LwIP/src/apps/mqtt/mqtt.c **** }
 624:../../Middlewares/Third_Party/LwIP/src/apps/mqtt/mqtt.c **** 
 625:../../Middlewares/Third_Party/LwIP/src/apps/mqtt/mqtt.c **** 
 626:../../Middlewares/Third_Party/LwIP/src/apps/mqtt/mqtt.c **** /**
 627:../../Middlewares/Third_Party/LwIP/src/apps/mqtt/mqtt.c ****  * Send PUBACK, PUBREC or PUBREL response message
 628:../../Middlewares/Third_Party/LwIP/src/apps/mqtt/mqtt.c ****  * @param client MQTT client
 629:../../Middlewares/Third_Party/LwIP/src/apps/mqtt/mqtt.c ****  * @param msg PUBACK, PUBREC or PUBREL
 630:../../Middlewares/Third_Party/LwIP/src/apps/mqtt/mqtt.c ****  * @param pkt_id Packet identifier
 631:../../Middlewares/Third_Party/LwIP/src/apps/mqtt/mqtt.c ****  * @param qos QoS value
 632:../../Middlewares/Third_Party/LwIP/src/apps/mqtt/mqtt.c ****  * @return ERR_OK if successful, ERR_MEM if out of memory
 633:../../Middlewares/Third_Party/LwIP/src/apps/mqtt/mqtt.c ****  */
 634:../../Middlewares/Third_Party/LwIP/src/apps/mqtt/mqtt.c **** static err_t
 635:../../Middlewares/Third_Party/LwIP/src/apps/mqtt/mqtt.c **** pub_ack_rec_rel_response(mqtt_client_t *client, u8_t msg, u16_t pkt_id, u8_t qos)
 636:../../Middlewares/Third_Party/LwIP/src/apps/mqtt/mqtt.c **** {
 637:../../Middlewares/Third_Party/LwIP/src/apps/mqtt/mqtt.c ****   err_t err = ERR_OK;
 638:../../Middlewares/Third_Party/LwIP/src/apps/mqtt/mqtt.c ****   if (mqtt_output_check_space(&client->output, 2)) {
 639:../../Middlewares/Third_Party/LwIP/src/apps/mqtt/mqtt.c ****     mqtt_output_append_fixed_header(&client->output, msg, 0, qos, 0, 2);
 640:../../Middlewares/Third_Party/LwIP/src/apps/mqtt/mqtt.c ****     mqtt_output_append_u16(&client->output, pkt_id);
 641:../../Middlewares/Third_Party/LwIP/src/apps/mqtt/mqtt.c ****     mqtt_output_send(&client->output, client->conn);
 642:../../Middlewares/Third_Party/LwIP/src/apps/mqtt/mqtt.c ****   } else {
 643:../../Middlewares/Third_Party/LwIP/src/apps/mqtt/mqtt.c ****     LWIP_DEBUGF(MQTT_DEBUG_TRACE, ("pub_ack_rec_rel_response: OOM creating response: %s with pkt_id
 644:../../Middlewares/Third_Party/LwIP/src/apps/mqtt/mqtt.c ****                                    mqtt_msg_type_to_str(msg), pkt_id));
 645:../../Middlewares/Third_Party/LwIP/src/apps/mqtt/mqtt.c ****     err = ERR_MEM;
 646:../../Middlewares/Third_Party/LwIP/src/apps/mqtt/mqtt.c ****   }
 647:../../Middlewares/Third_Party/LwIP/src/apps/mqtt/mqtt.c ****   return err;
 648:../../Middlewares/Third_Party/LwIP/src/apps/mqtt/mqtt.c **** }
 649:../../Middlewares/Third_Party/LwIP/src/apps/mqtt/mqtt.c **** 
 650:../../Middlewares/Third_Party/LwIP/src/apps/mqtt/mqtt.c **** /**
 651:../../Middlewares/Third_Party/LwIP/src/apps/mqtt/mqtt.c ****  * Subscribe response from server
 652:../../Middlewares/Third_Party/LwIP/src/apps/mqtt/mqtt.c ****  * @param r Matching request
 653:../../Middlewares/Third_Party/LwIP/src/apps/mqtt/mqtt.c ****  * @param result Result code from server
 654:../../Middlewares/Third_Party/LwIP/src/apps/mqtt/mqtt.c ****  */
 655:../../Middlewares/Third_Party/LwIP/src/apps/mqtt/mqtt.c **** static void
 656:../../Middlewares/Third_Party/LwIP/src/apps/mqtt/mqtt.c **** mqtt_incomming_suback(struct mqtt_request_t *r, u8_t result)
 657:../../Middlewares/Third_Party/LwIP/src/apps/mqtt/mqtt.c **** {
 474              		.loc 1 657 1 is_stmt 1 view -0
 475              		.cfi_startproc
 476              		@ args = 0, pretend = 0, frame = 0
 477              		@ frame_needed = 0, uses_anonymous_args = 0
 478              		.loc 1 657 1 is_stmt 0 view .LVU109
 479 0000 08B5     		push	{r3, lr}
 480              	.LCFI5:
 481              		.cfi_def_cfa_offset 8
 482              		.cfi_offset 3, -8
 483              		.cfi_offset 14, -4
 658:../../Middlewares/Third_Party/LwIP/src/apps/mqtt/mqtt.c ****   if (r->cb != NULL) {
 484              		.loc 1 658 3 is_stmt 1 view .LVU110
 485              		.loc 1 658 8 is_stmt 0 view .LVU111
 486 0002 4368     		ldr	r3, [r0, #4]
 487              		.loc 1 658 6 view .LVU112
 488 0004 23B1     		cbz	r3, .L28
 659:../../Middlewares/Third_Party/LwIP/src/apps/mqtt/mqtt.c ****     r->cb(r->arg, result < 3 ? ERR_OK : ERR_ABRT);
 489              		.loc 1 659 5 is_stmt 1 view .LVU113
 490 0006 8068     		ldr	r0, [r0, #8]
 491              	.LVL41:
ARM GAS  C:\Users\minis\AppData\Local\Temp\ccG6JyYg.s 			page 21


 492              		.loc 1 659 5 is_stmt 0 view .LVU114
 493 0008 0229     		cmp	r1, #2
 494 000a 02D8     		bhi	.L31
 495              		.loc 1 659 5 discriminator 1 view .LVU115
 496 000c 0021     		movs	r1, #0
 497              	.LVL42:
 498              	.L30:
 499              		.loc 1 659 5 discriminator 4 view .LVU116
 500 000e 9847     		blx	r3
 501              	.LVL43:
 502              	.L28:
 660:../../Middlewares/Third_Party/LwIP/src/apps/mqtt/mqtt.c ****   }
 661:../../Middlewares/Third_Party/LwIP/src/apps/mqtt/mqtt.c **** }
 503              		.loc 1 661 1 view .LVU117
 504 0010 08BD     		pop	{r3, pc}
 505              	.LVL44:
 506              	.L31:
 659:../../Middlewares/Third_Party/LwIP/src/apps/mqtt/mqtt.c ****     r->cb(r->arg, result < 3 ? ERR_OK : ERR_ABRT);
 507              		.loc 1 659 5 discriminator 2 view .LVU118
 508 0012 6FF00C01 		mvn	r1, #12
 509              	.LVL45:
 659:../../Middlewares/Third_Party/LwIP/src/apps/mqtt/mqtt.c ****     r->cb(r->arg, result < 3 ? ERR_OK : ERR_ABRT);
 510              		.loc 1 659 5 discriminator 2 view .LVU119
 511 0016 FAE7     		b	.L30
 512              		.cfi_endproc
 513              	.LFE196:
 515              		.section	.rodata.mqtt_create_request.str1.4,"aMS",%progbits,1
 516              		.align	2
 517              	.LC0:
 518 0000 2E2E2F2E 		.ascii	"../../Middlewares/Third_Party/LwIP/src/apps/mqtt/mq"
 518      2E2F4D69 
 518      64646C65 
 518      77617265 
 518      732F5468 
 519 0033 74742E63 		.ascii	"tt.c\000"
 519      00
 520              		.align	2
 521              	.LC1:
 522 0038 6D717474 		.ascii	"mqtt_create_request: r_objs != NULL\000"
 522      5F637265 
 522      6174655F 
 522      72657175 
 522      6573743A 
 523              		.align	2
 524              	.LC2:
 525 005c 41737365 		.ascii	"Assertion \"%s\" failed at line %d in %s\012\000"
 525      7274696F 
 525      6E202225 
 525      73222066 
 525      61696C65 
 526              		.section	.text.mqtt_create_request,"ax",%progbits
 527              		.align	1
 528              		.syntax unified
 529              		.thumb
 530              		.thumb_func
 532              	mqtt_create_request:
 533              	.LVL46:
ARM GAS  C:\Users\minis\AppData\Local\Temp\ccG6JyYg.s 			page 22


 534              	.LFB180:
 288:../../Middlewares/Third_Party/LwIP/src/apps/mqtt/mqtt.c ****   struct mqtt_request_t *r = NULL;
 535              		.loc 1 288 1 is_stmt 1 view -0
 536              		.cfi_startproc
 537              		@ args = 4, pretend = 0, frame = 0
 538              		@ frame_needed = 0, uses_anonymous_args = 0
 288:../../Middlewares/Third_Party/LwIP/src/apps/mqtt/mqtt.c ****   struct mqtt_request_t *r = NULL;
 539              		.loc 1 288 1 is_stmt 0 view .LVU121
 540 0000 F8B5     		push	{r3, r4, r5, r6, r7, lr}
 541              	.LCFI6:
 542              		.cfi_def_cfa_offset 24
 543              		.cfi_offset 3, -24
 544              		.cfi_offset 4, -20
 545              		.cfi_offset 5, -16
 546              		.cfi_offset 6, -12
 547              		.cfi_offset 7, -8
 548              		.cfi_offset 14, -4
 549 0002 0D46     		mov	r5, r1
 550 0004 1646     		mov	r6, r2
 551 0006 1F46     		mov	r7, r3
 289:../../Middlewares/Third_Party/LwIP/src/apps/mqtt/mqtt.c ****   u8_t n;
 552              		.loc 1 289 3 is_stmt 1 view .LVU122
 553              	.LVL47:
 290:../../Middlewares/Third_Party/LwIP/src/apps/mqtt/mqtt.c ****   LWIP_ASSERT("mqtt_create_request: r_objs != NULL", r_objs != NULL);
 554              		.loc 1 290 3 view .LVU123
 291:../../Middlewares/Third_Party/LwIP/src/apps/mqtt/mqtt.c ****   for (n = 0; n < r_objs_len; n++) {
 555              		.loc 1 291 3 view .LVU124
 291:../../Middlewares/Third_Party/LwIP/src/apps/mqtt/mqtt.c ****   for (n = 0; n < r_objs_len; n++) {
 556              		.loc 1 291 3 view .LVU125
 557 0008 0446     		mov	r4, r0
 558 000a 10B1     		cbz	r0, .L40
 559              	.LVL48:
 560              	.L34:
 291:../../Middlewares/Third_Party/LwIP/src/apps/mqtt/mqtt.c ****   for (n = 0; n < r_objs_len; n++) {
 561              		.loc 1 291 3 view .LVU126
 291:../../Middlewares/Third_Party/LwIP/src/apps/mqtt/mqtt.c ****   for (n = 0; n < r_objs_len; n++) {
 562              		.loc 1 291 3 view .LVU127
 292:../../Middlewares/Third_Party/LwIP/src/apps/mqtt/mqtt.c ****     /* Item point to itself if not in use */
 563              		.loc 1 292 3 view .LVU128
 292:../../Middlewares/Third_Party/LwIP/src/apps/mqtt/mqtt.c ****     /* Item point to itself if not in use */
 564              		.loc 1 292 10 is_stmt 0 view .LVU129
 565 000c 4FF0000C 		mov	ip, #0
 292:../../Middlewares/Third_Party/LwIP/src/apps/mqtt/mqtt.c ****     /* Item point to itself if not in use */
 566              		.loc 1 292 3 view .LVU130
 567 0010 0BE0     		b	.L35
 568              	.LVL49:
 569              	.L40:
 291:../../Middlewares/Third_Party/LwIP/src/apps/mqtt/mqtt.c ****   for (n = 0; n < r_objs_len; n++) {
 570              		.loc 1 291 3 is_stmt 1 discriminator 1 view .LVU131
 291:../../Middlewares/Third_Party/LwIP/src/apps/mqtt/mqtt.c ****   for (n = 0; n < r_objs_len; n++) {
 571              		.loc 1 291 3 discriminator 1 view .LVU132
 572 0012 104B     		ldr	r3, .L42
 573              	.LVL50:
 291:../../Middlewares/Third_Party/LwIP/src/apps/mqtt/mqtt.c ****   for (n = 0; n < r_objs_len; n++) {
 574              		.loc 1 291 3 is_stmt 0 discriminator 1 view .LVU133
 575 0014 40F22312 		movw	r2, #291
 576              	.LVL51:
ARM GAS  C:\Users\minis\AppData\Local\Temp\ccG6JyYg.s 			page 23


 291:../../Middlewares/Third_Party/LwIP/src/apps/mqtt/mqtt.c ****   for (n = 0; n < r_objs_len; n++) {
 577              		.loc 1 291 3 discriminator 1 view .LVU134
 578 0018 0F49     		ldr	r1, .L42+4
 579              	.LVL52:
 291:../../Middlewares/Third_Party/LwIP/src/apps/mqtt/mqtt.c ****   for (n = 0; n < r_objs_len; n++) {
 580              		.loc 1 291 3 discriminator 1 view .LVU135
 581 001a 1048     		ldr	r0, .L42+8
 582              	.LVL53:
 291:../../Middlewares/Third_Party/LwIP/src/apps/mqtt/mqtt.c ****   for (n = 0; n < r_objs_len; n++) {
 583              		.loc 1 291 3 discriminator 1 view .LVU136
 584 001c FFF7FEFF 		bl	printf
 585              	.LVL54:
 586 0020 F4E7     		b	.L34
 587              	.LVL55:
 588              	.L36:
 292:../../Middlewares/Third_Party/LwIP/src/apps/mqtt/mqtt.c ****     /* Item point to itself if not in use */
 589              		.loc 1 292 32 is_stmt 1 discriminator 2 view .LVU137
 590 0022 0CF1010C 		add	ip, ip, #1
 591              	.LVL56:
 292:../../Middlewares/Third_Party/LwIP/src/apps/mqtt/mqtt.c ****     /* Item point to itself if not in use */
 592              		.loc 1 292 32 is_stmt 0 discriminator 2 view .LVU138
 593 0026 5FFA8CFC 		uxtb	ip, ip
 594              	.LVL57:
 595              	.L35:
 292:../../Middlewares/Third_Party/LwIP/src/apps/mqtt/mqtt.c ****     /* Item point to itself if not in use */
 596              		.loc 1 292 17 is_stmt 1 discriminator 1 view .LVU139
 597 002a AC45     		cmp	ip, r5
 598 002c 0FD2     		bcs	.L41
 294:../../Middlewares/Third_Party/LwIP/src/apps/mqtt/mqtt.c ****       r = &r_objs[n];
 599              		.loc 1 294 5 view .LVU140
 294:../../Middlewares/Third_Party/LwIP/src/apps/mqtt/mqtt.c ****       r = &r_objs[n];
 600              		.loc 1 294 15 is_stmt 0 view .LVU141
 601 002e 4FEA0C1E 		lsl	lr, ip, #4
 602 0032 04EB0C10 		add	r0, r4, ip, lsl #4
 294:../../Middlewares/Third_Party/LwIP/src/apps/mqtt/mqtt.c ****       r = &r_objs[n];
 603              		.loc 1 294 18 view .LVU142
 604 0036 54F80E30 		ldr	r3, [r4, lr]
 294:../../Middlewares/Third_Party/LwIP/src/apps/mqtt/mqtt.c ****       r = &r_objs[n];
 605              		.loc 1 294 8 view .LVU143
 606 003a 9842     		cmp	r0, r3
 607 003c F1D1     		bne	.L36
 295:../../Middlewares/Third_Party/LwIP/src/apps/mqtt/mqtt.c ****       r->next = NULL;
 608              		.loc 1 295 7 is_stmt 1 view .LVU144
 609              	.LVL58:
 296:../../Middlewares/Third_Party/LwIP/src/apps/mqtt/mqtt.c ****       r->cb = cb;
 610              		.loc 1 296 7 view .LVU145
 296:../../Middlewares/Third_Party/LwIP/src/apps/mqtt/mqtt.c ****       r->cb = cb;
 611              		.loc 1 296 15 is_stmt 0 view .LVU146
 612 003e 0023     		movs	r3, #0
 613 0040 44F80E30 		str	r3, [r4, lr]
 297:../../Middlewares/Third_Party/LwIP/src/apps/mqtt/mqtt.c ****       r->arg = arg;
 614              		.loc 1 297 7 is_stmt 1 view .LVU147
 297:../../Middlewares/Third_Party/LwIP/src/apps/mqtt/mqtt.c ****       r->arg = arg;
 615              		.loc 1 297 13 is_stmt 0 view .LVU148
 616 0044 4760     		str	r7, [r0, #4]
 298:../../Middlewares/Third_Party/LwIP/src/apps/mqtt/mqtt.c ****       r->pkt_id = pkt_id;
 617              		.loc 1 298 7 is_stmt 1 view .LVU149
ARM GAS  C:\Users\minis\AppData\Local\Temp\ccG6JyYg.s 			page 24


 298:../../Middlewares/Third_Party/LwIP/src/apps/mqtt/mqtt.c ****       r->pkt_id = pkt_id;
 618              		.loc 1 298 14 is_stmt 0 view .LVU150
 619 0046 069B     		ldr	r3, [sp, #24]
 620 0048 8360     		str	r3, [r0, #8]
 299:../../Middlewares/Third_Party/LwIP/src/apps/mqtt/mqtt.c ****       break;
 621              		.loc 1 299 7 is_stmt 1 view .LVU151
 299:../../Middlewares/Third_Party/LwIP/src/apps/mqtt/mqtt.c ****       break;
 622              		.loc 1 299 17 is_stmt 0 view .LVU152
 623 004a 8681     		strh	r6, [r0, #12]	@ movhi
 300:../../Middlewares/Third_Party/LwIP/src/apps/mqtt/mqtt.c ****     }
 624              		.loc 1 300 7 is_stmt 1 view .LVU153
 625 004c 00E0     		b	.L33
 626              	.LVL59:
 627              	.L41:
 289:../../Middlewares/Third_Party/LwIP/src/apps/mqtt/mqtt.c ****   u8_t n;
 628              		.loc 1 289 26 is_stmt 0 view .LVU154
 629 004e 0020     		movs	r0, #0
 303:../../Middlewares/Third_Party/LwIP/src/apps/mqtt/mqtt.c **** }
 630              		.loc 1 303 3 is_stmt 1 view .LVU155
 631              	.LVL60:
 632              	.L33:
 304:../../Middlewares/Third_Party/LwIP/src/apps/mqtt/mqtt.c **** 
 633              		.loc 1 304 1 is_stmt 0 view .LVU156
 634 0050 F8BD     		pop	{r3, r4, r5, r6, r7, pc}
 635              	.LVL61:
 636              	.L43:
 304:../../Middlewares/Third_Party/LwIP/src/apps/mqtt/mqtt.c **** 
 637              		.loc 1 304 1 view .LVU157
 638 0052 00BF     		.align	2
 639              	.L42:
 640 0054 00000000 		.word	.LC0
 641 0058 38000000 		.word	.LC1
 642 005c 5C000000 		.word	.LC2
 643              		.cfi_endproc
 644              	.LFE180:
 646              		.section	.rodata.mqtt_output_check_space.str1.4,"aMS",%progbits,1
 647              		.align	2
 648              	.LC3:
 649 0000 6D717474 		.ascii	"mqtt_output_check_space: rb != NULL\000"
 649      5F6F7574 
 649      7075745F 
 649      63686563 
 649      6B5F7370 
 650              		.section	.text.mqtt_output_check_space,"ax",%progbits
 651              		.align	1
 652              		.syntax unified
 653              		.thumb
 654              		.thumb_func
 656              	mqtt_output_check_space:
 657              	.LVL62:
 658              	.LFB192:
 515:../../Middlewares/Third_Party/LwIP/src/apps/mqtt/mqtt.c ****   /* Start with length of type byte + remaining length */
 659              		.loc 1 515 1 is_stmt 1 view -0
 660              		.cfi_startproc
 661              		@ args = 0, pretend = 0, frame = 0
 662              		@ frame_needed = 0, uses_anonymous_args = 0
 515:../../Middlewares/Third_Party/LwIP/src/apps/mqtt/mqtt.c ****   /* Start with length of type byte + remaining length */
ARM GAS  C:\Users\minis\AppData\Local\Temp\ccG6JyYg.s 			page 25


 663              		.loc 1 515 1 is_stmt 0 view .LVU159
 664 0000 70B5     		push	{r4, r5, r6, lr}
 665              	.LCFI7:
 666              		.cfi_def_cfa_offset 16
 667              		.cfi_offset 4, -16
 668              		.cfi_offset 5, -12
 669              		.cfi_offset 6, -8
 670              		.cfi_offset 14, -4
 671 0002 0D46     		mov	r5, r1
 517:../../Middlewares/Third_Party/LwIP/src/apps/mqtt/mqtt.c **** 
 672              		.loc 1 517 3 is_stmt 1 view .LVU160
 517:../../Middlewares/Third_Party/LwIP/src/apps/mqtt/mqtt.c **** 
 673              		.loc 1 517 9 is_stmt 0 view .LVU161
 674 0004 4C1C     		adds	r4, r1, #1
 675 0006 A4B2     		uxth	r4, r4
 676              	.LVL63:
 519:../../Middlewares/Third_Party/LwIP/src/apps/mqtt/mqtt.c **** 
 677              		.loc 1 519 3 is_stmt 1 view .LVU162
 519:../../Middlewares/Third_Party/LwIP/src/apps/mqtt/mqtt.c **** 
 678              		.loc 1 519 3 view .LVU163
 679 0008 0646     		mov	r6, r0
 680 000a 68B1     		cbz	r0, .L48
 681              	.LVL64:
 682              	.L46:
 519:../../Middlewares/Third_Party/LwIP/src/apps/mqtt/mqtt.c **** 
 683              		.loc 1 519 3 view .LVU164
 519:../../Middlewares/Third_Party/LwIP/src/apps/mqtt/mqtt.c **** 
 684              		.loc 1 519 3 view .LVU165
 522:../../Middlewares/Third_Party/LwIP/src/apps/mqtt/mqtt.c ****     total_len++;
 685              		.loc 1 522 3 view .LVU166
 523:../../Middlewares/Third_Party/LwIP/src/apps/mqtt/mqtt.c ****     r_length >>= 7;
 686              		.loc 1 523 5 view .LVU167
 523:../../Middlewares/Third_Party/LwIP/src/apps/mqtt/mqtt.c ****     r_length >>= 7;
 687              		.loc 1 523 14 is_stmt 0 view .LVU168
 688 000c 0134     		adds	r4, r4, #1
 689              	.LVL65:
 523:../../Middlewares/Third_Party/LwIP/src/apps/mqtt/mqtt.c ****     r_length >>= 7;
 690              		.loc 1 523 14 view .LVU169
 691 000e A4B2     		uxth	r4, r4
 692              	.LVL66:
 524:../../Middlewares/Third_Party/LwIP/src/apps/mqtt/mqtt.c ****   } while (r_length > 0);
 693              		.loc 1 524 5 is_stmt 1 view .LVU170
 525:../../Middlewares/Third_Party/LwIP/src/apps/mqtt/mqtt.c **** 
 694              		.loc 1 525 21 discriminator 1 view .LVU171
 695 0010 ED09     		lsrs	r5, r5, #7
 696              	.LVL67:
 525:../../Middlewares/Third_Party/LwIP/src/apps/mqtt/mqtt.c **** 
 697              		.loc 1 525 21 is_stmt 0 discriminator 1 view .LVU172
 698 0012 FBD1     		bne	.L46
 527:../../Middlewares/Third_Party/LwIP/src/apps/mqtt/mqtt.c **** }
 699              		.loc 1 527 3 is_stmt 1 view .LVU173
 527:../../Middlewares/Third_Party/LwIP/src/apps/mqtt/mqtt.c **** }
 700              		.loc 1 527 24 is_stmt 0 view .LVU174
 701 0014 3046     		mov	r0, r6
 702 0016 FFF7FEFF 		bl	mqtt_ringbuf_len
 703              	.LVL68:
 527:../../Middlewares/Third_Party/LwIP/src/apps/mqtt/mqtt.c **** }
ARM GAS  C:\Users\minis\AppData\Local\Temp\ccG6JyYg.s 			page 26


 704              		.loc 1 527 24 discriminator 1 view .LVU175
 705 001a C0F58070 		rsb	r0, r0, #256
 528:../../Middlewares/Third_Party/LwIP/src/apps/mqtt/mqtt.c **** 
 706              		.loc 1 528 1 view .LVU176
 707 001e 8442     		cmp	r4, r0
 708 0020 CCBF     		ite	gt
 709 0022 0020     		movgt	r0, #0
 710 0024 0120     		movle	r0, #1
 711 0026 70BD     		pop	{r4, r5, r6, pc}
 712              	.LVL69:
 713              	.L48:
 519:../../Middlewares/Third_Party/LwIP/src/apps/mqtt/mqtt.c **** 
 714              		.loc 1 519 3 is_stmt 1 discriminator 1 view .LVU177
 519:../../Middlewares/Third_Party/LwIP/src/apps/mqtt/mqtt.c **** 
 715              		.loc 1 519 3 discriminator 1 view .LVU178
 716 0028 034B     		ldr	r3, .L49
 717 002a 40F20722 		movw	r2, #519
 718 002e 0349     		ldr	r1, .L49+4
 719              	.LVL70:
 519:../../Middlewares/Third_Party/LwIP/src/apps/mqtt/mqtt.c **** 
 720              		.loc 1 519 3 is_stmt 0 discriminator 1 view .LVU179
 721 0030 0348     		ldr	r0, .L49+8
 722              	.LVL71:
 519:../../Middlewares/Third_Party/LwIP/src/apps/mqtt/mqtt.c **** 
 723              		.loc 1 519 3 discriminator 1 view .LVU180
 724 0032 FFF7FEFF 		bl	printf
 725              	.LVL72:
 726 0036 E9E7     		b	.L46
 727              	.L50:
 728              		.align	2
 729              	.L49:
 730 0038 00000000 		.word	.LC0
 731 003c 00000000 		.word	.LC3
 732 0040 5C000000 		.word	.LC2
 733              		.cfi_endproc
 734              	.LFE192:
 736              		.section	.rodata.mqtt_append_request.str1.4,"aMS",%progbits,1
 737              		.align	2
 738              	.LC4:
 739 0000 6D717474 		.ascii	"mqtt_append_request: tail != NULL\000"
 739      5F617070 
 739      656E645F 
 739      72657175 
 739      6573743A 
 740 0022 0000     		.align	2
 741              	.LC5:
 742 0024 6D717474 		.ascii	"mqtt_append_request: time_before <= MQTT_REQ_TIMEOU"
 742      5F617070 
 742      656E645F 
 742      72657175 
 742      6573743A 
 743 0057 5400     		.ascii	"T\000"
 744              		.section	.text.mqtt_append_request,"ax",%progbits
 745              		.align	1
 746              		.syntax unified
 747              		.thumb
 748              		.thumb_func
ARM GAS  C:\Users\minis\AppData\Local\Temp\ccG6JyYg.s 			page 27


 750              	mqtt_append_request:
 751              	.LVL73:
 752              	.LFB181:
 314:../../Middlewares/Third_Party/LwIP/src/apps/mqtt/mqtt.c ****   struct mqtt_request_t *head = NULL;
 753              		.loc 1 314 1 is_stmt 1 view -0
 754              		.cfi_startproc
 755              		@ args = 0, pretend = 0, frame = 0
 756              		@ frame_needed = 0, uses_anonymous_args = 0
 314:../../Middlewares/Third_Party/LwIP/src/apps/mqtt/mqtt.c ****   struct mqtt_request_t *head = NULL;
 757              		.loc 1 314 1 is_stmt 0 view .LVU182
 758 0000 F8B5     		push	{r3, r4, r5, r6, r7, lr}
 759              	.LCFI8:
 760              		.cfi_def_cfa_offset 24
 761              		.cfi_offset 3, -24
 762              		.cfi_offset 4, -20
 763              		.cfi_offset 5, -16
 764              		.cfi_offset 6, -12
 765              		.cfi_offset 7, -8
 766              		.cfi_offset 14, -4
 767 0002 0E46     		mov	r6, r1
 315:../../Middlewares/Third_Party/LwIP/src/apps/mqtt/mqtt.c ****   s16_t time_before = 0;
 768              		.loc 1 315 3 is_stmt 1 view .LVU183
 769              	.LVL74:
 316:../../Middlewares/Third_Party/LwIP/src/apps/mqtt/mqtt.c ****   struct mqtt_request_t *iter;
 770              		.loc 1 316 3 view .LVU184
 317:../../Middlewares/Third_Party/LwIP/src/apps/mqtt/mqtt.c **** 
 771              		.loc 1 317 3 view .LVU185
 319:../../Middlewares/Third_Party/LwIP/src/apps/mqtt/mqtt.c **** 
 772              		.loc 1 319 3 view .LVU186
 319:../../Middlewares/Third_Party/LwIP/src/apps/mqtt/mqtt.c **** 
 773              		.loc 1 319 3 view .LVU187
 774 0004 0746     		mov	r7, r0
 775 0006 18B1     		cbz	r0, .L59
 776              	.LVL75:
 777              	.L52:
 319:../../Middlewares/Third_Party/LwIP/src/apps/mqtt/mqtt.c **** 
 778              		.loc 1 319 3 view .LVU188
 319:../../Middlewares/Third_Party/LwIP/src/apps/mqtt/mqtt.c **** 
 779              		.loc 1 319 3 view .LVU189
 322:../../Middlewares/Third_Party/LwIP/src/apps/mqtt/mqtt.c ****     time_before += iter->timeout_diff;
 780              		.loc 1 322 3 view .LVU190
 322:../../Middlewares/Third_Party/LwIP/src/apps/mqtt/mqtt.c ****     time_before += iter->timeout_diff;
 781              		.loc 1 322 13 is_stmt 0 view .LVU191
 782 0008 3B68     		ldr	r3, [r7]
 783              	.LVL76:
 316:../../Middlewares/Third_Party/LwIP/src/apps/mqtt/mqtt.c ****   struct mqtt_request_t *iter;
 784              		.loc 1 316 9 view .LVU192
 785 000a 0024     		movs	r4, #0
 315:../../Middlewares/Third_Party/LwIP/src/apps/mqtt/mqtt.c ****   s16_t time_before = 0;
 786              		.loc 1 315 26 view .LVU193
 787 000c 2546     		mov	r5, r4
 322:../../Middlewares/Third_Party/LwIP/src/apps/mqtt/mqtt.c ****     time_before += iter->timeout_diff;
 788              		.loc 1 322 3 view .LVU194
 789 000e 0CE0     		b	.L53
 790              	.LVL77:
 791              	.L59:
 319:../../Middlewares/Third_Party/LwIP/src/apps/mqtt/mqtt.c **** 
ARM GAS  C:\Users\minis\AppData\Local\Temp\ccG6JyYg.s 			page 28


 792              		.loc 1 319 3 is_stmt 1 discriminator 1 view .LVU195
 319:../../Middlewares/Third_Party/LwIP/src/apps/mqtt/mqtt.c **** 
 793              		.loc 1 319 3 discriminator 1 view .LVU196
 794 0010 104B     		ldr	r3, .L62
 795 0012 40F23F12 		movw	r2, #319
 796 0016 1049     		ldr	r1, .L62+4
 797              	.LVL78:
 319:../../Middlewares/Third_Party/LwIP/src/apps/mqtt/mqtt.c **** 
 798              		.loc 1 319 3 is_stmt 0 discriminator 1 view .LVU197
 799 0018 1048     		ldr	r0, .L62+8
 800              	.LVL79:
 319:../../Middlewares/Third_Party/LwIP/src/apps/mqtt/mqtt.c **** 
 801              		.loc 1 319 3 discriminator 1 view .LVU198
 802 001a FFF7FEFF 		bl	printf
 803              	.LVL80:
 804 001e F3E7     		b	.L52
 805              	.LVL81:
 806              	.L54:
 323:../../Middlewares/Third_Party/LwIP/src/apps/mqtt/mqtt.c ****     head = iter;
 807              		.loc 1 323 5 is_stmt 1 view .LVU199
 323:../../Middlewares/Third_Party/LwIP/src/apps/mqtt/mqtt.c ****     head = iter;
 808              		.loc 1 323 24 is_stmt 0 view .LVU200
 809 0020 DA89     		ldrh	r2, [r3, #14]
 323:../../Middlewares/Third_Party/LwIP/src/apps/mqtt/mqtt.c ****     head = iter;
 810              		.loc 1 323 17 view .LVU201
 811 0022 1444     		add	r4, r4, r2
 812              	.LVL82:
 323:../../Middlewares/Third_Party/LwIP/src/apps/mqtt/mqtt.c ****     head = iter;
 813              		.loc 1 323 17 view .LVU202
 814 0024 24B2     		sxth	r4, r4
 815              	.LVL83:
 324:../../Middlewares/Third_Party/LwIP/src/apps/mqtt/mqtt.c ****   }
 816              		.loc 1 324 5 is_stmt 1 view .LVU203
 322:../../Middlewares/Third_Party/LwIP/src/apps/mqtt/mqtt.c ****     time_before += iter->timeout_diff;
 817              		.loc 1 322 41 discriminator 3 view .LVU204
 324:../../Middlewares/Third_Party/LwIP/src/apps/mqtt/mqtt.c ****   }
 818              		.loc 1 324 10 is_stmt 0 view .LVU205
 819 0026 1D46     		mov	r5, r3
 322:../../Middlewares/Third_Party/LwIP/src/apps/mqtt/mqtt.c ****     time_before += iter->timeout_diff;
 820              		.loc 1 322 41 discriminator 3 view .LVU206
 821 0028 1B68     		ldr	r3, [r3]
 822              	.LVL84:
 823              	.L53:
 322:../../Middlewares/Third_Party/LwIP/src/apps/mqtt/mqtt.c ****     time_before += iter->timeout_diff;
 824              		.loc 1 322 27 is_stmt 1 discriminator 1 view .LVU207
 825 002a 002B     		cmp	r3, #0
 826 002c F8D1     		bne	.L54
 327:../../Middlewares/Third_Party/LwIP/src/apps/mqtt/mqtt.c ****   r->timeout_diff = MQTT_REQ_TIMEOUT - time_before;
 827              		.loc 1 327 3 view .LVU208
 327:../../Middlewares/Third_Party/LwIP/src/apps/mqtt/mqtt.c ****   r->timeout_diff = MQTT_REQ_TIMEOUT - time_before;
 828              		.loc 1 327 3 view .LVU209
 829 002e 1E2C     		cmp	r4, #30
 830 0030 05DC     		bgt	.L60
 831              	.LVL85:
 832              	.L55:
 327:../../Middlewares/Third_Party/LwIP/src/apps/mqtt/mqtt.c ****   r->timeout_diff = MQTT_REQ_TIMEOUT - time_before;
 833              		.loc 1 327 3 view .LVU210
ARM GAS  C:\Users\minis\AppData\Local\Temp\ccG6JyYg.s 			page 29


 327:../../Middlewares/Third_Party/LwIP/src/apps/mqtt/mqtt.c ****   r->timeout_diff = MQTT_REQ_TIMEOUT - time_before;
 834              		.loc 1 327 3 view .LVU211
 328:../../Middlewares/Third_Party/LwIP/src/apps/mqtt/mqtt.c ****   if (head == NULL) {
 835              		.loc 1 328 3 view .LVU212
 328:../../Middlewares/Third_Party/LwIP/src/apps/mqtt/mqtt.c ****   if (head == NULL) {
 836              		.loc 1 328 38 is_stmt 0 view .LVU213
 837 0032 C4F11E04 		rsb	r4, r4, #30
 838              	.LVL86:
 328:../../Middlewares/Third_Party/LwIP/src/apps/mqtt/mqtt.c ****   if (head == NULL) {
 839              		.loc 1 328 19 view .LVU214
 840 0036 F481     		strh	r4, [r6, #14]	@ movhi
 329:../../Middlewares/Third_Party/LwIP/src/apps/mqtt/mqtt.c ****     *tail = r;
 841              		.loc 1 329 3 is_stmt 1 view .LVU215
 329:../../Middlewares/Third_Party/LwIP/src/apps/mqtt/mqtt.c ****     *tail = r;
 842              		.loc 1 329 6 is_stmt 0 view .LVU216
 843 0038 4DB1     		cbz	r5, .L61
 332:../../Middlewares/Third_Party/LwIP/src/apps/mqtt/mqtt.c ****   }
 844              		.loc 1 332 5 is_stmt 1 view .LVU217
 332:../../Middlewares/Third_Party/LwIP/src/apps/mqtt/mqtt.c ****   }
 845              		.loc 1 332 16 is_stmt 0 view .LVU218
 846 003a 2E60     		str	r6, [r5]
 847              	.L51:
 334:../../Middlewares/Third_Party/LwIP/src/apps/mqtt/mqtt.c **** 
 848              		.loc 1 334 1 view .LVU219
 849 003c F8BD     		pop	{r3, r4, r5, r6, r7, pc}
 850              	.LVL87:
 851              	.L60:
 327:../../Middlewares/Third_Party/LwIP/src/apps/mqtt/mqtt.c ****   r->timeout_diff = MQTT_REQ_TIMEOUT - time_before;
 852              		.loc 1 327 3 is_stmt 1 discriminator 1 view .LVU220
 327:../../Middlewares/Third_Party/LwIP/src/apps/mqtt/mqtt.c ****   r->timeout_diff = MQTT_REQ_TIMEOUT - time_before;
 853              		.loc 1 327 3 discriminator 1 view .LVU221
 854 003e 054B     		ldr	r3, .L62
 855              	.LVL88:
 327:../../Middlewares/Third_Party/LwIP/src/apps/mqtt/mqtt.c ****   r->timeout_diff = MQTT_REQ_TIMEOUT - time_before;
 856              		.loc 1 327 3 is_stmt 0 discriminator 1 view .LVU222
 857 0040 40F24712 		movw	r2, #327
 858 0044 0649     		ldr	r1, .L62+12
 859 0046 0548     		ldr	r0, .L62+8
 860 0048 FFF7FEFF 		bl	printf
 861              	.LVL89:
 862 004c F1E7     		b	.L55
 863              	.LVL90:
 864              	.L61:
 330:../../Middlewares/Third_Party/LwIP/src/apps/mqtt/mqtt.c ****   } else {
 865              		.loc 1 330 5 is_stmt 1 view .LVU223
 330:../../Middlewares/Third_Party/LwIP/src/apps/mqtt/mqtt.c ****   } else {
 866              		.loc 1 330 11 is_stmt 0 view .LVU224
 867 004e 3E60     		str	r6, [r7]
 868 0050 F4E7     		b	.L51
 869              	.L63:
 870 0052 00BF     		.align	2
 871              	.L62:
 872 0054 00000000 		.word	.LC0
 873 0058 00000000 		.word	.LC4
 874 005c 5C000000 		.word	.LC2
 875 0060 24000000 		.word	.LC5
 876              		.cfi_endproc
ARM GAS  C:\Users\minis\AppData\Local\Temp\ccG6JyYg.s 			page 30


 877              	.LFE181:
 879              		.section	.rodata.mqtt_ringbuf_advance_get_idx.str1.4,"aMS",%progbits,1
 880              		.align	2
 881              	.LC6:
 882 0000 6D717474 		.ascii	"mqtt_ringbuf_advance_get_idx: len < MQTT_OUTPUT_RIN"
 882      5F72696E 
 882      67627566 
 882      5F616476 
 882      616E6365 
 883 0033 47425546 		.ascii	"GBUF_SIZE\000"
 883      5F53495A 
 883      4500
 884              		.section	.text.mqtt_ringbuf_advance_get_idx,"ax",%progbits
 885              		.align	1
 886              		.syntax unified
 887              		.thumb
 888              		.thumb_func
 890              	mqtt_ringbuf_advance_get_idx:
 891              	.LVL91:
 892              	.LFB177:
 202:../../Middlewares/Third_Party/LwIP/src/apps/mqtt/mqtt.c ****   LWIP_ASSERT("mqtt_ringbuf_advance_get_idx: len < MQTT_OUTPUT_RINGBUF_SIZE", len < MQTT_OUTPUT_RIN
 893              		.loc 1 202 1 is_stmt 1 view -0
 894              		.cfi_startproc
 895              		@ args = 0, pretend = 0, frame = 0
 896              		@ frame_needed = 0, uses_anonymous_args = 0
 202:../../Middlewares/Third_Party/LwIP/src/apps/mqtt/mqtt.c ****   LWIP_ASSERT("mqtt_ringbuf_advance_get_idx: len < MQTT_OUTPUT_RINGBUF_SIZE", len < MQTT_OUTPUT_RIN
 897              		.loc 1 202 1 is_stmt 0 view .LVU226
 898 0000 38B5     		push	{r3, r4, r5, lr}
 899              	.LCFI9:
 900              		.cfi_def_cfa_offset 16
 901              		.cfi_offset 3, -16
 902              		.cfi_offset 4, -12
 903              		.cfi_offset 5, -8
 904              		.cfi_offset 14, -4
 905 0002 0446     		mov	r4, r0
 906 0004 0D46     		mov	r5, r1
 203:../../Middlewares/Third_Party/LwIP/src/apps/mqtt/mqtt.c **** 
 907              		.loc 1 203 3 is_stmt 1 view .LVU227
 203:../../Middlewares/Third_Party/LwIP/src/apps/mqtt/mqtt.c **** 
 908              		.loc 1 203 3 view .LVU228
 909 0006 FF29     		cmp	r1, #255
 910 0008 09D8     		bhi	.L68
 911              	.LVL92:
 912              	.L65:
 203:../../Middlewares/Third_Party/LwIP/src/apps/mqtt/mqtt.c **** 
 913              		.loc 1 203 3 view .LVU229
 203:../../Middlewares/Third_Party/LwIP/src/apps/mqtt/mqtt.c **** 
 914              		.loc 1 203 3 view .LVU230
 205:../../Middlewares/Third_Party/LwIP/src/apps/mqtt/mqtt.c ****   if (rb->get >= MQTT_OUTPUT_RINGBUF_SIZE) {
 915              		.loc 1 205 3 view .LVU231
 205:../../Middlewares/Third_Party/LwIP/src/apps/mqtt/mqtt.c ****   if (rb->get >= MQTT_OUTPUT_RINGBUF_SIZE) {
 916              		.loc 1 205 5 is_stmt 0 view .LVU232
 917 000a 6188     		ldrh	r1, [r4, #2]
 205:../../Middlewares/Third_Party/LwIP/src/apps/mqtt/mqtt.c ****   if (rb->get >= MQTT_OUTPUT_RINGBUF_SIZE) {
 918              		.loc 1 205 11 view .LVU233
 919 000c 2944     		add	r1, r1, r5
 920 000e 89B2     		uxth	r1, r1
ARM GAS  C:\Users\minis\AppData\Local\Temp\ccG6JyYg.s 			page 31


 921 0010 6180     		strh	r1, [r4, #2]	@ movhi
 206:../../Middlewares/Third_Party/LwIP/src/apps/mqtt/mqtt.c ****     rb->get = rb->get - MQTT_OUTPUT_RINGBUF_SIZE;
 922              		.loc 1 206 3 is_stmt 1 view .LVU234
 206:../../Middlewares/Third_Party/LwIP/src/apps/mqtt/mqtt.c ****     rb->get = rb->get - MQTT_OUTPUT_RINGBUF_SIZE;
 923              		.loc 1 206 6 is_stmt 0 view .LVU235
 924 0012 FF29     		cmp	r1, #255
 925 0014 02D9     		bls	.L64
 207:../../Middlewares/Third_Party/LwIP/src/apps/mqtt/mqtt.c ****   }
 926              		.loc 1 207 5 is_stmt 1 view .LVU236
 207:../../Middlewares/Third_Party/LwIP/src/apps/mqtt/mqtt.c ****   }
 927              		.loc 1 207 23 is_stmt 0 view .LVU237
 928 0016 A1F58071 		sub	r1, r1, #256
 207:../../Middlewares/Third_Party/LwIP/src/apps/mqtt/mqtt.c ****   }
 929              		.loc 1 207 13 view .LVU238
 930 001a 6180     		strh	r1, [r4, #2]	@ movhi
 931              	.L64:
 209:../../Middlewares/Third_Party/LwIP/src/apps/mqtt/mqtt.c **** 
 932              		.loc 1 209 1 view .LVU239
 933 001c 38BD     		pop	{r3, r4, r5, pc}
 934              	.LVL93:
 935              	.L68:
 203:../../Middlewares/Third_Party/LwIP/src/apps/mqtt/mqtt.c **** 
 936              		.loc 1 203 3 is_stmt 1 discriminator 1 view .LVU240
 203:../../Middlewares/Third_Party/LwIP/src/apps/mqtt/mqtt.c **** 
 937              		.loc 1 203 3 discriminator 1 view .LVU241
 938 001e 034B     		ldr	r3, .L69
 939 0020 CB22     		movs	r2, #203
 940 0022 0349     		ldr	r1, .L69+4
 941              	.LVL94:
 203:../../Middlewares/Third_Party/LwIP/src/apps/mqtt/mqtt.c **** 
 942              		.loc 1 203 3 is_stmt 0 discriminator 1 view .LVU242
 943 0024 0348     		ldr	r0, .L69+8
 944              	.LVL95:
 203:../../Middlewares/Third_Party/LwIP/src/apps/mqtt/mqtt.c **** 
 945              		.loc 1 203 3 discriminator 1 view .LVU243
 946 0026 FFF7FEFF 		bl	printf
 947              	.LVL96:
 948 002a EEE7     		b	.L65
 949              	.L70:
 950              		.align	2
 951              	.L69:
 952 002c 00000000 		.word	.LC0
 953 0030 00000000 		.word	.LC6
 954 0034 5C000000 		.word	.LC2
 955              		.cfi_endproc
 956              	.LFE177:
 958              		.section	.rodata.mqtt_request_time_elapsed.str1.4,"aMS",%progbits,1
 959              		.align	2
 960              	.LC7:
 961 0000 6D717474 		.ascii	"mqtt_request_time_elapsed: tail != NULL\000"
 961      5F726571 
 961      75657374 
 961      5F74696D 
 961      655F656C 
 962              		.section	.text.mqtt_request_time_elapsed,"ax",%progbits
 963              		.align	1
 964              		.syntax unified
ARM GAS  C:\Users\minis\AppData\Local\Temp\ccG6JyYg.s 			page 32


 965              		.thumb
 966              		.thumb_func
 968              	mqtt_request_time_elapsed:
 969              	.LVL97:
 970              	.LFB184:
 392:../../Middlewares/Third_Party/LwIP/src/apps/mqtt/mqtt.c ****   struct mqtt_request_t *r;
 971              		.loc 1 392 1 is_stmt 1 view -0
 972              		.cfi_startproc
 973              		@ args = 0, pretend = 0, frame = 0
 974              		@ frame_needed = 0, uses_anonymous_args = 0
 392:../../Middlewares/Third_Party/LwIP/src/apps/mqtt/mqtt.c ****   struct mqtt_request_t *r;
 975              		.loc 1 392 1 is_stmt 0 view .LVU245
 976 0000 70B5     		push	{r4, r5, r6, lr}
 977              	.LCFI10:
 978              		.cfi_def_cfa_offset 16
 979              		.cfi_offset 4, -16
 980              		.cfi_offset 5, -12
 981              		.cfi_offset 6, -8
 982              		.cfi_offset 14, -4
 983 0002 0D46     		mov	r5, r1
 393:../../Middlewares/Third_Party/LwIP/src/apps/mqtt/mqtt.c ****   LWIP_ASSERT("mqtt_request_time_elapsed: tail != NULL", tail != NULL);
 984              		.loc 1 393 3 is_stmt 1 view .LVU246
 394:../../Middlewares/Third_Party/LwIP/src/apps/mqtt/mqtt.c ****   r = *tail;
 985              		.loc 1 394 3 view .LVU247
 394:../../Middlewares/Third_Party/LwIP/src/apps/mqtt/mqtt.c ****   r = *tail;
 986              		.loc 1 394 3 view .LVU248
 987 0004 0646     		mov	r6, r0
 988 0006 08B1     		cbz	r0, .L80
 989              	.LVL98:
 990              	.L72:
 394:../../Middlewares/Third_Party/LwIP/src/apps/mqtt/mqtt.c ****   r = *tail;
 991              		.loc 1 394 3 view .LVU249
 394:../../Middlewares/Third_Party/LwIP/src/apps/mqtt/mqtt.c ****   r = *tail;
 992              		.loc 1 394 3 view .LVU250
 395:../../Middlewares/Third_Party/LwIP/src/apps/mqtt/mqtt.c ****   while (t > 0 && r != NULL) {
 993              		.loc 1 395 3 view .LVU251
 395:../../Middlewares/Third_Party/LwIP/src/apps/mqtt/mqtt.c ****   while (t > 0 && r != NULL) {
 994              		.loc 1 395 5 is_stmt 0 view .LVU252
 995 0008 3468     		ldr	r4, [r6]
 996              	.LVL99:
 396:../../Middlewares/Third_Party/LwIP/src/apps/mqtt/mqtt.c ****     if (t >= r->timeout_diff) {
 997              		.loc 1 396 3 is_stmt 1 view .LVU253
 396:../../Middlewares/Third_Party/LwIP/src/apps/mqtt/mqtt.c ****     if (t >= r->timeout_diff) {
 998              		.loc 1 396 9 is_stmt 0 view .LVU254
 999 000a 0BE0     		b	.L73
 1000              	.LVL100:
 1001              	.L80:
 394:../../Middlewares/Third_Party/LwIP/src/apps/mqtt/mqtt.c ****   r = *tail;
 1002              		.loc 1 394 3 is_stmt 1 discriminator 1 view .LVU255
 394:../../Middlewares/Third_Party/LwIP/src/apps/mqtt/mqtt.c ****   r = *tail;
 1003              		.loc 1 394 3 discriminator 1 view .LVU256
 1004 000c 124B     		ldr	r3, .L81
 1005 000e 4FF4C572 		mov	r2, #394
 1006 0012 1249     		ldr	r1, .L81+4
 1007              	.LVL101:
 394:../../Middlewares/Third_Party/LwIP/src/apps/mqtt/mqtt.c ****   r = *tail;
 1008              		.loc 1 394 3 is_stmt 0 discriminator 1 view .LVU257
ARM GAS  C:\Users\minis\AppData\Local\Temp\ccG6JyYg.s 			page 33


 1009 0014 1248     		ldr	r0, .L81+8
 1010              	.LVL102:
 394:../../Middlewares/Third_Party/LwIP/src/apps/mqtt/mqtt.c ****   r = *tail;
 1011              		.loc 1 394 3 discriminator 1 view .LVU258
 1012 0016 FFF7FEFF 		bl	printf
 1013              	.LVL103:
 1014 001a F5E7     		b	.L72
 1015              	.LVL104:
 1016              	.L75:
 405:../../Middlewares/Third_Party/LwIP/src/apps/mqtt/mqtt.c ****       /* Tail might be be modified in callback, so re-read it in every iteration */
 1017              		.loc 1 405 7 is_stmt 1 view .LVU259
 1018 001c 2046     		mov	r0, r4
 1019 001e FFF7FEFF 		bl	mqtt_delete_request
 1020              	.LVL105:
 407:../../Middlewares/Third_Party/LwIP/src/apps/mqtt/mqtt.c ****     } else {
 1021              		.loc 1 407 7 view .LVU260
 407:../../Middlewares/Third_Party/LwIP/src/apps/mqtt/mqtt.c ****     } else {
 1022              		.loc 1 407 9 is_stmt 0 view .LVU261
 1023 0022 3468     		ldr	r4, [r6]
 1024              	.LVL106:
 1025              	.L73:
 396:../../Middlewares/Third_Party/LwIP/src/apps/mqtt/mqtt.c ****     if (t >= r->timeout_diff) {
 1026              		.loc 1 396 16 is_stmt 1 view .LVU262
 396:../../Middlewares/Third_Party/LwIP/src/apps/mqtt/mqtt.c ****     if (t >= r->timeout_diff) {
 1027              		.loc 1 396 21 is_stmt 0 view .LVU263
 1028 0024 231E     		subs	r3, r4, #0
 1029 0026 18BF     		it	ne
 1030 0028 0123     		movne	r3, #1
 396:../../Middlewares/Third_Party/LwIP/src/apps/mqtt/mqtt.c ****     if (t >= r->timeout_diff) {
 1031              		.loc 1 396 16 view .LVU264
 1032 002a A5B1     		cbz	r5, .L71
 396:../../Middlewares/Third_Party/LwIP/src/apps/mqtt/mqtt.c ****     if (t >= r->timeout_diff) {
 1033              		.loc 1 396 16 view .LVU265
 1034 002c 9BB1     		cbz	r3, .L71
 397:../../Middlewares/Third_Party/LwIP/src/apps/mqtt/mqtt.c ****       t -= (u8_t)r->timeout_diff;
 1035              		.loc 1 397 5 is_stmt 1 view .LVU266
 397:../../Middlewares/Third_Party/LwIP/src/apps/mqtt/mqtt.c ****       t -= (u8_t)r->timeout_diff;
 1036              		.loc 1 397 15 is_stmt 0 view .LVU267
 1037 002e E389     		ldrh	r3, [r4, #14]
 397:../../Middlewares/Third_Party/LwIP/src/apps/mqtt/mqtt.c ****       t -= (u8_t)r->timeout_diff;
 1038              		.loc 1 397 8 view .LVU268
 1039 0030 9D42     		cmp	r5, r3
 1040 0032 0CD3     		bcc	.L74
 398:../../Middlewares/Third_Party/LwIP/src/apps/mqtt/mqtt.c ****       /* Unchain */
 1041              		.loc 1 398 7 is_stmt 1 view .LVU269
 398:../../Middlewares/Third_Party/LwIP/src/apps/mqtt/mqtt.c ****       /* Unchain */
 1042              		.loc 1 398 12 is_stmt 0 view .LVU270
 1043 0034 DBB2     		uxtb	r3, r3
 398:../../Middlewares/Third_Party/LwIP/src/apps/mqtt/mqtt.c ****       /* Unchain */
 1044              		.loc 1 398 9 view .LVU271
 1045 0036 EB1A     		subs	r3, r5, r3
 1046 0038 DDB2     		uxtb	r5, r3
 1047              	.LVL107:
 400:../../Middlewares/Third_Party/LwIP/src/apps/mqtt/mqtt.c ****       /* Notify upper layer about timeout */
 1048              		.loc 1 400 7 is_stmt 1 view .LVU272
 400:../../Middlewares/Third_Party/LwIP/src/apps/mqtt/mqtt.c ****       /* Notify upper layer about timeout */
 1049              		.loc 1 400 16 is_stmt 0 view .LVU273
ARM GAS  C:\Users\minis\AppData\Local\Temp\ccG6JyYg.s 			page 34


 1050 003a 2368     		ldr	r3, [r4]
 400:../../Middlewares/Third_Party/LwIP/src/apps/mqtt/mqtt.c ****       /* Notify upper layer about timeout */
 1051              		.loc 1 400 13 view .LVU274
 1052 003c 3360     		str	r3, [r6]
 402:../../Middlewares/Third_Party/LwIP/src/apps/mqtt/mqtt.c ****         r->cb(r->arg, ERR_TIMEOUT);
 1053              		.loc 1 402 7 is_stmt 1 view .LVU275
 402:../../Middlewares/Third_Party/LwIP/src/apps/mqtt/mqtt.c ****         r->cb(r->arg, ERR_TIMEOUT);
 1054              		.loc 1 402 12 is_stmt 0 view .LVU276
 1055 003e 6368     		ldr	r3, [r4, #4]
 402:../../Middlewares/Third_Party/LwIP/src/apps/mqtt/mqtt.c ****         r->cb(r->arg, ERR_TIMEOUT);
 1056              		.loc 1 402 10 view .LVU277
 1057 0040 002B     		cmp	r3, #0
 1058 0042 EBD0     		beq	.L75
 403:../../Middlewares/Third_Party/LwIP/src/apps/mqtt/mqtt.c ****       }
 1059              		.loc 1 403 9 is_stmt 1 view .LVU278
 1060 0044 6FF00201 		mvn	r1, #2
 1061 0048 A068     		ldr	r0, [r4, #8]
 1062 004a 9847     		blx	r3
 1063              	.LVL108:
 1064 004c E6E7     		b	.L75
 1065              	.L74:
 409:../../Middlewares/Third_Party/LwIP/src/apps/mqtt/mqtt.c ****       t = 0;
 1066              		.loc 1 409 7 view .LVU279
 409:../../Middlewares/Third_Party/LwIP/src/apps/mqtt/mqtt.c ****       t = 0;
 1067              		.loc 1 409 23 is_stmt 0 view .LVU280
 1068 004e 5B1B     		subs	r3, r3, r5
 1069 0050 E381     		strh	r3, [r4, #14]	@ movhi
 410:../../Middlewares/Third_Party/LwIP/src/apps/mqtt/mqtt.c ****     }
 1070              		.loc 1 410 7 is_stmt 1 view .LVU281
 1071              	.LVL109:
 410:../../Middlewares/Third_Party/LwIP/src/apps/mqtt/mqtt.c ****     }
 1072              		.loc 1 410 9 is_stmt 0 view .LVU282
 1073 0052 0025     		movs	r5, #0
 1074 0054 E6E7     		b	.L73
 1075              	.LVL110:
 1076              	.L71:
 413:../../Middlewares/Third_Party/LwIP/src/apps/mqtt/mqtt.c **** 
 1077              		.loc 1 413 1 view .LVU283
 1078 0056 70BD     		pop	{r4, r5, r6, pc}
 1079              	.LVL111:
 1080              	.L82:
 413:../../Middlewares/Third_Party/LwIP/src/apps/mqtt/mqtt.c **** 
 1081              		.loc 1 413 1 view .LVU284
 1082              		.align	2
 1083              	.L81:
 1084 0058 00000000 		.word	.LC0
 1085 005c 00000000 		.word	.LC7
 1086 0060 5C000000 		.word	.LC2
 1087              		.cfi_endproc
 1088              	.LFE184:
 1090              		.section	.rodata.mqtt_clear_requests.str1.4,"aMS",%progbits,1
 1091              		.align	2
 1092              	.LC8:
 1093 0000 6D717474 		.ascii	"mqtt_clear_requests: tail != NULL\000"
 1093      5F636C65 
 1093      61725F72 
 1093      65717565 
ARM GAS  C:\Users\minis\AppData\Local\Temp\ccG6JyYg.s 			page 35


 1093      7374733A 
 1094              		.section	.text.mqtt_clear_requests,"ax",%progbits
 1095              		.align	1
 1096              		.syntax unified
 1097              		.thumb
 1098              		.thumb_func
 1100              	mqtt_clear_requests:
 1101              	.LVL112:
 1102              	.LFB185:
 421:../../Middlewares/Third_Party/LwIP/src/apps/mqtt/mqtt.c ****   struct mqtt_request_t *iter, *next;
 1103              		.loc 1 421 1 is_stmt 1 view -0
 1104              		.cfi_startproc
 1105              		@ args = 0, pretend = 0, frame = 0
 1106              		@ frame_needed = 0, uses_anonymous_args = 0
 421:../../Middlewares/Third_Party/LwIP/src/apps/mqtt/mqtt.c ****   struct mqtt_request_t *iter, *next;
 1107              		.loc 1 421 1 is_stmt 0 view .LVU286
 1108 0000 38B5     		push	{r3, r4, r5, lr}
 1109              	.LCFI11:
 1110              		.cfi_def_cfa_offset 16
 1111              		.cfi_offset 3, -16
 1112              		.cfi_offset 4, -12
 1113              		.cfi_offset 5, -8
 1114              		.cfi_offset 14, -4
 422:../../Middlewares/Third_Party/LwIP/src/apps/mqtt/mqtt.c ****   LWIP_ASSERT("mqtt_clear_requests: tail != NULL", tail != NULL);
 1115              		.loc 1 422 3 is_stmt 1 view .LVU287
 423:../../Middlewares/Third_Party/LwIP/src/apps/mqtt/mqtt.c ****   for (iter = *tail; iter != NULL; iter = next) {
 1116              		.loc 1 423 3 view .LVU288
 423:../../Middlewares/Third_Party/LwIP/src/apps/mqtt/mqtt.c ****   for (iter = *tail; iter != NULL; iter = next) {
 1117              		.loc 1 423 3 view .LVU289
 1118 0002 0546     		mov	r5, r0
 1119 0004 08B1     		cbz	r0, .L88
 1120              	.LVL113:
 1121              	.L84:
 423:../../Middlewares/Third_Party/LwIP/src/apps/mqtt/mqtt.c ****   for (iter = *tail; iter != NULL; iter = next) {
 1122              		.loc 1 423 3 view .LVU290
 423:../../Middlewares/Third_Party/LwIP/src/apps/mqtt/mqtt.c ****   for (iter = *tail; iter != NULL; iter = next) {
 1123              		.loc 1 423 3 view .LVU291
 424:../../Middlewares/Third_Party/LwIP/src/apps/mqtt/mqtt.c ****     next = iter->next;
 1124              		.loc 1 424 3 view .LVU292
 424:../../Middlewares/Third_Party/LwIP/src/apps/mqtt/mqtt.c ****     next = iter->next;
 1125              		.loc 1 424 13 is_stmt 0 view .LVU293
 1126 0006 2868     		ldr	r0, [r5]
 1127              	.LVL114:
 424:../../Middlewares/Third_Party/LwIP/src/apps/mqtt/mqtt.c ****     next = iter->next;
 1128              		.loc 1 424 3 view .LVU294
 1129 0008 0BE0     		b	.L85
 1130              	.LVL115:
 1131              	.L88:
 423:../../Middlewares/Third_Party/LwIP/src/apps/mqtt/mqtt.c ****   for (iter = *tail; iter != NULL; iter = next) {
 1132              		.loc 1 423 3 is_stmt 1 discriminator 1 view .LVU295
 423:../../Middlewares/Third_Party/LwIP/src/apps/mqtt/mqtt.c ****   for (iter = *tail; iter != NULL; iter = next) {
 1133              		.loc 1 423 3 discriminator 1 view .LVU296
 1134 000a 084B     		ldr	r3, .L89
 1135 000c 40F2A712 		movw	r2, #423
 1136 0010 0749     		ldr	r1, .L89+4
 1137 0012 0848     		ldr	r0, .L89+8
 1138              	.LVL116:
ARM GAS  C:\Users\minis\AppData\Local\Temp\ccG6JyYg.s 			page 36


 423:../../Middlewares/Third_Party/LwIP/src/apps/mqtt/mqtt.c ****   for (iter = *tail; iter != NULL; iter = next) {
 1139              		.loc 1 423 3 is_stmt 0 discriminator 1 view .LVU297
 1140 0014 FFF7FEFF 		bl	printf
 1141              	.LVL117:
 1142 0018 F5E7     		b	.L84
 1143              	.LVL118:
 1144              	.L86:
 425:../../Middlewares/Third_Party/LwIP/src/apps/mqtt/mqtt.c ****     mqtt_delete_request(iter);
 1145              		.loc 1 425 5 is_stmt 1 view .LVU298
 425:../../Middlewares/Third_Party/LwIP/src/apps/mqtt/mqtt.c ****     mqtt_delete_request(iter);
 1146              		.loc 1 425 10 is_stmt 0 view .LVU299
 1147 001a 0468     		ldr	r4, [r0]
 1148              	.LVL119:
 426:../../Middlewares/Third_Party/LwIP/src/apps/mqtt/mqtt.c ****   }
 1149              		.loc 1 426 5 is_stmt 1 view .LVU300
 1150 001c FFF7FEFF 		bl	mqtt_delete_request
 1151              	.LVL120:
 424:../../Middlewares/Third_Party/LwIP/src/apps/mqtt/mqtt.c ****     next = iter->next;
 1152              		.loc 1 424 41 discriminator 3 view .LVU301
 424:../../Middlewares/Third_Party/LwIP/src/apps/mqtt/mqtt.c ****     next = iter->next;
 1153              		.loc 1 424 41 is_stmt 0 discriminator 3 view .LVU302
 1154 0020 2046     		mov	r0, r4
 1155              	.LVL121:
 1156              	.L85:
 424:../../Middlewares/Third_Party/LwIP/src/apps/mqtt/mqtt.c ****     next = iter->next;
 1157              		.loc 1 424 27 is_stmt 1 discriminator 1 view .LVU303
 1158 0022 0028     		cmp	r0, #0
 1159 0024 F9D1     		bne	.L86
 428:../../Middlewares/Third_Party/LwIP/src/apps/mqtt/mqtt.c **** }
 1160              		.loc 1 428 3 view .LVU304
 428:../../Middlewares/Third_Party/LwIP/src/apps/mqtt/mqtt.c **** }
 1161              		.loc 1 428 9 is_stmt 0 view .LVU305
 1162 0026 0023     		movs	r3, #0
 1163 0028 2B60     		str	r3, [r5]
 429:../../Middlewares/Third_Party/LwIP/src/apps/mqtt/mqtt.c **** /**
 1164              		.loc 1 429 1 view .LVU306
 1165 002a 38BD     		pop	{r3, r4, r5, pc}
 1166              	.LVL122:
 1167              	.L90:
 429:../../Middlewares/Third_Party/LwIP/src/apps/mqtt/mqtt.c **** /**
 1168              		.loc 1 429 1 view .LVU307
 1169              		.align	2
 1170              	.L89:
 1171 002c 00000000 		.word	.LC0
 1172 0030 00000000 		.word	.LC8
 1173 0034 5C000000 		.word	.LC2
 1174              		.cfi_endproc
 1175              	.LFE185:
 1177              		.section	.rodata.mqtt_take_request.str1.4,"aMS",%progbits,1
 1178              		.align	2
 1179              	.LC9:
 1180 0000 6D717474 		.ascii	"mqtt_take_request: tail != NULL\000"
 1180      5F74616B 
 1180      655F7265 
 1180      71756573 
 1180      743A2074 
 1181              		.section	.text.mqtt_take_request,"ax",%progbits
ARM GAS  C:\Users\minis\AppData\Local\Temp\ccG6JyYg.s 			page 37


 1182              		.align	1
 1183              		.syntax unified
 1184              		.thumb
 1185              		.thumb_func
 1187              	mqtt_take_request:
 1188              	.LVL123:
 1189              	.LFB183:
 357:../../Middlewares/Third_Party/LwIP/src/apps/mqtt/mqtt.c ****   struct mqtt_request_t *iter = NULL, *prev = NULL;
 1190              		.loc 1 357 1 is_stmt 1 view -0
 1191              		.cfi_startproc
 1192              		@ args = 0, pretend = 0, frame = 0
 1193              		@ frame_needed = 0, uses_anonymous_args = 0
 357:../../Middlewares/Third_Party/LwIP/src/apps/mqtt/mqtt.c ****   struct mqtt_request_t *iter = NULL, *prev = NULL;
 1194              		.loc 1 357 1 is_stmt 0 view .LVU309
 1195 0000 38B5     		push	{r3, r4, r5, lr}
 1196              	.LCFI12:
 1197              		.cfi_def_cfa_offset 16
 1198              		.cfi_offset 3, -16
 1199              		.cfi_offset 4, -12
 1200              		.cfi_offset 5, -8
 1201              		.cfi_offset 14, -4
 1202 0002 0C46     		mov	r4, r1
 358:../../Middlewares/Third_Party/LwIP/src/apps/mqtt/mqtt.c ****   LWIP_ASSERT("mqtt_take_request: tail != NULL", tail != NULL);
 1203              		.loc 1 358 3 is_stmt 1 view .LVU310
 1204              	.LVL124:
 359:../../Middlewares/Third_Party/LwIP/src/apps/mqtt/mqtt.c ****   /* Search all request for pkt_id */
 1205              		.loc 1 359 3 view .LVU311
 359:../../Middlewares/Third_Party/LwIP/src/apps/mqtt/mqtt.c ****   /* Search all request for pkt_id */
 1206              		.loc 1 359 3 view .LVU312
 1207 0004 0546     		mov	r5, r0
 1208 0006 10B1     		cbz	r0, .L101
 1209              	.LVL125:
 1210              	.L92:
 359:../../Middlewares/Third_Party/LwIP/src/apps/mqtt/mqtt.c ****   /* Search all request for pkt_id */
 1211              		.loc 1 359 3 view .LVU313
 359:../../Middlewares/Third_Party/LwIP/src/apps/mqtt/mqtt.c ****   /* Search all request for pkt_id */
 1212              		.loc 1 359 3 view .LVU314
 361:../../Middlewares/Third_Party/LwIP/src/apps/mqtt/mqtt.c ****     if (iter->pkt_id == pkt_id) {
 1213              		.loc 1 361 3 view .LVU315
 361:../../Middlewares/Third_Party/LwIP/src/apps/mqtt/mqtt.c ****     if (iter->pkt_id == pkt_id) {
 1214              		.loc 1 361 13 is_stmt 0 view .LVU316
 1215 0008 2868     		ldr	r0, [r5]
 1216              	.LVL126:
 358:../../Middlewares/Third_Party/LwIP/src/apps/mqtt/mqtt.c ****   LWIP_ASSERT("mqtt_take_request: tail != NULL", tail != NULL);
 1217              		.loc 1 358 40 view .LVU317
 1218 000a 0022     		movs	r2, #0
 361:../../Middlewares/Third_Party/LwIP/src/apps/mqtt/mqtt.c ****     if (iter->pkt_id == pkt_id) {
 1219              		.loc 1 361 3 view .LVU318
 1220 000c 09E0     		b	.L93
 1221              	.LVL127:
 1222              	.L101:
 359:../../Middlewares/Third_Party/LwIP/src/apps/mqtt/mqtt.c ****   /* Search all request for pkt_id */
 1223              		.loc 1 359 3 is_stmt 1 discriminator 1 view .LVU319
 359:../../Middlewares/Third_Party/LwIP/src/apps/mqtt/mqtt.c ****   /* Search all request for pkt_id */
 1224              		.loc 1 359 3 discriminator 1 view .LVU320
 1225 000e 0F4B     		ldr	r3, .L104
 1226 0010 40F26712 		movw	r2, #359
ARM GAS  C:\Users\minis\AppData\Local\Temp\ccG6JyYg.s 			page 38


 1227 0014 0E49     		ldr	r1, .L104+4
 1228              	.LVL128:
 359:../../Middlewares/Third_Party/LwIP/src/apps/mqtt/mqtt.c ****   /* Search all request for pkt_id */
 1229              		.loc 1 359 3 is_stmt 0 discriminator 1 view .LVU321
 1230 0016 0F48     		ldr	r0, .L104+8
 1231              	.LVL129:
 359:../../Middlewares/Third_Party/LwIP/src/apps/mqtt/mqtt.c ****   /* Search all request for pkt_id */
 1232              		.loc 1 359 3 discriminator 1 view .LVU322
 1233 0018 FFF7FEFF 		bl	printf
 1234              	.LVL130:
 1235 001c F4E7     		b	.L92
 1236              	.LVL131:
 1237              	.L102:
 365:../../Middlewares/Third_Party/LwIP/src/apps/mqtt/mqtt.c ****   }
 1238              		.loc 1 365 5 is_stmt 1 view .LVU323
 361:../../Middlewares/Third_Party/LwIP/src/apps/mqtt/mqtt.c ****     if (iter->pkt_id == pkt_id) {
 1239              		.loc 1 361 41 discriminator 2 view .LVU324
 365:../../Middlewares/Third_Party/LwIP/src/apps/mqtt/mqtt.c ****   }
 1240              		.loc 1 365 10 is_stmt 0 view .LVU325
 1241 001e 0246     		mov	r2, r0
 361:../../Middlewares/Third_Party/LwIP/src/apps/mqtt/mqtt.c ****     if (iter->pkt_id == pkt_id) {
 1242              		.loc 1 361 41 discriminator 2 view .LVU326
 1243 0020 0068     		ldr	r0, [r0]
 1244              	.LVL132:
 1245              	.L93:
 361:../../Middlewares/Third_Party/LwIP/src/apps/mqtt/mqtt.c ****     if (iter->pkt_id == pkt_id) {
 1246              		.loc 1 361 27 is_stmt 1 discriminator 1 view .LVU327
 1247 0022 10B1     		cbz	r0, .L94
 362:../../Middlewares/Third_Party/LwIP/src/apps/mqtt/mqtt.c ****       break;
 1248              		.loc 1 362 5 view .LVU328
 362:../../Middlewares/Third_Party/LwIP/src/apps/mqtt/mqtt.c ****       break;
 1249              		.loc 1 362 13 is_stmt 0 view .LVU329
 1250 0024 8389     		ldrh	r3, [r0, #12]
 362:../../Middlewares/Third_Party/LwIP/src/apps/mqtt/mqtt.c ****       break;
 1251              		.loc 1 362 8 view .LVU330
 1252 0026 A342     		cmp	r3, r4
 1253 0028 F9D1     		bne	.L102
 1254              	.L94:
 369:../../Middlewares/Third_Party/LwIP/src/apps/mqtt/mqtt.c ****     /* unchain */
 1255              		.loc 1 369 3 is_stmt 1 view .LVU331
 369:../../Middlewares/Third_Party/LwIP/src/apps/mqtt/mqtt.c ****     /* unchain */
 1256              		.loc 1 369 6 is_stmt 0 view .LVU332
 1257 002a 50B1     		cbz	r0, .L91
 371:../../Middlewares/Third_Party/LwIP/src/apps/mqtt/mqtt.c ****       *tail = iter->next;
 1258              		.loc 1 371 5 is_stmt 1 view .LVU333
 371:../../Middlewares/Third_Party/LwIP/src/apps/mqtt/mqtt.c ****       *tail = iter->next;
 1259              		.loc 1 371 8 is_stmt 0 view .LVU334
 1260 002c 52B1     		cbz	r2, .L103
 374:../../Middlewares/Third_Party/LwIP/src/apps/mqtt/mqtt.c ****     }
 1261              		.loc 1 374 7 is_stmt 1 view .LVU335
 374:../../Middlewares/Third_Party/LwIP/src/apps/mqtt/mqtt.c ****     }
 1262              		.loc 1 374 24 is_stmt 0 view .LVU336
 1263 002e 0368     		ldr	r3, [r0]
 374:../../Middlewares/Third_Party/LwIP/src/apps/mqtt/mqtt.c ****     }
 1264              		.loc 1 374 18 view .LVU337
 1265 0030 1360     		str	r3, [r2]
 1266              	.L98:
ARM GAS  C:\Users\minis\AppData\Local\Temp\ccG6JyYg.s 			page 39


 377:../../Middlewares/Third_Party/LwIP/src/apps/mqtt/mqtt.c ****       iter->next->timeout_diff += iter->timeout_diff;
 1267              		.loc 1 377 5 is_stmt 1 view .LVU338
 377:../../Middlewares/Third_Party/LwIP/src/apps/mqtt/mqtt.c ****       iter->next->timeout_diff += iter->timeout_diff;
 1268              		.loc 1 377 13 is_stmt 0 view .LVU339
 1269 0032 0368     		ldr	r3, [r0]
 377:../../Middlewares/Third_Party/LwIP/src/apps/mqtt/mqtt.c ****       iter->next->timeout_diff += iter->timeout_diff;
 1270              		.loc 1 377 8 view .LVU340
 1271 0034 1BB1     		cbz	r3, .L99
 378:../../Middlewares/Third_Party/LwIP/src/apps/mqtt/mqtt.c ****     }
 1272              		.loc 1 378 7 is_stmt 1 view .LVU341
 378:../../Middlewares/Third_Party/LwIP/src/apps/mqtt/mqtt.c ****     }
 1273              		.loc 1 378 17 is_stmt 0 view .LVU342
 1274 0036 DA89     		ldrh	r2, [r3, #14]
 1275              	.LVL133:
 378:../../Middlewares/Third_Party/LwIP/src/apps/mqtt/mqtt.c ****     }
 1276              		.loc 1 378 39 view .LVU343
 1277 0038 C189     		ldrh	r1, [r0, #14]
 378:../../Middlewares/Third_Party/LwIP/src/apps/mqtt/mqtt.c ****     }
 1278              		.loc 1 378 32 view .LVU344
 1279 003a 0A44     		add	r2, r2, r1
 1280 003c DA81     		strh	r2, [r3, #14]	@ movhi
 1281              	.L99:
 380:../../Middlewares/Third_Party/LwIP/src/apps/mqtt/mqtt.c ****   }
 1282              		.loc 1 380 5 is_stmt 1 view .LVU345
 380:../../Middlewares/Third_Party/LwIP/src/apps/mqtt/mqtt.c ****   }
 1283              		.loc 1 380 16 is_stmt 0 view .LVU346
 1284 003e 0023     		movs	r3, #0
 1285 0040 0360     		str	r3, [r0]
 382:../../Middlewares/Third_Party/LwIP/src/apps/mqtt/mqtt.c **** }
 1286              		.loc 1 382 3 is_stmt 1 view .LVU347
 1287              	.L91:
 383:../../Middlewares/Third_Party/LwIP/src/apps/mqtt/mqtt.c **** 
 1288              		.loc 1 383 1 is_stmt 0 view .LVU348
 1289 0042 38BD     		pop	{r3, r4, r5, pc}
 1290              	.LVL134:
 1291              	.L103:
 372:../../Middlewares/Third_Party/LwIP/src/apps/mqtt/mqtt.c ****     } else {
 1292              		.loc 1 372 7 is_stmt 1 view .LVU349
 372:../../Middlewares/Third_Party/LwIP/src/apps/mqtt/mqtt.c ****     } else {
 1293              		.loc 1 372 19 is_stmt 0 view .LVU350
 1294 0044 0368     		ldr	r3, [r0]
 372:../../Middlewares/Third_Party/LwIP/src/apps/mqtt/mqtt.c ****     } else {
 1295              		.loc 1 372 13 view .LVU351
 1296 0046 2B60     		str	r3, [r5]
 1297 0048 F3E7     		b	.L98
 1298              	.L105:
 1299 004a 00BF     		.align	2
 1300              	.L104:
 1301 004c 00000000 		.word	.LC0
 1302 0050 00000000 		.word	.LC9
 1303 0054 5C000000 		.word	.LC2
 1304              		.cfi_endproc
 1305              	.LFE183:
 1307              		.section	.rodata.mqtt_init_requests.str1.4,"aMS",%progbits,1
 1308              		.align	2
 1309              	.LC10:
 1310 0000 6D717474 		.ascii	"mqtt_init_requests: r_objs != NULL\000"
ARM GAS  C:\Users\minis\AppData\Local\Temp\ccG6JyYg.s 			page 40


 1310      5F696E69 
 1310      745F7265 
 1310      71756573 
 1310      74733A20 
 1311              		.section	.text.mqtt_init_requests,"ax",%progbits
 1312              		.align	1
 1313              		.syntax unified
 1314              		.thumb
 1315              		.thumb_func
 1317              	mqtt_init_requests:
 1318              	.LVL135:
 1319              	.LFB186:
 437:../../Middlewares/Third_Party/LwIP/src/apps/mqtt/mqtt.c ****   u8_t n;
 1320              		.loc 1 437 1 is_stmt 1 view -0
 1321              		.cfi_startproc
 1322              		@ args = 0, pretend = 0, frame = 0
 1323              		@ frame_needed = 0, uses_anonymous_args = 0
 437:../../Middlewares/Third_Party/LwIP/src/apps/mqtt/mqtt.c ****   u8_t n;
 1324              		.loc 1 437 1 is_stmt 0 view .LVU353
 1325 0000 38B5     		push	{r3, r4, r5, lr}
 1326              	.LCFI13:
 1327              		.cfi_def_cfa_offset 16
 1328              		.cfi_offset 3, -16
 1329              		.cfi_offset 4, -12
 1330              		.cfi_offset 5, -8
 1331              		.cfi_offset 14, -4
 1332 0002 0C46     		mov	r4, r1
 438:../../Middlewares/Third_Party/LwIP/src/apps/mqtt/mqtt.c ****   LWIP_ASSERT("mqtt_init_requests: r_objs != NULL", r_objs != NULL);
 1333              		.loc 1 438 3 is_stmt 1 view .LVU354
 439:../../Middlewares/Third_Party/LwIP/src/apps/mqtt/mqtt.c ****   for (n = 0; n < r_objs_len; n++) {
 1334              		.loc 1 439 3 view .LVU355
 439:../../Middlewares/Third_Party/LwIP/src/apps/mqtt/mqtt.c ****   for (n = 0; n < r_objs_len; n++) {
 1335              		.loc 1 439 3 view .LVU356
 1336 0004 0546     		mov	r5, r0
 1337 0006 08B1     		cbz	r0, .L111
 1338              	.LVL136:
 1339              	.L107:
 437:../../Middlewares/Third_Party/LwIP/src/apps/mqtt/mqtt.c ****   u8_t n;
 1340              		.loc 1 437 1 is_stmt 0 view .LVU357
 1341 0008 0023     		movs	r3, #0
 1342 000a 0CE0     		b	.L108
 1343              	.LVL137:
 1344              	.L111:
 439:../../Middlewares/Third_Party/LwIP/src/apps/mqtt/mqtt.c ****   for (n = 0; n < r_objs_len; n++) {
 1345              		.loc 1 439 3 is_stmt 1 discriminator 1 view .LVU358
 439:../../Middlewares/Third_Party/LwIP/src/apps/mqtt/mqtt.c ****   for (n = 0; n < r_objs_len; n++) {
 1346              		.loc 1 439 3 discriminator 1 view .LVU359
 1347 000c 074B     		ldr	r3, .L112
 1348 000e 40F2B712 		movw	r2, #439
 1349 0012 0749     		ldr	r1, .L112+4
 1350              	.LVL138:
 439:../../Middlewares/Third_Party/LwIP/src/apps/mqtt/mqtt.c ****   for (n = 0; n < r_objs_len; n++) {
 1351              		.loc 1 439 3 is_stmt 0 discriminator 1 view .LVU360
 1352 0014 0748     		ldr	r0, .L112+8
 1353              	.LVL139:
 439:../../Middlewares/Third_Party/LwIP/src/apps/mqtt/mqtt.c ****   for (n = 0; n < r_objs_len; n++) {
 1354              		.loc 1 439 3 discriminator 1 view .LVU361
ARM GAS  C:\Users\minis\AppData\Local\Temp\ccG6JyYg.s 			page 41


 1355 0016 FFF7FEFF 		bl	printf
 1356              	.LVL140:
 1357 001a F5E7     		b	.L107
 1358              	.LVL141:
 1359              	.L109:
 442:../../Middlewares/Third_Party/LwIP/src/apps/mqtt/mqtt.c ****   }
 1360              		.loc 1 442 5 is_stmt 1 view .LVU362
 442:../../Middlewares/Third_Party/LwIP/src/apps/mqtt/mqtt.c ****   }
 1361              		.loc 1 442 11 is_stmt 0 view .LVU363
 1362 001c 05EB0312 		add	r2, r5, r3, lsl #4
 442:../../Middlewares/Third_Party/LwIP/src/apps/mqtt/mqtt.c ****   }
 1363              		.loc 1 442 20 view .LVU364
 1364 0020 1260     		str	r2, [r2]
 440:../../Middlewares/Third_Party/LwIP/src/apps/mqtt/mqtt.c ****     /* Item pointing to itself indicates unused */
 1365              		.loc 1 440 32 is_stmt 1 discriminator 3 view .LVU365
 1366 0022 0133     		adds	r3, r3, #1
 1367              	.LVL142:
 440:../../Middlewares/Third_Party/LwIP/src/apps/mqtt/mqtt.c ****     /* Item pointing to itself indicates unused */
 1368              		.loc 1 440 32 is_stmt 0 discriminator 3 view .LVU366
 1369 0024 DBB2     		uxtb	r3, r3
 1370              	.LVL143:
 1371              	.L108:
 440:../../Middlewares/Third_Party/LwIP/src/apps/mqtt/mqtt.c ****     /* Item pointing to itself indicates unused */
 1372              		.loc 1 440 17 is_stmt 1 discriminator 1 view .LVU367
 1373 0026 A342     		cmp	r3, r4
 1374 0028 F8D3     		bcc	.L109
 444:../../Middlewares/Third_Party/LwIP/src/apps/mqtt/mqtt.c **** 
 1375              		.loc 1 444 1 is_stmt 0 view .LVU368
 1376 002a 38BD     		pop	{r3, r4, r5, pc}
 1377              	.LVL144:
 1378              	.L113:
 444:../../Middlewares/Third_Party/LwIP/src/apps/mqtt/mqtt.c **** 
 1379              		.loc 1 444 1 view .LVU369
 1380              		.align	2
 1381              	.L112:
 1382 002c 00000000 		.word	.LC0
 1383 0030 00000000 		.word	.LC10
 1384 0034 5C000000 		.word	.LC2
 1385              		.cfi_endproc
 1386              	.LFE186:
 1388              		.section	.text.mqtt_output_send,"ax",%progbits
 1389              		.align	1
 1390              		.syntax unified
 1391              		.thumb
 1392              		.thumb_func
 1394              	mqtt_output_send:
 1395              	.LVL145:
 1396              	.LFB179:
 235:../../Middlewares/Third_Party/LwIP/src/apps/mqtt/mqtt.c ****   err_t err;
 1397              		.loc 1 235 1 is_stmt 1 view -0
 1398              		.cfi_startproc
 1399              		@ args = 0, pretend = 0, frame = 0
 1400              		@ frame_needed = 0, uses_anonymous_args = 0
 235:../../Middlewares/Third_Party/LwIP/src/apps/mqtt/mqtt.c ****   err_t err;
 1401              		.loc 1 235 1 is_stmt 0 view .LVU371
 1402 0000 F8B5     		push	{r3, r4, r5, r6, r7, lr}
 1403              	.LCFI14:
ARM GAS  C:\Users\minis\AppData\Local\Temp\ccG6JyYg.s 			page 42


 1404              		.cfi_def_cfa_offset 24
 1405              		.cfi_offset 3, -24
 1406              		.cfi_offset 4, -20
 1407              		.cfi_offset 5, -16
 1408              		.cfi_offset 6, -12
 1409              		.cfi_offset 7, -8
 1410              		.cfi_offset 14, -4
 1411 0002 0546     		mov	r5, r0
 1412 0004 0E46     		mov	r6, r1
 236:../../Middlewares/Third_Party/LwIP/src/apps/mqtt/mqtt.c ****   u8_t wrap = 0;
 1413              		.loc 1 236 3 is_stmt 1 view .LVU372
 237:../../Middlewares/Third_Party/LwIP/src/apps/mqtt/mqtt.c ****   u16_t ringbuf_lin_len = mqtt_ringbuf_linear_read_length(rb);
 1414              		.loc 1 237 3 view .LVU373
 1415              	.LVL146:
 238:../../Middlewares/Third_Party/LwIP/src/apps/mqtt/mqtt.c ****   u16_t send_len = altcp_sndbuf(tpcb);
 1416              		.loc 1 238 3 view .LVU374
 238:../../Middlewares/Third_Party/LwIP/src/apps/mqtt/mqtt.c ****   u16_t send_len = altcp_sndbuf(tpcb);
 1417              		.loc 1 238 27 is_stmt 0 view .LVU375
 1418 0006 FFF7FEFF 		bl	mqtt_ringbuf_len
 1419              	.LVL147:
 238:../../Middlewares/Third_Party/LwIP/src/apps/mqtt/mqtt.c ****   u16_t send_len = altcp_sndbuf(tpcb);
 1420              		.loc 1 238 27 discriminator 1 view .LVU376
 1421 000a 6B88     		ldrh	r3, [r5, #2]
 1422 000c C3F58072 		rsb	r2, r3, #256
 238:../../Middlewares/Third_Party/LwIP/src/apps/mqtt/mqtt.c ****   u16_t send_len = altcp_sndbuf(tpcb);
 1423              		.loc 1 238 9 discriminator 1 view .LVU377
 1424 0010 9042     		cmp	r0, r2
 1425 0012 20DA     		bge	.L115
 1426              	.LVL148:
 239:../../Middlewares/Third_Party/LwIP/src/apps/mqtt/mqtt.c ****   LWIP_ASSERT("mqtt_output_send: tpcb != NULL", tpcb != NULL);
 1427              		.loc 1 239 3 is_stmt 1 view .LVU378
 239:../../Middlewares/Third_Party/LwIP/src/apps/mqtt/mqtt.c ****   LWIP_ASSERT("mqtt_output_send: tpcb != NULL", tpcb != NULL);
 1428              		.loc 1 239 9 is_stmt 0 view .LVU379
 1429 0014 B6F86470 		ldrh	r7, [r6, #100]
 1430              	.LVL149:
 240:../../Middlewares/Third_Party/LwIP/src/apps/mqtt/mqtt.c **** 
 1431              		.loc 1 240 3 is_stmt 1 view .LVU380
 240:../../Middlewares/Third_Party/LwIP/src/apps/mqtt/mqtt.c **** 
 1432              		.loc 1 240 3 view .LVU381
 238:../../Middlewares/Third_Party/LwIP/src/apps/mqtt/mqtt.c ****   u16_t send_len = altcp_sndbuf(tpcb);
 1433              		.loc 1 238 27 is_stmt 0 discriminator 1 view .LVU382
 1434 0018 0346     		mov	r3, r0
 1435              	.LVL150:
 1436              	.L116:
 240:../../Middlewares/Third_Party/LwIP/src/apps/mqtt/mqtt.c **** 
 1437              		.loc 1 240 3 is_stmt 1 view .LVU383
 240:../../Middlewares/Third_Party/LwIP/src/apps/mqtt/mqtt.c **** 
 1438              		.loc 1 240 3 view .LVU384
 242:../../Middlewares/Third_Party/LwIP/src/apps/mqtt/mqtt.c ****     return;
 1439              		.loc 1 242 3 view .LVU385
 242:../../Middlewares/Third_Party/LwIP/src/apps/mqtt/mqtt.c ****     return;
 1440              		.loc 1 242 6 is_stmt 0 view .LVU386
 1441 001a 002B     		cmp	r3, #0
 1442 001c 18BF     		it	ne
 1443 001e 002F     		cmpne	r7, #0
 1444 0020 18D0     		beq	.L114
 247:../../Middlewares/Third_Party/LwIP/src/apps/mqtt/mqtt.c **** 
ARM GAS  C:\Users\minis\AppData\Local\Temp\ccG6JyYg.s 			page 43


 1445              		.loc 1 247 79 is_stmt 1 view .LVU387
 249:../../Middlewares/Third_Party/LwIP/src/apps/mqtt/mqtt.c ****     /* Space in TCP output buffer is larger than available in ring buffer linear portion */
 1446              		.loc 1 249 3 view .LVU388
 249:../../Middlewares/Third_Party/LwIP/src/apps/mqtt/mqtt.c ****     /* Space in TCP output buffer is larger than available in ring buffer linear portion */
 1447              		.loc 1 249 6 is_stmt 0 view .LVU389
 1448 0022 BB42     		cmp	r3, r7
 1449 0024 1DD2     		bcs	.L123
 251:../../Middlewares/Third_Party/LwIP/src/apps/mqtt/mqtt.c ****     /* Wrap around if more data in ring buffer after linear portion */
 1450              		.loc 1 251 5 is_stmt 1 view .LVU390
 1451              	.LVL151:
 253:../../Middlewares/Third_Party/LwIP/src/apps/mqtt/mqtt.c ****   }
 1452              		.loc 1 253 5 view .LVU391
 253:../../Middlewares/Third_Party/LwIP/src/apps/mqtt/mqtt.c ****   }
 1453              		.loc 1 253 34 is_stmt 0 discriminator 1 view .LVU392
 1454 0026 9842     		cmp	r0, r3
 1455 0028 94BF     		ite	ls
 1456 002a 0024     		movls	r4, #0
 1457 002c 0124     		movhi	r4, #1
 1458              	.LVL152:
 251:../../Middlewares/Third_Party/LwIP/src/apps/mqtt/mqtt.c ****     /* Wrap around if more data in ring buffer after linear portion */
 1459              		.loc 1 251 14 view .LVU393
 1460 002e 1F46     		mov	r7, r3
 1461              	.LVL153:
 1462              	.L118:
 255:../../Middlewares/Third_Party/LwIP/src/apps/mqtt/mqtt.c ****   if ((err == ERR_OK) && wrap) {
 1463              		.loc 1 255 3 is_stmt 1 view .LVU394
 255:../../Middlewares/Third_Party/LwIP/src/apps/mqtt/mqtt.c ****   if ((err == ERR_OK) && wrap) {
 1464              		.loc 1 255 27 is_stmt 0 view .LVU395
 1465 0030 2846     		mov	r0, r5
 1466 0032 FFF7FEFF 		bl	mqtt_ringbuf_get_ptr
 1467              	.LVL154:
 1468 0036 0146     		mov	r1, r0
 255:../../Middlewares/Third_Party/LwIP/src/apps/mqtt/mqtt.c ****   if ((err == ERR_OK) && wrap) {
 1469              		.loc 1 255 9 discriminator 1 view .LVU396
 1470 0038 ACB1     		cbz	r4, .L124
 1471 003a 0323     		movs	r3, #3
 1472              	.L119:
 255:../../Middlewares/Third_Party/LwIP/src/apps/mqtt/mqtt.c ****   if ((err == ERR_OK) && wrap) {
 1473              		.loc 1 255 9 discriminator 4 view .LVU397
 1474 003c 3A46     		mov	r2, r7
 1475 003e 3046     		mov	r0, r6
 1476 0040 FFF7FEFF 		bl	tcp_write
 1477              	.LVL155:
 256:../../Middlewares/Third_Party/LwIP/src/apps/mqtt/mqtt.c ****     mqtt_ringbuf_advance_get_idx(rb, send_len);
 1478              		.loc 1 256 3 is_stmt 1 view .LVU398
 256:../../Middlewares/Third_Party/LwIP/src/apps/mqtt/mqtt.c ****     mqtt_ringbuf_advance_get_idx(rb, send_len);
 1479              		.loc 1 256 23 is_stmt 0 view .LVU399
 1480 0044 B0FA80F3 		clz	r3, r0
 1481 0048 5B09     		lsrs	r3, r3, #5
 1482 004a 002C     		cmp	r4, #0
 1483 004c 08BF     		it	eq
 1484 004e 0023     		moveq	r3, #0
 256:../../Middlewares/Third_Party/LwIP/src/apps/mqtt/mqtt.c ****     mqtt_ringbuf_advance_get_idx(rb, send_len);
 1485              		.loc 1 256 6 view .LVU400
 1486 0050 5BB9     		cbnz	r3, .L128
 1487              	.LVL156:
 1488              	.L120:
ARM GAS  C:\Users\minis\AppData\Local\Temp\ccG6JyYg.s 			page 44


 263:../../Middlewares/Third_Party/LwIP/src/apps/mqtt/mqtt.c ****     mqtt_ringbuf_advance_get_idx(rb, send_len);
 1489              		.loc 1 263 3 is_stmt 1 view .LVU401
 263:../../Middlewares/Third_Party/LwIP/src/apps/mqtt/mqtt.c ****     mqtt_ringbuf_advance_get_idx(rb, send_len);
 1490              		.loc 1 263 6 is_stmt 0 view .LVU402
 1491 0052 78B3     		cbz	r0, .L129
 1492              	.LVL157:
 1493              	.L114:
 270:../../Middlewares/Third_Party/LwIP/src/apps/mqtt/mqtt.c **** 
 1494              		.loc 1 270 1 view .LVU403
 1495 0054 F8BD     		pop	{r3, r4, r5, r6, r7, pc}
 1496              	.LVL158:
 1497              	.L115:
 238:../../Middlewares/Third_Party/LwIP/src/apps/mqtt/mqtt.c ****   u16_t send_len = altcp_sndbuf(tpcb);
 1498              		.loc 1 238 9 discriminator 2 view .LVU404
 1499 0056 C3F58073 		rsb	r3, r3, #256
 1500 005a 9BB2     		uxth	r3, r3
 1501              	.LVL159:
 239:../../Middlewares/Third_Party/LwIP/src/apps/mqtt/mqtt.c ****   LWIP_ASSERT("mqtt_output_send: tpcb != NULL", tpcb != NULL);
 1502              		.loc 1 239 3 is_stmt 1 view .LVU405
 239:../../Middlewares/Third_Party/LwIP/src/apps/mqtt/mqtt.c ****   LWIP_ASSERT("mqtt_output_send: tpcb != NULL", tpcb != NULL);
 1503              		.loc 1 239 9 is_stmt 0 view .LVU406
 1504 005c B6F86470 		ldrh	r7, [r6, #100]
 1505              	.LVL160:
 240:../../Middlewares/Third_Party/LwIP/src/apps/mqtt/mqtt.c **** 
 1506              		.loc 1 240 3 is_stmt 1 view .LVU407
 240:../../Middlewares/Third_Party/LwIP/src/apps/mqtt/mqtt.c **** 
 1507              		.loc 1 240 3 view .LVU408
 1508 0060 DBE7     		b	.L116
 1509              	.LVL161:
 1510              	.L123:
 237:../../Middlewares/Third_Party/LwIP/src/apps/mqtt/mqtt.c ****   u16_t ringbuf_lin_len = mqtt_ringbuf_linear_read_length(rb);
 1511              		.loc 1 237 8 is_stmt 0 view .LVU409
 1512 0062 0024     		movs	r4, #0
 1513 0064 E4E7     		b	.L118
 1514              	.LVL162:
 1515              	.L124:
 255:../../Middlewares/Third_Party/LwIP/src/apps/mqtt/mqtt.c ****   if ((err == ERR_OK) && wrap) {
 1516              		.loc 1 255 9 discriminator 2 view .LVU410
 1517 0066 0123     		movs	r3, #1
 1518 0068 E8E7     		b	.L119
 1519              	.LVL163:
 1520              	.L128:
 257:../../Middlewares/Third_Party/LwIP/src/apps/mqtt/mqtt.c ****     /* Use the lesser one of ring buffer linear length and TCP send buffer size */
 1521              		.loc 1 257 5 is_stmt 1 view .LVU411
 1522 006a 3946     		mov	r1, r7
 1523 006c 2846     		mov	r0, r5
 1524              	.LVL164:
 257:../../Middlewares/Third_Party/LwIP/src/apps/mqtt/mqtt.c ****     /* Use the lesser one of ring buffer linear length and TCP send buffer size */
 1525              		.loc 1 257 5 is_stmt 0 view .LVU412
 1526 006e FFF7FEFF 		bl	mqtt_ringbuf_advance_get_idx
 1527              	.LVL165:
 259:../../Middlewares/Third_Party/LwIP/src/apps/mqtt/mqtt.c ****     err = altcp_write(tpcb, mqtt_ringbuf_get_ptr(rb), send_len, TCP_WRITE_FLAG_COPY);
 1528              		.loc 1 259 5 is_stmt 1 view .LVU413
 259:../../Middlewares/Third_Party/LwIP/src/apps/mqtt/mqtt.c ****     err = altcp_write(tpcb, mqtt_ringbuf_get_ptr(rb), send_len, TCP_WRITE_FLAG_COPY);
 1529              		.loc 1 259 16 is_stmt 0 view .LVU414
 1530 0072 B6F86470 		ldrh	r7, [r6, #100]
 1531              	.LVL166:
ARM GAS  C:\Users\minis\AppData\Local\Temp\ccG6JyYg.s 			page 45


 259:../../Middlewares/Third_Party/LwIP/src/apps/mqtt/mqtt.c ****     err = altcp_write(tpcb, mqtt_ringbuf_get_ptr(rb), send_len, TCP_WRITE_FLAG_COPY);
 1532              		.loc 1 259 16 view .LVU415
 1533 0076 3C46     		mov	r4, r7
 1534              	.LVL167:
 259:../../Middlewares/Third_Party/LwIP/src/apps/mqtt/mqtt.c ****     err = altcp_write(tpcb, mqtt_ringbuf_get_ptr(rb), send_len, TCP_WRITE_FLAG_COPY);
 1535              		.loc 1 259 16 view .LVU416
 1536 0078 2846     		mov	r0, r5
 1537 007a FFF7FEFF 		bl	mqtt_ringbuf_len
 1538              	.LVL168:
 259:../../Middlewares/Third_Party/LwIP/src/apps/mqtt/mqtt.c ****     err = altcp_write(tpcb, mqtt_ringbuf_get_ptr(rb), send_len, TCP_WRITE_FLAG_COPY);
 1539              		.loc 1 259 16 discriminator 1 view .LVU417
 1540 007e 6A88     		ldrh	r2, [r5, #2]
 1541 0080 C2F58073 		rsb	r3, r2, #256
 1542 0084 9842     		cmp	r0, r3
 1543 0086 11DA     		bge	.L125
 1544 0088 0146     		mov	r1, r0
 1545              	.L121:
 259:../../Middlewares/Third_Party/LwIP/src/apps/mqtt/mqtt.c ****     err = altcp_write(tpcb, mqtt_ringbuf_get_ptr(rb), send_len, TCP_WRITE_FLAG_COPY);
 1546              		.loc 1 259 14 discriminator 4 view .LVU418
 1547 008a 8C42     		cmp	r4, r1
 1548 008c 04DB     		blt	.L122
 259:../../Middlewares/Third_Party/LwIP/src/apps/mqtt/mqtt.c ****     err = altcp_write(tpcb, mqtt_ringbuf_get_ptr(rb), send_len, TCP_WRITE_FLAG_COPY);
 1549              		.loc 1 259 14 discriminator 1 view .LVU419
 1550 008e 9842     		cmp	r0, r3
 1551 0090 0EDB     		blt	.L126
 259:../../Middlewares/Third_Party/LwIP/src/apps/mqtt/mqtt.c ****     err = altcp_write(tpcb, mqtt_ringbuf_get_ptr(rb), send_len, TCP_WRITE_FLAG_COPY);
 1552              		.loc 1 259 14 discriminator 9 view .LVU420
 1553 0092 C2F58072 		rsb	r2, r2, #256
 1554 0096 97B2     		uxth	r7, r2
 1555              	.L122:
 1556              	.LVL169:
 260:../../Middlewares/Third_Party/LwIP/src/apps/mqtt/mqtt.c ****   }
 1557              		.loc 1 260 5 is_stmt 1 view .LVU421
 260:../../Middlewares/Third_Party/LwIP/src/apps/mqtt/mqtt.c ****   }
 1558              		.loc 1 260 29 is_stmt 0 view .LVU422
 1559 0098 2846     		mov	r0, r5
 1560 009a FFF7FEFF 		bl	mqtt_ringbuf_get_ptr
 1561              	.LVL170:
 1562 009e 0146     		mov	r1, r0
 260:../../Middlewares/Third_Party/LwIP/src/apps/mqtt/mqtt.c ****   }
 1563              		.loc 1 260 11 discriminator 1 view .LVU423
 1564 00a0 0123     		movs	r3, #1
 1565 00a2 3A46     		mov	r2, r7
 1566 00a4 3046     		mov	r0, r6
 1567 00a6 FFF7FEFF 		bl	tcp_write
 1568              	.LVL171:
 1569 00aa D2E7     		b	.L120
 1570              	.LVL172:
 1571              	.L125:
 259:../../Middlewares/Third_Party/LwIP/src/apps/mqtt/mqtt.c ****     err = altcp_write(tpcb, mqtt_ringbuf_get_ptr(rb), send_len, TCP_WRITE_FLAG_COPY);
 1572              		.loc 1 259 16 discriminator 2 view .LVU424
 1573 00ac 1946     		mov	r1, r3
 1574 00ae ECE7     		b	.L121
 1575              	.L126:
 259:../../Middlewares/Third_Party/LwIP/src/apps/mqtt/mqtt.c ****     err = altcp_write(tpcb, mqtt_ringbuf_get_ptr(rb), send_len, TCP_WRITE_FLAG_COPY);
 1576              		.loc 1 259 16 discriminator 8 view .LVU425
 1577 00b0 0746     		mov	r7, r0
ARM GAS  C:\Users\minis\AppData\Local\Temp\ccG6JyYg.s 			page 46


 1578 00b2 F1E7     		b	.L122
 1579              	.LVL173:
 1580              	.L129:
 264:../../Middlewares/Third_Party/LwIP/src/apps/mqtt/mqtt.c ****     /* Flush */
 1581              		.loc 1 264 5 is_stmt 1 view .LVU426
 1582 00b4 3946     		mov	r1, r7
 1583 00b6 2846     		mov	r0, r5
 1584              	.LVL174:
 264:../../Middlewares/Third_Party/LwIP/src/apps/mqtt/mqtt.c ****     /* Flush */
 1585              		.loc 1 264 5 is_stmt 0 view .LVU427
 1586 00b8 FFF7FEFF 		bl	mqtt_ringbuf_advance_get_idx
 1587              	.LVL175:
 266:../../Middlewares/Third_Party/LwIP/src/apps/mqtt/mqtt.c ****   } else {
 1588              		.loc 1 266 5 is_stmt 1 view .LVU428
 1589 00bc 3046     		mov	r0, r6
 1590 00be FFF7FEFF 		bl	tcp_output
 1591              	.LVL176:
 268:../../Middlewares/Third_Party/LwIP/src/apps/mqtt/mqtt.c ****   }
 1592              		.loc 1 268 114 view .LVU429
 1593 00c2 C7E7     		b	.L114
 1594              		.cfi_endproc
 1595              	.LFE179:
 1597              		.section	.text.mqtt_tcp_poll_cb,"ax",%progbits
 1598              		.align	1
 1599              		.syntax unified
 1600              		.thumb
 1601              		.thumb_func
 1603              	mqtt_tcp_poll_cb:
 1604              	.LVL177:
 1605              	.LFB202:
 662:../../Middlewares/Third_Party/LwIP/src/apps/mqtt/mqtt.c **** 
 663:../../Middlewares/Third_Party/LwIP/src/apps/mqtt/mqtt.c **** 
 664:../../Middlewares/Third_Party/LwIP/src/apps/mqtt/mqtt.c **** /**
 665:../../Middlewares/Third_Party/LwIP/src/apps/mqtt/mqtt.c ****  * Complete MQTT message received or buffer full
 666:../../Middlewares/Third_Party/LwIP/src/apps/mqtt/mqtt.c ****  * @param client MQTT client
 667:../../Middlewares/Third_Party/LwIP/src/apps/mqtt/mqtt.c ****  * @param fixed_hdr_idx header index
 668:../../Middlewares/Third_Party/LwIP/src/apps/mqtt/mqtt.c ****  * @param length length received part
 669:../../Middlewares/Third_Party/LwIP/src/apps/mqtt/mqtt.c ****  * @param remaining_length Remaining length of complete message
 670:../../Middlewares/Third_Party/LwIP/src/apps/mqtt/mqtt.c ****  */
 671:../../Middlewares/Third_Party/LwIP/src/apps/mqtt/mqtt.c **** static mqtt_connection_status_t
 672:../../Middlewares/Third_Party/LwIP/src/apps/mqtt/mqtt.c **** mqtt_message_received(mqtt_client_t *client, u8_t fixed_hdr_idx, u16_t length, u32_t remaining_leng
 673:../../Middlewares/Third_Party/LwIP/src/apps/mqtt/mqtt.c **** {
 674:../../Middlewares/Third_Party/LwIP/src/apps/mqtt/mqtt.c ****   mqtt_connection_status_t res = MQTT_CONNECT_ACCEPTED;
 675:../../Middlewares/Third_Party/LwIP/src/apps/mqtt/mqtt.c **** 
 676:../../Middlewares/Third_Party/LwIP/src/apps/mqtt/mqtt.c ****   u8_t *var_hdr_payload = client->rx_buffer + fixed_hdr_idx;
 677:../../Middlewares/Third_Party/LwIP/src/apps/mqtt/mqtt.c ****   size_t var_hdr_payload_bufsize = sizeof(client->rx_buffer) - fixed_hdr_idx;
 678:../../Middlewares/Third_Party/LwIP/src/apps/mqtt/mqtt.c **** 
 679:../../Middlewares/Third_Party/LwIP/src/apps/mqtt/mqtt.c ****   /* Control packet type */
 680:../../Middlewares/Third_Party/LwIP/src/apps/mqtt/mqtt.c ****   u8_t pkt_type = MQTT_CTL_PACKET_TYPE(client->rx_buffer[0]);
 681:../../Middlewares/Third_Party/LwIP/src/apps/mqtt/mqtt.c ****   u16_t pkt_id = 0;
 682:../../Middlewares/Third_Party/LwIP/src/apps/mqtt/mqtt.c **** 
 683:../../Middlewares/Third_Party/LwIP/src/apps/mqtt/mqtt.c ****   LWIP_ASSERT("client->msg_idx < MQTT_VAR_HEADER_BUFFER_LEN", client->msg_idx < MQTT_VAR_HEADER_BUF
 684:../../Middlewares/Third_Party/LwIP/src/apps/mqtt/mqtt.c ****   LWIP_ASSERT("fixed_hdr_idx <= client->msg_idx", fixed_hdr_idx <= client->msg_idx);
 685:../../Middlewares/Third_Party/LwIP/src/apps/mqtt/mqtt.c ****   LWIP_ERROR("buffer length mismatch", fixed_hdr_idx + length <= MQTT_VAR_HEADER_BUFFER_LEN,
 686:../../Middlewares/Third_Party/LwIP/src/apps/mqtt/mqtt.c ****              return MQTT_CONNECT_DISCONNECTED);
 687:../../Middlewares/Third_Party/LwIP/src/apps/mqtt/mqtt.c **** 
 688:../../Middlewares/Third_Party/LwIP/src/apps/mqtt/mqtt.c ****   if (pkt_type == MQTT_MSG_TYPE_CONNACK) {
ARM GAS  C:\Users\minis\AppData\Local\Temp\ccG6JyYg.s 			page 47


 689:../../Middlewares/Third_Party/LwIP/src/apps/mqtt/mqtt.c ****     if (client->conn_state == MQTT_CONNECTING) {
 690:../../Middlewares/Third_Party/LwIP/src/apps/mqtt/mqtt.c ****       if (length < 2) {
 691:../../Middlewares/Third_Party/LwIP/src/apps/mqtt/mqtt.c ****         LWIP_DEBUGF(MQTT_DEBUG_WARN,( "mqtt_message_received: Received short CONNACK message\n"));
 692:../../Middlewares/Third_Party/LwIP/src/apps/mqtt/mqtt.c ****         goto out_disconnect;
 693:../../Middlewares/Third_Party/LwIP/src/apps/mqtt/mqtt.c ****       }
 694:../../Middlewares/Third_Party/LwIP/src/apps/mqtt/mqtt.c ****       /* Get result code from CONNACK */
 695:../../Middlewares/Third_Party/LwIP/src/apps/mqtt/mqtt.c ****       res = (mqtt_connection_status_t)var_hdr_payload[1];
 696:../../Middlewares/Third_Party/LwIP/src/apps/mqtt/mqtt.c ****       LWIP_DEBUGF(MQTT_DEBUG_TRACE, ("mqtt_message_received: Connect response code %d\n", res));
 697:../../Middlewares/Third_Party/LwIP/src/apps/mqtt/mqtt.c ****       if (res == MQTT_CONNECT_ACCEPTED) {
 698:../../Middlewares/Third_Party/LwIP/src/apps/mqtt/mqtt.c ****         /* Reset cyclic_tick when changing to connected state */
 699:../../Middlewares/Third_Party/LwIP/src/apps/mqtt/mqtt.c ****         client->cyclic_tick = 0;
 700:../../Middlewares/Third_Party/LwIP/src/apps/mqtt/mqtt.c ****         client->conn_state = MQTT_CONNECTED;
 701:../../Middlewares/Third_Party/LwIP/src/apps/mqtt/mqtt.c ****         /* Notify upper layer */
 702:../../Middlewares/Third_Party/LwIP/src/apps/mqtt/mqtt.c ****         if (client->connect_cb != 0) {
 703:../../Middlewares/Third_Party/LwIP/src/apps/mqtt/mqtt.c ****           client->connect_cb(client, client->connect_arg, res);
 704:../../Middlewares/Third_Party/LwIP/src/apps/mqtt/mqtt.c ****         }
 705:../../Middlewares/Third_Party/LwIP/src/apps/mqtt/mqtt.c ****       }
 706:../../Middlewares/Third_Party/LwIP/src/apps/mqtt/mqtt.c ****     } else {
 707:../../Middlewares/Third_Party/LwIP/src/apps/mqtt/mqtt.c ****       LWIP_DEBUGF(MQTT_DEBUG_WARN, ("mqtt_message_received: Received CONNACK in connected state\n")
 708:../../Middlewares/Third_Party/LwIP/src/apps/mqtt/mqtt.c ****     }
 709:../../Middlewares/Third_Party/LwIP/src/apps/mqtt/mqtt.c ****   } else if (pkt_type == MQTT_MSG_TYPE_PINGRESP) {
 710:../../Middlewares/Third_Party/LwIP/src/apps/mqtt/mqtt.c ****     LWIP_DEBUGF(MQTT_DEBUG_TRACE, ( "mqtt_message_received: Received PINGRESP from server\n"));
 711:../../Middlewares/Third_Party/LwIP/src/apps/mqtt/mqtt.c **** 
 712:../../Middlewares/Third_Party/LwIP/src/apps/mqtt/mqtt.c ****   } else if (pkt_type == MQTT_MSG_TYPE_PUBLISH) {
 713:../../Middlewares/Third_Party/LwIP/src/apps/mqtt/mqtt.c ****     u16_t payload_offset = 0;
 714:../../Middlewares/Third_Party/LwIP/src/apps/mqtt/mqtt.c ****     u16_t payload_length = length;
 715:../../Middlewares/Third_Party/LwIP/src/apps/mqtt/mqtt.c ****     u8_t qos = MQTT_CTL_PACKET_QOS(client->rx_buffer[0]);
 716:../../Middlewares/Third_Party/LwIP/src/apps/mqtt/mqtt.c **** 
 717:../../Middlewares/Third_Party/LwIP/src/apps/mqtt/mqtt.c ****     if (client->msg_idx <= MQTT_VAR_HEADER_BUFFER_LEN) {
 718:../../Middlewares/Third_Party/LwIP/src/apps/mqtt/mqtt.c ****       /* Should have topic and pkt id*/
 719:../../Middlewares/Third_Party/LwIP/src/apps/mqtt/mqtt.c ****       u8_t *topic;
 720:../../Middlewares/Third_Party/LwIP/src/apps/mqtt/mqtt.c ****       u16_t after_topic;
 721:../../Middlewares/Third_Party/LwIP/src/apps/mqtt/mqtt.c ****       u8_t bkp;
 722:../../Middlewares/Third_Party/LwIP/src/apps/mqtt/mqtt.c ****       u16_t topic_len;
 723:../../Middlewares/Third_Party/LwIP/src/apps/mqtt/mqtt.c ****       u16_t qos_len = (qos ? 2U : 0U);
 724:../../Middlewares/Third_Party/LwIP/src/apps/mqtt/mqtt.c ****       if (length < 2 + qos_len) {
 725:../../Middlewares/Third_Party/LwIP/src/apps/mqtt/mqtt.c ****         LWIP_DEBUGF(MQTT_DEBUG_WARN,( "mqtt_message_received: Received short PUBLISH packet\n"));
 726:../../Middlewares/Third_Party/LwIP/src/apps/mqtt/mqtt.c ****         goto out_disconnect;
 727:../../Middlewares/Third_Party/LwIP/src/apps/mqtt/mqtt.c ****       }
 728:../../Middlewares/Third_Party/LwIP/src/apps/mqtt/mqtt.c ****       topic_len = var_hdr_payload[0];
 729:../../Middlewares/Third_Party/LwIP/src/apps/mqtt/mqtt.c ****       topic_len = (topic_len << 8) + (u16_t)(var_hdr_payload[1]);
 730:../../Middlewares/Third_Party/LwIP/src/apps/mqtt/mqtt.c ****       if ((topic_len > length - (2 + qos_len)) ||
 731:../../Middlewares/Third_Party/LwIP/src/apps/mqtt/mqtt.c ****           (topic_len > var_hdr_payload_bufsize - (2 + qos_len))) {
 732:../../Middlewares/Third_Party/LwIP/src/apps/mqtt/mqtt.c ****         LWIP_DEBUGF(MQTT_DEBUG_WARN,( "mqtt_message_received: Received short PUBLISH packet (topic)
 733:../../Middlewares/Third_Party/LwIP/src/apps/mqtt/mqtt.c ****         goto out_disconnect;
 734:../../Middlewares/Third_Party/LwIP/src/apps/mqtt/mqtt.c ****       }
 735:../../Middlewares/Third_Party/LwIP/src/apps/mqtt/mqtt.c **** 
 736:../../Middlewares/Third_Party/LwIP/src/apps/mqtt/mqtt.c ****       topic = var_hdr_payload + 2;
 737:../../Middlewares/Third_Party/LwIP/src/apps/mqtt/mqtt.c ****       after_topic = 2 + topic_len;
 738:../../Middlewares/Third_Party/LwIP/src/apps/mqtt/mqtt.c ****       /* Check buffer length, add one byte even for QoS 0 so that zero termination will fit */
 739:../../Middlewares/Third_Party/LwIP/src/apps/mqtt/mqtt.c ****       if ((after_topic + (qos ? 2U : 1U)) > var_hdr_payload_bufsize) {
 740:../../Middlewares/Third_Party/LwIP/src/apps/mqtt/mqtt.c ****         LWIP_DEBUGF(MQTT_DEBUG_WARN, ("mqtt_message_received: Receive buffer can not fit topic + pk
 741:../../Middlewares/Third_Party/LwIP/src/apps/mqtt/mqtt.c ****         goto out_disconnect;
 742:../../Middlewares/Third_Party/LwIP/src/apps/mqtt/mqtt.c ****       }
 743:../../Middlewares/Third_Party/LwIP/src/apps/mqtt/mqtt.c **** 
 744:../../Middlewares/Third_Party/LwIP/src/apps/mqtt/mqtt.c ****       /* id for QoS 1 and 2 */
 745:../../Middlewares/Third_Party/LwIP/src/apps/mqtt/mqtt.c ****       if (qos > 0) {
ARM GAS  C:\Users\minis\AppData\Local\Temp\ccG6JyYg.s 			page 48


 746:../../Middlewares/Third_Party/LwIP/src/apps/mqtt/mqtt.c ****         if (length < after_topic + 2U) {
 747:../../Middlewares/Third_Party/LwIP/src/apps/mqtt/mqtt.c ****           LWIP_DEBUGF(MQTT_DEBUG_WARN,( "mqtt_message_received: Received short PUBLISH packet (afte
 748:../../Middlewares/Third_Party/LwIP/src/apps/mqtt/mqtt.c ****           goto out_disconnect;
 749:../../Middlewares/Third_Party/LwIP/src/apps/mqtt/mqtt.c ****         }
 750:../../Middlewares/Third_Party/LwIP/src/apps/mqtt/mqtt.c ****         client->inpub_pkt_id = ((u16_t)var_hdr_payload[after_topic] << 8) + (u16_t)var_hdr_payload[
 751:../../Middlewares/Third_Party/LwIP/src/apps/mqtt/mqtt.c ****         after_topic += 2;
 752:../../Middlewares/Third_Party/LwIP/src/apps/mqtt/mqtt.c ****       } else {
 753:../../Middlewares/Third_Party/LwIP/src/apps/mqtt/mqtt.c ****         client->inpub_pkt_id = 0;
 754:../../Middlewares/Third_Party/LwIP/src/apps/mqtt/mqtt.c ****       }
 755:../../Middlewares/Third_Party/LwIP/src/apps/mqtt/mqtt.c ****       /* Take backup of byte after topic */
 756:../../Middlewares/Third_Party/LwIP/src/apps/mqtt/mqtt.c ****       bkp = topic[topic_len];
 757:../../Middlewares/Third_Party/LwIP/src/apps/mqtt/mqtt.c ****       /* Zero terminate string */
 758:../../Middlewares/Third_Party/LwIP/src/apps/mqtt/mqtt.c ****       topic[topic_len] = 0;
 759:../../Middlewares/Third_Party/LwIP/src/apps/mqtt/mqtt.c ****       /* Payload data remaining in receive buffer */
 760:../../Middlewares/Third_Party/LwIP/src/apps/mqtt/mqtt.c ****       payload_length = length - after_topic;
 761:../../Middlewares/Third_Party/LwIP/src/apps/mqtt/mqtt.c ****       payload_offset = after_topic;
 762:../../Middlewares/Third_Party/LwIP/src/apps/mqtt/mqtt.c **** 
 763:../../Middlewares/Third_Party/LwIP/src/apps/mqtt/mqtt.c ****       LWIP_DEBUGF(MQTT_DEBUG_TRACE, ("mqtt_incomming_publish: Received message with QoS %d at topic
 764:../../Middlewares/Third_Party/LwIP/src/apps/mqtt/mqtt.c ****                                      qos, topic, remaining_length + payload_length));
 765:../../Middlewares/Third_Party/LwIP/src/apps/mqtt/mqtt.c ****       if (client->pub_cb != NULL) {
 766:../../Middlewares/Third_Party/LwIP/src/apps/mqtt/mqtt.c ****         client->pub_cb(client->inpub_arg, (const char *)topic, remaining_length + payload_length);
 767:../../Middlewares/Third_Party/LwIP/src/apps/mqtt/mqtt.c ****       }
 768:../../Middlewares/Third_Party/LwIP/src/apps/mqtt/mqtt.c ****       /* Restore byte after topic */
 769:../../Middlewares/Third_Party/LwIP/src/apps/mqtt/mqtt.c ****       topic[topic_len] = bkp;
 770:../../Middlewares/Third_Party/LwIP/src/apps/mqtt/mqtt.c ****     }
 771:../../Middlewares/Third_Party/LwIP/src/apps/mqtt/mqtt.c ****     if (payload_length > 0 || remaining_length == 0) {
 772:../../Middlewares/Third_Party/LwIP/src/apps/mqtt/mqtt.c ****       if (length < (size_t)(payload_offset + payload_length)) {
 773:../../Middlewares/Third_Party/LwIP/src/apps/mqtt/mqtt.c ****         LWIP_DEBUGF(MQTT_DEBUG_WARN,( "mqtt_message_received: Received short packet (payload)\n"));
 774:../../Middlewares/Third_Party/LwIP/src/apps/mqtt/mqtt.c ****         goto out_disconnect;
 775:../../Middlewares/Third_Party/LwIP/src/apps/mqtt/mqtt.c ****       }
 776:../../Middlewares/Third_Party/LwIP/src/apps/mqtt/mqtt.c ****       client->data_cb(client->inpub_arg, var_hdr_payload + payload_offset, payload_length, remainin
 777:../../Middlewares/Third_Party/LwIP/src/apps/mqtt/mqtt.c ****       /* Reply if QoS > 0 */
 778:../../Middlewares/Third_Party/LwIP/src/apps/mqtt/mqtt.c ****       if (remaining_length == 0 && qos > 0) {
 779:../../Middlewares/Third_Party/LwIP/src/apps/mqtt/mqtt.c ****         /* Send PUBACK for QoS 1 or PUBREC for QoS 2 */
 780:../../Middlewares/Third_Party/LwIP/src/apps/mqtt/mqtt.c ****         u8_t resp_msg = (qos == 1) ? MQTT_MSG_TYPE_PUBACK : MQTT_MSG_TYPE_PUBREC;
 781:../../Middlewares/Third_Party/LwIP/src/apps/mqtt/mqtt.c ****         LWIP_DEBUGF(MQTT_DEBUG_TRACE, ("mqtt_incomming_publish: Sending publish response: %s with p
 782:../../Middlewares/Third_Party/LwIP/src/apps/mqtt/mqtt.c ****                                        mqtt_msg_type_to_str(resp_msg), client->inpub_pkt_id));
 783:../../Middlewares/Third_Party/LwIP/src/apps/mqtt/mqtt.c ****         pub_ack_rec_rel_response(client, resp_msg, client->inpub_pkt_id, 0);
 784:../../Middlewares/Third_Party/LwIP/src/apps/mqtt/mqtt.c ****       }
 785:../../Middlewares/Third_Party/LwIP/src/apps/mqtt/mqtt.c ****     }
 786:../../Middlewares/Third_Party/LwIP/src/apps/mqtt/mqtt.c ****   } else {
 787:../../Middlewares/Third_Party/LwIP/src/apps/mqtt/mqtt.c ****     /* Get packet identifier */
 788:../../Middlewares/Third_Party/LwIP/src/apps/mqtt/mqtt.c ****     pkt_id = (u16_t)var_hdr_payload[0] << 8;
 789:../../Middlewares/Third_Party/LwIP/src/apps/mqtt/mqtt.c ****     pkt_id |= (u16_t)var_hdr_payload[1];
 790:../../Middlewares/Third_Party/LwIP/src/apps/mqtt/mqtt.c ****     if (pkt_id == 0) {
 791:../../Middlewares/Third_Party/LwIP/src/apps/mqtt/mqtt.c ****       LWIP_DEBUGF(MQTT_DEBUG_WARN, ("mqtt_message_received: Got message with illegal packet identif
 792:../../Middlewares/Third_Party/LwIP/src/apps/mqtt/mqtt.c ****       goto out_disconnect;
 793:../../Middlewares/Third_Party/LwIP/src/apps/mqtt/mqtt.c ****     }
 794:../../Middlewares/Third_Party/LwIP/src/apps/mqtt/mqtt.c ****     if (pkt_type == MQTT_MSG_TYPE_PUBREC) {
 795:../../Middlewares/Third_Party/LwIP/src/apps/mqtt/mqtt.c ****       LWIP_DEBUGF(MQTT_DEBUG_TRACE, ("mqtt_message_received: PUBREC, sending PUBREL with pkt_id: %d
 796:../../Middlewares/Third_Party/LwIP/src/apps/mqtt/mqtt.c ****       pub_ack_rec_rel_response(client, MQTT_MSG_TYPE_PUBREL, pkt_id, 1);
 797:../../Middlewares/Third_Party/LwIP/src/apps/mqtt/mqtt.c **** 
 798:../../Middlewares/Third_Party/LwIP/src/apps/mqtt/mqtt.c ****     } else if (pkt_type == MQTT_MSG_TYPE_PUBREL) {
 799:../../Middlewares/Third_Party/LwIP/src/apps/mqtt/mqtt.c ****       LWIP_DEBUGF(MQTT_DEBUG_TRACE, ("mqtt_message_received: PUBREL, sending PUBCOMP response with 
 800:../../Middlewares/Third_Party/LwIP/src/apps/mqtt/mqtt.c ****       pub_ack_rec_rel_response(client, MQTT_MSG_TYPE_PUBCOMP, pkt_id, 0);
 801:../../Middlewares/Third_Party/LwIP/src/apps/mqtt/mqtt.c **** 
 802:../../Middlewares/Third_Party/LwIP/src/apps/mqtt/mqtt.c ****     } else if (pkt_type == MQTT_MSG_TYPE_SUBACK || pkt_type == MQTT_MSG_TYPE_UNSUBACK ||
ARM GAS  C:\Users\minis\AppData\Local\Temp\ccG6JyYg.s 			page 49


 803:../../Middlewares/Third_Party/LwIP/src/apps/mqtt/mqtt.c ****                pkt_type == MQTT_MSG_TYPE_PUBCOMP || pkt_type == MQTT_MSG_TYPE_PUBACK) {
 804:../../Middlewares/Third_Party/LwIP/src/apps/mqtt/mqtt.c ****       struct mqtt_request_t *r = mqtt_take_request(&client->pend_req_queue, pkt_id);
 805:../../Middlewares/Third_Party/LwIP/src/apps/mqtt/mqtt.c ****       if (r != NULL) {
 806:../../Middlewares/Third_Party/LwIP/src/apps/mqtt/mqtt.c ****         LWIP_DEBUGF(MQTT_DEBUG_TRACE, ("mqtt_message_received: %s response with id %d\n", mqtt_msg_
 807:../../Middlewares/Third_Party/LwIP/src/apps/mqtt/mqtt.c ****         if (pkt_type == MQTT_MSG_TYPE_SUBACK) {
 808:../../Middlewares/Third_Party/LwIP/src/apps/mqtt/mqtt.c ****           if (length < 3) {
 809:../../Middlewares/Third_Party/LwIP/src/apps/mqtt/mqtt.c ****             LWIP_DEBUGF(MQTT_DEBUG_WARN, ("mqtt_message_received: To small SUBACK packet\n"));
 810:../../Middlewares/Third_Party/LwIP/src/apps/mqtt/mqtt.c ****             goto out_disconnect;
 811:../../Middlewares/Third_Party/LwIP/src/apps/mqtt/mqtt.c ****           } else {
 812:../../Middlewares/Third_Party/LwIP/src/apps/mqtt/mqtt.c ****             mqtt_incomming_suback(r, var_hdr_payload[2]);
 813:../../Middlewares/Third_Party/LwIP/src/apps/mqtt/mqtt.c ****           }
 814:../../Middlewares/Third_Party/LwIP/src/apps/mqtt/mqtt.c ****         } else if (r->cb != NULL) {
 815:../../Middlewares/Third_Party/LwIP/src/apps/mqtt/mqtt.c ****           r->cb(r->arg, ERR_OK);
 816:../../Middlewares/Third_Party/LwIP/src/apps/mqtt/mqtt.c ****         }
 817:../../Middlewares/Third_Party/LwIP/src/apps/mqtt/mqtt.c ****         mqtt_delete_request(r);
 818:../../Middlewares/Third_Party/LwIP/src/apps/mqtt/mqtt.c ****       } else {
 819:../../Middlewares/Third_Party/LwIP/src/apps/mqtt/mqtt.c ****         LWIP_DEBUGF(MQTT_DEBUG_WARN, ( "mqtt_message_received: Received %s reply, with wrong pkt_id
 820:../../Middlewares/Third_Party/LwIP/src/apps/mqtt/mqtt.c ****       }
 821:../../Middlewares/Third_Party/LwIP/src/apps/mqtt/mqtt.c ****     } else {
 822:../../Middlewares/Third_Party/LwIP/src/apps/mqtt/mqtt.c ****       LWIP_DEBUGF(MQTT_DEBUG_WARN, ( "mqtt_message_received: Received unknown message type: %d\n", 
 823:../../Middlewares/Third_Party/LwIP/src/apps/mqtt/mqtt.c ****       goto out_disconnect;
 824:../../Middlewares/Third_Party/LwIP/src/apps/mqtt/mqtt.c ****     }
 825:../../Middlewares/Third_Party/LwIP/src/apps/mqtt/mqtt.c ****   }
 826:../../Middlewares/Third_Party/LwIP/src/apps/mqtt/mqtt.c ****   return res;
 827:../../Middlewares/Third_Party/LwIP/src/apps/mqtt/mqtt.c **** out_disconnect:
 828:../../Middlewares/Third_Party/LwIP/src/apps/mqtt/mqtt.c ****   return MQTT_CONNECT_DISCONNECTED;
 829:../../Middlewares/Third_Party/LwIP/src/apps/mqtt/mqtt.c **** }
 830:../../Middlewares/Third_Party/LwIP/src/apps/mqtt/mqtt.c **** 
 831:../../Middlewares/Third_Party/LwIP/src/apps/mqtt/mqtt.c **** 
 832:../../Middlewares/Third_Party/LwIP/src/apps/mqtt/mqtt.c **** /**
 833:../../Middlewares/Third_Party/LwIP/src/apps/mqtt/mqtt.c ****  * MQTT incoming message parser
 834:../../Middlewares/Third_Party/LwIP/src/apps/mqtt/mqtt.c ****  * @param client MQTT client
 835:../../Middlewares/Third_Party/LwIP/src/apps/mqtt/mqtt.c ****  * @param p PBUF chain of received data
 836:../../Middlewares/Third_Party/LwIP/src/apps/mqtt/mqtt.c ****  * @return Connection status
 837:../../Middlewares/Third_Party/LwIP/src/apps/mqtt/mqtt.c ****  */
 838:../../Middlewares/Third_Party/LwIP/src/apps/mqtt/mqtt.c **** static mqtt_connection_status_t
 839:../../Middlewares/Third_Party/LwIP/src/apps/mqtt/mqtt.c **** mqtt_parse_incoming(mqtt_client_t *client, struct pbuf *p)
 840:../../Middlewares/Third_Party/LwIP/src/apps/mqtt/mqtt.c **** {
 841:../../Middlewares/Third_Party/LwIP/src/apps/mqtt/mqtt.c ****   u16_t in_offset = 0;
 842:../../Middlewares/Third_Party/LwIP/src/apps/mqtt/mqtt.c ****   u32_t msg_rem_len = 0;
 843:../../Middlewares/Third_Party/LwIP/src/apps/mqtt/mqtt.c ****   u8_t fixed_hdr_idx = 0;
 844:../../Middlewares/Third_Party/LwIP/src/apps/mqtt/mqtt.c ****   u8_t b = 0;
 845:../../Middlewares/Third_Party/LwIP/src/apps/mqtt/mqtt.c **** 
 846:../../Middlewares/Third_Party/LwIP/src/apps/mqtt/mqtt.c ****   while (p->tot_len > in_offset) {
 847:../../Middlewares/Third_Party/LwIP/src/apps/mqtt/mqtt.c ****     /* We ALWAYS parse the header here first. Even if the header was not
 848:../../Middlewares/Third_Party/LwIP/src/apps/mqtt/mqtt.c ****        included in this segment, we re-parse it here by buffering it in
 849:../../Middlewares/Third_Party/LwIP/src/apps/mqtt/mqtt.c ****        client->rx_buffer. client->msg_idx keeps track of this. */
 850:../../Middlewares/Third_Party/LwIP/src/apps/mqtt/mqtt.c ****     if ((fixed_hdr_idx < 2) || ((b & 0x80) != 0)) {
 851:../../Middlewares/Third_Party/LwIP/src/apps/mqtt/mqtt.c **** 
 852:../../Middlewares/Third_Party/LwIP/src/apps/mqtt/mqtt.c ****       if (fixed_hdr_idx < client->msg_idx) {
 853:../../Middlewares/Third_Party/LwIP/src/apps/mqtt/mqtt.c ****         /* parse header from old pbuf (buffered in client->rx_buffer) */
 854:../../Middlewares/Third_Party/LwIP/src/apps/mqtt/mqtt.c ****         b = client->rx_buffer[fixed_hdr_idx];
 855:../../Middlewares/Third_Party/LwIP/src/apps/mqtt/mqtt.c ****       } else {
 856:../../Middlewares/Third_Party/LwIP/src/apps/mqtt/mqtt.c ****         /* parse header from this pbuf and save it in client->rx_buffer in case
 857:../../Middlewares/Third_Party/LwIP/src/apps/mqtt/mqtt.c ****            it comes in segmented */
 858:../../Middlewares/Third_Party/LwIP/src/apps/mqtt/mqtt.c ****         b = pbuf_get_at(p, in_offset++);
 859:../../Middlewares/Third_Party/LwIP/src/apps/mqtt/mqtt.c ****         client->rx_buffer[client->msg_idx++] = b;
ARM GAS  C:\Users\minis\AppData\Local\Temp\ccG6JyYg.s 			page 50


 860:../../Middlewares/Third_Party/LwIP/src/apps/mqtt/mqtt.c ****       }
 861:../../Middlewares/Third_Party/LwIP/src/apps/mqtt/mqtt.c ****       fixed_hdr_idx++;
 862:../../Middlewares/Third_Party/LwIP/src/apps/mqtt/mqtt.c **** 
 863:../../Middlewares/Third_Party/LwIP/src/apps/mqtt/mqtt.c ****       if (fixed_hdr_idx >= 2) {
 864:../../Middlewares/Third_Party/LwIP/src/apps/mqtt/mqtt.c ****         /* fixed header contains at least 2 bytes but can contain more, depending on
 865:../../Middlewares/Third_Party/LwIP/src/apps/mqtt/mqtt.c ****            'remaining length'. All bytes but the last of this have 0x80 set to
 866:../../Middlewares/Third_Party/LwIP/src/apps/mqtt/mqtt.c ****            indicate more bytes are coming. */
 867:../../Middlewares/Third_Party/LwIP/src/apps/mqtt/mqtt.c ****         msg_rem_len |= (u32_t)(b & 0x7f) << ((fixed_hdr_idx - 2) * 7);
 868:../../Middlewares/Third_Party/LwIP/src/apps/mqtt/mqtt.c ****         if ((b & 0x80) == 0) {
 869:../../Middlewares/Third_Party/LwIP/src/apps/mqtt/mqtt.c ****           /* fixed header is done */
 870:../../Middlewares/Third_Party/LwIP/src/apps/mqtt/mqtt.c ****           LWIP_DEBUGF(MQTT_DEBUG_TRACE, ("mqtt_parse_incoming: Remaining length after fixed header:
 871:../../Middlewares/Third_Party/LwIP/src/apps/mqtt/mqtt.c ****           if (msg_rem_len == 0) {
 872:../../Middlewares/Third_Party/LwIP/src/apps/mqtt/mqtt.c ****             /* Complete message with no extra headers of payload received */
 873:../../Middlewares/Third_Party/LwIP/src/apps/mqtt/mqtt.c ****             mqtt_message_received(client, fixed_hdr_idx, 0, 0);
 874:../../Middlewares/Third_Party/LwIP/src/apps/mqtt/mqtt.c ****             client->msg_idx = 0;
 875:../../Middlewares/Third_Party/LwIP/src/apps/mqtt/mqtt.c ****             fixed_hdr_idx = 0;
 876:../../Middlewares/Third_Party/LwIP/src/apps/mqtt/mqtt.c ****           } else {
 877:../../Middlewares/Third_Party/LwIP/src/apps/mqtt/mqtt.c ****             /* Bytes remaining in message (changes remaining length if this is
 878:../../Middlewares/Third_Party/LwIP/src/apps/mqtt/mqtt.c ****                not the first segment of this message) */
 879:../../Middlewares/Third_Party/LwIP/src/apps/mqtt/mqtt.c ****             msg_rem_len = (msg_rem_len + fixed_hdr_idx) - client->msg_idx;
 880:../../Middlewares/Third_Party/LwIP/src/apps/mqtt/mqtt.c ****           }
 881:../../Middlewares/Third_Party/LwIP/src/apps/mqtt/mqtt.c ****         }
 882:../../Middlewares/Third_Party/LwIP/src/apps/mqtt/mqtt.c ****       }
 883:../../Middlewares/Third_Party/LwIP/src/apps/mqtt/mqtt.c ****     } else {
 884:../../Middlewares/Third_Party/LwIP/src/apps/mqtt/mqtt.c ****       /* Fixed header has been parsed, parse variable header */
 885:../../Middlewares/Third_Party/LwIP/src/apps/mqtt/mqtt.c ****       u16_t cpy_len, cpy_start, buffer_space;
 886:../../Middlewares/Third_Party/LwIP/src/apps/mqtt/mqtt.c **** 
 887:../../Middlewares/Third_Party/LwIP/src/apps/mqtt/mqtt.c ****       cpy_start = (client->msg_idx - fixed_hdr_idx) % (MQTT_VAR_HEADER_BUFFER_LEN - fixed_hdr_idx) 
 888:../../Middlewares/Third_Party/LwIP/src/apps/mqtt/mqtt.c **** 
 889:../../Middlewares/Third_Party/LwIP/src/apps/mqtt/mqtt.c ****       /* Allow to copy the lesser one of available length in input data or bytes remaining in messa
 890:../../Middlewares/Third_Party/LwIP/src/apps/mqtt/mqtt.c ****       cpy_len = (u16_t)LWIP_MIN((u16_t)(p->tot_len - in_offset), msg_rem_len);
 891:../../Middlewares/Third_Party/LwIP/src/apps/mqtt/mqtt.c **** 
 892:../../Middlewares/Third_Party/LwIP/src/apps/mqtt/mqtt.c ****       /* Limit to available space in buffer */
 893:../../Middlewares/Third_Party/LwIP/src/apps/mqtt/mqtt.c ****       buffer_space = MQTT_VAR_HEADER_BUFFER_LEN - cpy_start;
 894:../../Middlewares/Third_Party/LwIP/src/apps/mqtt/mqtt.c ****       if (cpy_len > buffer_space) {
 895:../../Middlewares/Third_Party/LwIP/src/apps/mqtt/mqtt.c ****         cpy_len = buffer_space;
 896:../../Middlewares/Third_Party/LwIP/src/apps/mqtt/mqtt.c ****       }
 897:../../Middlewares/Third_Party/LwIP/src/apps/mqtt/mqtt.c ****       pbuf_copy_partial(p, client->rx_buffer + cpy_start, cpy_len, in_offset);
 898:../../Middlewares/Third_Party/LwIP/src/apps/mqtt/mqtt.c **** 
 899:../../Middlewares/Third_Party/LwIP/src/apps/mqtt/mqtt.c ****       /* Advance get and put indexes  */
 900:../../Middlewares/Third_Party/LwIP/src/apps/mqtt/mqtt.c ****       client->msg_idx += cpy_len;
 901:../../Middlewares/Third_Party/LwIP/src/apps/mqtt/mqtt.c ****       in_offset += cpy_len;
 902:../../Middlewares/Third_Party/LwIP/src/apps/mqtt/mqtt.c ****       msg_rem_len -= cpy_len;
 903:../../Middlewares/Third_Party/LwIP/src/apps/mqtt/mqtt.c **** 
 904:../../Middlewares/Third_Party/LwIP/src/apps/mqtt/mqtt.c ****       LWIP_DEBUGF(MQTT_DEBUG_TRACE, ("mqtt_parse_incoming: msg_idx: %"U32_F", cpy_len: %"U16_F", re
 905:../../Middlewares/Third_Party/LwIP/src/apps/mqtt/mqtt.c ****       if ((msg_rem_len == 0) || (cpy_len == buffer_space)) {
 906:../../Middlewares/Third_Party/LwIP/src/apps/mqtt/mqtt.c ****         /* Whole message received or buffer is full */
 907:../../Middlewares/Third_Party/LwIP/src/apps/mqtt/mqtt.c ****         mqtt_connection_status_t res = mqtt_message_received(client, fixed_hdr_idx, (cpy_start + cp
 908:../../Middlewares/Third_Party/LwIP/src/apps/mqtt/mqtt.c ****         if (res != MQTT_CONNECT_ACCEPTED) {
 909:../../Middlewares/Third_Party/LwIP/src/apps/mqtt/mqtt.c ****           return res;
 910:../../Middlewares/Third_Party/LwIP/src/apps/mqtt/mqtt.c ****         }
 911:../../Middlewares/Third_Party/LwIP/src/apps/mqtt/mqtt.c ****         if (msg_rem_len == 0) {
 912:../../Middlewares/Third_Party/LwIP/src/apps/mqtt/mqtt.c ****           /* Reset parser state */
 913:../../Middlewares/Third_Party/LwIP/src/apps/mqtt/mqtt.c ****           client->msg_idx = 0;
 914:../../Middlewares/Third_Party/LwIP/src/apps/mqtt/mqtt.c ****           /* msg_tot_len = 0; */
 915:../../Middlewares/Third_Party/LwIP/src/apps/mqtt/mqtt.c ****           fixed_hdr_idx = 0;
 916:../../Middlewares/Third_Party/LwIP/src/apps/mqtt/mqtt.c ****         }
ARM GAS  C:\Users\minis\AppData\Local\Temp\ccG6JyYg.s 			page 51


 917:../../Middlewares/Third_Party/LwIP/src/apps/mqtt/mqtt.c ****       }
 918:../../Middlewares/Third_Party/LwIP/src/apps/mqtt/mqtt.c ****     }
 919:../../Middlewares/Third_Party/LwIP/src/apps/mqtt/mqtt.c ****   }
 920:../../Middlewares/Third_Party/LwIP/src/apps/mqtt/mqtt.c ****   return MQTT_CONNECT_ACCEPTED;
 921:../../Middlewares/Third_Party/LwIP/src/apps/mqtt/mqtt.c **** }
 922:../../Middlewares/Third_Party/LwIP/src/apps/mqtt/mqtt.c **** 
 923:../../Middlewares/Third_Party/LwIP/src/apps/mqtt/mqtt.c **** 
 924:../../Middlewares/Third_Party/LwIP/src/apps/mqtt/mqtt.c **** /**
 925:../../Middlewares/Third_Party/LwIP/src/apps/mqtt/mqtt.c ****  * TCP received callback function. @see tcp_recv_fn
 926:../../Middlewares/Third_Party/LwIP/src/apps/mqtt/mqtt.c ****  * @param arg MQTT client
 927:../../Middlewares/Third_Party/LwIP/src/apps/mqtt/mqtt.c ****  * @param p PBUF chain of received data
 928:../../Middlewares/Third_Party/LwIP/src/apps/mqtt/mqtt.c ****  * @param err Passed as return value if not ERR_OK
 929:../../Middlewares/Third_Party/LwIP/src/apps/mqtt/mqtt.c ****  * @return ERR_OK or err passed into callback
 930:../../Middlewares/Third_Party/LwIP/src/apps/mqtt/mqtt.c ****  */
 931:../../Middlewares/Third_Party/LwIP/src/apps/mqtt/mqtt.c **** static err_t
 932:../../Middlewares/Third_Party/LwIP/src/apps/mqtt/mqtt.c **** mqtt_tcp_recv_cb(void *arg, struct altcp_pcb *pcb, struct pbuf *p, err_t err)
 933:../../Middlewares/Third_Party/LwIP/src/apps/mqtt/mqtt.c **** {
 934:../../Middlewares/Third_Party/LwIP/src/apps/mqtt/mqtt.c ****   mqtt_client_t *client = (mqtt_client_t *)arg;
 935:../../Middlewares/Third_Party/LwIP/src/apps/mqtt/mqtt.c ****   LWIP_ASSERT("mqtt_tcp_recv_cb: client != NULL", client != NULL);
 936:../../Middlewares/Third_Party/LwIP/src/apps/mqtt/mqtt.c ****   LWIP_ASSERT("mqtt_tcp_recv_cb: client->conn == pcb", client->conn == pcb);
 937:../../Middlewares/Third_Party/LwIP/src/apps/mqtt/mqtt.c **** 
 938:../../Middlewares/Third_Party/LwIP/src/apps/mqtt/mqtt.c ****   if (p == NULL) {
 939:../../Middlewares/Third_Party/LwIP/src/apps/mqtt/mqtt.c ****     LWIP_DEBUGF(MQTT_DEBUG_TRACE, ("mqtt_tcp_recv_cb: Recv pbuf=NULL, remote has closed connection\
 940:../../Middlewares/Third_Party/LwIP/src/apps/mqtt/mqtt.c ****     mqtt_close(client, MQTT_CONNECT_DISCONNECTED);
 941:../../Middlewares/Third_Party/LwIP/src/apps/mqtt/mqtt.c ****   } else {
 942:../../Middlewares/Third_Party/LwIP/src/apps/mqtt/mqtt.c ****     mqtt_connection_status_t res;
 943:../../Middlewares/Third_Party/LwIP/src/apps/mqtt/mqtt.c ****     if (err != ERR_OK) {
 944:../../Middlewares/Third_Party/LwIP/src/apps/mqtt/mqtt.c ****       LWIP_DEBUGF(MQTT_DEBUG_WARN, ("mqtt_tcp_recv_cb: Recv err=%d\n", err));
 945:../../Middlewares/Third_Party/LwIP/src/apps/mqtt/mqtt.c ****       pbuf_free(p);
 946:../../Middlewares/Third_Party/LwIP/src/apps/mqtt/mqtt.c ****       return err;
 947:../../Middlewares/Third_Party/LwIP/src/apps/mqtt/mqtt.c ****     }
 948:../../Middlewares/Third_Party/LwIP/src/apps/mqtt/mqtt.c **** 
 949:../../Middlewares/Third_Party/LwIP/src/apps/mqtt/mqtt.c ****     /* Tell remote that data has been received */
 950:../../Middlewares/Third_Party/LwIP/src/apps/mqtt/mqtt.c ****     altcp_recved(pcb, p->tot_len);
 951:../../Middlewares/Third_Party/LwIP/src/apps/mqtt/mqtt.c ****     res = mqtt_parse_incoming(client, p);
 952:../../Middlewares/Third_Party/LwIP/src/apps/mqtt/mqtt.c ****     pbuf_free(p);
 953:../../Middlewares/Third_Party/LwIP/src/apps/mqtt/mqtt.c **** 
 954:../../Middlewares/Third_Party/LwIP/src/apps/mqtt/mqtt.c ****     if (res != MQTT_CONNECT_ACCEPTED) {
 955:../../Middlewares/Third_Party/LwIP/src/apps/mqtt/mqtt.c ****       mqtt_close(client, res);
 956:../../Middlewares/Third_Party/LwIP/src/apps/mqtt/mqtt.c ****     }
 957:../../Middlewares/Third_Party/LwIP/src/apps/mqtt/mqtt.c ****     /* If keep alive functionality is used */
 958:../../Middlewares/Third_Party/LwIP/src/apps/mqtt/mqtt.c ****     if (client->keep_alive != 0) {
 959:../../Middlewares/Third_Party/LwIP/src/apps/mqtt/mqtt.c ****       /* Reset server alive watchdog */
 960:../../Middlewares/Third_Party/LwIP/src/apps/mqtt/mqtt.c ****       client->server_watchdog = 0;
 961:../../Middlewares/Third_Party/LwIP/src/apps/mqtt/mqtt.c ****     }
 962:../../Middlewares/Third_Party/LwIP/src/apps/mqtt/mqtt.c **** 
 963:../../Middlewares/Third_Party/LwIP/src/apps/mqtt/mqtt.c ****   }
 964:../../Middlewares/Third_Party/LwIP/src/apps/mqtt/mqtt.c ****   return ERR_OK;
 965:../../Middlewares/Third_Party/LwIP/src/apps/mqtt/mqtt.c **** }
 966:../../Middlewares/Third_Party/LwIP/src/apps/mqtt/mqtt.c **** 
 967:../../Middlewares/Third_Party/LwIP/src/apps/mqtt/mqtt.c **** 
 968:../../Middlewares/Third_Party/LwIP/src/apps/mqtt/mqtt.c **** /**
 969:../../Middlewares/Third_Party/LwIP/src/apps/mqtt/mqtt.c ****  * TCP data sent callback function. @see tcp_sent_fn
 970:../../Middlewares/Third_Party/LwIP/src/apps/mqtt/mqtt.c ****  * @param arg MQTT client
 971:../../Middlewares/Third_Party/LwIP/src/apps/mqtt/mqtt.c ****  * @param tpcb TCP connection handle
 972:../../Middlewares/Third_Party/LwIP/src/apps/mqtt/mqtt.c ****  * @param len Number of bytes sent
 973:../../Middlewares/Third_Party/LwIP/src/apps/mqtt/mqtt.c ****  * @return ERR_OK
ARM GAS  C:\Users\minis\AppData\Local\Temp\ccG6JyYg.s 			page 52


 974:../../Middlewares/Third_Party/LwIP/src/apps/mqtt/mqtt.c ****  */
 975:../../Middlewares/Third_Party/LwIP/src/apps/mqtt/mqtt.c **** static err_t
 976:../../Middlewares/Third_Party/LwIP/src/apps/mqtt/mqtt.c **** mqtt_tcp_sent_cb(void *arg, struct altcp_pcb *tpcb, u16_t len)
 977:../../Middlewares/Third_Party/LwIP/src/apps/mqtt/mqtt.c **** {
 978:../../Middlewares/Third_Party/LwIP/src/apps/mqtt/mqtt.c ****   mqtt_client_t *client = (mqtt_client_t *)arg;
 979:../../Middlewares/Third_Party/LwIP/src/apps/mqtt/mqtt.c **** 
 980:../../Middlewares/Third_Party/LwIP/src/apps/mqtt/mqtt.c ****   LWIP_UNUSED_ARG(tpcb);
 981:../../Middlewares/Third_Party/LwIP/src/apps/mqtt/mqtt.c ****   LWIP_UNUSED_ARG(len);
 982:../../Middlewares/Third_Party/LwIP/src/apps/mqtt/mqtt.c **** 
 983:../../Middlewares/Third_Party/LwIP/src/apps/mqtt/mqtt.c ****   if (client->conn_state == MQTT_CONNECTED) {
 984:../../Middlewares/Third_Party/LwIP/src/apps/mqtt/mqtt.c ****     struct mqtt_request_t *r;
 985:../../Middlewares/Third_Party/LwIP/src/apps/mqtt/mqtt.c **** 
 986:../../Middlewares/Third_Party/LwIP/src/apps/mqtt/mqtt.c ****     /* Reset keep-alive send timer and server watchdog */
 987:../../Middlewares/Third_Party/LwIP/src/apps/mqtt/mqtt.c ****     client->cyclic_tick = 0;
 988:../../Middlewares/Third_Party/LwIP/src/apps/mqtt/mqtt.c ****     client->server_watchdog = 0;
 989:../../Middlewares/Third_Party/LwIP/src/apps/mqtt/mqtt.c ****     /* QoS 0 publish has no response from server, so call its callbacks here */
 990:../../Middlewares/Third_Party/LwIP/src/apps/mqtt/mqtt.c ****     while ((r = mqtt_take_request(&client->pend_req_queue, 0)) != NULL) {
 991:../../Middlewares/Third_Party/LwIP/src/apps/mqtt/mqtt.c ****       LWIP_DEBUGF(MQTT_DEBUG_TRACE, ("mqtt_tcp_sent_cb: Calling QoS 0 publish complete callback\n")
 992:../../Middlewares/Third_Party/LwIP/src/apps/mqtt/mqtt.c ****       if (r->cb != NULL) {
 993:../../Middlewares/Third_Party/LwIP/src/apps/mqtt/mqtt.c ****         r->cb(r->arg, ERR_OK);
 994:../../Middlewares/Third_Party/LwIP/src/apps/mqtt/mqtt.c ****       }
 995:../../Middlewares/Third_Party/LwIP/src/apps/mqtt/mqtt.c ****       mqtt_delete_request(r);
 996:../../Middlewares/Third_Party/LwIP/src/apps/mqtt/mqtt.c ****     }
 997:../../Middlewares/Third_Party/LwIP/src/apps/mqtt/mqtt.c ****     /* Try send any remaining buffers from output queue */
 998:../../Middlewares/Third_Party/LwIP/src/apps/mqtt/mqtt.c ****     mqtt_output_send(&client->output, client->conn);
 999:../../Middlewares/Third_Party/LwIP/src/apps/mqtt/mqtt.c ****   }
1000:../../Middlewares/Third_Party/LwIP/src/apps/mqtt/mqtt.c ****   return ERR_OK;
1001:../../Middlewares/Third_Party/LwIP/src/apps/mqtt/mqtt.c **** }
1002:../../Middlewares/Third_Party/LwIP/src/apps/mqtt/mqtt.c **** 
1003:../../Middlewares/Third_Party/LwIP/src/apps/mqtt/mqtt.c **** /**
1004:../../Middlewares/Third_Party/LwIP/src/apps/mqtt/mqtt.c ****  * TCP error callback function. @see tcp_err_fn
1005:../../Middlewares/Third_Party/LwIP/src/apps/mqtt/mqtt.c ****  * @param arg MQTT client
1006:../../Middlewares/Third_Party/LwIP/src/apps/mqtt/mqtt.c ****  * @param err Error encountered
1007:../../Middlewares/Third_Party/LwIP/src/apps/mqtt/mqtt.c ****  */
1008:../../Middlewares/Third_Party/LwIP/src/apps/mqtt/mqtt.c **** static void
1009:../../Middlewares/Third_Party/LwIP/src/apps/mqtt/mqtt.c **** mqtt_tcp_err_cb(void *arg, err_t err)
1010:../../Middlewares/Third_Party/LwIP/src/apps/mqtt/mqtt.c **** {
1011:../../Middlewares/Third_Party/LwIP/src/apps/mqtt/mqtt.c ****   mqtt_client_t *client = (mqtt_client_t *)arg;
1012:../../Middlewares/Third_Party/LwIP/src/apps/mqtt/mqtt.c ****   LWIP_UNUSED_ARG(err); /* only used for debug output */
1013:../../Middlewares/Third_Party/LwIP/src/apps/mqtt/mqtt.c ****   LWIP_DEBUGF(MQTT_DEBUG_TRACE, ("mqtt_tcp_err_cb: TCP error callback: error %d, arg: %p\n", err, a
1014:../../Middlewares/Third_Party/LwIP/src/apps/mqtt/mqtt.c ****   LWIP_ASSERT("mqtt_tcp_err_cb: client != NULL", client != NULL);
1015:../../Middlewares/Third_Party/LwIP/src/apps/mqtt/mqtt.c ****   /* Set conn to null before calling close as pcb is already deallocated*/
1016:../../Middlewares/Third_Party/LwIP/src/apps/mqtt/mqtt.c ****   client->conn = 0;
1017:../../Middlewares/Third_Party/LwIP/src/apps/mqtt/mqtt.c ****   mqtt_close(client, MQTT_CONNECT_DISCONNECTED);
1018:../../Middlewares/Third_Party/LwIP/src/apps/mqtt/mqtt.c **** }
1019:../../Middlewares/Third_Party/LwIP/src/apps/mqtt/mqtt.c **** 
1020:../../Middlewares/Third_Party/LwIP/src/apps/mqtt/mqtt.c **** /**
1021:../../Middlewares/Third_Party/LwIP/src/apps/mqtt/mqtt.c ****  * TCP poll callback function. @see tcp_poll_fn
1022:../../Middlewares/Third_Party/LwIP/src/apps/mqtt/mqtt.c ****  * @param arg MQTT client
1023:../../Middlewares/Third_Party/LwIP/src/apps/mqtt/mqtt.c ****  * @param tpcb TCP connection handle
1024:../../Middlewares/Third_Party/LwIP/src/apps/mqtt/mqtt.c ****  * @return err ERR_OK
1025:../../Middlewares/Third_Party/LwIP/src/apps/mqtt/mqtt.c ****  */
1026:../../Middlewares/Third_Party/LwIP/src/apps/mqtt/mqtt.c **** static err_t
1027:../../Middlewares/Third_Party/LwIP/src/apps/mqtt/mqtt.c **** mqtt_tcp_poll_cb(void *arg, struct altcp_pcb *tpcb)
1028:../../Middlewares/Third_Party/LwIP/src/apps/mqtt/mqtt.c **** {
 1606              		.loc 1 1028 1 view -0
 1607              		.cfi_startproc
ARM GAS  C:\Users\minis\AppData\Local\Temp\ccG6JyYg.s 			page 53


 1608              		@ args = 0, pretend = 0, frame = 0
 1609              		@ frame_needed = 0, uses_anonymous_args = 0
 1610              		.loc 1 1028 1 is_stmt 0 view .LVU431
 1611 0000 08B5     		push	{r3, lr}
 1612              	.LCFI15:
 1613              		.cfi_def_cfa_offset 8
 1614              		.cfi_offset 3, -8
 1615              		.cfi_offset 14, -4
1029:../../Middlewares/Third_Party/LwIP/src/apps/mqtt/mqtt.c ****   mqtt_client_t *client = (mqtt_client_t *)arg;
 1616              		.loc 1 1029 3 is_stmt 1 view .LVU432
 1617              	.LVL178:
1030:../../Middlewares/Third_Party/LwIP/src/apps/mqtt/mqtt.c ****   if (client->conn_state == MQTT_CONNECTED) {
 1618              		.loc 1 1030 3 view .LVU433
 1619              		.loc 1 1030 13 is_stmt 0 view .LVU434
 1620 0002 837A     		ldrb	r3, [r0, #10]	@ zero_extendqisi2
 1621              		.loc 1 1030 6 view .LVU435
 1622 0004 032B     		cmp	r3, #3
 1623 0006 01D0     		beq	.L133
 1624              	.LVL179:
 1625              	.L131:
1031:../../Middlewares/Third_Party/LwIP/src/apps/mqtt/mqtt.c ****     /* Try send any remaining buffers from output queue */
1032:../../Middlewares/Third_Party/LwIP/src/apps/mqtt/mqtt.c ****     mqtt_output_send(&client->output, tpcb);
1033:../../Middlewares/Third_Party/LwIP/src/apps/mqtt/mqtt.c ****   }
1034:../../Middlewares/Third_Party/LwIP/src/apps/mqtt/mqtt.c ****   return ERR_OK;
 1626              		.loc 1 1034 3 is_stmt 1 view .LVU436
1035:../../Middlewares/Third_Party/LwIP/src/apps/mqtt/mqtt.c **** }
 1627              		.loc 1 1035 1 is_stmt 0 view .LVU437
 1628 0008 0020     		movs	r0, #0
 1629 000a 08BD     		pop	{r3, pc}
 1630              	.LVL180:
 1631              	.L133:
1032:../../Middlewares/Third_Party/LwIP/src/apps/mqtt/mqtt.c ****   }
 1632              		.loc 1 1032 5 is_stmt 1 view .LVU438
 1633 000c EC30     		adds	r0, r0, #236
 1634              	.LVL181:
1032:../../Middlewares/Third_Party/LwIP/src/apps/mqtt/mqtt.c ****   }
 1635              		.loc 1 1032 5 is_stmt 0 view .LVU439
 1636 000e FFF7FEFF 		bl	mqtt_output_send
 1637              	.LVL182:
1032:../../Middlewares/Third_Party/LwIP/src/apps/mqtt/mqtt.c ****   }
 1638              		.loc 1 1032 5 view .LVU440
 1639 0012 F9E7     		b	.L131
 1640              		.cfi_endproc
 1641              	.LFE202:
 1643              		.section	.text.mqtt_tcp_sent_cb,"ax",%progbits
 1644              		.align	1
 1645              		.syntax unified
 1646              		.thumb
 1647              		.thumb_func
 1649              	mqtt_tcp_sent_cb:
 1650              	.LVL183:
 1651              	.LFB200:
 977:../../Middlewares/Third_Party/LwIP/src/apps/mqtt/mqtt.c ****   mqtt_client_t *client = (mqtt_client_t *)arg;
 1652              		.loc 1 977 1 is_stmt 1 view -0
 1653              		.cfi_startproc
 1654              		@ args = 0, pretend = 0, frame = 0
 1655              		@ frame_needed = 0, uses_anonymous_args = 0
ARM GAS  C:\Users\minis\AppData\Local\Temp\ccG6JyYg.s 			page 54


 977:../../Middlewares/Third_Party/LwIP/src/apps/mqtt/mqtt.c ****   mqtt_client_t *client = (mqtt_client_t *)arg;
 1656              		.loc 1 977 1 is_stmt 0 view .LVU442
 1657 0000 38B5     		push	{r3, r4, r5, lr}
 1658              	.LCFI16:
 1659              		.cfi_def_cfa_offset 16
 1660              		.cfi_offset 3, -16
 1661              		.cfi_offset 4, -12
 1662              		.cfi_offset 5, -8
 1663              		.cfi_offset 14, -4
 978:../../Middlewares/Third_Party/LwIP/src/apps/mqtt/mqtt.c **** 
 1664              		.loc 1 978 3 is_stmt 1 view .LVU443
 1665              	.LVL184:
 980:../../Middlewares/Third_Party/LwIP/src/apps/mqtt/mqtt.c ****   LWIP_UNUSED_ARG(len);
 1666              		.loc 1 980 3 view .LVU444
 981:../../Middlewares/Third_Party/LwIP/src/apps/mqtt/mqtt.c **** 
 1667              		.loc 1 981 3 view .LVU445
 983:../../Middlewares/Third_Party/LwIP/src/apps/mqtt/mqtt.c ****     struct mqtt_request_t *r;
 1668              		.loc 1 983 3 view .LVU446
 983:../../Middlewares/Third_Party/LwIP/src/apps/mqtt/mqtt.c ****     struct mqtt_request_t *r;
 1669              		.loc 1 983 13 is_stmt 0 view .LVU447
 1670 0002 837A     		ldrb	r3, [r0, #10]	@ zero_extendqisi2
 983:../../Middlewares/Third_Party/LwIP/src/apps/mqtt/mqtt.c ****     struct mqtt_request_t *r;
 1671              		.loc 1 983 6 view .LVU448
 1672 0004 032B     		cmp	r3, #3
 1673 0006 01D0     		beq	.L140
 1674              	.LVL185:
 1675              	.L135:
1000:../../Middlewares/Third_Party/LwIP/src/apps/mqtt/mqtt.c **** }
 1676              		.loc 1 1000 3 is_stmt 1 view .LVU449
1001:../../Middlewares/Third_Party/LwIP/src/apps/mqtt/mqtt.c **** 
 1677              		.loc 1 1001 1 is_stmt 0 view .LVU450
 1678 0008 0020     		movs	r0, #0
 1679 000a 38BD     		pop	{r3, r4, r5, pc}
 1680              	.LVL186:
 1681              	.L140:
1001:../../Middlewares/Third_Party/LwIP/src/apps/mqtt/mqtt.c **** 
 1682              		.loc 1 1001 1 view .LVU451
 1683 000c 0546     		mov	r5, r0
 1684              	.LBB2:
 984:../../Middlewares/Third_Party/LwIP/src/apps/mqtt/mqtt.c **** 
 1685              		.loc 1 984 5 is_stmt 1 view .LVU452
 987:../../Middlewares/Third_Party/LwIP/src/apps/mqtt/mqtt.c ****     client->server_watchdog = 0;
 1686              		.loc 1 987 5 view .LVU453
 987:../../Middlewares/Third_Party/LwIP/src/apps/mqtt/mqtt.c ****     client->server_watchdog = 0;
 1687              		.loc 1 987 25 is_stmt 0 view .LVU454
 1688 000e 0023     		movs	r3, #0
 1689 0010 0380     		strh	r3, [r0]	@ movhi
 988:../../Middlewares/Third_Party/LwIP/src/apps/mqtt/mqtt.c ****     /* QoS 0 publish has no response from server, so call its callbacks here */
 1690              		.loc 1 988 5 is_stmt 1 view .LVU455
 988:../../Middlewares/Third_Party/LwIP/src/apps/mqtt/mqtt.c ****     /* QoS 0 publish has no response from server, so call its callbacks here */
 1691              		.loc 1 988 29 is_stmt 0 view .LVU456
 1692 0012 8380     		strh	r3, [r0, #4]	@ movhi
 990:../../Middlewares/Third_Party/LwIP/src/apps/mqtt/mqtt.c ****       LWIP_DEBUGF(MQTT_DEBUG_TRACE, ("mqtt_tcp_sent_cb: Calling QoS 0 publish complete callback\n")
 1693              		.loc 1 990 5 is_stmt 1 view .LVU457
 990:../../Middlewares/Third_Party/LwIP/src/apps/mqtt/mqtt.c ****       LWIP_DEBUGF(MQTT_DEBUG_TRACE, ("mqtt_tcp_sent_cb: Calling QoS 0 publish complete callback\n")
 1694              		.loc 1 990 11 is_stmt 0 view .LVU458
 1695 0014 02E0     		b	.L136
ARM GAS  C:\Users\minis\AppData\Local\Temp\ccG6JyYg.s 			page 55


 1696              	.LVL187:
 1697              	.L137:
 995:../../Middlewares/Third_Party/LwIP/src/apps/mqtt/mqtt.c ****     }
 1698              		.loc 1 995 7 is_stmt 1 view .LVU459
 1699 0016 2046     		mov	r0, r4
 1700 0018 FFF7FEFF 		bl	mqtt_delete_request
 1701              	.LVL188:
 1702              	.L136:
 990:../../Middlewares/Third_Party/LwIP/src/apps/mqtt/mqtt.c ****       LWIP_DEBUGF(MQTT_DEBUG_TRACE, ("mqtt_tcp_sent_cb: Calling QoS 0 publish complete callback\n")
 1703              		.loc 1 990 64 view .LVU460
 990:../../Middlewares/Third_Party/LwIP/src/apps/mqtt/mqtt.c ****       LWIP_DEBUGF(MQTT_DEBUG_TRACE, ("mqtt_tcp_sent_cb: Calling QoS 0 publish complete callback\n")
 1704              		.loc 1 990 17 is_stmt 0 view .LVU461
 1705 001c 0021     		movs	r1, #0
 1706 001e 05F11800 		add	r0, r5, #24
 1707 0022 FFF7FEFF 		bl	mqtt_take_request
 1708              	.LVL189:
 990:../../Middlewares/Third_Party/LwIP/src/apps/mqtt/mqtt.c ****       LWIP_DEBUGF(MQTT_DEBUG_TRACE, ("mqtt_tcp_sent_cb: Calling QoS 0 publish complete callback\n")
 1709              		.loc 1 990 64 discriminator 1 view .LVU462
 1710 0026 0446     		mov	r4, r0
 1711 0028 30B1     		cbz	r0, .L141
 991:../../Middlewares/Third_Party/LwIP/src/apps/mqtt/mqtt.c ****       if (r->cb != NULL) {
 1712              		.loc 1 991 101 is_stmt 1 view .LVU463
 992:../../Middlewares/Third_Party/LwIP/src/apps/mqtt/mqtt.c ****         r->cb(r->arg, ERR_OK);
 1713              		.loc 1 992 7 view .LVU464
 992:../../Middlewares/Third_Party/LwIP/src/apps/mqtt/mqtt.c ****         r->cb(r->arg, ERR_OK);
 1714              		.loc 1 992 12 is_stmt 0 view .LVU465
 1715 002a 6368     		ldr	r3, [r4, #4]
 992:../../Middlewares/Third_Party/LwIP/src/apps/mqtt/mqtt.c ****         r->cb(r->arg, ERR_OK);
 1716              		.loc 1 992 10 view .LVU466
 1717 002c 002B     		cmp	r3, #0
 1718 002e F2D0     		beq	.L137
 993:../../Middlewares/Third_Party/LwIP/src/apps/mqtt/mqtt.c ****       }
 1719              		.loc 1 993 9 is_stmt 1 view .LVU467
 1720 0030 0021     		movs	r1, #0
 1721 0032 A068     		ldr	r0, [r4, #8]
 1722              	.LVL190:
 993:../../Middlewares/Third_Party/LwIP/src/apps/mqtt/mqtt.c ****       }
 1723              		.loc 1 993 9 is_stmt 0 view .LVU468
 1724 0034 9847     		blx	r3
 1725              	.LVL191:
 1726 0036 EEE7     		b	.L137
 1727              	.LVL192:
 1728              	.L141:
 998:../../Middlewares/Third_Party/LwIP/src/apps/mqtt/mqtt.c ****   }
 1729              		.loc 1 998 5 is_stmt 1 view .LVU469
 1730 0038 E968     		ldr	r1, [r5, #12]
 1731 003a 05F1EC00 		add	r0, r5, #236
 1732              	.LVL193:
 998:../../Middlewares/Third_Party/LwIP/src/apps/mqtt/mqtt.c ****   }
 1733              		.loc 1 998 5 is_stmt 0 view .LVU470
 1734 003e FFF7FEFF 		bl	mqtt_output_send
 1735              	.LVL194:
 1736 0042 E1E7     		b	.L135
 1737              	.LBE2:
 1738              		.cfi_endproc
 1739              	.LFE200:
 1741              		.section	.text.pub_ack_rec_rel_response,"ax",%progbits
ARM GAS  C:\Users\minis\AppData\Local\Temp\ccG6JyYg.s 			page 56


 1742              		.align	1
 1743              		.syntax unified
 1744              		.thumb
 1745              		.thumb_func
 1747              	pub_ack_rec_rel_response:
 1748              	.LVL195:
 1749              	.LFB195:
 636:../../Middlewares/Third_Party/LwIP/src/apps/mqtt/mqtt.c ****   err_t err = ERR_OK;
 1750              		.loc 1 636 1 is_stmt 1 view -0
 1751              		.cfi_startproc
 1752              		@ args = 0, pretend = 0, frame = 0
 1753              		@ frame_needed = 0, uses_anonymous_args = 0
 636:../../Middlewares/Third_Party/LwIP/src/apps/mqtt/mqtt.c ****   err_t err = ERR_OK;
 1754              		.loc 1 636 1 is_stmt 0 view .LVU472
 1755 0000 2DE9F043 		push	{r4, r5, r6, r7, r8, r9, lr}
 1756              	.LCFI17:
 1757              		.cfi_def_cfa_offset 28
 1758              		.cfi_offset 4, -28
 1759              		.cfi_offset 5, -24
 1760              		.cfi_offset 6, -20
 1761              		.cfi_offset 7, -16
 1762              		.cfi_offset 8, -12
 1763              		.cfi_offset 9, -8
 1764              		.cfi_offset 14, -4
 1765 0004 83B0     		sub	sp, sp, #12
 1766              	.LCFI18:
 1767              		.cfi_def_cfa_offset 40
 1768 0006 0546     		mov	r5, r0
 1769 0008 8846     		mov	r8, r1
 1770 000a 9146     		mov	r9, r2
 1771 000c 1F46     		mov	r7, r3
 637:../../Middlewares/Third_Party/LwIP/src/apps/mqtt/mqtt.c ****   if (mqtt_output_check_space(&client->output, 2)) {
 1772              		.loc 1 637 3 is_stmt 1 view .LVU473
 1773              	.LVL196:
 638:../../Middlewares/Third_Party/LwIP/src/apps/mqtt/mqtt.c ****     mqtt_output_append_fixed_header(&client->output, msg, 0, qos, 0, 2);
 1774              		.loc 1 638 3 view .LVU474
 638:../../Middlewares/Third_Party/LwIP/src/apps/mqtt/mqtt.c ****     mqtt_output_append_fixed_header(&client->output, msg, 0, qos, 0, 2);
 1775              		.loc 1 638 7 is_stmt 0 view .LVU475
 1776 000e 00F1EC06 		add	r6, r0, #236
 1777 0012 0221     		movs	r1, #2
 1778              	.LVL197:
 638:../../Middlewares/Third_Party/LwIP/src/apps/mqtt/mqtt.c ****     mqtt_output_append_fixed_header(&client->output, msg, 0, qos, 0, 2);
 1779              		.loc 1 638 7 view .LVU476
 1780 0014 3046     		mov	r0, r6
 1781              	.LVL198:
 638:../../Middlewares/Third_Party/LwIP/src/apps/mqtt/mqtt.c ****     mqtt_output_append_fixed_header(&client->output, msg, 0, qos, 0, 2);
 1782              		.loc 1 638 7 view .LVU477
 1783 0016 FFF7FEFF 		bl	mqtt_output_check_space
 1784              	.LVL199:
 638:../../Middlewares/Third_Party/LwIP/src/apps/mqtt/mqtt.c ****     mqtt_output_append_fixed_header(&client->output, msg, 0, qos, 0, 2);
 1785              		.loc 1 638 6 discriminator 1 view .LVU478
 1786 001a A8B1     		cbz	r0, .L144
 639:../../Middlewares/Third_Party/LwIP/src/apps/mqtt/mqtt.c ****     mqtt_output_append_u16(&client->output, pkt_id);
 1787              		.loc 1 639 5 is_stmt 1 view .LVU479
 1788 001c 0223     		movs	r3, #2
 1789 001e 0193     		str	r3, [sp, #4]
 1790 0020 0024     		movs	r4, #0
ARM GAS  C:\Users\minis\AppData\Local\Temp\ccG6JyYg.s 			page 57


 1791 0022 0094     		str	r4, [sp]
 1792 0024 3B46     		mov	r3, r7
 1793 0026 2246     		mov	r2, r4
 1794 0028 4146     		mov	r1, r8
 1795 002a 3046     		mov	r0, r6
 1796 002c FFF7FEFF 		bl	mqtt_output_append_fixed_header
 1797              	.LVL200:
 640:../../Middlewares/Third_Party/LwIP/src/apps/mqtt/mqtt.c ****     mqtt_output_send(&client->output, client->conn);
 1798              		.loc 1 640 5 view .LVU480
 1799 0030 4946     		mov	r1, r9
 1800 0032 3046     		mov	r0, r6
 1801 0034 FFF7FEFF 		bl	mqtt_output_append_u16
 1802              	.LVL201:
 641:../../Middlewares/Third_Party/LwIP/src/apps/mqtt/mqtt.c ****   } else {
 1803              		.loc 1 641 5 view .LVU481
 1804 0038 E968     		ldr	r1, [r5, #12]
 1805 003a 3046     		mov	r0, r6
 1806 003c FFF7FEFF 		bl	mqtt_output_send
 1807              	.LVL202:
 637:../../Middlewares/Third_Party/LwIP/src/apps/mqtt/mqtt.c ****   if (mqtt_output_check_space(&client->output, 2)) {
 1808              		.loc 1 637 9 is_stmt 0 view .LVU482
 1809 0040 2046     		mov	r0, r4
 1810              	.L143:
 1811              	.LVL203:
 647:../../Middlewares/Third_Party/LwIP/src/apps/mqtt/mqtt.c **** }
 1812              		.loc 1 647 3 is_stmt 1 view .LVU483
 648:../../Middlewares/Third_Party/LwIP/src/apps/mqtt/mqtt.c **** 
 1813              		.loc 1 648 1 is_stmt 0 view .LVU484
 1814 0042 03B0     		add	sp, sp, #12
 1815              	.LCFI19:
 1816              		.cfi_remember_state
 1817              		.cfi_def_cfa_offset 28
 1818              		@ sp needed
 1819 0044 BDE8F083 		pop	{r4, r5, r6, r7, r8, r9, pc}
 1820              	.LVL204:
 1821              	.L144:
 1822              	.LCFI20:
 1823              		.cfi_restore_state
 645:../../Middlewares/Third_Party/LwIP/src/apps/mqtt/mqtt.c ****   }
 1824              		.loc 1 645 9 view .LVU485
 1825 0048 4FF0FF30 		mov	r0, #-1
 1826 004c F9E7     		b	.L143
 1827              		.cfi_endproc
 1828              	.LFE195:
 1830              		.section	.rodata.mqtt_message_received.str1.4,"aMS",%progbits,1
 1831              		.align	2
 1832              	.LC11:
 1833 0000 636C6965 		.ascii	"client->msg_idx < MQTT_VAR_HEADER_BUFFER_LEN\000"
 1833      6E742D3E 
 1833      6D73675F 
 1833      69647820 
 1833      3C204D51 
 1834 002d 000000   		.align	2
 1835              	.LC12:
 1836 0030 66697865 		.ascii	"fixed_hdr_idx <= client->msg_idx\000"
 1836      645F6864 
 1836      725F6964 
ARM GAS  C:\Users\minis\AppData\Local\Temp\ccG6JyYg.s 			page 58


 1836      78203C3D 
 1836      20636C69 
 1837 0051 000000   		.align	2
 1838              	.LC13:
 1839 0054 62756666 		.ascii	"buffer length mismatch\000"
 1839      6572206C 
 1839      656E6774 
 1839      68206D69 
 1839      736D6174 
 1840              		.section	.text.mqtt_message_received,"ax",%progbits
 1841              		.align	1
 1842              		.syntax unified
 1843              		.thumb
 1844              		.thumb_func
 1846              	mqtt_message_received:
 1847              	.LVL205:
 1848              	.LFB197:
 673:../../Middlewares/Third_Party/LwIP/src/apps/mqtt/mqtt.c ****   mqtt_connection_status_t res = MQTT_CONNECT_ACCEPTED;
 1849              		.loc 1 673 1 is_stmt 1 view -0
 1850              		.cfi_startproc
 1851              		@ args = 0, pretend = 0, frame = 8
 1852              		@ frame_needed = 0, uses_anonymous_args = 0
 673:../../Middlewares/Third_Party/LwIP/src/apps/mqtt/mqtt.c ****   mqtt_connection_status_t res = MQTT_CONNECT_ACCEPTED;
 1853              		.loc 1 673 1 is_stmt 0 view .LVU487
 1854 0000 2DE9F04F 		push	{r4, r5, r6, r7, r8, r9, r10, fp, lr}
 1855              	.LCFI21:
 1856              		.cfi_def_cfa_offset 36
 1857              		.cfi_offset 4, -36
 1858              		.cfi_offset 5, -32
 1859              		.cfi_offset 6, -28
 1860              		.cfi_offset 7, -24
 1861              		.cfi_offset 8, -20
 1862              		.cfi_offset 9, -16
 1863              		.cfi_offset 10, -12
 1864              		.cfi_offset 11, -8
 1865              		.cfi_offset 14, -4
 1866 0004 83B0     		sub	sp, sp, #12
 1867              	.LCFI22:
 1868              		.cfi_def_cfa_offset 48
 1869 0006 0446     		mov	r4, r0
 1870 0008 8946     		mov	r9, r1
 1871 000a 1546     		mov	r5, r2
 1872 000c 1E46     		mov	r6, r3
 674:../../Middlewares/Third_Party/LwIP/src/apps/mqtt/mqtt.c **** 
 1873              		.loc 1 674 3 is_stmt 1 view .LVU488
 1874              	.LVL206:
 676:../../Middlewares/Third_Party/LwIP/src/apps/mqtt/mqtt.c ****   size_t var_hdr_payload_bufsize = sizeof(client->rx_buffer) - fixed_hdr_idx;
 1875              		.loc 1 676 3 view .LVU489
 676:../../Middlewares/Third_Party/LwIP/src/apps/mqtt/mqtt.c ****   size_t var_hdr_payload_bufsize = sizeof(client->rx_buffer) - fixed_hdr_idx;
 1876              		.loc 1 676 27 is_stmt 0 view .LVU490
 1877 000e 00F16C0B 		add	fp, r0, #108
 676:../../Middlewares/Third_Party/LwIP/src/apps/mqtt/mqtt.c ****   size_t var_hdr_payload_bufsize = sizeof(client->rx_buffer) - fixed_hdr_idx;
 1878              		.loc 1 676 9 view .LVU491
 1879 0012 0BEB0107 		add	r7, fp, r1
 1880              	.LVL207:
 677:../../Middlewares/Third_Party/LwIP/src/apps/mqtt/mqtt.c **** 
 1881              		.loc 1 677 3 is_stmt 1 view .LVU492
ARM GAS  C:\Users\minis\AppData\Local\Temp\ccG6JyYg.s 			page 59


 677:../../Middlewares/Third_Party/LwIP/src/apps/mqtt/mqtt.c **** 
 1882              		.loc 1 677 10 is_stmt 0 view .LVU493
 1883 0016 C1F1800A 		rsb	r10, r1, #128
 1884              	.LVL208:
 680:../../Middlewares/Third_Party/LwIP/src/apps/mqtt/mqtt.c ****   u16_t pkt_id = 0;
 1885              		.loc 1 680 3 is_stmt 1 view .LVU494
 680:../../Middlewares/Third_Party/LwIP/src/apps/mqtt/mqtt.c ****   u16_t pkt_id = 0;
 1886              		.loc 1 680 19 is_stmt 0 view .LVU495
 1887 001a 90F86C80 		ldrb	r8, [r0, #108]	@ zero_extendqisi2
 680:../../Middlewares/Third_Party/LwIP/src/apps/mqtt/mqtt.c ****   u16_t pkt_id = 0;
 1888              		.loc 1 680 8 view .LVU496
 1889 001e 4FEA1818 		lsr	r8, r8, #4
 1890              	.LVL209:
 681:../../Middlewares/Third_Party/LwIP/src/apps/mqtt/mqtt.c **** 
 1891              		.loc 1 681 3 is_stmt 1 view .LVU497
 683:../../Middlewares/Third_Party/LwIP/src/apps/mqtt/mqtt.c ****   LWIP_ASSERT("fixed_hdr_idx <= client->msg_idx", fixed_hdr_idx <= client->msg_idx);
 1892              		.loc 1 683 3 view .LVU498
 683:../../Middlewares/Third_Party/LwIP/src/apps/mqtt/mqtt.c ****   LWIP_ASSERT("fixed_hdr_idx <= client->msg_idx", fixed_hdr_idx <= client->msg_idx);
 1893              		.loc 1 683 3 view .LVU499
 1894 0022 836E     		ldr	r3, [r0, #104]
 1895              	.LVL210:
 683:../../Middlewares/Third_Party/LwIP/src/apps/mqtt/mqtt.c ****   LWIP_ASSERT("fixed_hdr_idx <= client->msg_idx", fixed_hdr_idx <= client->msg_idx);
 1896              		.loc 1 683 3 is_stmt 0 view .LVU500
 1897 0024 7F2B     		cmp	r3, #127
 1898 0026 31D8     		bhi	.L185
 1899              	.LVL211:
 1900              	.L147:
 683:../../Middlewares/Third_Party/LwIP/src/apps/mqtt/mqtt.c ****   LWIP_ASSERT("fixed_hdr_idx <= client->msg_idx", fixed_hdr_idx <= client->msg_idx);
 1901              		.loc 1 683 3 is_stmt 1 view .LVU501
 683:../../Middlewares/Third_Party/LwIP/src/apps/mqtt/mqtt.c ****   LWIP_ASSERT("fixed_hdr_idx <= client->msg_idx", fixed_hdr_idx <= client->msg_idx);
 1902              		.loc 1 683 3 view .LVU502
 684:../../Middlewares/Third_Party/LwIP/src/apps/mqtt/mqtt.c ****   LWIP_ERROR("buffer length mismatch", fixed_hdr_idx + length <= MQTT_VAR_HEADER_BUFFER_LEN,
 1903              		.loc 1 684 3 view .LVU503
 684:../../Middlewares/Third_Party/LwIP/src/apps/mqtt/mqtt.c ****   LWIP_ERROR("buffer length mismatch", fixed_hdr_idx + length <= MQTT_VAR_HEADER_BUFFER_LEN,
 1904              		.loc 1 684 3 view .LVU504
 1905 0028 A36E     		ldr	r3, [r4, #104]
 1906 002a 9945     		cmp	r9, r3
 1907 002c 36D8     		bhi	.L186
 1908              	.L148:
 684:../../Middlewares/Third_Party/LwIP/src/apps/mqtt/mqtt.c ****   LWIP_ERROR("buffer length mismatch", fixed_hdr_idx + length <= MQTT_VAR_HEADER_BUFFER_LEN,
 1909              		.loc 1 684 3 view .LVU505
 684:../../Middlewares/Third_Party/LwIP/src/apps/mqtt/mqtt.c ****   LWIP_ERROR("buffer length mismatch", fixed_hdr_idx + length <= MQTT_VAR_HEADER_BUFFER_LEN,
 1910              		.loc 1 684 3 view .LVU506
 685:../../Middlewares/Third_Party/LwIP/src/apps/mqtt/mqtt.c ****              return MQTT_CONNECT_DISCONNECTED);
 1911              		.loc 1 685 3 view .LVU507
 685:../../Middlewares/Third_Party/LwIP/src/apps/mqtt/mqtt.c ****              return MQTT_CONNECT_DISCONNECTED);
 1912              		.loc 1 685 3 view .LVU508
 1913 002e 09EB0503 		add	r3, r9, r5
 1914 0032 802B     		cmp	r3, #128
 1915 0034 3ADC     		bgt	.L187
 685:../../Middlewares/Third_Party/LwIP/src/apps/mqtt/mqtt.c ****              return MQTT_CONNECT_DISCONNECTED);
 1916              		.loc 1 685 3 view .LVU509
 688:../../Middlewares/Third_Party/LwIP/src/apps/mqtt/mqtt.c ****     if (client->conn_state == MQTT_CONNECTING) {
 1917              		.loc 1 688 3 view .LVU510
 688:../../Middlewares/Third_Party/LwIP/src/apps/mqtt/mqtt.c ****     if (client->conn_state == MQTT_CONNECTING) {
 1918              		.loc 1 688 6 is_stmt 0 view .LVU511
 1919 0036 B8F1020F 		cmp	r8, #2
ARM GAS  C:\Users\minis\AppData\Local\Temp\ccG6JyYg.s 			page 60


 1920 003a 41D0     		beq	.L188
 709:../../Middlewares/Third_Party/LwIP/src/apps/mqtt/mqtt.c ****     LWIP_DEBUGF(MQTT_DEBUG_TRACE, ( "mqtt_message_received: Received PINGRESP from server\n"));
 1921              		.loc 1 709 10 is_stmt 1 view .LVU512
 709:../../Middlewares/Third_Party/LwIP/src/apps/mqtt/mqtt.c ****     LWIP_DEBUGF(MQTT_DEBUG_TRACE, ( "mqtt_message_received: Received PINGRESP from server\n"));
 1922              		.loc 1 709 13 is_stmt 0 view .LVU513
 1923 003c B8F10D0F 		cmp	r8, #13
 1924 0040 00F00981 		beq	.L166
 712:../../Middlewares/Third_Party/LwIP/src/apps/mqtt/mqtt.c ****     u16_t payload_offset = 0;
 1925              		.loc 1 712 10 is_stmt 1 view .LVU514
 712:../../Middlewares/Third_Party/LwIP/src/apps/mqtt/mqtt.c ****     u16_t payload_offset = 0;
 1926              		.loc 1 712 13 is_stmt 0 view .LVU515
 1927 0044 B8F1030F 		cmp	r8, #3
 1928 0048 54D0     		beq	.L189
 788:../../Middlewares/Third_Party/LwIP/src/apps/mqtt/mqtt.c ****     pkt_id |= (u16_t)var_hdr_payload[1];
 1929              		.loc 1 788 5 is_stmt 1 view .LVU516
 788:../../Middlewares/Third_Party/LwIP/src/apps/mqtt/mqtt.c ****     pkt_id |= (u16_t)var_hdr_payload[1];
 1930              		.loc 1 788 36 is_stmt 0 view .LVU517
 1931 004a 1BF80930 		ldrb	r3, [fp, r9]	@ zero_extendqisi2
 1932              	.LVL212:
 789:../../Middlewares/Third_Party/LwIP/src/apps/mqtt/mqtt.c ****     if (pkt_id == 0) {
 1933              		.loc 1 789 5 is_stmt 1 view .LVU518
 789:../../Middlewares/Third_Party/LwIP/src/apps/mqtt/mqtt.c ****     if (pkt_id == 0) {
 1934              		.loc 1 789 37 is_stmt 0 view .LVU519
 1935 004e 7A78     		ldrb	r2, [r7, #1]	@ zero_extendqisi2
 1936              	.LVL213:
 790:../../Middlewares/Third_Party/LwIP/src/apps/mqtt/mqtt.c ****       LWIP_DEBUGF(MQTT_DEBUG_WARN, ("mqtt_message_received: Got message with illegal packet identif
 1937              		.loc 1 790 5 is_stmt 1 view .LVU520
 790:../../Middlewares/Third_Party/LwIP/src/apps/mqtt/mqtt.c ****       LWIP_DEBUGF(MQTT_DEBUG_WARN, ("mqtt_message_received: Got message with illegal packet identif
 1938              		.loc 1 790 8 is_stmt 0 view .LVU521
 1939 0050 52EA0322 		orrs	r2, r2, r3, lsl #8
 1940              	.LVL214:
 790:../../Middlewares/Third_Party/LwIP/src/apps/mqtt/mqtt.c ****       LWIP_DEBUGF(MQTT_DEBUG_WARN, ("mqtt_message_received: Got message with illegal packet identif
 1941              		.loc 1 790 8 view .LVU522
 1942 0054 00F01781 		beq	.L179
 794:../../Middlewares/Third_Party/LwIP/src/apps/mqtt/mqtt.c ****       LWIP_DEBUGF(MQTT_DEBUG_TRACE, ("mqtt_message_received: PUBREC, sending PUBREL with pkt_id: %d
 1943              		.loc 1 794 5 is_stmt 1 view .LVU523
 1944 0058 B8F10B0F 		cmp	r8, #11
 1945 005c 00F21681 		bhi	.L180
 1946 0060 0123     		movs	r3, #1
 1947 0062 03FA08F3 		lsl	r3, r3, r8
 1948 0066 13F4296F 		tst	r3, #2704
 1949 006a 40F0D780 		bne	.L160
 1950 006e 13F0400F 		tst	r3, #64
 1951 0072 40F0CC80 		bne	.L161
 1952 0076 13F0200F 		tst	r3, #32
 1953 007a 00F00A81 		beq	.L181
 795:../../Middlewares/Third_Party/LwIP/src/apps/mqtt/mqtt.c ****       pub_ack_rec_rel_response(client, MQTT_MSG_TYPE_PUBREL, pkt_id, 1);
 1954              		.loc 1 795 113 view .LVU524
 796:../../Middlewares/Third_Party/LwIP/src/apps/mqtt/mqtt.c **** 
 1955              		.loc 1 796 7 view .LVU525
 1956 007e 0123     		movs	r3, #1
 1957 0080 0621     		movs	r1, #6
 1958 0082 2046     		mov	r0, r4
 1959 0084 FFF7FEFF 		bl	pub_ack_rec_rel_response
 1960              	.LVL215:
 674:../../Middlewares/Third_Party/LwIP/src/apps/mqtt/mqtt.c **** 
 1961              		.loc 1 674 28 is_stmt 0 view .LVU526
ARM GAS  C:\Users\minis\AppData\Local\Temp\ccG6JyYg.s 			page 61


 1962 0088 0025     		movs	r5, #0
 1963              	.LVL216:
 674:../../Middlewares/Third_Party/LwIP/src/apps/mqtt/mqtt.c **** 
 1964              		.loc 1 674 28 view .LVU527
 1965 008a 1DE0     		b	.L150
 1966              	.LVL217:
 1967              	.L185:
 683:../../Middlewares/Third_Party/LwIP/src/apps/mqtt/mqtt.c ****   LWIP_ASSERT("fixed_hdr_idx <= client->msg_idx", fixed_hdr_idx <= client->msg_idx);
 1968              		.loc 1 683 3 is_stmt 1 discriminator 1 view .LVU528
 683:../../Middlewares/Third_Party/LwIP/src/apps/mqtt/mqtt.c ****   LWIP_ASSERT("fixed_hdr_idx <= client->msg_idx", fixed_hdr_idx <= client->msg_idx);
 1969              		.loc 1 683 3 discriminator 1 view .LVU529
 1970 008c 854B     		ldr	r3, .L193
 1971 008e 40F2AB22 		movw	r2, #683
 1972              	.LVL218:
 683:../../Middlewares/Third_Party/LwIP/src/apps/mqtt/mqtt.c ****   LWIP_ASSERT("fixed_hdr_idx <= client->msg_idx", fixed_hdr_idx <= client->msg_idx);
 1973              		.loc 1 683 3 is_stmt 0 discriminator 1 view .LVU530
 1974 0092 8549     		ldr	r1, .L193+4
 1975              	.LVL219:
 683:../../Middlewares/Third_Party/LwIP/src/apps/mqtt/mqtt.c ****   LWIP_ASSERT("fixed_hdr_idx <= client->msg_idx", fixed_hdr_idx <= client->msg_idx);
 1976              		.loc 1 683 3 discriminator 1 view .LVU531
 1977 0094 8548     		ldr	r0, .L193+8
 1978              	.LVL220:
 683:../../Middlewares/Third_Party/LwIP/src/apps/mqtt/mqtt.c ****   LWIP_ASSERT("fixed_hdr_idx <= client->msg_idx", fixed_hdr_idx <= client->msg_idx);
 1979              		.loc 1 683 3 discriminator 1 view .LVU532
 1980 0096 FFF7FEFF 		bl	printf
 1981              	.LVL221:
 1982 009a C5E7     		b	.L147
 1983              	.L186:
 684:../../Middlewares/Third_Party/LwIP/src/apps/mqtt/mqtt.c ****   LWIP_ERROR("buffer length mismatch", fixed_hdr_idx + length <= MQTT_VAR_HEADER_BUFFER_LEN,
 1984              		.loc 1 684 3 is_stmt 1 discriminator 1 view .LVU533
 684:../../Middlewares/Third_Party/LwIP/src/apps/mqtt/mqtt.c ****   LWIP_ERROR("buffer length mismatch", fixed_hdr_idx + length <= MQTT_VAR_HEADER_BUFFER_LEN,
 1985              		.loc 1 684 3 discriminator 1 view .LVU534
 1986 009c 814B     		ldr	r3, .L193
 1987 009e 4FF42B72 		mov	r2, #684
 1988 00a2 8349     		ldr	r1, .L193+12
 1989 00a4 8148     		ldr	r0, .L193+8
 1990 00a6 FFF7FEFF 		bl	printf
 1991              	.LVL222:
 1992 00aa C0E7     		b	.L148
 1993              	.L187:
 685:../../Middlewares/Third_Party/LwIP/src/apps/mqtt/mqtt.c ****              return MQTT_CONNECT_DISCONNECTED);
 1994              		.loc 1 685 3 discriminator 1 view .LVU535
 685:../../Middlewares/Third_Party/LwIP/src/apps/mqtt/mqtt.c ****              return MQTT_CONNECT_DISCONNECTED);
 1995              		.loc 1 685 3 discriminator 1 view .LVU536
 1996 00ac 7D4B     		ldr	r3, .L193
 1997 00ae 40F2AD22 		movw	r2, #685
 1998 00b2 8049     		ldr	r1, .L193+16
 1999 00b4 7D48     		ldr	r0, .L193+8
 2000 00b6 FFF7FEFF 		bl	printf
 2001              	.LVL223:
 685:../../Middlewares/Third_Party/LwIP/src/apps/mqtt/mqtt.c ****              return MQTT_CONNECT_DISCONNECTED);
 2002              		.loc 1 685 3 discriminator 1 view .LVU537
 685:../../Middlewares/Third_Party/LwIP/src/apps/mqtt/mqtt.c ****              return MQTT_CONNECT_DISCONNECTED);
 2003              		.loc 1 685 3 discriminator 1 view .LVU538
 2004 00ba 4FF48075 		mov	r5, #256
 2005              	.LVL224:
 685:../../Middlewares/Third_Party/LwIP/src/apps/mqtt/mqtt.c ****              return MQTT_CONNECT_DISCONNECTED);
ARM GAS  C:\Users\minis\AppData\Local\Temp\ccG6JyYg.s 			page 62


 2006              		.loc 1 685 3 is_stmt 0 view .LVU539
 2007 00be 03E0     		b	.L150
 2008              	.L188:
 689:../../Middlewares/Third_Party/LwIP/src/apps/mqtt/mqtt.c ****       if (length < 2) {
 2009              		.loc 1 689 5 is_stmt 1 view .LVU540
 689:../../Middlewares/Third_Party/LwIP/src/apps/mqtt/mqtt.c ****       if (length < 2) {
 2010              		.loc 1 689 15 is_stmt 0 view .LVU541
 2011 00c0 A37A     		ldrb	r3, [r4, #10]	@ zero_extendqisi2
 689:../../Middlewares/Third_Party/LwIP/src/apps/mqtt/mqtt.c ****       if (length < 2) {
 2012              		.loc 1 689 8 view .LVU542
 2013 00c2 022B     		cmp	r3, #2
 2014 00c4 04D0     		beq	.L190
 674:../../Middlewares/Third_Party/LwIP/src/apps/mqtt/mqtt.c **** 
 2015              		.loc 1 674 28 view .LVU543
 2016 00c6 0025     		movs	r5, #0
 2017              	.LVL225:
 2018              	.L150:
 829:../../Middlewares/Third_Party/LwIP/src/apps/mqtt/mqtt.c **** 
 2019              		.loc 1 829 1 view .LVU544
 2020 00c8 2846     		mov	r0, r5
 2021 00ca 03B0     		add	sp, sp, #12
 2022              	.LCFI23:
 2023              		.cfi_remember_state
 2024              		.cfi_def_cfa_offset 36
 2025              		@ sp needed
 2026 00cc BDE8F08F 		pop	{r4, r5, r6, r7, r8, r9, r10, fp, pc}
 2027              	.LVL226:
 2028              	.L190:
 2029              	.LCFI24:
 2030              		.cfi_restore_state
 690:../../Middlewares/Third_Party/LwIP/src/apps/mqtt/mqtt.c ****         LWIP_DEBUGF(MQTT_DEBUG_WARN,( "mqtt_message_received: Received short CONNACK message\n"));
 2031              		.loc 1 690 7 is_stmt 1 view .LVU545
 690:../../Middlewares/Third_Party/LwIP/src/apps/mqtt/mqtt.c ****         LWIP_DEBUGF(MQTT_DEBUG_WARN,( "mqtt_message_received: Received short CONNACK message\n"));
 2032              		.loc 1 690 10 is_stmt 0 view .LVU546
 2033 00d0 012D     		cmp	r5, #1
 2034 00d2 40F2BD80 		bls	.L165
 695:../../Middlewares/Third_Party/LwIP/src/apps/mqtt/mqtt.c ****       LWIP_DEBUGF(MQTT_DEBUG_TRACE, ("mqtt_message_received: Connect response code %d\n", res));
 2035              		.loc 1 695 7 is_stmt 1 view .LVU547
 695:../../Middlewares/Third_Party/LwIP/src/apps/mqtt/mqtt.c ****       LWIP_DEBUGF(MQTT_DEBUG_TRACE, ("mqtt_message_received: Connect response code %d\n", res));
 2036              		.loc 1 695 54 is_stmt 0 view .LVU548
 2037 00d6 7D78     		ldrb	r5, [r7, #1]	@ zero_extendqisi2
 2038              	.LVL227:
 696:../../Middlewares/Third_Party/LwIP/src/apps/mqtt/mqtt.c ****       if (res == MQTT_CONNECT_ACCEPTED) {
 2039              		.loc 1 696 96 is_stmt 1 view .LVU549
 697:../../Middlewares/Third_Party/LwIP/src/apps/mqtt/mqtt.c ****         /* Reset cyclic_tick when changing to connected state */
 2040              		.loc 1 697 7 view .LVU550
 697:../../Middlewares/Third_Party/LwIP/src/apps/mqtt/mqtt.c ****         /* Reset cyclic_tick when changing to connected state */
 2041              		.loc 1 697 10 is_stmt 0 view .LVU551
 2042 00d8 002D     		cmp	r5, #0
 2043 00da F5D1     		bne	.L150
 699:../../Middlewares/Third_Party/LwIP/src/apps/mqtt/mqtt.c ****         client->conn_state = MQTT_CONNECTED;
 2044              		.loc 1 699 9 is_stmt 1 view .LVU552
 699:../../Middlewares/Third_Party/LwIP/src/apps/mqtt/mqtt.c ****         client->conn_state = MQTT_CONNECTED;
 2045              		.loc 1 699 29 is_stmt 0 view .LVU553
 2046 00dc 0023     		movs	r3, #0
 2047 00de 2380     		strh	r3, [r4]	@ movhi
 700:../../Middlewares/Third_Party/LwIP/src/apps/mqtt/mqtt.c ****         /* Notify upper layer */
ARM GAS  C:\Users\minis\AppData\Local\Temp\ccG6JyYg.s 			page 63


 2048              		.loc 1 700 9 is_stmt 1 view .LVU554
 700:../../Middlewares/Third_Party/LwIP/src/apps/mqtt/mqtt.c ****         /* Notify upper layer */
 2049              		.loc 1 700 28 is_stmt 0 view .LVU555
 2050 00e0 0323     		movs	r3, #3
 2051 00e2 A372     		strb	r3, [r4, #10]
 702:../../Middlewares/Third_Party/LwIP/src/apps/mqtt/mqtt.c ****           client->connect_cb(client, client->connect_arg, res);
 2052              		.loc 1 702 9 is_stmt 1 view .LVU556
 702:../../Middlewares/Third_Party/LwIP/src/apps/mqtt/mqtt.c ****           client->connect_cb(client, client->connect_arg, res);
 2053              		.loc 1 702 19 is_stmt 0 view .LVU557
 2054 00e4 6369     		ldr	r3, [r4, #20]
 702:../../Middlewares/Third_Party/LwIP/src/apps/mqtt/mqtt.c ****           client->connect_cb(client, client->connect_arg, res);
 2055              		.loc 1 702 12 view .LVU558
 2056 00e6 002B     		cmp	r3, #0
 2057 00e8 EED0     		beq	.L150
 703:../../Middlewares/Third_Party/LwIP/src/apps/mqtt/mqtt.c ****         }
 2058              		.loc 1 703 11 is_stmt 1 view .LVU559
 2059 00ea 2A46     		mov	r2, r5
 2060 00ec 2169     		ldr	r1, [r4, #16]
 2061 00ee 2046     		mov	r0, r4
 2062 00f0 9847     		blx	r3
 2063              	.LVL228:
 2064 00f2 E9E7     		b	.L150
 2065              	.LVL229:
 2066              	.L189:
 2067              	.LBB3:
 713:../../Middlewares/Third_Party/LwIP/src/apps/mqtt/mqtt.c ****     u16_t payload_length = length;
 2068              		.loc 1 713 5 view .LVU560
 714:../../Middlewares/Third_Party/LwIP/src/apps/mqtt/mqtt.c ****     u8_t qos = MQTT_CTL_PACKET_QOS(client->rx_buffer[0]);
 2069              		.loc 1 714 5 view .LVU561
 715:../../Middlewares/Third_Party/LwIP/src/apps/mqtt/mqtt.c **** 
 2070              		.loc 1 715 5 view .LVU562
 715:../../Middlewares/Third_Party/LwIP/src/apps/mqtt/mqtt.c **** 
 2071              		.loc 1 715 16 is_stmt 0 view .LVU563
 2072 00f4 94F86C80 		ldrb	r8, [r4, #108]	@ zero_extendqisi2
 2073              	.LVL230:
 715:../../Middlewares/Third_Party/LwIP/src/apps/mqtt/mqtt.c **** 
 2074              		.loc 1 715 10 view .LVU564
 2075 00f8 C8F34108 		ubfx	r8, r8, #1, #2
 2076              	.LVL231:
 717:../../Middlewares/Third_Party/LwIP/src/apps/mqtt/mqtt.c ****       /* Should have topic and pkt id*/
 2077              		.loc 1 717 5 is_stmt 1 view .LVU565
 717:../../Middlewares/Third_Party/LwIP/src/apps/mqtt/mqtt.c ****       /* Should have topic and pkt id*/
 2078              		.loc 1 717 15 is_stmt 0 view .LVU566
 2079 00fc A36E     		ldr	r3, [r4, #104]
 717:../../Middlewares/Third_Party/LwIP/src/apps/mqtt/mqtt.c ****       /* Should have topic and pkt id*/
 2080              		.loc 1 717 8 view .LVU567
 2081 00fe 802B     		cmp	r3, #128
 2082 0100 57D8     		bhi	.L167
 2083              	.LBB4:
 719:../../Middlewares/Third_Party/LwIP/src/apps/mqtt/mqtt.c ****       u16_t after_topic;
 2084              		.loc 1 719 7 is_stmt 1 view .LVU568
 720:../../Middlewares/Third_Party/LwIP/src/apps/mqtt/mqtt.c ****       u8_t bkp;
 2085              		.loc 1 720 7 view .LVU569
 721:../../Middlewares/Third_Party/LwIP/src/apps/mqtt/mqtt.c ****       u16_t topic_len;
 2086              		.loc 1 721 7 view .LVU570
 722:../../Middlewares/Third_Party/LwIP/src/apps/mqtt/mqtt.c ****       u16_t qos_len = (qos ? 2U : 0U);
 2087              		.loc 1 722 7 view .LVU571
ARM GAS  C:\Users\minis\AppData\Local\Temp\ccG6JyYg.s 			page 64


 723:../../Middlewares/Third_Party/LwIP/src/apps/mqtt/mqtt.c ****       if (length < 2 + qos_len) {
 2088              		.loc 1 723 7 view .LVU572
 723:../../Middlewares/Third_Party/LwIP/src/apps/mqtt/mqtt.c ****       if (length < 2 + qos_len) {
 2089              		.loc 1 723 13 is_stmt 0 view .LVU573
 2090 0102 B8F1000F 		cmp	r8, #0
 2091 0106 38D0     		beq	.L168
 723:../../Middlewares/Third_Party/LwIP/src/apps/mqtt/mqtt.c ****       if (length < 2 + qos_len) {
 2092              		.loc 1 723 13 discriminator 1 view .LVU574
 2093 0108 0223     		movs	r3, #2
 2094              	.L154:
 2095              	.LVL232:
 724:../../Middlewares/Third_Party/LwIP/src/apps/mqtt/mqtt.c ****         LWIP_DEBUGF(MQTT_DEBUG_WARN,( "mqtt_message_received: Received short PUBLISH packet\n"));
 2096              		.loc 1 724 7 is_stmt 1 view .LVU575
 724:../../Middlewares/Third_Party/LwIP/src/apps/mqtt/mqtt.c ****         LWIP_DEBUGF(MQTT_DEBUG_WARN,( "mqtt_message_received: Received short PUBLISH packet\n"));
 2097              		.loc 1 724 18 is_stmt 0 view .LVU576
 2098 010a 5A1C     		adds	r2, r3, #1
 724:../../Middlewares/Third_Party/LwIP/src/apps/mqtt/mqtt.c ****         LWIP_DEBUGF(MQTT_DEBUG_WARN,( "mqtt_message_received: Received short PUBLISH packet\n"));
 2099              		.loc 1 724 10 view .LVU577
 2100 010c 9542     		cmp	r5, r2
 2101 010e 40F3A480 		ble	.L169
 728:../../Middlewares/Third_Party/LwIP/src/apps/mqtt/mqtt.c ****       topic_len = (topic_len << 8) + (u16_t)(var_hdr_payload[1]);
 2102              		.loc 1 728 7 is_stmt 1 view .LVU578
 728:../../Middlewares/Third_Party/LwIP/src/apps/mqtt/mqtt.c ****       topic_len = (topic_len << 8) + (u16_t)(var_hdr_payload[1]);
 2103              		.loc 1 728 34 is_stmt 0 view .LVU579
 2104 0112 1BF80920 		ldrb	r2, [fp, r9]	@ zero_extendqisi2
 2105              	.LVL233:
 729:../../Middlewares/Third_Party/LwIP/src/apps/mqtt/mqtt.c ****       if ((topic_len > length - (2 + qos_len)) ||
 2106              		.loc 1 729 7 is_stmt 1 view .LVU580
 729:../../Middlewares/Third_Party/LwIP/src/apps/mqtt/mqtt.c ****       if ((topic_len > length - (2 + qos_len)) ||
 2107              		.loc 1 729 61 is_stmt 0 view .LVU581
 2108 0116 97F801B0 		ldrb	fp, [r7, #1]	@ zero_extendqisi2
 729:../../Middlewares/Third_Party/LwIP/src/apps/mqtt/mqtt.c ****       if ((topic_len > length - (2 + qos_len)) ||
 2109              		.loc 1 729 17 view .LVU582
 2110 011a 0BEB022B 		add	fp, fp, r2, lsl #8
 2111 011e 1FFA8BFB 		uxth	fp, fp
 2112              	.LVL234:
 730:../../Middlewares/Third_Party/LwIP/src/apps/mqtt/mqtt.c ****           (topic_len > var_hdr_payload_bufsize - (2 + qos_len))) {
 2113              		.loc 1 730 7 is_stmt 1 view .LVU583
 730:../../Middlewares/Third_Party/LwIP/src/apps/mqtt/mqtt.c ****           (topic_len > var_hdr_payload_bufsize - (2 + qos_len))) {
 2114              		.loc 1 730 36 is_stmt 0 view .LVU584
 2115 0122 9A1C     		adds	r2, r3, #2
 730:../../Middlewares/Third_Party/LwIP/src/apps/mqtt/mqtt.c ****           (topic_len > var_hdr_payload_bufsize - (2 + qos_len))) {
 2116              		.loc 1 730 31 view .LVU585
 2117 0124 AA1A     		subs	r2, r5, r2
 730:../../Middlewares/Third_Party/LwIP/src/apps/mqtt/mqtt.c ****           (topic_len > var_hdr_payload_bufsize - (2 + qos_len))) {
 2118              		.loc 1 730 10 view .LVU586
 2119 0126 9345     		cmp	fp, r2
 2120 0128 00F39A80 		bgt	.L170
 731:../../Middlewares/Third_Party/LwIP/src/apps/mqtt/mqtt.c ****         LWIP_DEBUGF(MQTT_DEBUG_WARN,( "mqtt_message_received: Received short PUBLISH packet (topic)
 2121              		.loc 1 731 48 view .LVU587
 2122 012c AAEB0303 		sub	r3, r10, r3
 2123              	.LVL235:
 731:../../Middlewares/Third_Party/LwIP/src/apps/mqtt/mqtt.c ****         LWIP_DEBUGF(MQTT_DEBUG_WARN,( "mqtt_message_received: Received short PUBLISH packet (topic)
 2124              		.loc 1 731 48 view .LVU588
 2125 0130 023B     		subs	r3, r3, #2
 730:../../Middlewares/Third_Party/LwIP/src/apps/mqtt/mqtt.c ****           (topic_len > var_hdr_payload_bufsize - (2 + qos_len))) {
 2126              		.loc 1 730 48 discriminator 1 view .LVU589
ARM GAS  C:\Users\minis\AppData\Local\Temp\ccG6JyYg.s 			page 65


 2127 0132 9B45     		cmp	fp, r3
 2128 0134 00F29780 		bhi	.L171
 736:../../Middlewares/Third_Party/LwIP/src/apps/mqtt/mqtt.c ****       after_topic = 2 + topic_len;
 2129              		.loc 1 736 7 is_stmt 1 view .LVU590
 736:../../Middlewares/Third_Party/LwIP/src/apps/mqtt/mqtt.c ****       after_topic = 2 + topic_len;
 2130              		.loc 1 736 13 is_stmt 0 view .LVU591
 2131 0138 BB1C     		adds	r3, r7, #2
 2132 013a 0093     		str	r3, [sp]
 2133              	.LVL236:
 737:../../Middlewares/Third_Party/LwIP/src/apps/mqtt/mqtt.c ****       /* Check buffer length, add one byte even for QoS 0 so that zero termination will fit */
 2134              		.loc 1 737 7 is_stmt 1 view .LVU592
 737:../../Middlewares/Third_Party/LwIP/src/apps/mqtt/mqtt.c ****       /* Check buffer length, add one byte even for QoS 0 so that zero termination will fit */
 2135              		.loc 1 737 19 is_stmt 0 view .LVU593
 2136 013c 0BF10209 		add	r9, fp, #2
 2137 0140 1FFA89F9 		uxth	r9, r9
 2138              	.LVL237:
 739:../../Middlewares/Third_Party/LwIP/src/apps/mqtt/mqtt.c ****         LWIP_DEBUGF(MQTT_DEBUG_WARN, ("mqtt_message_received: Receive buffer can not fit topic + pk
 2139              		.loc 1 739 7 is_stmt 1 view .LVU594
 739:../../Middlewares/Third_Party/LwIP/src/apps/mqtt/mqtt.c ****         LWIP_DEBUGF(MQTT_DEBUG_WARN, ("mqtt_message_received: Receive buffer can not fit topic + pk
 2140              		.loc 1 739 24 is_stmt 0 view .LVU595
 2141 0144 4A46     		mov	r2, r9
 739:../../Middlewares/Third_Party/LwIP/src/apps/mqtt/mqtt.c ****         LWIP_DEBUGF(MQTT_DEBUG_WARN, ("mqtt_message_received: Receive buffer can not fit topic + pk
 2142              		.loc 1 739 36 view .LVU596
 2143 0146 B8F1000F 		cmp	r8, #0
 2144 014a 18D0     		beq	.L172
 739:../../Middlewares/Third_Party/LwIP/src/apps/mqtt/mqtt.c ****         LWIP_DEBUGF(MQTT_DEBUG_WARN, ("mqtt_message_received: Receive buffer can not fit topic + pk
 2145              		.loc 1 739 36 discriminator 1 view .LVU597
 2146 014c 0223     		movs	r3, #2
 2147              	.LVL238:
 2148              	.L155:
 739:../../Middlewares/Third_Party/LwIP/src/apps/mqtt/mqtt.c ****         LWIP_DEBUGF(MQTT_DEBUG_WARN, ("mqtt_message_received: Receive buffer can not fit topic + pk
 2149              		.loc 1 739 24 discriminator 4 view .LVU598
 2150 014e 1344     		add	r3, r3, r2
 739:../../Middlewares/Third_Party/LwIP/src/apps/mqtt/mqtt.c ****         LWIP_DEBUGF(MQTT_DEBUG_WARN, ("mqtt_message_received: Receive buffer can not fit topic + pk
 2151              		.loc 1 739 10 discriminator 4 view .LVU599
 2152 0150 5345     		cmp	r3, r10
 2153 0152 00F28B80 		bhi	.L173
 745:../../Middlewares/Third_Party/LwIP/src/apps/mqtt/mqtt.c ****         if (length < after_topic + 2U) {
 2154              		.loc 1 745 7 is_stmt 1 view .LVU600
 745:../../Middlewares/Third_Party/LwIP/src/apps/mqtt/mqtt.c ****         if (length < after_topic + 2U) {
 2155              		.loc 1 745 10 is_stmt 0 view .LVU601
 2156 0156 B8F1000F 		cmp	r8, #0
 2157 015a 12D0     		beq	.L156
 746:../../Middlewares/Third_Party/LwIP/src/apps/mqtt/mqtt.c ****           LWIP_DEBUGF(MQTT_DEBUG_WARN,( "mqtt_message_received: Received short PUBLISH packet (afte
 2158              		.loc 1 746 9 is_stmt 1 view .LVU602
 746:../../Middlewares/Third_Party/LwIP/src/apps/mqtt/mqtt.c ****           LWIP_DEBUGF(MQTT_DEBUG_WARN,( "mqtt_message_received: Received short PUBLISH packet (afte
 2159              		.loc 1 746 34 is_stmt 0 view .LVU603
 2160 015c 931C     		adds	r3, r2, #2
 746:../../Middlewares/Third_Party/LwIP/src/apps/mqtt/mqtt.c ****           LWIP_DEBUGF(MQTT_DEBUG_WARN,( "mqtt_message_received: Received short PUBLISH packet (afte
 2161              		.loc 1 746 12 view .LVU604
 2162 015e 9D42     		cmp	r5, r3
 2163 0160 C0F08780 		bcc	.L174
 750:../../Middlewares/Third_Party/LwIP/src/apps/mqtt/mqtt.c ****         after_topic += 2;
 2164              		.loc 1 750 9 is_stmt 1 view .LVU605
 750:../../Middlewares/Third_Party/LwIP/src/apps/mqtt/mqtt.c ****         after_topic += 2;
 2165              		.loc 1 750 55 is_stmt 0 view .LVU606
 2166 0164 B95C     		ldrb	r1, [r7, r2]	@ zero_extendqisi2
ARM GAS  C:\Users\minis\AppData\Local\Temp\ccG6JyYg.s 			page 66


 750:../../Middlewares/Third_Party/LwIP/src/apps/mqtt/mqtt.c ****         after_topic += 2;
 2167              		.loc 1 750 99 view .LVU607
 2168 0166 3A44     		add	r2, r2, r7
 2169 0168 5378     		ldrb	r3, [r2, #1]	@ zero_extendqisi2
 750:../../Middlewares/Third_Party/LwIP/src/apps/mqtt/mqtt.c ****         after_topic += 2;
 2170              		.loc 1 750 75 view .LVU608
 2171 016a 03EB0123 		add	r3, r3, r1, lsl #8
 750:../../Middlewares/Third_Party/LwIP/src/apps/mqtt/mqtt.c ****         after_topic += 2;
 2172              		.loc 1 750 30 view .LVU609
 2173 016e 2381     		strh	r3, [r4, #8]	@ movhi
 751:../../Middlewares/Third_Party/LwIP/src/apps/mqtt/mqtt.c ****       } else {
 2174              		.loc 1 751 9 is_stmt 1 view .LVU610
 751:../../Middlewares/Third_Party/LwIP/src/apps/mqtt/mqtt.c ****       } else {
 2175              		.loc 1 751 21 is_stmt 0 view .LVU611
 2176 0170 0BF10409 		add	r9, fp, #4
 2177              	.LVL239:
 751:../../Middlewares/Third_Party/LwIP/src/apps/mqtt/mqtt.c ****       } else {
 2178              		.loc 1 751 21 view .LVU612
 2179 0174 1FFA89F9 		uxth	r9, r9
 2180              	.LVL240:
 751:../../Middlewares/Third_Party/LwIP/src/apps/mqtt/mqtt.c ****       } else {
 2181              		.loc 1 751 21 view .LVU613
 2182 0178 05E0     		b	.L157
 2183              	.LVL241:
 2184              	.L168:
 723:../../Middlewares/Third_Party/LwIP/src/apps/mqtt/mqtt.c ****       if (length < 2 + qos_len) {
 2185              		.loc 1 723 13 discriminator 2 view .LVU614
 2186 017a 0023     		movs	r3, #0
 2187 017c C5E7     		b	.L154
 2188              	.LVL242:
 2189              	.L172:
 739:../../Middlewares/Third_Party/LwIP/src/apps/mqtt/mqtt.c ****         LWIP_DEBUGF(MQTT_DEBUG_WARN, ("mqtt_message_received: Receive buffer can not fit topic + pk
 2190              		.loc 1 739 36 discriminator 2 view .LVU615
 2191 017e 0123     		movs	r3, #1
 2192              	.LVL243:
 739:../../Middlewares/Third_Party/LwIP/src/apps/mqtt/mqtt.c ****         LWIP_DEBUGF(MQTT_DEBUG_WARN, ("mqtt_message_received: Receive buffer can not fit topic + pk
 2193              		.loc 1 739 36 discriminator 2 view .LVU616
 2194 0180 E5E7     		b	.L155
 2195              	.L156:
 753:../../Middlewares/Third_Party/LwIP/src/apps/mqtt/mqtt.c ****       }
 2196              		.loc 1 753 9 is_stmt 1 view .LVU617
 753:../../Middlewares/Third_Party/LwIP/src/apps/mqtt/mqtt.c ****       }
 2197              		.loc 1 753 30 is_stmt 0 view .LVU618
 2198 0182 0023     		movs	r3, #0
 2199 0184 2381     		strh	r3, [r4, #8]	@ movhi
 2200              	.L157:
 756:../../Middlewares/Third_Party/LwIP/src/apps/mqtt/mqtt.c ****       /* Zero terminate string */
 2201              		.loc 1 756 7 is_stmt 1 view .LVU619
 756:../../Middlewares/Third_Party/LwIP/src/apps/mqtt/mqtt.c ****       /* Zero terminate string */
 2202              		.loc 1 756 11 is_stmt 0 view .LVU620
 2203 0186 0099     		ldr	r1, [sp]
 2204 0188 11F80B30 		ldrb	r3, [r1, fp]	@ zero_extendqisi2
 2205 018c 0193     		str	r3, [sp, #4]
 2206              	.LVL244:
 758:../../Middlewares/Third_Party/LwIP/src/apps/mqtt/mqtt.c ****       /* Payload data remaining in receive buffer */
 2207              		.loc 1 758 7 is_stmt 1 view .LVU621
 758:../../Middlewares/Third_Party/LwIP/src/apps/mqtt/mqtt.c ****       /* Payload data remaining in receive buffer */
ARM GAS  C:\Users\minis\AppData\Local\Temp\ccG6JyYg.s 			page 67


 2208              		.loc 1 758 24 is_stmt 0 view .LVU622
 2209 018e 0023     		movs	r3, #0
 2210 0190 01F80B30 		strb	r3, [r1, fp]
 760:../../Middlewares/Third_Party/LwIP/src/apps/mqtt/mqtt.c ****       payload_offset = after_topic;
 2211              		.loc 1 760 7 is_stmt 1 view .LVU623
 760:../../Middlewares/Third_Party/LwIP/src/apps/mqtt/mqtt.c ****       payload_offset = after_topic;
 2212              		.loc 1 760 22 is_stmt 0 view .LVU624
 2213 0194 A5EB090A 		sub	r10, r5, r9
 2214              	.LVL245:
 760:../../Middlewares/Third_Party/LwIP/src/apps/mqtt/mqtt.c ****       payload_offset = after_topic;
 2215              		.loc 1 760 22 view .LVU625
 2216 0198 1FFA8AFA 		uxth	r10, r10
 2217              	.LVL246:
 761:../../Middlewares/Third_Party/LwIP/src/apps/mqtt/mqtt.c **** 
 2218              		.loc 1 761 7 is_stmt 1 view .LVU626
 764:../../Middlewares/Third_Party/LwIP/src/apps/mqtt/mqtt.c ****       if (client->pub_cb != NULL) {
 2219              		.loc 1 764 85 view .LVU627
 765:../../Middlewares/Third_Party/LwIP/src/apps/mqtt/mqtt.c ****         client->pub_cb(client->inpub_arg, (const char *)topic, remaining_length + payload_length);
 2220              		.loc 1 765 7 view .LVU628
 765:../../Middlewares/Third_Party/LwIP/src/apps/mqtt/mqtt.c ****         client->pub_cb(client->inpub_arg, (const char *)topic, remaining_length + payload_length);
 2221              		.loc 1 765 17 is_stmt 0 view .LVU629
 2222 019c 636E     		ldr	r3, [r4, #100]
 765:../../Middlewares/Third_Party/LwIP/src/apps/mqtt/mqtt.c ****         client->pub_cb(client->inpub_arg, (const char *)topic, remaining_length + payload_length);
 2223              		.loc 1 765 10 view .LVU630
 2224 019e 1BB1     		cbz	r3, .L158
 766:../../Middlewares/Third_Party/LwIP/src/apps/mqtt/mqtt.c ****       }
 2225              		.loc 1 766 9 is_stmt 1 view .LVU631
 2226 01a0 0AEB0602 		add	r2, r10, r6
 2227 01a4 E06D     		ldr	r0, [r4, #92]
 2228 01a6 9847     		blx	r3
 2229              	.LVL247:
 2230              	.L158:
 769:../../Middlewares/Third_Party/LwIP/src/apps/mqtt/mqtt.c ****     }
 2231              		.loc 1 769 7 view .LVU632
 769:../../Middlewares/Third_Party/LwIP/src/apps/mqtt/mqtt.c ****     }
