ARM GAS  C:\Users\minis\AppData\Local\Temp\ccG6JyYg.s 			page 1


   1              		.cpu cortex-m7
   2              		.arch armv7e-m
   3              		.fpu fpv5-d16
   4              		.eabi_attribute 20, 1
   5              		.eabi_attribute 21, 1
   6              		.eabi_attribute 23, 3
   7              		.eabi_attribute 24, 1
   8              		.eabi_attribute 25, 1
   9              		.eabi_attribute 26, 1
  10              		.eabi_attribute 30, 1
  11              		.eabi_attribute 34, 1
  12              		.eabi_attribute 18, 4
  13              		.file	"mqtt.c"
  14              		.text
  15              	.Ltext0:
  16              		.cfi_sections	.debug_frame
  17              		.file 1 "../../Middlewares/Third_Party/LwIP/src/apps/mqtt/mqtt.c"
  18              		.section	.text.msg_generate_packet_id,"ax",%progbits
  19              		.align	1
  20              		.syntax unified
  21              		.thumb
  22              		.thumb_func
  24              	msg_generate_packet_id:
  25              	.LVL0:
  26              	.LFB174:
   1:../../Middlewares/Third_Party/LwIP/src/apps/mqtt/mqtt.c **** /**
   2:../../Middlewares/Third_Party/LwIP/src/apps/mqtt/mqtt.c ****  * @file
   3:../../Middlewares/Third_Party/LwIP/src/apps/mqtt/mqtt.c ****  * MQTT client
   4:../../Middlewares/Third_Party/LwIP/src/apps/mqtt/mqtt.c ****  *
   5:../../Middlewares/Third_Party/LwIP/src/apps/mqtt/mqtt.c ****  * @defgroup mqtt MQTT client
   6:../../Middlewares/Third_Party/LwIP/src/apps/mqtt/mqtt.c ****  * @ingroup apps
   7:../../Middlewares/Third_Party/LwIP/src/apps/mqtt/mqtt.c ****  * @verbinclude mqtt_client.txt
   8:../../Middlewares/Third_Party/LwIP/src/apps/mqtt/mqtt.c ****  */
   9:../../Middlewares/Third_Party/LwIP/src/apps/mqtt/mqtt.c **** 
  10:../../Middlewares/Third_Party/LwIP/src/apps/mqtt/mqtt.c **** /*
  11:../../Middlewares/Third_Party/LwIP/src/apps/mqtt/mqtt.c ****  * Copyright (c) 2016 Erik Andersson <erian747@gmail.com>
  12:../../Middlewares/Third_Party/LwIP/src/apps/mqtt/mqtt.c ****  * All rights reserved.
  13:../../Middlewares/Third_Party/LwIP/src/apps/mqtt/mqtt.c ****  *
  14:../../Middlewares/Third_Party/LwIP/src/apps/mqtt/mqtt.c ****  * Redistribution and use in source and binary forms, with or without modification,
  15:../../Middlewares/Third_Party/LwIP/src/apps/mqtt/mqtt.c ****  * are permitted provided that the following conditions are met:
  16:../../Middlewares/Third_Party/LwIP/src/apps/mqtt/mqtt.c ****  *
  17:../../Middlewares/Third_Party/LwIP/src/apps/mqtt/mqtt.c ****  * 1. Redistributions of source code must retain the above copyright notice,
  18:../../Middlewares/Third_Party/LwIP/src/apps/mqtt/mqtt.c ****  *    this list of conditions and the following disclaimer.
  19:../../Middlewares/Third_Party/LwIP/src/apps/mqtt/mqtt.c ****  * 2. Redistributions in binary form must reproduce the above copyright notice,
  20:../../Middlewares/Third_Party/LwIP/src/apps/mqtt/mqtt.c ****  *    this list of conditions and the following disclaimer in the documentation
  21:../../Middlewares/Third_Party/LwIP/src/apps/mqtt/mqtt.c ****  *    and/or other materials provided with the distribution.
  22:../../Middlewares/Third_Party/LwIP/src/apps/mqtt/mqtt.c ****  * 3. The name of the author may not be used to endorse or promote products
  23:../../Middlewares/Third_Party/LwIP/src/apps/mqtt/mqtt.c ****  *    derived from this software without specific prior written permission.
  24:../../Middlewares/Third_Party/LwIP/src/apps/mqtt/mqtt.c ****  *
  25:../../Middlewares/Third_Party/LwIP/src/apps/mqtt/mqtt.c ****  * THIS SOFTWARE IS PROVIDED BY THE AUTHOR ``AS IS'' AND ANY EXPRESS OR IMPLIED
  26:../../Middlewares/Third_Party/LwIP/src/apps/mqtt/mqtt.c ****  * WARRANTIES, INCLUDING, BUT NOT LIMITED TO, THE IMPLIED WARRANTIES OF
  27:../../Middlewares/Third_Party/LwIP/src/apps/mqtt/mqtt.c ****  * MERCHANTABILITY AND FITNESS FOR A PARTICULAR PURPOSE ARE DISCLAIMED. IN NO EVENT
  28:../../Middlewares/Third_Party/LwIP/src/apps/mqtt/mqtt.c ****  * SHALL THE AUTHOR BE LIABLE FOR ANY DIRECT, INDIRECT, INCIDENTAL, SPECIAL,
  29:../../Middlewares/Third_Party/LwIP/src/apps/mqtt/mqtt.c ****  * EXEMPLARY, OR CONSEQUENTIAL DAMAGES (INCLUDING, BUT NOT LIMITED TO, PROCUREMENT
  30:../../Middlewares/Third_Party/LwIP/src/apps/mqtt/mqtt.c ****  * OF SUBSTITUTE GOODS OR SERVICES; LOSS OF USE, DATA, OR PROFITS; OR BUSINESS
  31:../../Middlewares/Third_Party/LwIP/src/apps/mqtt/mqtt.c ****  * INTERRUPTION) HOWEVER CAUSED AND ON ANY THEORY OF LIABILITY, WHETHER IN
  32:../../Middlewares/Third_Party/LwIP/src/apps/mqtt/mqtt.c ****  * CONTRACT, STRICT LIABILITY, OR TORT (INCLUDING NEGLIGENCE OR OTHERWISE) ARISING
ARM GAS  C:\Users\minis\AppData\Local\Temp\ccG6JyYg.s 			page 2


  33:../../Middlewares/Third_Party/LwIP/src/apps/mqtt/mqtt.c ****  * IN ANY WAY OUT OF THE USE OF THIS SOFTWARE, EVEN IF ADVISED OF THE POSSIBILITY
  34:../../Middlewares/Third_Party/LwIP/src/apps/mqtt/mqtt.c ****  * OF SUCH DAMAGE.
  35:../../Middlewares/Third_Party/LwIP/src/apps/mqtt/mqtt.c ****  *
  36:../../Middlewares/Third_Party/LwIP/src/apps/mqtt/mqtt.c ****  * This file is part of the lwIP TCP/IP stack
  37:../../Middlewares/Third_Party/LwIP/src/apps/mqtt/mqtt.c ****  *
  38:../../Middlewares/Third_Party/LwIP/src/apps/mqtt/mqtt.c ****  * Author: Erik Andersson <erian747@gmail.com>
  39:../../Middlewares/Third_Party/LwIP/src/apps/mqtt/mqtt.c ****  *
  40:../../Middlewares/Third_Party/LwIP/src/apps/mqtt/mqtt.c ****  *
  41:../../Middlewares/Third_Party/LwIP/src/apps/mqtt/mqtt.c ****  * @todo:
  42:../../Middlewares/Third_Party/LwIP/src/apps/mqtt/mqtt.c ****  * - Handle large outgoing payloads for PUBLISH messages
  43:../../Middlewares/Third_Party/LwIP/src/apps/mqtt/mqtt.c ****  * - Fix restriction of a single topic in each (UN)SUBSCRIBE message (protocol has support for mult
  44:../../Middlewares/Third_Party/LwIP/src/apps/mqtt/mqtt.c ****  * - Add support for legacy MQTT protocol version
  45:../../Middlewares/Third_Party/LwIP/src/apps/mqtt/mqtt.c ****  *
  46:../../Middlewares/Third_Party/LwIP/src/apps/mqtt/mqtt.c ****  * Please coordinate changes and requests with Erik Andersson
  47:../../Middlewares/Third_Party/LwIP/src/apps/mqtt/mqtt.c ****  * Erik Andersson <erian747@gmail.com>
  48:../../Middlewares/Third_Party/LwIP/src/apps/mqtt/mqtt.c ****  *
  49:../../Middlewares/Third_Party/LwIP/src/apps/mqtt/mqtt.c ****  */
  50:../../Middlewares/Third_Party/LwIP/src/apps/mqtt/mqtt.c **** #include "lwip/apps/mqtt.h"
  51:../../Middlewares/Third_Party/LwIP/src/apps/mqtt/mqtt.c **** #include "lwip/apps/mqtt_priv.h"
  52:../../Middlewares/Third_Party/LwIP/src/apps/mqtt/mqtt.c **** #include "lwip/timeouts.h"
  53:../../Middlewares/Third_Party/LwIP/src/apps/mqtt/mqtt.c **** #include "lwip/ip_addr.h"
  54:../../Middlewares/Third_Party/LwIP/src/apps/mqtt/mqtt.c **** #include "lwip/mem.h"
  55:../../Middlewares/Third_Party/LwIP/src/apps/mqtt/mqtt.c **** #include "lwip/err.h"
  56:../../Middlewares/Third_Party/LwIP/src/apps/mqtt/mqtt.c **** #include "lwip/pbuf.h"
  57:../../Middlewares/Third_Party/LwIP/src/apps/mqtt/mqtt.c **** #include "lwip/altcp.h"
  58:../../Middlewares/Third_Party/LwIP/src/apps/mqtt/mqtt.c **** #include "lwip/altcp_tcp.h"
  59:../../Middlewares/Third_Party/LwIP/src/apps/mqtt/mqtt.c **** #include "lwip/altcp_tls.h"
  60:../../Middlewares/Third_Party/LwIP/src/apps/mqtt/mqtt.c **** #include <string.h>
  61:../../Middlewares/Third_Party/LwIP/src/apps/mqtt/mqtt.c **** 
  62:../../Middlewares/Third_Party/LwIP/src/apps/mqtt/mqtt.c **** #if LWIP_TCP && LWIP_CALLBACK_API
  63:../../Middlewares/Third_Party/LwIP/src/apps/mqtt/mqtt.c **** 
  64:../../Middlewares/Third_Party/LwIP/src/apps/mqtt/mqtt.c **** /**
  65:../../Middlewares/Third_Party/LwIP/src/apps/mqtt/mqtt.c ****  * MQTT_DEBUG: Default is off.
  66:../../Middlewares/Third_Party/LwIP/src/apps/mqtt/mqtt.c ****  */
  67:../../Middlewares/Third_Party/LwIP/src/apps/mqtt/mqtt.c **** #if !defined MQTT_DEBUG || defined __DOXYGEN__
  68:../../Middlewares/Third_Party/LwIP/src/apps/mqtt/mqtt.c **** #define MQTT_DEBUG                  LWIP_DBG_OFF
  69:../../Middlewares/Third_Party/LwIP/src/apps/mqtt/mqtt.c **** #endif
  70:../../Middlewares/Third_Party/LwIP/src/apps/mqtt/mqtt.c **** 
  71:../../Middlewares/Third_Party/LwIP/src/apps/mqtt/mqtt.c **** #define MQTT_DEBUG_TRACE        (MQTT_DEBUG | LWIP_DBG_TRACE)
  72:../../Middlewares/Third_Party/LwIP/src/apps/mqtt/mqtt.c **** #define MQTT_DEBUG_STATE        (MQTT_DEBUG | LWIP_DBG_STATE)
  73:../../Middlewares/Third_Party/LwIP/src/apps/mqtt/mqtt.c **** #define MQTT_DEBUG_WARN         (MQTT_DEBUG | LWIP_DBG_LEVEL_WARNING)
  74:../../Middlewares/Third_Party/LwIP/src/apps/mqtt/mqtt.c **** #define MQTT_DEBUG_WARN_STATE   (MQTT_DEBUG | LWIP_DBG_LEVEL_WARNING | LWIP_DBG_STATE)
  75:../../Middlewares/Third_Party/LwIP/src/apps/mqtt/mqtt.c **** #define MQTT_DEBUG_SERIOUS      (MQTT_DEBUG | LWIP_DBG_LEVEL_SERIOUS)
  76:../../Middlewares/Third_Party/LwIP/src/apps/mqtt/mqtt.c **** 
  77:../../Middlewares/Third_Party/LwIP/src/apps/mqtt/mqtt.c **** 
  78:../../Middlewares/Third_Party/LwIP/src/apps/mqtt/mqtt.c **** 
  79:../../Middlewares/Third_Party/LwIP/src/apps/mqtt/mqtt.c **** /**
  80:../../Middlewares/Third_Party/LwIP/src/apps/mqtt/mqtt.c ****  * MQTT client connection states
  81:../../Middlewares/Third_Party/LwIP/src/apps/mqtt/mqtt.c ****  */
  82:../../Middlewares/Third_Party/LwIP/src/apps/mqtt/mqtt.c **** enum {
  83:../../Middlewares/Third_Party/LwIP/src/apps/mqtt/mqtt.c ****   TCP_DISCONNECTED,
  84:../../Middlewares/Third_Party/LwIP/src/apps/mqtt/mqtt.c ****   TCP_CONNECTING,
  85:../../Middlewares/Third_Party/LwIP/src/apps/mqtt/mqtt.c ****   MQTT_CONNECTING,
  86:../../Middlewares/Third_Party/LwIP/src/apps/mqtt/mqtt.c ****   MQTT_CONNECTED
  87:../../Middlewares/Third_Party/LwIP/src/apps/mqtt/mqtt.c **** };
  88:../../Middlewares/Third_Party/LwIP/src/apps/mqtt/mqtt.c **** 
  89:../../Middlewares/Third_Party/LwIP/src/apps/mqtt/mqtt.c **** /**
ARM GAS  C:\Users\minis\AppData\Local\Temp\ccG6JyYg.s 			page 3


  90:../../Middlewares/Third_Party/LwIP/src/apps/mqtt/mqtt.c ****  * MQTT control message types
  91:../../Middlewares/Third_Party/LwIP/src/apps/mqtt/mqtt.c ****  */
  92:../../Middlewares/Third_Party/LwIP/src/apps/mqtt/mqtt.c **** enum mqtt_message_type {
  93:../../Middlewares/Third_Party/LwIP/src/apps/mqtt/mqtt.c ****   MQTT_MSG_TYPE_CONNECT = 1,
  94:../../Middlewares/Third_Party/LwIP/src/apps/mqtt/mqtt.c ****   MQTT_MSG_TYPE_CONNACK = 2,
  95:../../Middlewares/Third_Party/LwIP/src/apps/mqtt/mqtt.c ****   MQTT_MSG_TYPE_PUBLISH = 3,
  96:../../Middlewares/Third_Party/LwIP/src/apps/mqtt/mqtt.c ****   MQTT_MSG_TYPE_PUBACK = 4,
  97:../../Middlewares/Third_Party/LwIP/src/apps/mqtt/mqtt.c ****   MQTT_MSG_TYPE_PUBREC = 5,
  98:../../Middlewares/Third_Party/LwIP/src/apps/mqtt/mqtt.c ****   MQTT_MSG_TYPE_PUBREL = 6,
  99:../../Middlewares/Third_Party/LwIP/src/apps/mqtt/mqtt.c ****   MQTT_MSG_TYPE_PUBCOMP = 7,
 100:../../Middlewares/Third_Party/LwIP/src/apps/mqtt/mqtt.c ****   MQTT_MSG_TYPE_SUBSCRIBE = 8,
 101:../../Middlewares/Third_Party/LwIP/src/apps/mqtt/mqtt.c ****   MQTT_MSG_TYPE_SUBACK = 9,
 102:../../Middlewares/Third_Party/LwIP/src/apps/mqtt/mqtt.c ****   MQTT_MSG_TYPE_UNSUBSCRIBE = 10,
 103:../../Middlewares/Third_Party/LwIP/src/apps/mqtt/mqtt.c ****   MQTT_MSG_TYPE_UNSUBACK = 11,
 104:../../Middlewares/Third_Party/LwIP/src/apps/mqtt/mqtt.c ****   MQTT_MSG_TYPE_PINGREQ = 12,
 105:../../Middlewares/Third_Party/LwIP/src/apps/mqtt/mqtt.c ****   MQTT_MSG_TYPE_PINGRESP = 13,
 106:../../Middlewares/Third_Party/LwIP/src/apps/mqtt/mqtt.c ****   MQTT_MSG_TYPE_DISCONNECT = 14
 107:../../Middlewares/Third_Party/LwIP/src/apps/mqtt/mqtt.c **** };
 108:../../Middlewares/Third_Party/LwIP/src/apps/mqtt/mqtt.c **** 
 109:../../Middlewares/Third_Party/LwIP/src/apps/mqtt/mqtt.c **** /** Helpers to extract control packet type and qos from first byte in fixed header */
 110:../../Middlewares/Third_Party/LwIP/src/apps/mqtt/mqtt.c **** #define MQTT_CTL_PACKET_TYPE(fixed_hdr_byte0) ((fixed_hdr_byte0 & 0xf0) >> 4)
 111:../../Middlewares/Third_Party/LwIP/src/apps/mqtt/mqtt.c **** #define MQTT_CTL_PACKET_QOS(fixed_hdr_byte0) ((fixed_hdr_byte0 & 0x6) >> 1)
 112:../../Middlewares/Third_Party/LwIP/src/apps/mqtt/mqtt.c **** 
 113:../../Middlewares/Third_Party/LwIP/src/apps/mqtt/mqtt.c **** /**
 114:../../Middlewares/Third_Party/LwIP/src/apps/mqtt/mqtt.c ****  * MQTT connect flags, only used in CONNECT message
 115:../../Middlewares/Third_Party/LwIP/src/apps/mqtt/mqtt.c ****  */
 116:../../Middlewares/Third_Party/LwIP/src/apps/mqtt/mqtt.c **** enum mqtt_connect_flag {
 117:../../Middlewares/Third_Party/LwIP/src/apps/mqtt/mqtt.c ****   MQTT_CONNECT_FLAG_USERNAME = 1 << 7,
 118:../../Middlewares/Third_Party/LwIP/src/apps/mqtt/mqtt.c ****   MQTT_CONNECT_FLAG_PASSWORD = 1 << 6,
 119:../../Middlewares/Third_Party/LwIP/src/apps/mqtt/mqtt.c ****   MQTT_CONNECT_FLAG_WILL_RETAIN = 1 << 5,
 120:../../Middlewares/Third_Party/LwIP/src/apps/mqtt/mqtt.c ****   MQTT_CONNECT_FLAG_WILL = 1 << 2,
 121:../../Middlewares/Third_Party/LwIP/src/apps/mqtt/mqtt.c ****   MQTT_CONNECT_FLAG_CLEAN_SESSION = 1 << 1
 122:../../Middlewares/Third_Party/LwIP/src/apps/mqtt/mqtt.c **** };
 123:../../Middlewares/Third_Party/LwIP/src/apps/mqtt/mqtt.c **** 
 124:../../Middlewares/Third_Party/LwIP/src/apps/mqtt/mqtt.c **** 
 125:../../Middlewares/Third_Party/LwIP/src/apps/mqtt/mqtt.c **** static void mqtt_cyclic_timer(void *arg);
 126:../../Middlewares/Third_Party/LwIP/src/apps/mqtt/mqtt.c **** 
 127:../../Middlewares/Third_Party/LwIP/src/apps/mqtt/mqtt.c **** #if defined(LWIP_DEBUG)
 128:../../Middlewares/Third_Party/LwIP/src/apps/mqtt/mqtt.c **** static const char *const mqtt_message_type_str[15] = {
 129:../../Middlewares/Third_Party/LwIP/src/apps/mqtt/mqtt.c ****   "UNDEFINED",
 130:../../Middlewares/Third_Party/LwIP/src/apps/mqtt/mqtt.c ****   "CONNECT",
 131:../../Middlewares/Third_Party/LwIP/src/apps/mqtt/mqtt.c ****   "CONNACK",
 132:../../Middlewares/Third_Party/LwIP/src/apps/mqtt/mqtt.c ****   "PUBLISH",
 133:../../Middlewares/Third_Party/LwIP/src/apps/mqtt/mqtt.c ****   "PUBACK",
 134:../../Middlewares/Third_Party/LwIP/src/apps/mqtt/mqtt.c ****   "PUBREC",
 135:../../Middlewares/Third_Party/LwIP/src/apps/mqtt/mqtt.c ****   "PUBREL",
 136:../../Middlewares/Third_Party/LwIP/src/apps/mqtt/mqtt.c ****   "PUBCOMP",
 137:../../Middlewares/Third_Party/LwIP/src/apps/mqtt/mqtt.c ****   "SUBSCRIBE",
 138:../../Middlewares/Third_Party/LwIP/src/apps/mqtt/mqtt.c ****   "SUBACK",
 139:../../Middlewares/Third_Party/LwIP/src/apps/mqtt/mqtt.c ****   "UNSUBSCRIBE",
 140:../../Middlewares/Third_Party/LwIP/src/apps/mqtt/mqtt.c ****   "UNSUBACK",
 141:../../Middlewares/Third_Party/LwIP/src/apps/mqtt/mqtt.c ****   "PINGREQ",
 142:../../Middlewares/Third_Party/LwIP/src/apps/mqtt/mqtt.c ****   "PINGRESP",
 143:../../Middlewares/Third_Party/LwIP/src/apps/mqtt/mqtt.c ****   "DISCONNECT"
 144:../../Middlewares/Third_Party/LwIP/src/apps/mqtt/mqtt.c **** };
 145:../../Middlewares/Third_Party/LwIP/src/apps/mqtt/mqtt.c **** 
 146:../../Middlewares/Third_Party/LwIP/src/apps/mqtt/mqtt.c **** /**
ARM GAS  C:\Users\minis\AppData\Local\Temp\ccG6JyYg.s 			page 4


 147:../../Middlewares/Third_Party/LwIP/src/apps/mqtt/mqtt.c ****  * Message type value to string
 148:../../Middlewares/Third_Party/LwIP/src/apps/mqtt/mqtt.c ****  * @param msg_type see enum mqtt_message_type
 149:../../Middlewares/Third_Party/LwIP/src/apps/mqtt/mqtt.c ****  *
 150:../../Middlewares/Third_Party/LwIP/src/apps/mqtt/mqtt.c ****  * @return Control message type text string
 151:../../Middlewares/Third_Party/LwIP/src/apps/mqtt/mqtt.c ****  */
 152:../../Middlewares/Third_Party/LwIP/src/apps/mqtt/mqtt.c **** static const char *
 153:../../Middlewares/Third_Party/LwIP/src/apps/mqtt/mqtt.c **** mqtt_msg_type_to_str(u8_t msg_type)
 154:../../Middlewares/Third_Party/LwIP/src/apps/mqtt/mqtt.c **** {
 155:../../Middlewares/Third_Party/LwIP/src/apps/mqtt/mqtt.c ****   if (msg_type >= LWIP_ARRAYSIZE(mqtt_message_type_str)) {
 156:../../Middlewares/Third_Party/LwIP/src/apps/mqtt/mqtt.c ****     msg_type = 0;
 157:../../Middlewares/Third_Party/LwIP/src/apps/mqtt/mqtt.c ****   }
 158:../../Middlewares/Third_Party/LwIP/src/apps/mqtt/mqtt.c ****   return mqtt_message_type_str[msg_type];
 159:../../Middlewares/Third_Party/LwIP/src/apps/mqtt/mqtt.c **** }
 160:../../Middlewares/Third_Party/LwIP/src/apps/mqtt/mqtt.c **** 
 161:../../Middlewares/Third_Party/LwIP/src/apps/mqtt/mqtt.c **** #endif
 162:../../Middlewares/Third_Party/LwIP/src/apps/mqtt/mqtt.c **** 
 163:../../Middlewares/Third_Party/LwIP/src/apps/mqtt/mqtt.c **** 
 164:../../Middlewares/Third_Party/LwIP/src/apps/mqtt/mqtt.c **** /**
 165:../../Middlewares/Third_Party/LwIP/src/apps/mqtt/mqtt.c ****  * Generate MQTT packet identifier
 166:../../Middlewares/Third_Party/LwIP/src/apps/mqtt/mqtt.c ****  * @param client MQTT client
 167:../../Middlewares/Third_Party/LwIP/src/apps/mqtt/mqtt.c ****  * @return New packet identifier, range 1 to 65535
 168:../../Middlewares/Third_Party/LwIP/src/apps/mqtt/mqtt.c ****  */
 169:../../Middlewares/Third_Party/LwIP/src/apps/mqtt/mqtt.c **** static u16_t
 170:../../Middlewares/Third_Party/LwIP/src/apps/mqtt/mqtt.c **** msg_generate_packet_id(mqtt_client_t *client)
 171:../../Middlewares/Third_Party/LwIP/src/apps/mqtt/mqtt.c **** {
  27              		.loc 1 171 1 view -0
  28              		.cfi_startproc
  29              		@ args = 0, pretend = 0, frame = 0
  30              		@ frame_needed = 0, uses_anonymous_args = 0
  31              		@ link register save eliminated.
 172:../../Middlewares/Third_Party/LwIP/src/apps/mqtt/mqtt.c ****   client->pkt_id_seq++;
  32              		.loc 1 172 3 view .LVU1
  33              		.loc 1 172 9 is_stmt 0 view .LVU2
  34 0000 C288     		ldrh	r2, [r0, #6]
  35              		.loc 1 172 21 view .LVU3
  36 0002 531C     		adds	r3, r2, #1
  37 0004 9BB2     		uxth	r3, r3
  38 0006 C380     		strh	r3, [r0, #6]	@ movhi
 173:../../Middlewares/Third_Party/LwIP/src/apps/mqtt/mqtt.c ****   if (client->pkt_id_seq == 0) {
  39              		.loc 1 173 3 is_stmt 1 view .LVU4
  40              		.loc 1 173 6 is_stmt 0 view .LVU5
  41 0008 0BB9     		cbnz	r3, .L2
 174:../../Middlewares/Third_Party/LwIP/src/apps/mqtt/mqtt.c ****     client->pkt_id_seq++;
  42              		.loc 1 174 5 is_stmt 1 view .LVU6
  43              		.loc 1 174 23 is_stmt 0 view .LVU7
  44 000a 0232     		adds	r2, r2, #2
  45 000c C280     		strh	r2, [r0, #6]	@ movhi
  46              	.L2:
 175:../../Middlewares/Third_Party/LwIP/src/apps/mqtt/mqtt.c ****   }
 176:../../Middlewares/Third_Party/LwIP/src/apps/mqtt/mqtt.c ****   return client->pkt_id_seq;
  47              		.loc 1 176 3 is_stmt 1 view .LVU8
 177:../../Middlewares/Third_Party/LwIP/src/apps/mqtt/mqtt.c **** }
  48              		.loc 1 177 1 is_stmt 0 view .LVU9
  49 000e C088     		ldrh	r0, [r0, #6]
  50              	.LVL1:
  51              		.loc 1 177 1 view .LVU10
  52 0010 7047     		bx	lr
ARM GAS  C:\Users\minis\AppData\Local\Temp\ccG6JyYg.s 			page 5


  53              		.cfi_endproc
  54              	.LFE174:
  56              		.section	.text.mqtt_ringbuf_put,"ax",%progbits
  57              		.align	1
  58              		.syntax unified
  59              		.thumb
  60              		.thumb_func
  62              	mqtt_ringbuf_put:
  63              	.LVL2:
  64              	.LFB175:
 178:../../Middlewares/Third_Party/LwIP/src/apps/mqtt/mqtt.c **** 
 179:../../Middlewares/Third_Party/LwIP/src/apps/mqtt/mqtt.c **** /*-------------------------------------------------------------------------------------------------
 180:../../Middlewares/Third_Party/LwIP/src/apps/mqtt/mqtt.c **** /* Output ring buffer */
 181:../../Middlewares/Third_Party/LwIP/src/apps/mqtt/mqtt.c **** 
 182:../../Middlewares/Third_Party/LwIP/src/apps/mqtt/mqtt.c **** /** Add single item to ring buffer */
 183:../../Middlewares/Third_Party/LwIP/src/apps/mqtt/mqtt.c **** static void
 184:../../Middlewares/Third_Party/LwIP/src/apps/mqtt/mqtt.c **** mqtt_ringbuf_put(struct mqtt_ringbuf_t *rb, u8_t item)
 185:../../Middlewares/Third_Party/LwIP/src/apps/mqtt/mqtt.c **** {
  65              		.loc 1 185 1 is_stmt 1 view -0
  66              		.cfi_startproc
  67              		@ args = 0, pretend = 0, frame = 0
  68              		@ frame_needed = 0, uses_anonymous_args = 0
  69              		@ link register save eliminated.
 186:../../Middlewares/Third_Party/LwIP/src/apps/mqtt/mqtt.c ****   rb->buf[rb->put] = item;
  70              		.loc 1 186 3 view .LVU12
  71              		.loc 1 186 13 is_stmt 0 view .LVU13
  72 0000 0388     		ldrh	r3, [r0]
  73              		.loc 1 186 20 view .LVU14
  74 0002 C218     		adds	r2, r0, r3
  75 0004 1171     		strb	r1, [r2, #4]
 187:../../Middlewares/Third_Party/LwIP/src/apps/mqtt/mqtt.c ****   rb->put++;
  76              		.loc 1 187 3 is_stmt 1 view .LVU15
  77              		.loc 1 187 10 is_stmt 0 view .LVU16
  78 0006 0133     		adds	r3, r3, #1
  79 0008 9BB2     		uxth	r3, r3
  80 000a 0380     		strh	r3, [r0]	@ movhi
 188:../../Middlewares/Third_Party/LwIP/src/apps/mqtt/mqtt.c ****   if (rb->put >= MQTT_OUTPUT_RINGBUF_SIZE) {
  81              		.loc 1 188 3 is_stmt 1 view .LVU17
  82              		.loc 1 188 6 is_stmt 0 view .LVU18
  83 000c FF2B     		cmp	r3, #255
  84 000e 01D9     		bls	.L3
 189:../../Middlewares/Third_Party/LwIP/src/apps/mqtt/mqtt.c ****     rb->put = 0;
  85              		.loc 1 189 5 is_stmt 1 view .LVU19
  86              		.loc 1 189 13 is_stmt 0 view .LVU20
  87 0010 0023     		movs	r3, #0
  88 0012 0380     		strh	r3, [r0]	@ movhi
  89              	.L3:
 190:../../Middlewares/Third_Party/LwIP/src/apps/mqtt/mqtt.c ****   }
 191:../../Middlewares/Third_Party/LwIP/src/apps/mqtt/mqtt.c **** }
  90              		.loc 1 191 1 view .LVU21
  91 0014 7047     		bx	lr
  92              		.cfi_endproc
  93              	.LFE175:
  95              		.section	.text.mqtt_ringbuf_get_ptr,"ax",%progbits
  96              		.align	1
  97              		.syntax unified
  98              		.thumb
ARM GAS  C:\Users\minis\AppData\Local\Temp\ccG6JyYg.s 			page 6


  99              		.thumb_func
 101              	mqtt_ringbuf_get_ptr:
 102              	.LVL3:
 103              	.LFB176:
 192:../../Middlewares/Third_Party/LwIP/src/apps/mqtt/mqtt.c **** 
 193:../../Middlewares/Third_Party/LwIP/src/apps/mqtt/mqtt.c **** /** Return pointer to ring buffer get position */
 194:../../Middlewares/Third_Party/LwIP/src/apps/mqtt/mqtt.c **** static u8_t *
 195:../../Middlewares/Third_Party/LwIP/src/apps/mqtt/mqtt.c **** mqtt_ringbuf_get_ptr(struct mqtt_ringbuf_t *rb)
 196:../../Middlewares/Third_Party/LwIP/src/apps/mqtt/mqtt.c **** {
 104              		.loc 1 196 1 is_stmt 1 view -0
 105              		.cfi_startproc
 106              		@ args = 0, pretend = 0, frame = 0
 107              		@ frame_needed = 0, uses_anonymous_args = 0
 108              		@ link register save eliminated.
 197:../../Middlewares/Third_Party/LwIP/src/apps/mqtt/mqtt.c ****   return &rb->buf[rb->get];
 109              		.loc 1 197 3 view .LVU23
 110              		.loc 1 197 21 is_stmt 0 view .LVU24
 111 0000 4388     		ldrh	r3, [r0, #2]
 112              		.loc 1 197 10 view .LVU25
 113 0002 1844     		add	r0, r0, r3
 114              	.LVL4:
 198:../../Middlewares/Third_Party/LwIP/src/apps/mqtt/mqtt.c **** }
 115              		.loc 1 198 1 view .LVU26
 116 0004 0430     		adds	r0, r0, #4
 117 0006 7047     		bx	lr
 118              		.cfi_endproc
 119              	.LFE176:
 121              		.section	.text.mqtt_ringbuf_len,"ax",%progbits
 122              		.align	1
 123              		.syntax unified
 124              		.thumb
 125              		.thumb_func
 127              	mqtt_ringbuf_len:
 128              	.LVL5:
 129              	.LFB178:
 199:../../Middlewares/Third_Party/LwIP/src/apps/mqtt/mqtt.c **** 
 200:../../Middlewares/Third_Party/LwIP/src/apps/mqtt/mqtt.c **** static void
 201:../../Middlewares/Third_Party/LwIP/src/apps/mqtt/mqtt.c **** mqtt_ringbuf_advance_get_idx(struct mqtt_ringbuf_t *rb, u16_t len)
 202:../../Middlewares/Third_Party/LwIP/src/apps/mqtt/mqtt.c **** {
 203:../../Middlewares/Third_Party/LwIP/src/apps/mqtt/mqtt.c ****   LWIP_ASSERT("mqtt_ringbuf_advance_get_idx: len < MQTT_OUTPUT_RINGBUF_SIZE", len < MQTT_OUTPUT_RIN
 204:../../Middlewares/Third_Party/LwIP/src/apps/mqtt/mqtt.c **** 
 205:../../Middlewares/Third_Party/LwIP/src/apps/mqtt/mqtt.c ****   rb->get += len;
 206:../../Middlewares/Third_Party/LwIP/src/apps/mqtt/mqtt.c ****   if (rb->get >= MQTT_OUTPUT_RINGBUF_SIZE) {
 207:../../Middlewares/Third_Party/LwIP/src/apps/mqtt/mqtt.c ****     rb->get = rb->get - MQTT_OUTPUT_RINGBUF_SIZE;
 208:../../Middlewares/Third_Party/LwIP/src/apps/mqtt/mqtt.c ****   }
 209:../../Middlewares/Third_Party/LwIP/src/apps/mqtt/mqtt.c **** }
 210:../../Middlewares/Third_Party/LwIP/src/apps/mqtt/mqtt.c **** 
 211:../../Middlewares/Third_Party/LwIP/src/apps/mqtt/mqtt.c **** /** Return number of bytes in ring buffer */
 212:../../Middlewares/Third_Party/LwIP/src/apps/mqtt/mqtt.c **** static u16_t
 213:../../Middlewares/Third_Party/LwIP/src/apps/mqtt/mqtt.c **** mqtt_ringbuf_len(struct mqtt_ringbuf_t *rb)
 214:../../Middlewares/Third_Party/LwIP/src/apps/mqtt/mqtt.c **** {
 130              		.loc 1 214 1 is_stmt 1 view -0
 131              		.cfi_startproc
 132              		@ args = 0, pretend = 0, frame = 0
 133              		@ frame_needed = 0, uses_anonymous_args = 0
 134              		@ link register save eliminated.
 215:../../Middlewares/Third_Party/LwIP/src/apps/mqtt/mqtt.c ****   u32_t len = rb->put - rb->get;
ARM GAS  C:\Users\minis\AppData\Local\Temp\ccG6JyYg.s 			page 7


 135              		.loc 1 215 3 view .LVU28
 136              		.loc 1 215 17 is_stmt 0 view .LVU29
 137 0000 0388     		ldrh	r3, [r0]
 138              		.loc 1 215 27 view .LVU30
 139 0002 4288     		ldrh	r2, [r0, #2]
 140              		.loc 1 215 23 view .LVU31
 141 0004 981A     		subs	r0, r3, r2
 142              	.LVL6:
 216:../../Middlewares/Third_Party/LwIP/src/apps/mqtt/mqtt.c ****   if (len > 0xFFFF) {
 143              		.loc 1 216 3 is_stmt 1 view .LVU32
 144              		.loc 1 216 6 is_stmt 0 view .LVU33
 145 0006 B0F5803F 		cmp	r0, #65536
 146 000a 01D3     		bcc	.L7
 217:../../Middlewares/Third_Party/LwIP/src/apps/mqtt/mqtt.c ****     len += MQTT_OUTPUT_RINGBUF_SIZE;
 147              		.loc 1 217 5 is_stmt 1 view .LVU34
 148              		.loc 1 217 9 is_stmt 0 view .LVU35
 149 000c 00F58070 		add	r0, r0, #256
 150              	.LVL7:
 151              	.L7:
 218:../../Middlewares/Third_Party/LwIP/src/apps/mqtt/mqtt.c ****   }
 219:../../Middlewares/Third_Party/LwIP/src/apps/mqtt/mqtt.c ****   return (u16_t)len;
 152              		.loc 1 219 3 is_stmt 1 view .LVU36
 220:../../Middlewares/Third_Party/LwIP/src/apps/mqtt/mqtt.c **** }
 153              		.loc 1 220 1 is_stmt 0 view .LVU37
 154 0010 80B2     		uxth	r0, r0
 155              	.LVL8:
 156              		.loc 1 220 1 view .LVU38
 157 0012 7047     		bx	lr
 158              		.cfi_endproc
 159              	.LFE178:
 161              		.section	.text.mqtt_delete_request,"ax",%progbits
 162              		.align	1
 163              		.syntax unified
 164              		.thumb
 165              		.thumb_func
 167              	mqtt_delete_request:
 168              	.LVL9:
 169              	.LFB182:
 221:../../Middlewares/Third_Party/LwIP/src/apps/mqtt/mqtt.c **** 
 222:../../Middlewares/Third_Party/LwIP/src/apps/mqtt/mqtt.c **** /** Return number of bytes free in ring buffer */
 223:../../Middlewares/Third_Party/LwIP/src/apps/mqtt/mqtt.c **** #define mqtt_ringbuf_free(rb) (MQTT_OUTPUT_RINGBUF_SIZE - mqtt_ringbuf_len(rb))
 224:../../Middlewares/Third_Party/LwIP/src/apps/mqtt/mqtt.c **** 
 225:../../Middlewares/Third_Party/LwIP/src/apps/mqtt/mqtt.c **** /** Return number of bytes possible to read without wrapping around */
 226:../../Middlewares/Third_Party/LwIP/src/apps/mqtt/mqtt.c **** #define mqtt_ringbuf_linear_read_length(rb) LWIP_MIN(mqtt_ringbuf_len(rb), (MQTT_OUTPUT_RINGBUF_SIZ
 227:../../Middlewares/Third_Party/LwIP/src/apps/mqtt/mqtt.c **** 
 228:../../Middlewares/Third_Party/LwIP/src/apps/mqtt/mqtt.c **** /**
 229:../../Middlewares/Third_Party/LwIP/src/apps/mqtt/mqtt.c ****  * Try send as many bytes as possible from output ring buffer
 230:../../Middlewares/Third_Party/LwIP/src/apps/mqtt/mqtt.c ****  * @param rb Output ring buffer
 231:../../Middlewares/Third_Party/LwIP/src/apps/mqtt/mqtt.c ****  * @param tpcb TCP connection handle
 232:../../Middlewares/Third_Party/LwIP/src/apps/mqtt/mqtt.c ****  */
 233:../../Middlewares/Third_Party/LwIP/src/apps/mqtt/mqtt.c **** static void
 234:../../Middlewares/Third_Party/LwIP/src/apps/mqtt/mqtt.c **** mqtt_output_send(struct mqtt_ringbuf_t *rb, struct altcp_pcb *tpcb)
 235:../../Middlewares/Third_Party/LwIP/src/apps/mqtt/mqtt.c **** {
 236:../../Middlewares/Third_Party/LwIP/src/apps/mqtt/mqtt.c ****   err_t err;
 237:../../Middlewares/Third_Party/LwIP/src/apps/mqtt/mqtt.c ****   u8_t wrap = 0;
 238:../../Middlewares/Third_Party/LwIP/src/apps/mqtt/mqtt.c ****   u16_t ringbuf_lin_len = mqtt_ringbuf_linear_read_length(rb);
 239:../../Middlewares/Third_Party/LwIP/src/apps/mqtt/mqtt.c ****   u16_t send_len = altcp_sndbuf(tpcb);
ARM GAS  C:\Users\minis\AppData\Local\Temp\ccG6JyYg.s 			page 8


 240:../../Middlewares/Third_Party/LwIP/src/apps/mqtt/mqtt.c ****   LWIP_ASSERT("mqtt_output_send: tpcb != NULL", tpcb != NULL);
 241:../../Middlewares/Third_Party/LwIP/src/apps/mqtt/mqtt.c **** 
 242:../../Middlewares/Third_Party/LwIP/src/apps/mqtt/mqtt.c ****   if (send_len == 0 || ringbuf_lin_len == 0) {
 243:../../Middlewares/Third_Party/LwIP/src/apps/mqtt/mqtt.c ****     return;
 244:../../Middlewares/Third_Party/LwIP/src/apps/mqtt/mqtt.c ****   }
 245:../../Middlewares/Third_Party/LwIP/src/apps/mqtt/mqtt.c **** 
 246:../../Middlewares/Third_Party/LwIP/src/apps/mqtt/mqtt.c ****   LWIP_DEBUGF(MQTT_DEBUG_TRACE, ("mqtt_output_send: tcp_sndbuf: %d bytes, ringbuf_linear_available:
 247:../../Middlewares/Third_Party/LwIP/src/apps/mqtt/mqtt.c ****                                  send_len, ringbuf_lin_len, rb->get, rb->put));
 248:../../Middlewares/Third_Party/LwIP/src/apps/mqtt/mqtt.c **** 
 249:../../Middlewares/Third_Party/LwIP/src/apps/mqtt/mqtt.c ****   if (send_len > ringbuf_lin_len) {
 250:../../Middlewares/Third_Party/LwIP/src/apps/mqtt/mqtt.c ****     /* Space in TCP output buffer is larger than available in ring buffer linear portion */
 251:../../Middlewares/Third_Party/LwIP/src/apps/mqtt/mqtt.c ****     send_len = ringbuf_lin_len;
 252:../../Middlewares/Third_Party/LwIP/src/apps/mqtt/mqtt.c ****     /* Wrap around if more data in ring buffer after linear portion */
 253:../../Middlewares/Third_Party/LwIP/src/apps/mqtt/mqtt.c ****     wrap = (mqtt_ringbuf_len(rb) > ringbuf_lin_len);
 254:../../Middlewares/Third_Party/LwIP/src/apps/mqtt/mqtt.c ****   }
 255:../../Middlewares/Third_Party/LwIP/src/apps/mqtt/mqtt.c ****   err = altcp_write(tpcb, mqtt_ringbuf_get_ptr(rb), send_len, TCP_WRITE_FLAG_COPY | (wrap ? TCP_WRI
 256:../../Middlewares/Third_Party/LwIP/src/apps/mqtt/mqtt.c ****   if ((err == ERR_OK) && wrap) {
 257:../../Middlewares/Third_Party/LwIP/src/apps/mqtt/mqtt.c ****     mqtt_ringbuf_advance_get_idx(rb, send_len);
 258:../../Middlewares/Third_Party/LwIP/src/apps/mqtt/mqtt.c ****     /* Use the lesser one of ring buffer linear length and TCP send buffer size */
 259:../../Middlewares/Third_Party/LwIP/src/apps/mqtt/mqtt.c ****     send_len = LWIP_MIN(altcp_sndbuf(tpcb), mqtt_ringbuf_linear_read_length(rb));
 260:../../Middlewares/Third_Party/LwIP/src/apps/mqtt/mqtt.c ****     err = altcp_write(tpcb, mqtt_ringbuf_get_ptr(rb), send_len, TCP_WRITE_FLAG_COPY);
 261:../../Middlewares/Third_Party/LwIP/src/apps/mqtt/mqtt.c ****   }
 262:../../Middlewares/Third_Party/LwIP/src/apps/mqtt/mqtt.c **** 
 263:../../Middlewares/Third_Party/LwIP/src/apps/mqtt/mqtt.c ****   if (err == ERR_OK) {
 264:../../Middlewares/Third_Party/LwIP/src/apps/mqtt/mqtt.c ****     mqtt_ringbuf_advance_get_idx(rb, send_len);
 265:../../Middlewares/Third_Party/LwIP/src/apps/mqtt/mqtt.c ****     /* Flush */
 266:../../Middlewares/Third_Party/LwIP/src/apps/mqtt/mqtt.c ****     altcp_output(tpcb);
 267:../../Middlewares/Third_Party/LwIP/src/apps/mqtt/mqtt.c ****   } else {
 268:../../Middlewares/Third_Party/LwIP/src/apps/mqtt/mqtt.c ****     LWIP_DEBUGF(MQTT_DEBUG_WARN, ("mqtt_output_send: Send failed with err %d (\"%s\")\n", err, lwip
 269:../../Middlewares/Third_Party/LwIP/src/apps/mqtt/mqtt.c ****   }
 270:../../Middlewares/Third_Party/LwIP/src/apps/mqtt/mqtt.c **** }
 271:../../Middlewares/Third_Party/LwIP/src/apps/mqtt/mqtt.c **** 
 272:../../Middlewares/Third_Party/LwIP/src/apps/mqtt/mqtt.c **** 
 273:../../Middlewares/Third_Party/LwIP/src/apps/mqtt/mqtt.c **** 
 274:../../Middlewares/Third_Party/LwIP/src/apps/mqtt/mqtt.c **** /*-------------------------------------------------------------------------------------------------
 275:../../Middlewares/Third_Party/LwIP/src/apps/mqtt/mqtt.c **** /* Request queue */
 276:../../Middlewares/Third_Party/LwIP/src/apps/mqtt/mqtt.c **** 
 277:../../Middlewares/Third_Party/LwIP/src/apps/mqtt/mqtt.c **** /**
 278:../../Middlewares/Third_Party/LwIP/src/apps/mqtt/mqtt.c ****  * Create request item
 279:../../Middlewares/Third_Party/LwIP/src/apps/mqtt/mqtt.c ****  * @param r_objs Pointer to request objects
 280:../../Middlewares/Third_Party/LwIP/src/apps/mqtt/mqtt.c ****  * @param r_objs_len Number of array entries
 281:../../Middlewares/Third_Party/LwIP/src/apps/mqtt/mqtt.c ****  * @param pkt_id Packet identifier of request
 282:../../Middlewares/Third_Party/LwIP/src/apps/mqtt/mqtt.c ****  * @param cb Packet callback to call when requests lifetime ends
 283:../../Middlewares/Third_Party/LwIP/src/apps/mqtt/mqtt.c ****  * @param arg Parameter following callback
 284:../../Middlewares/Third_Party/LwIP/src/apps/mqtt/mqtt.c ****  * @return Request or NULL if failed to create
 285:../../Middlewares/Third_Party/LwIP/src/apps/mqtt/mqtt.c ****  */
 286:../../Middlewares/Third_Party/LwIP/src/apps/mqtt/mqtt.c **** static struct mqtt_request_t *
 287:../../Middlewares/Third_Party/LwIP/src/apps/mqtt/mqtt.c **** mqtt_create_request(struct mqtt_request_t *r_objs, size_t r_objs_len, u16_t pkt_id, mqtt_request_cb
 288:../../Middlewares/Third_Party/LwIP/src/apps/mqtt/mqtt.c **** {
 289:../../Middlewares/Third_Party/LwIP/src/apps/mqtt/mqtt.c ****   struct mqtt_request_t *r = NULL;
 290:../../Middlewares/Third_Party/LwIP/src/apps/mqtt/mqtt.c ****   u8_t n;
 291:../../Middlewares/Third_Party/LwIP/src/apps/mqtt/mqtt.c ****   LWIP_ASSERT("mqtt_create_request: r_objs != NULL", r_objs != NULL);
 292:../../Middlewares/Third_Party/LwIP/src/apps/mqtt/mqtt.c ****   for (n = 0; n < r_objs_len; n++) {
 293:../../Middlewares/Third_Party/LwIP/src/apps/mqtt/mqtt.c ****     /* Item point to itself if not in use */
 294:../../Middlewares/Third_Party/LwIP/src/apps/mqtt/mqtt.c ****     if (r_objs[n].next == &r_objs[n]) {
 295:../../Middlewares/Third_Party/LwIP/src/apps/mqtt/mqtt.c ****       r = &r_objs[n];
 296:../../Middlewares/Third_Party/LwIP/src/apps/mqtt/mqtt.c ****       r->next = NULL;
ARM GAS  C:\Users\minis\AppData\Local\Temp\ccG6JyYg.s 			page 9


 297:../../Middlewares/Third_Party/LwIP/src/apps/mqtt/mqtt.c ****       r->cb = cb;
 298:../../Middlewares/Third_Party/LwIP/src/apps/mqtt/mqtt.c ****       r->arg = arg;
 299:../../Middlewares/Third_Party/LwIP/src/apps/mqtt/mqtt.c ****       r->pkt_id = pkt_id;
 300:../../Middlewares/Third_Party/LwIP/src/apps/mqtt/mqtt.c ****       break;
 301:../../Middlewares/Third_Party/LwIP/src/apps/mqtt/mqtt.c ****     }
 302:../../Middlewares/Third_Party/LwIP/src/apps/mqtt/mqtt.c ****   }
 303:../../Middlewares/Third_Party/LwIP/src/apps/mqtt/mqtt.c ****   return r;
 304:../../Middlewares/Third_Party/LwIP/src/apps/mqtt/mqtt.c **** }
 305:../../Middlewares/Third_Party/LwIP/src/apps/mqtt/mqtt.c **** 
 306:../../Middlewares/Third_Party/LwIP/src/apps/mqtt/mqtt.c **** 
 307:../../Middlewares/Third_Party/LwIP/src/apps/mqtt/mqtt.c **** /**
 308:../../Middlewares/Third_Party/LwIP/src/apps/mqtt/mqtt.c ****  * Append request to pending request queue
 309:../../Middlewares/Third_Party/LwIP/src/apps/mqtt/mqtt.c ****  * @param tail Pointer to request queue tail pointer
 310:../../Middlewares/Third_Party/LwIP/src/apps/mqtt/mqtt.c ****  * @param r Request to append
 311:../../Middlewares/Third_Party/LwIP/src/apps/mqtt/mqtt.c ****  */
 312:../../Middlewares/Third_Party/LwIP/src/apps/mqtt/mqtt.c **** static void
 313:../../Middlewares/Third_Party/LwIP/src/apps/mqtt/mqtt.c **** mqtt_append_request(struct mqtt_request_t **tail, struct mqtt_request_t *r)
 314:../../Middlewares/Third_Party/LwIP/src/apps/mqtt/mqtt.c **** {
 315:../../Middlewares/Third_Party/LwIP/src/apps/mqtt/mqtt.c ****   struct mqtt_request_t *head = NULL;
 316:../../Middlewares/Third_Party/LwIP/src/apps/mqtt/mqtt.c ****   s16_t time_before = 0;
 317:../../Middlewares/Third_Party/LwIP/src/apps/mqtt/mqtt.c ****   struct mqtt_request_t *iter;
 318:../../Middlewares/Third_Party/LwIP/src/apps/mqtt/mqtt.c **** 
 319:../../Middlewares/Third_Party/LwIP/src/apps/mqtt/mqtt.c ****   LWIP_ASSERT("mqtt_append_request: tail != NULL", tail != NULL);
 320:../../Middlewares/Third_Party/LwIP/src/apps/mqtt/mqtt.c **** 
 321:../../Middlewares/Third_Party/LwIP/src/apps/mqtt/mqtt.c ****   /* Iterate trough queue to find head, and count total timeout time */
 322:../../Middlewares/Third_Party/LwIP/src/apps/mqtt/mqtt.c ****   for (iter = *tail; iter != NULL; iter = iter->next) {
 323:../../Middlewares/Third_Party/LwIP/src/apps/mqtt/mqtt.c ****     time_before += iter->timeout_diff;
 324:../../Middlewares/Third_Party/LwIP/src/apps/mqtt/mqtt.c ****     head = iter;
 325:../../Middlewares/Third_Party/LwIP/src/apps/mqtt/mqtt.c ****   }
 326:../../Middlewares/Third_Party/LwIP/src/apps/mqtt/mqtt.c **** 
 327:../../Middlewares/Third_Party/LwIP/src/apps/mqtt/mqtt.c ****   LWIP_ASSERT("mqtt_append_request: time_before <= MQTT_REQ_TIMEOUT", time_before <= MQTT_REQ_TIMEO
 328:../../Middlewares/Third_Party/LwIP/src/apps/mqtt/mqtt.c ****   r->timeout_diff = MQTT_REQ_TIMEOUT - time_before;
 329:../../Middlewares/Third_Party/LwIP/src/apps/mqtt/mqtt.c ****   if (head == NULL) {
 330:../../Middlewares/Third_Party/LwIP/src/apps/mqtt/mqtt.c ****     *tail = r;
 331:../../Middlewares/Third_Party/LwIP/src/apps/mqtt/mqtt.c ****   } else {
 332:../../Middlewares/Third_Party/LwIP/src/apps/mqtt/mqtt.c ****     head->next = r;
 333:../../Middlewares/Third_Party/LwIP/src/apps/mqtt/mqtt.c ****   }
 334:../../Middlewares/Third_Party/LwIP/src/apps/mqtt/mqtt.c **** }
 335:../../Middlewares/Third_Party/LwIP/src/apps/mqtt/mqtt.c **** 
 336:../../Middlewares/Third_Party/LwIP/src/apps/mqtt/mqtt.c **** 
 337:../../Middlewares/Third_Party/LwIP/src/apps/mqtt/mqtt.c **** /**
 338:../../Middlewares/Third_Party/LwIP/src/apps/mqtt/mqtt.c ****  * Delete request item
 339:../../Middlewares/Third_Party/LwIP/src/apps/mqtt/mqtt.c ****  * @param r Request item to delete
 340:../../Middlewares/Third_Party/LwIP/src/apps/mqtt/mqtt.c ****  */
 341:../../Middlewares/Third_Party/LwIP/src/apps/mqtt/mqtt.c **** static void
 342:../../Middlewares/Third_Party/LwIP/src/apps/mqtt/mqtt.c **** mqtt_delete_request(struct mqtt_request_t *r)
 343:../../Middlewares/Third_Party/LwIP/src/apps/mqtt/mqtt.c **** {
 170              		.loc 1 343 1 is_stmt 1 view -0
 171              		.cfi_startproc
 172              		@ args = 0, pretend = 0, frame = 0
 173              		@ frame_needed = 0, uses_anonymous_args = 0
 174              		@ link register save eliminated.
 344:../../Middlewares/Third_Party/LwIP/src/apps/mqtt/mqtt.c ****   if (r != NULL) {
 175              		.loc 1 344 3 view .LVU40
 176              		.loc 1 344 6 is_stmt 0 view .LVU41
 177 0000 0346     		mov	r3, r0
 178 0002 00B1     		cbz	r0, .L8
ARM GAS  C:\Users\minis\AppData\Local\Temp\ccG6JyYg.s 			page 10


 345:../../Middlewares/Third_Party/LwIP/src/apps/mqtt/mqtt.c ****     r->next = r;
 179              		.loc 1 345 5 is_stmt 1 view .LVU42
 180              		.loc 1 345 13 is_stmt 0 view .LVU43
 181 0004 1860     		str	r0, [r3]
 182              	.L8:
 346:../../Middlewares/Third_Party/LwIP/src/apps/mqtt/mqtt.c ****   }
 347:../../Middlewares/Third_Party/LwIP/src/apps/mqtt/mqtt.c **** }
 183              		.loc 1 347 1 view .LVU44
 184 0006 7047     		bx	lr
 185              		.cfi_endproc
 186              	.LFE182:
 188              		.section	.text.mqtt_output_append_u8,"ax",%progbits
 189              		.align	1
 190              		.syntax unified
 191              		.thumb
 192              		.thumb_func
 194              	mqtt_output_append_u8:
 195              	.LVL10:
 196              	.LFB187:
 348:../../Middlewares/Third_Party/LwIP/src/apps/mqtt/mqtt.c **** 
 349:../../Middlewares/Third_Party/LwIP/src/apps/mqtt/mqtt.c **** /**
 350:../../Middlewares/Third_Party/LwIP/src/apps/mqtt/mqtt.c ****  * Remove a request item with a specific packet identifier from request queue
 351:../../Middlewares/Third_Party/LwIP/src/apps/mqtt/mqtt.c ****  * @param tail Pointer to request queue tail pointer
 352:../../Middlewares/Third_Party/LwIP/src/apps/mqtt/mqtt.c ****  * @param pkt_id Packet identifier of request to take
 353:../../Middlewares/Third_Party/LwIP/src/apps/mqtt/mqtt.c ****  * @return Request item if found, NULL if not
 354:../../Middlewares/Third_Party/LwIP/src/apps/mqtt/mqtt.c ****  */
 355:../../Middlewares/Third_Party/LwIP/src/apps/mqtt/mqtt.c **** static struct mqtt_request_t *
 356:../../Middlewares/Third_Party/LwIP/src/apps/mqtt/mqtt.c **** mqtt_take_request(struct mqtt_request_t **tail, u16_t pkt_id)
 357:../../Middlewares/Third_Party/LwIP/src/apps/mqtt/mqtt.c **** {
 358:../../Middlewares/Third_Party/LwIP/src/apps/mqtt/mqtt.c ****   struct mqtt_request_t *iter = NULL, *prev = NULL;
 359:../../Middlewares/Third_Party/LwIP/src/apps/mqtt/mqtt.c ****   LWIP_ASSERT("mqtt_take_request: tail != NULL", tail != NULL);
 360:../../Middlewares/Third_Party/LwIP/src/apps/mqtt/mqtt.c ****   /* Search all request for pkt_id */
 361:../../Middlewares/Third_Party/LwIP/src/apps/mqtt/mqtt.c ****   for (iter = *tail; iter != NULL; iter = iter->next) {
 362:../../Middlewares/Third_Party/LwIP/src/apps/mqtt/mqtt.c ****     if (iter->pkt_id == pkt_id) {
 363:../../Middlewares/Third_Party/LwIP/src/apps/mqtt/mqtt.c ****       break;
 364:../../Middlewares/Third_Party/LwIP/src/apps/mqtt/mqtt.c ****     }
 365:../../Middlewares/Third_Party/LwIP/src/apps/mqtt/mqtt.c ****     prev = iter;
 366:../../Middlewares/Third_Party/LwIP/src/apps/mqtt/mqtt.c ****   }
 367:../../Middlewares/Third_Party/LwIP/src/apps/mqtt/mqtt.c **** 
 368:../../Middlewares/Third_Party/LwIP/src/apps/mqtt/mqtt.c ****   /* If request was found */
 369:../../Middlewares/Third_Party/LwIP/src/apps/mqtt/mqtt.c ****   if (iter != NULL) {
 370:../../Middlewares/Third_Party/LwIP/src/apps/mqtt/mqtt.c ****     /* unchain */
 371:../../Middlewares/Third_Party/LwIP/src/apps/mqtt/mqtt.c ****     if (prev == NULL) {
 372:../../Middlewares/Third_Party/LwIP/src/apps/mqtt/mqtt.c ****       *tail = iter->next;
 373:../../Middlewares/Third_Party/LwIP/src/apps/mqtt/mqtt.c ****     } else {
 374:../../Middlewares/Third_Party/LwIP/src/apps/mqtt/mqtt.c ****       prev->next = iter->next;
 375:../../Middlewares/Third_Party/LwIP/src/apps/mqtt/mqtt.c ****     }
 376:../../Middlewares/Third_Party/LwIP/src/apps/mqtt/mqtt.c ****     /* If exists, add remaining timeout time for the request to next */
 377:../../Middlewares/Third_Party/LwIP/src/apps/mqtt/mqtt.c ****     if (iter->next != NULL) {
 378:../../Middlewares/Third_Party/LwIP/src/apps/mqtt/mqtt.c ****       iter->next->timeout_diff += iter->timeout_diff;
 379:../../Middlewares/Third_Party/LwIP/src/apps/mqtt/mqtt.c ****     }
 380:../../Middlewares/Third_Party/LwIP/src/apps/mqtt/mqtt.c ****     iter->next = NULL;
 381:../../Middlewares/Third_Party/LwIP/src/apps/mqtt/mqtt.c ****   }
 382:../../Middlewares/Third_Party/LwIP/src/apps/mqtt/mqtt.c ****   return iter;
 383:../../Middlewares/Third_Party/LwIP/src/apps/mqtt/mqtt.c **** }
 384:../../Middlewares/Third_Party/LwIP/src/apps/mqtt/mqtt.c **** 
 385:../../Middlewares/Third_Party/LwIP/src/apps/mqtt/mqtt.c **** /**
ARM GAS  C:\Users\minis\AppData\Local\Temp\ccG6JyYg.s 			page 11


 386:../../Middlewares/Third_Party/LwIP/src/apps/mqtt/mqtt.c ****  * Handle requests timeout
 387:../../Middlewares/Third_Party/LwIP/src/apps/mqtt/mqtt.c ****  * @param tail Pointer to request queue tail pointer
 388:../../Middlewares/Third_Party/LwIP/src/apps/mqtt/mqtt.c ****  * @param t Time since last call in seconds
 389:../../Middlewares/Third_Party/LwIP/src/apps/mqtt/mqtt.c ****  */
 390:../../Middlewares/Third_Party/LwIP/src/apps/mqtt/mqtt.c **** static void
 391:../../Middlewares/Third_Party/LwIP/src/apps/mqtt/mqtt.c **** mqtt_request_time_elapsed(struct mqtt_request_t **tail, u8_t t)
 392:../../Middlewares/Third_Party/LwIP/src/apps/mqtt/mqtt.c **** {
 393:../../Middlewares/Third_Party/LwIP/src/apps/mqtt/mqtt.c ****   struct mqtt_request_t *r;
 394:../../Middlewares/Third_Party/LwIP/src/apps/mqtt/mqtt.c ****   LWIP_ASSERT("mqtt_request_time_elapsed: tail != NULL", tail != NULL);
 395:../../Middlewares/Third_Party/LwIP/src/apps/mqtt/mqtt.c ****   r = *tail;
 396:../../Middlewares/Third_Party/LwIP/src/apps/mqtt/mqtt.c ****   while (t > 0 && r != NULL) {
 397:../../Middlewares/Third_Party/LwIP/src/apps/mqtt/mqtt.c ****     if (t >= r->timeout_diff) {
 398:../../Middlewares/Third_Party/LwIP/src/apps/mqtt/mqtt.c ****       t -= (u8_t)r->timeout_diff;
 399:../../Middlewares/Third_Party/LwIP/src/apps/mqtt/mqtt.c ****       /* Unchain */
 400:../../Middlewares/Third_Party/LwIP/src/apps/mqtt/mqtt.c ****       *tail = r->next;
 401:../../Middlewares/Third_Party/LwIP/src/apps/mqtt/mqtt.c ****       /* Notify upper layer about timeout */
 402:../../Middlewares/Third_Party/LwIP/src/apps/mqtt/mqtt.c ****       if (r->cb != NULL) {
 403:../../Middlewares/Third_Party/LwIP/src/apps/mqtt/mqtt.c ****         r->cb(r->arg, ERR_TIMEOUT);
 404:../../Middlewares/Third_Party/LwIP/src/apps/mqtt/mqtt.c ****       }
 405:../../Middlewares/Third_Party/LwIP/src/apps/mqtt/mqtt.c ****       mqtt_delete_request(r);
 406:../../Middlewares/Third_Party/LwIP/src/apps/mqtt/mqtt.c ****       /* Tail might be be modified in callback, so re-read it in every iteration */
 407:../../Middlewares/Third_Party/LwIP/src/apps/mqtt/mqtt.c ****       r = *(struct mqtt_request_t *const volatile *)tail;
 408:../../Middlewares/Third_Party/LwIP/src/apps/mqtt/mqtt.c ****     } else {
 409:../../Middlewares/Third_Party/LwIP/src/apps/mqtt/mqtt.c ****       r->timeout_diff -= t;
 410:../../Middlewares/Third_Party/LwIP/src/apps/mqtt/mqtt.c ****       t = 0;
 411:../../Middlewares/Third_Party/LwIP/src/apps/mqtt/mqtt.c ****     }
 412:../../Middlewares/Third_Party/LwIP/src/apps/mqtt/mqtt.c ****   }
 413:../../Middlewares/Third_Party/LwIP/src/apps/mqtt/mqtt.c **** }
 414:../../Middlewares/Third_Party/LwIP/src/apps/mqtt/mqtt.c **** 
 415:../../Middlewares/Third_Party/LwIP/src/apps/mqtt/mqtt.c **** /**
 416:../../Middlewares/Third_Party/LwIP/src/apps/mqtt/mqtt.c ****  * Free all request items
 417:../../Middlewares/Third_Party/LwIP/src/apps/mqtt/mqtt.c ****  * @param tail Pointer to request queue tail pointer
 418:../../Middlewares/Third_Party/LwIP/src/apps/mqtt/mqtt.c ****  */
 419:../../Middlewares/Third_Party/LwIP/src/apps/mqtt/mqtt.c **** static void
 420:../../Middlewares/Third_Party/LwIP/src/apps/mqtt/mqtt.c **** mqtt_clear_requests(struct mqtt_request_t **tail)
 421:../../Middlewares/Third_Party/LwIP/src/apps/mqtt/mqtt.c **** {
 422:../../Middlewares/Third_Party/LwIP/src/apps/mqtt/mqtt.c ****   struct mqtt_request_t *iter, *next;
 423:../../Middlewares/Third_Party/LwIP/src/apps/mqtt/mqtt.c ****   LWIP_ASSERT("mqtt_clear_requests: tail != NULL", tail != NULL);
 424:../../Middlewares/Third_Party/LwIP/src/apps/mqtt/mqtt.c ****   for (iter = *tail; iter != NULL; iter = next) {
 425:../../Middlewares/Third_Party/LwIP/src/apps/mqtt/mqtt.c ****     next = iter->next;
 426:../../Middlewares/Third_Party/LwIP/src/apps/mqtt/mqtt.c ****     mqtt_delete_request(iter);
 427:../../Middlewares/Third_Party/LwIP/src/apps/mqtt/mqtt.c ****   }
 428:../../Middlewares/Third_Party/LwIP/src/apps/mqtt/mqtt.c ****   *tail = NULL;
 429:../../Middlewares/Third_Party/LwIP/src/apps/mqtt/mqtt.c **** }
 430:../../Middlewares/Third_Party/LwIP/src/apps/mqtt/mqtt.c **** /**
 431:../../Middlewares/Third_Party/LwIP/src/apps/mqtt/mqtt.c ****  * Initialize all request items
 432:../../Middlewares/Third_Party/LwIP/src/apps/mqtt/mqtt.c ****  * @param r_objs Pointer to request objects
 433:../../Middlewares/Third_Party/LwIP/src/apps/mqtt/mqtt.c ****  * @param r_objs_len Number of array entries
 434:../../Middlewares/Third_Party/LwIP/src/apps/mqtt/mqtt.c ****  */
 435:../../Middlewares/Third_Party/LwIP/src/apps/mqtt/mqtt.c **** static void
 436:../../Middlewares/Third_Party/LwIP/src/apps/mqtt/mqtt.c **** mqtt_init_requests(struct mqtt_request_t *r_objs, size_t r_objs_len)
 437:../../Middlewares/Third_Party/LwIP/src/apps/mqtt/mqtt.c **** {
 438:../../Middlewares/Third_Party/LwIP/src/apps/mqtt/mqtt.c ****   u8_t n;
 439:../../Middlewares/Third_Party/LwIP/src/apps/mqtt/mqtt.c ****   LWIP_ASSERT("mqtt_init_requests: r_objs != NULL", r_objs != NULL);
 440:../../Middlewares/Third_Party/LwIP/src/apps/mqtt/mqtt.c ****   for (n = 0; n < r_objs_len; n++) {
 441:../../Middlewares/Third_Party/LwIP/src/apps/mqtt/mqtt.c ****     /* Item pointing to itself indicates unused */
 442:../../Middlewares/Third_Party/LwIP/src/apps/mqtt/mqtt.c ****     r_objs[n].next = &r_objs[n];
ARM GAS  C:\Users\minis\AppData\Local\Temp\ccG6JyYg.s 			page 12


 443:../../Middlewares/Third_Party/LwIP/src/apps/mqtt/mqtt.c ****   }
 444:../../Middlewares/Third_Party/LwIP/src/apps/mqtt/mqtt.c **** }
 445:../../Middlewares/Third_Party/LwIP/src/apps/mqtt/mqtt.c **** 
 446:../../Middlewares/Third_Party/LwIP/src/apps/mqtt/mqtt.c **** /*-------------------------------------------------------------------------------------------------
 447:../../Middlewares/Third_Party/LwIP/src/apps/mqtt/mqtt.c **** /* Output message build helpers */
 448:../../Middlewares/Third_Party/LwIP/src/apps/mqtt/mqtt.c **** 
 449:../../Middlewares/Third_Party/LwIP/src/apps/mqtt/mqtt.c **** 
 450:../../Middlewares/Third_Party/LwIP/src/apps/mqtt/mqtt.c **** static void
 451:../../Middlewares/Third_Party/LwIP/src/apps/mqtt/mqtt.c **** mqtt_output_append_u8(struct mqtt_ringbuf_t *rb, u8_t value)
 452:../../Middlewares/Third_Party/LwIP/src/apps/mqtt/mqtt.c **** {
 197              		.loc 1 452 1 is_stmt 1 view -0
 198              		.cfi_startproc
 199              		@ args = 0, pretend = 0, frame = 0
 200              		@ frame_needed = 0, uses_anonymous_args = 0
 201              		.loc 1 452 1 is_stmt 0 view .LVU46
 202 0000 08B5     		push	{r3, lr}
 203              	.LCFI0:
 204              		.cfi_def_cfa_offset 8
 205              		.cfi_offset 3, -8
 206              		.cfi_offset 14, -4
 453:../../Middlewares/Third_Party/LwIP/src/apps/mqtt/mqtt.c ****   mqtt_ringbuf_put(rb, value);
 207              		.loc 1 453 3 is_stmt 1 view .LVU47
 208 0002 FFF7FEFF 		bl	mqtt_ringbuf_put
 209              	.LVL11:
 454:../../Middlewares/Third_Party/LwIP/src/apps/mqtt/mqtt.c **** }
 210              		.loc 1 454 1 is_stmt 0 view .LVU48
 211 0006 08BD     		pop	{r3, pc}
 212              		.cfi_endproc
 213              	.LFE187:
 215              		.section	.text.mqtt_output_append_u16,"ax",%progbits
 216              		.align	1
 217              		.syntax unified
 218              		.thumb
 219              		.thumb_func
 221              	mqtt_output_append_u16:
 222              	.LVL12:
 223              	.LFB188:
 455:../../Middlewares/Third_Party/LwIP/src/apps/mqtt/mqtt.c **** 
 456:../../Middlewares/Third_Party/LwIP/src/apps/mqtt/mqtt.c **** static
 457:../../Middlewares/Third_Party/LwIP/src/apps/mqtt/mqtt.c **** void mqtt_output_append_u16(struct mqtt_ringbuf_t *rb, u16_t value)
 458:../../Middlewares/Third_Party/LwIP/src/apps/mqtt/mqtt.c **** {
 224              		.loc 1 458 1 is_stmt 1 view -0
 225              		.cfi_startproc
 226              		@ args = 0, pretend = 0, frame = 0
 227              		@ frame_needed = 0, uses_anonymous_args = 0
 228              		.loc 1 458 1 is_stmt 0 view .LVU50
 229 0000 38B5     		push	{r3, r4, r5, lr}
 230              	.LCFI1:
 231              		.cfi_def_cfa_offset 16
 232              		.cfi_offset 3, -16
 233              		.cfi_offset 4, -12
 234              		.cfi_offset 5, -8
 235              		.cfi_offset 14, -4
 236 0002 0546     		mov	r5, r0
 237 0004 0C46     		mov	r4, r1
 459:../../Middlewares/Third_Party/LwIP/src/apps/mqtt/mqtt.c ****   mqtt_ringbuf_put(rb, value >> 8);
 238              		.loc 1 459 3 is_stmt 1 view .LVU51
ARM GAS  C:\Users\minis\AppData\Local\Temp\ccG6JyYg.s 			page 13


 239 0006 090A     		lsrs	r1, r1, #8
 240              	.LVL13:
 241              		.loc 1 459 3 is_stmt 0 view .LVU52
 242 0008 FFF7FEFF 		bl	mqtt_ringbuf_put
 243              	.LVL14:
 460:../../Middlewares/Third_Party/LwIP/src/apps/mqtt/mqtt.c ****   mqtt_ringbuf_put(rb, value & 0xff);
 244              		.loc 1 460 3 is_stmt 1 view .LVU53
 245 000c E1B2     		uxtb	r1, r4
 246 000e 2846     		mov	r0, r5
 247 0010 FFF7FEFF 		bl	mqtt_ringbuf_put
 248              	.LVL15:
 461:../../Middlewares/Third_Party/LwIP/src/apps/mqtt/mqtt.c **** }
 249              		.loc 1 461 1 is_stmt 0 view .LVU54
 250 0014 38BD     		pop	{r3, r4, r5, pc}
 251              		.loc 1 461 1 view .LVU55
 252              		.cfi_endproc
 253              	.LFE188:
 255              		.section	.text.mqtt_output_append_buf,"ax",%progbits
 256              		.align	1
 257              		.syntax unified
 258              		.thumb
 259              		.thumb_func
 261              	mqtt_output_append_buf:
 262              	.LVL16:
 263              	.LFB189:
 462:../../Middlewares/Third_Party/LwIP/src/apps/mqtt/mqtt.c **** 
 463:../../Middlewares/Third_Party/LwIP/src/apps/mqtt/mqtt.c **** static void
 464:../../Middlewares/Third_Party/LwIP/src/apps/mqtt/mqtt.c **** mqtt_output_append_buf(struct mqtt_ringbuf_t *rb, const void *data, u16_t length)
 465:../../Middlewares/Third_Party/LwIP/src/apps/mqtt/mqtt.c **** {
 264              		.loc 1 465 1 is_stmt 1 view -0
 265              		.cfi_startproc
 266              		@ args = 0, pretend = 0, frame = 0
 267              		@ frame_needed = 0, uses_anonymous_args = 0
 268              		.loc 1 465 1 is_stmt 0 view .LVU57
 269 0000 F8B5     		push	{r3, r4, r5, r6, r7, lr}
 270              	.LCFI2:
 271              		.cfi_def_cfa_offset 24
 272              		.cfi_offset 3, -24
 273              		.cfi_offset 4, -20
 274              		.cfi_offset 5, -16
 275              		.cfi_offset 6, -12
 276              		.cfi_offset 7, -8
 277              		.cfi_offset 14, -4
 278 0002 0746     		mov	r7, r0
 279 0004 0E46     		mov	r6, r1
 280 0006 1546     		mov	r5, r2
 466:../../Middlewares/Third_Party/LwIP/src/apps/mqtt/mqtt.c ****   u16_t n;
 281              		.loc 1 466 3 is_stmt 1 view .LVU58
 467:../../Middlewares/Third_Party/LwIP/src/apps/mqtt/mqtt.c ****   for (n = 0; n < length; n++) {
 282              		.loc 1 467 3 view .LVU59
 283              	.LVL17:
 284              		.loc 1 467 10 is_stmt 0 view .LVU60
 285 0008 0024     		movs	r4, #0
 286              		.loc 1 467 3 view .LVU61
 287 000a 05E0     		b	.L15
 288              	.LVL18:
 289              	.L16:
ARM GAS  C:\Users\minis\AppData\Local\Temp\ccG6JyYg.s 			page 14


 468:../../Middlewares/Third_Party/LwIP/src/apps/mqtt/mqtt.c ****     mqtt_ringbuf_put(rb, ((const u8_t *)data)[n]);
 290              		.loc 1 468 5 is_stmt 1 view .LVU62
 291 000c 315D     		ldrb	r1, [r6, r4]	@ zero_extendqisi2
 292 000e 3846     		mov	r0, r7
 293 0010 FFF7FEFF 		bl	mqtt_ringbuf_put
 294              	.LVL19:
 467:../../Middlewares/Third_Party/LwIP/src/apps/mqtt/mqtt.c ****   for (n = 0; n < length; n++) {
 295              		.loc 1 467 28 discriminator 3 view .LVU63
 296 0014 0134     		adds	r4, r4, #1
 297              	.LVL20:
 467:../../Middlewares/Third_Party/LwIP/src/apps/mqtt/mqtt.c ****   for (n = 0; n < length; n++) {
 298              		.loc 1 467 28 is_stmt 0 discriminator 3 view .LVU64
 299 0016 A4B2     		uxth	r4, r4
 300              	.LVL21:
 301              	.L15:
 467:../../Middlewares/Third_Party/LwIP/src/apps/mqtt/mqtt.c ****   for (n = 0; n < length; n++) {
 302              		.loc 1 467 17 is_stmt 1 discriminator 1 view .LVU65
 303 0018 AC42     		cmp	r4, r5
 304 001a F7D3     		bcc	.L16
 469:../../Middlewares/Third_Party/LwIP/src/apps/mqtt/mqtt.c ****   }
 470:../../Middlewares/Third_Party/LwIP/src/apps/mqtt/mqtt.c **** }
 305              		.loc 1 470 1 is_stmt 0 view .LVU66
 306 001c F8BD     		pop	{r3, r4, r5, r6, r7, pc}
 307              		.loc 1 470 1 view .LVU67
 308              		.cfi_endproc
 309              	.LFE189:
 311              		.section	.text.mqtt_output_append_string,"ax",%progbits
 312              		.align	1
 313              		.syntax unified
 314              		.thumb
 315              		.thumb_func
 317              	mqtt_output_append_string:
 318              	.LVL22:
 319              	.LFB190:
 471:../../Middlewares/Third_Party/LwIP/src/apps/mqtt/mqtt.c **** 
 472:../../Middlewares/Third_Party/LwIP/src/apps/mqtt/mqtt.c **** static void
 473:../../Middlewares/Third_Party/LwIP/src/apps/mqtt/mqtt.c **** mqtt_output_append_string(struct mqtt_ringbuf_t *rb, const char *str, u16_t length)
 474:../../Middlewares/Third_Party/LwIP/src/apps/mqtt/mqtt.c **** {
 320              		.loc 1 474 1 is_stmt 1 view -0
 321              		.cfi_startproc
 322              		@ args = 0, pretend = 0, frame = 0
 323              		@ frame_needed = 0, uses_anonymous_args = 0
 324              		.loc 1 474 1 is_stmt 0 view .LVU69
 325 0000 F8B5     		push	{r3, r4, r5, r6, r7, lr}
 326              	.LCFI3:
 327              		.cfi_def_cfa_offset 24
 328              		.cfi_offset 3, -24
 329              		.cfi_offset 4, -20
 330              		.cfi_offset 5, -16
 331              		.cfi_offset 6, -12
 332              		.cfi_offset 7, -8
 333              		.cfi_offset 14, -4
 334 0002 0646     		mov	r6, r0
 335 0004 0F46     		mov	r7, r1
 336 0006 1546     		mov	r5, r2
 475:../../Middlewares/Third_Party/LwIP/src/apps/mqtt/mqtt.c ****   u16_t n;
 337              		.loc 1 475 3 is_stmt 1 view .LVU70
ARM GAS  C:\Users\minis\AppData\Local\Temp\ccG6JyYg.s 			page 15


 476:../../Middlewares/Third_Party/LwIP/src/apps/mqtt/mqtt.c ****   mqtt_ringbuf_put(rb, length >> 8);
 338              		.loc 1 476 3 view .LVU71
 339 0008 110A     		lsrs	r1, r2, #8
 340              	.LVL23:
 341              		.loc 1 476 3 is_stmt 0 view .LVU72
 342 000a FFF7FEFF 		bl	mqtt_ringbuf_put
 343              	.LVL24:
 477:../../Middlewares/Third_Party/LwIP/src/apps/mqtt/mqtt.c ****   mqtt_ringbuf_put(rb, length & 0xff);
 344              		.loc 1 477 3 is_stmt 1 view .LVU73
 345 000e E9B2     		uxtb	r1, r5
 346 0010 3046     		mov	r0, r6
 347 0012 FFF7FEFF 		bl	mqtt_ringbuf_put
 348              	.LVL25:
 478:../../Middlewares/Third_Party/LwIP/src/apps/mqtt/mqtt.c ****   for (n = 0; n < length; n++) {
 349              		.loc 1 478 3 view .LVU74
 350              		.loc 1 478 10 is_stmt 0 view .LVU75
 351 0016 0024     		movs	r4, #0
 352              		.loc 1 478 3 view .LVU76
 353 0018 05E0     		b	.L19
 354              	.LVL26:
 355              	.L20:
 479:../../Middlewares/Third_Party/LwIP/src/apps/mqtt/mqtt.c ****     mqtt_ringbuf_put(rb, str[n]);
 356              		.loc 1 479 5 is_stmt 1 view .LVU77
 357 001a 395D     		ldrb	r1, [r7, r4]	@ zero_extendqisi2
 358 001c 3046     		mov	r0, r6
 359 001e FFF7FEFF 		bl	mqtt_ringbuf_put
 360              	.LVL27:
 478:../../Middlewares/Third_Party/LwIP/src/apps/mqtt/mqtt.c ****   for (n = 0; n < length; n++) {
 361              		.loc 1 478 28 discriminator 3 view .LVU78
 362 0022 0134     		adds	r4, r4, #1
 363              	.LVL28:
 478:../../Middlewares/Third_Party/LwIP/src/apps/mqtt/mqtt.c ****   for (n = 0; n < length; n++) {
 364              		.loc 1 478 28 is_stmt 0 discriminator 3 view .LVU79
 365 0024 A4B2     		uxth	r4, r4
 366              	.LVL29:
 367              	.L19:
 478:../../Middlewares/Third_Party/LwIP/src/apps/mqtt/mqtt.c ****   for (n = 0; n < length; n++) {
 368              		.loc 1 478 17 is_stmt 1 discriminator 1 view .LVU80
 369 0026 AC42     		cmp	r4, r5
 370 0028 F7D3     		bcc	.L20
 480:../../Middlewares/Third_Party/LwIP/src/apps/mqtt/mqtt.c ****   }
 481:../../Middlewares/Third_Party/LwIP/src/apps/mqtt/mqtt.c **** }
 371              		.loc 1 481 1 is_stmt 0 view .LVU81
 372 002a F8BD     		pop	{r3, r4, r5, r6, r7, pc}
 373              		.loc 1 481 1 view .LVU82
 374              		.cfi_endproc
 375              	.LFE190:
 377              		.section	.text.mqtt_output_append_fixed_header,"ax",%progbits
 378              		.align	1
 379              		.syntax unified
 380              		.thumb
 381              		.thumb_func
 383              	mqtt_output_append_fixed_header:
 384              	.LVL30:
 385              	.LFB191:
 482:../../Middlewares/Third_Party/LwIP/src/apps/mqtt/mqtt.c **** 
 483:../../Middlewares/Third_Party/LwIP/src/apps/mqtt/mqtt.c **** /**
ARM GAS  C:\Users\minis\AppData\Local\Temp\ccG6JyYg.s 			page 16


 484:../../Middlewares/Third_Party/LwIP/src/apps/mqtt/mqtt.c ****  * Append fixed header
 485:../../Middlewares/Third_Party/LwIP/src/apps/mqtt/mqtt.c ****  * @param rb Output ring buffer
 486:../../Middlewares/Third_Party/LwIP/src/apps/mqtt/mqtt.c ****  * @param msg_type see enum mqtt_message_type
 487:../../Middlewares/Third_Party/LwIP/src/apps/mqtt/mqtt.c ****  * @param fdup MQTT DUP flag
 488:../../Middlewares/Third_Party/LwIP/src/apps/mqtt/mqtt.c ****  * @param fqos MQTT QoS field
 489:../../Middlewares/Third_Party/LwIP/src/apps/mqtt/mqtt.c ****  * @param fretain MQTT retain flag
 490:../../Middlewares/Third_Party/LwIP/src/apps/mqtt/mqtt.c ****  * @param r_length Remaining length after fixed header
 491:../../Middlewares/Third_Party/LwIP/src/apps/mqtt/mqtt.c ****  */
 492:../../Middlewares/Third_Party/LwIP/src/apps/mqtt/mqtt.c **** 
 493:../../Middlewares/Third_Party/LwIP/src/apps/mqtt/mqtt.c **** static void
 494:../../Middlewares/Third_Party/LwIP/src/apps/mqtt/mqtt.c **** mqtt_output_append_fixed_header(struct mqtt_ringbuf_t *rb, u8_t msg_type, u8_t fdup,
 495:../../Middlewares/Third_Party/LwIP/src/apps/mqtt/mqtt.c ****                                 u8_t fqos, u8_t fretain, u16_t r_length)
 496:../../Middlewares/Third_Party/LwIP/src/apps/mqtt/mqtt.c **** {
 386              		.loc 1 496 1 is_stmt 1 view -0
 387              		.cfi_startproc
 388              		@ args = 8, pretend = 0, frame = 0
 389              		@ frame_needed = 0, uses_anonymous_args = 0
 390              		.loc 1 496 1 is_stmt 0 view .LVU84
 391 0000 38B5     		push	{r3, r4, r5, lr}
 392              	.LCFI4:
 393              		.cfi_def_cfa_offset 16
 394              		.cfi_offset 3, -16
 395              		.cfi_offset 4, -12
 396              		.cfi_offset 5, -8
 397              		.cfi_offset 14, -4
 398 0002 0546     		mov	r5, r0
 399 0004 BDF81440 		ldrh	r4, [sp, #20]
 497:../../Middlewares/Third_Party/LwIP/src/apps/mqtt/mqtt.c ****   /* Start with control byte */
 498:../../Middlewares/Third_Party/LwIP/src/apps/mqtt/mqtt.c ****   mqtt_output_append_u8(rb, (((msg_type & 0x0f) << 4) | ((fdup & 1) << 3) | ((fqos & 3) << 1) | (fr
 400              		.loc 1 498 3 is_stmt 1 view .LVU85
 401              		.loc 1 498 69 is_stmt 0 view .LVU86
 402 0008 D200     		lsls	r2, r2, #3
 403              	.LVL31:
 404              		.loc 1 498 69 view .LVU87
 405 000a 02F00802 		and	r2, r2, #8
 406              		.loc 1 498 55 view .LVU88
 407 000e 42EA0112 		orr	r2, r2, r1, lsl #4
 408 0012 52B2     		sxtb	r2, r2
 409              		.loc 1 498 89 view .LVU89
 410 0014 5B00     		lsls	r3, r3, #1
 411              	.LVL32:
 412              		.loc 1 498 89 view .LVU90
 413 0016 03F00603 		and	r3, r3, #6
 414              		.loc 1 498 75 view .LVU91
 415 001a 1A43     		orrs	r2, r2, r3
 416              		.loc 1 498 3 view .LVU92
 417 001c 9DF81010 		ldrb	r1, [sp, #16]	@ zero_extendqisi2
 418              	.LVL33:
 419              		.loc 1 498 3 view .LVU93
 420 0020 01F00101 		and	r1, r1, #1
 421 0024 1143     		orrs	r1, r1, r2
 422 0026 C9B2     		uxtb	r1, r1
 423 0028 FFF7FEFF 		bl	mqtt_output_append_u8
 424              	.LVL34:
 425              		.loc 1 498 3 view .LVU94
 426 002c 07E0     		b	.L24
 427              	.LVL35:
ARM GAS  C:\Users\minis\AppData\Local\Temp\ccG6JyYg.s 			page 17


 428              	.L25:
 499:../../Middlewares/Third_Party/LwIP/src/apps/mqtt/mqtt.c ****   /* Encode remaining length field */
 500:../../Middlewares/Third_Party/LwIP/src/apps/mqtt/mqtt.c ****   do {
 501:../../Middlewares/Third_Party/LwIP/src/apps/mqtt/mqtt.c ****     mqtt_output_append_u8(rb, (r_length & 0x7f) | (r_length >= 128 ? 0x80 : 0));
 429              		.loc 1 501 49 discriminator 2 view .LVU95
 430 002e 0023     		movs	r3, #0
 431              	.L23:
 432              		.loc 1 501 49 discriminator 4 view .LVU96
 433 0030 1943     		orrs	r1, r1, r3
 434              		.loc 1 501 5 discriminator 4 view .LVU97
 435 0032 C9B2     		uxtb	r1, r1
 436 0034 2846     		mov	r0, r5
 437 0036 FFF7FEFF 		bl	mqtt_output_append_u8
 438              	.LVL36:
 502:../../Middlewares/Third_Party/LwIP/src/apps/mqtt/mqtt.c ****     r_length >>= 7;
 439              		.loc 1 502 5 is_stmt 1 view .LVU98
 503:../../Middlewares/Third_Party/LwIP/src/apps/mqtt/mqtt.c ****   } while (r_length > 0);
 440              		.loc 1 503 21 view .LVU99
 441 003a E409     		lsrs	r4, r4, #7
 442              	.LVL37:
 443              		.loc 1 503 21 is_stmt 0 view .LVU100
 444 003c 06D0     		beq	.L27
 445              	.LVL38:
 446              	.L24:
 500:../../Middlewares/Third_Party/LwIP/src/apps/mqtt/mqtt.c ****     mqtt_output_append_u8(rb, (r_length & 0x7f) | (r_length >= 128 ? 0x80 : 0));
 447              		.loc 1 500 3 is_stmt 1 view .LVU101
 501:../../Middlewares/Third_Party/LwIP/src/apps/mqtt/mqtt.c ****     r_length >>= 7;
 448              		.loc 1 501 5 view .LVU102
 501:../../Middlewares/Third_Party/LwIP/src/apps/mqtt/mqtt.c ****     r_length >>= 7;
 449              		.loc 1 501 41 is_stmt 0 view .LVU103
 450 003e 04F07F01 		and	r1, r4, #127
 501:../../Middlewares/Third_Party/LwIP/src/apps/mqtt/mqtt.c ****     r_length >>= 7;
 451              		.loc 1 501 49 view .LVU104
 452 0042 7F2C     		cmp	r4, #127
 453 0044 F3D9     		bls	.L25
 501:../../Middlewares/Third_Party/LwIP/src/apps/mqtt/mqtt.c ****     r_length >>= 7;
 454              		.loc 1 501 49 discriminator 1 view .LVU105
 455 0046 6FF07F03 		mvn	r3, #127
 456 004a F1E7     		b	.L23
 457              	.LVL39:
 458              	.L27:
 504:../../Middlewares/Third_Party/LwIP/src/apps/mqtt/mqtt.c **** }
 459              		.loc 1 504 1 view .LVU106
 460 004c 38BD     		pop	{r3, r4, r5, pc}
 461              		.loc 1 504 1 view .LVU107
 462              		.cfi_endproc
 463              	.LFE191:
 465              		.section	.text.mqtt_incomming_suback,"ax",%progbits
 466              		.align	1
 467              		.syntax unified
 468              		.thumb
 469              		.thumb_func
 471              	mqtt_incomming_suback:
 472              	.LVL40:
 473              	.LFB196:
 505:../../Middlewares/Third_Party/LwIP/src/apps/mqtt/mqtt.c **** 
 506:../../Middlewares/Third_Party/LwIP/src/apps/mqtt/mqtt.c **** 
ARM GAS  C:\Users\minis\AppData\Local\Temp\ccG6JyYg.s 			page 18


 507:../../Middlewares/Third_Party/LwIP/src/apps/mqtt/mqtt.c **** /**
 508:../../Middlewares/Third_Party/LwIP/src/apps/mqtt/mqtt.c ****  * Check output buffer space
 509:../../Middlewares/Third_Party/LwIP/src/apps/mqtt/mqtt.c ****  * @param rb Output ring buffer
 510:../../Middlewares/Third_Party/LwIP/src/apps/mqtt/mqtt.c ****  * @param r_length Remaining length after fixed header
 511:../../Middlewares/Third_Party/LwIP/src/apps/mqtt/mqtt.c ****  * @return 1 if message will fit, 0 if not enough buffer space
 512:../../Middlewares/Third_Party/LwIP/src/apps/mqtt/mqtt.c ****  */
 513:../../Middlewares/Third_Party/LwIP/src/apps/mqtt/mqtt.c **** static u8_t
 514:../../Middlewares/Third_Party/LwIP/src/apps/mqtt/mqtt.c **** mqtt_output_check_space(struct mqtt_ringbuf_t *rb, u16_t r_length)
 515:../../Middlewares/Third_Party/LwIP/src/apps/mqtt/mqtt.c **** {
 516:../../Middlewares/Third_Party/LwIP/src/apps/mqtt/mqtt.c ****   /* Start with length of type byte + remaining length */
 517:../../Middlewares/Third_Party/LwIP/src/apps/mqtt/mqtt.c ****   u16_t total_len = 1 + r_length;
 518:../../Middlewares/Third_Party/LwIP/src/apps/mqtt/mqtt.c **** 
 519:../../Middlewares/Third_Party/LwIP/src/apps/mqtt/mqtt.c ****   LWIP_ASSERT("mqtt_output_check_space: rb != NULL", rb != NULL);
 520:../../Middlewares/Third_Party/LwIP/src/apps/mqtt/mqtt.c **** 
 521:../../Middlewares/Third_Party/LwIP/src/apps/mqtt/mqtt.c ****   /* Calculate number of required bytes to contain the remaining bytes field and add to total*/
 522:../../Middlewares/Third_Party/LwIP/src/apps/mqtt/mqtt.c ****   do {
 523:../../Middlewares/Third_Party/LwIP/src/apps/mqtt/mqtt.c ****     total_len++;
 524:../../Middlewares/Third_Party/LwIP/src/apps/mqtt/mqtt.c ****     r_length >>= 7;
 525:../../Middlewares/Third_Party/LwIP/src/apps/mqtt/mqtt.c ****   } while (r_length > 0);
 526:../../Middlewares/Third_Party/LwIP/src/apps/mqtt/mqtt.c **** 
 527:../../Middlewares/Third_Party/LwIP/src/apps/mqtt/mqtt.c ****   return (total_len <= mqtt_ringbuf_free(rb));
 528:../../Middlewares/Third_Party/LwIP/src/apps/mqtt/mqtt.c **** }
 529:../../Middlewares/Third_Party/LwIP/src/apps/mqtt/mqtt.c **** 
 530:../../Middlewares/Third_Party/LwIP/src/apps/mqtt/mqtt.c **** 
 531:../../Middlewares/Third_Party/LwIP/src/apps/mqtt/mqtt.c **** /**
 532:../../Middlewares/Third_Party/LwIP/src/apps/mqtt/mqtt.c ****  * Close connection to server
 533:../../Middlewares/Third_Party/LwIP/src/apps/mqtt/mqtt.c ****  * @param client MQTT client
 534:../../Middlewares/Third_Party/LwIP/src/apps/mqtt/mqtt.c ****  * @param reason Reason for disconnection
 535:../../Middlewares/Third_Party/LwIP/src/apps/mqtt/mqtt.c ****  */
 536:../../Middlewares/Third_Party/LwIP/src/apps/mqtt/mqtt.c **** static void
 537:../../Middlewares/Third_Party/LwIP/src/apps/mqtt/mqtt.c **** mqtt_close(mqtt_client_t *client, mqtt_connection_status_t reason)
 538:../../Middlewares/Third_Party/LwIP/src/apps/mqtt/mqtt.c **** {
 539:../../Middlewares/Third_Party/LwIP/src/apps/mqtt/mqtt.c ****   LWIP_ASSERT("mqtt_close: client != NULL", client != NULL);
 540:../../Middlewares/Third_Party/LwIP/src/apps/mqtt/mqtt.c **** 
 541:../../Middlewares/Third_Party/LwIP/src/apps/mqtt/mqtt.c ****   /* Bring down TCP connection if not already done */
 542:../../Middlewares/Third_Party/LwIP/src/apps/mqtt/mqtt.c ****   if (client->conn != NULL) {
 543:../../Middlewares/Third_Party/LwIP/src/apps/mqtt/mqtt.c ****     err_t res;
 544:../../Middlewares/Third_Party/LwIP/src/apps/mqtt/mqtt.c ****     altcp_recv(client->conn, NULL);
 545:../../Middlewares/Third_Party/LwIP/src/apps/mqtt/mqtt.c ****     altcp_err(client->conn,  NULL);
 546:../../Middlewares/Third_Party/LwIP/src/apps/mqtt/mqtt.c ****     altcp_sent(client->conn, NULL);
 547:../../Middlewares/Third_Party/LwIP/src/apps/mqtt/mqtt.c ****     res = altcp_close(client->conn);
 548:../../Middlewares/Third_Party/LwIP/src/apps/mqtt/mqtt.c ****     if (res != ERR_OK) {
 549:../../Middlewares/Third_Party/LwIP/src/apps/mqtt/mqtt.c ****       altcp_abort(client->conn);
 550:../../Middlewares/Third_Party/LwIP/src/apps/mqtt/mqtt.c ****       LWIP_DEBUGF(MQTT_DEBUG_TRACE, ("mqtt_close: Close err=%s\n", lwip_strerr(res)));
 551:../../Middlewares/Third_Party/LwIP/src/apps/mqtt/mqtt.c ****     }
 552:../../Middlewares/Third_Party/LwIP/src/apps/mqtt/mqtt.c ****     client->conn = NULL;
 553:../../Middlewares/Third_Party/LwIP/src/apps/mqtt/mqtt.c ****   }
 554:../../Middlewares/Third_Party/LwIP/src/apps/mqtt/mqtt.c **** 
 555:../../Middlewares/Third_Party/LwIP/src/apps/mqtt/mqtt.c ****   /* Remove all pending requests */
 556:../../Middlewares/Third_Party/LwIP/src/apps/mqtt/mqtt.c ****   mqtt_clear_requests(&client->pend_req_queue);
 557:../../Middlewares/Third_Party/LwIP/src/apps/mqtt/mqtt.c ****   /* Stop cyclic timer */
 558:../../Middlewares/Third_Party/LwIP/src/apps/mqtt/mqtt.c ****   sys_untimeout(mqtt_cyclic_timer, client);
 559:../../Middlewares/Third_Party/LwIP/src/apps/mqtt/mqtt.c **** 
 560:../../Middlewares/Third_Party/LwIP/src/apps/mqtt/mqtt.c ****   /* Notify upper layer of disconnection if changed state */
 561:../../Middlewares/Third_Party/LwIP/src/apps/mqtt/mqtt.c ****   if (client->conn_state != TCP_DISCONNECTED) {
 562:../../Middlewares/Third_Party/LwIP/src/apps/mqtt/mqtt.c **** 
 563:../../Middlewares/Third_Party/LwIP/src/apps/mqtt/mqtt.c ****     client->conn_state = TCP_DISCONNECTED;
ARM GAS  C:\Users\minis\AppData\Local\Temp\ccG6JyYg.s 			page 19


 564:../../Middlewares/Third_Party/LwIP/src/apps/mqtt/mqtt.c ****     if (client->connect_cb != NULL) {
 565:../../Middlewares/Third_Party/LwIP/src/apps/mqtt/mqtt.c ****       client->connect_cb(client, client->connect_arg, reason);
 566:../../Middlewares/Third_Party/LwIP/src/apps/mqtt/mqtt.c ****     }
 567:../../Middlewares/Third_Party/LwIP/src/apps/mqtt/mqtt.c ****   }
 568:../../Middlewares/Third_Party/LwIP/src/apps/mqtt/mqtt.c **** }
 569:../../Middlewares/Third_Party/LwIP/src/apps/mqtt/mqtt.c **** 
 570:../../Middlewares/Third_Party/LwIP/src/apps/mqtt/mqtt.c **** 
 571:../../Middlewares/Third_Party/LwIP/src/apps/mqtt/mqtt.c **** /**
 572:../../Middlewares/Third_Party/LwIP/src/apps/mqtt/mqtt.c ****  * Interval timer, called every MQTT_CYCLIC_TIMER_INTERVAL seconds in MQTT_CONNECTING and MQTT_CONN
 573:../../Middlewares/Third_Party/LwIP/src/apps/mqtt/mqtt.c ****  * @param arg MQTT client
 574:../../Middlewares/Third_Party/LwIP/src/apps/mqtt/mqtt.c ****  */
 575:../../Middlewares/Third_Party/LwIP/src/apps/mqtt/mqtt.c **** static void
 576:../../Middlewares/Third_Party/LwIP/src/apps/mqtt/mqtt.c **** mqtt_cyclic_timer(void *arg)
 577:../../Middlewares/Third_Party/LwIP/src/apps/mqtt/mqtt.c **** {
 578:../../Middlewares/Third_Party/LwIP/src/apps/mqtt/mqtt.c ****   u8_t restart_timer = 1;
 579:../../Middlewares/Third_Party/LwIP/src/apps/mqtt/mqtt.c ****   mqtt_client_t *client = (mqtt_client_t *)arg;
 580:../../Middlewares/Third_Party/LwIP/src/apps/mqtt/mqtt.c ****   LWIP_ASSERT("mqtt_cyclic_timer: client != NULL", client != NULL);
 581:../../Middlewares/Third_Party/LwIP/src/apps/mqtt/mqtt.c **** 
 582:../../Middlewares/Third_Party/LwIP/src/apps/mqtt/mqtt.c ****   if (client->conn_state == MQTT_CONNECTING) {
 583:../../Middlewares/Third_Party/LwIP/src/apps/mqtt/mqtt.c ****     client->cyclic_tick++;
 584:../../Middlewares/Third_Party/LwIP/src/apps/mqtt/mqtt.c ****     if ((client->cyclic_tick * MQTT_CYCLIC_TIMER_INTERVAL) >= MQTT_CONNECT_TIMOUT) {
 585:../../Middlewares/Third_Party/LwIP/src/apps/mqtt/mqtt.c ****       LWIP_DEBUGF(MQTT_DEBUG_TRACE, ("mqtt_cyclic_timer: CONNECT attempt to server timed out\n"));
 586:../../Middlewares/Third_Party/LwIP/src/apps/mqtt/mqtt.c ****       /* Disconnect TCP */
 587:../../Middlewares/Third_Party/LwIP/src/apps/mqtt/mqtt.c ****       mqtt_close(client, MQTT_CONNECT_TIMEOUT);
 588:../../Middlewares/Third_Party/LwIP/src/apps/mqtt/mqtt.c ****       restart_timer = 0;
 589:../../Middlewares/Third_Party/LwIP/src/apps/mqtt/mqtt.c ****     }
 590:../../Middlewares/Third_Party/LwIP/src/apps/mqtt/mqtt.c ****   } else if (client->conn_state == MQTT_CONNECTED) {
 591:../../Middlewares/Third_Party/LwIP/src/apps/mqtt/mqtt.c ****     /* Handle timeout for pending requests */
 592:../../Middlewares/Third_Party/LwIP/src/apps/mqtt/mqtt.c ****     mqtt_request_time_elapsed(&client->pend_req_queue, MQTT_CYCLIC_TIMER_INTERVAL);
 593:../../Middlewares/Third_Party/LwIP/src/apps/mqtt/mqtt.c **** 
 594:../../Middlewares/Third_Party/LwIP/src/apps/mqtt/mqtt.c ****     /* keep_alive > 0 means keep alive functionality shall be used */
 595:../../Middlewares/Third_Party/LwIP/src/apps/mqtt/mqtt.c ****     if (client->keep_alive > 0) {
 596:../../Middlewares/Third_Party/LwIP/src/apps/mqtt/mqtt.c **** 
 597:../../Middlewares/Third_Party/LwIP/src/apps/mqtt/mqtt.c ****       client->server_watchdog++;
 598:../../Middlewares/Third_Party/LwIP/src/apps/mqtt/mqtt.c ****       /* If reception from server has been idle for 1.5*keep_alive time, server is considered unres
 599:../../Middlewares/Third_Party/LwIP/src/apps/mqtt/mqtt.c ****       if ((client->server_watchdog * MQTT_CYCLIC_TIMER_INTERVAL) > (client->keep_alive + client->ke
 600:../../Middlewares/Third_Party/LwIP/src/apps/mqtt/mqtt.c ****         LWIP_DEBUGF(MQTT_DEBUG_WARN, ("mqtt_cyclic_timer: Server incoming keep-alive timeout\n"));
 601:../../Middlewares/Third_Party/LwIP/src/apps/mqtt/mqtt.c ****         mqtt_close(client, MQTT_CONNECT_TIMEOUT);
 602:../../Middlewares/Third_Party/LwIP/src/apps/mqtt/mqtt.c ****         restart_timer = 0;
 603:../../Middlewares/Third_Party/LwIP/src/apps/mqtt/mqtt.c ****       }
 604:../../Middlewares/Third_Party/LwIP/src/apps/mqtt/mqtt.c **** 
 605:../../Middlewares/Third_Party/LwIP/src/apps/mqtt/mqtt.c ****       /* If time for a keep alive message to be sent, transmission has been idle for keep_alive tim
 606:../../Middlewares/Third_Party/LwIP/src/apps/mqtt/mqtt.c ****       if ((client->cyclic_tick * MQTT_CYCLIC_TIMER_INTERVAL) >= client->keep_alive) {
 607:../../Middlewares/Third_Party/LwIP/src/apps/mqtt/mqtt.c ****         LWIP_DEBUGF(MQTT_DEBUG_TRACE, ("mqtt_cyclic_timer: Sending keep-alive message to server\n")
 608:../../Middlewares/Third_Party/LwIP/src/apps/mqtt/mqtt.c ****         if (mqtt_output_check_space(&client->output, 0) != 0) {
 609:../../Middlewares/Third_Party/LwIP/src/apps/mqtt/mqtt.c ****           mqtt_output_append_fixed_header(&client->output, MQTT_MSG_TYPE_PINGREQ, 0, 0, 0, 0);
 610:../../Middlewares/Third_Party/LwIP/src/apps/mqtt/mqtt.c ****           client->cyclic_tick = 0;
 611:../../Middlewares/Third_Party/LwIP/src/apps/mqtt/mqtt.c ****         }
 612:../../Middlewares/Third_Party/LwIP/src/apps/mqtt/mqtt.c ****       } else {
 613:../../Middlewares/Third_Party/LwIP/src/apps/mqtt/mqtt.c ****         client->cyclic_tick++;
 614:../../Middlewares/Third_Party/LwIP/src/apps/mqtt/mqtt.c ****       }
 615:../../Middlewares/Third_Party/LwIP/src/apps/mqtt/mqtt.c ****     }
 616:../../Middlewares/Third_Party/LwIP/src/apps/mqtt/mqtt.c ****   } else {
 617:../../Middlewares/Third_Party/LwIP/src/apps/mqtt/mqtt.c ****     LWIP_DEBUGF(MQTT_DEBUG_WARN, ("mqtt_cyclic_timer: Timer should not be running in state %d\n", c
 618:../../Middlewares/Third_Party/LwIP/src/apps/mqtt/mqtt.c ****     restart_timer = 0;
 619:../../Middlewares/Third_Party/LwIP/src/apps/mqtt/mqtt.c ****   }
 620:../../Middlewares/Third_Party/LwIP/src/apps/mqtt/mqtt.c ****   if (restart_timer) {
ARM GAS  C:\Users\minis\AppData\Local\Temp\ccG6JyYg.s 			page 20


 621:../../Middlewares/Third_Party/LwIP/src/apps/mqtt/mqtt.c ****     sys_timeout(MQTT_CYCLIC_TIMER_INTERVAL * 1000, mqtt_cyclic_timer, arg);
 622:../../Middlewares/Third_Party/LwIP/src/apps/mqtt/mqtt.c ****   }
 623:../../Middlewares/Third_Party/LwIP/src/apps/mqtt/mqtt.c **** }
 624:../../Middlewares/Third_Party/LwIP/src/apps/mqtt/mqtt.c **** 
 625:../../Middlewares/Third_Party/LwIP/src/apps/mqtt/mqtt.c **** 
 626:../../Middlewares/Third_Party/LwIP/src/apps/mqtt/mqtt.c **** /**
 627:../../Middlewares/Third_Party/LwIP/src/apps/mqtt/mqtt.c ****  * Send PUBACK, PUBREC or PUBREL response message
 628:../../Middlewares/Third_Party/LwIP/src/apps/mqtt/mqtt.c ****  * @param client MQTT client
 629:../../Middlewares/Third_Party/LwIP/src/apps/mqtt/mqtt.c ****  * @param msg PUBACK, PUBREC or PUBREL
 630:../../Middlewares/Third_Party/LwIP/src/apps/mqtt/mqtt.c ****  * @param pkt_id Packet identifier
 631:../../Middlewares/Third_Party/LwIP/src/apps/mqtt/mqtt.c ****  * @param qos QoS value
 632:../../Middlewares/Third_Party/LwIP/src/apps/mqtt/mqtt.c ****  * @return ERR_OK if successful, ERR_MEM if out of memory
 633:../../Middlewares/Third_Party/LwIP/src/apps/mqtt/mqtt.c ****  */
 634:../../Middlewares/Third_Party/LwIP/src/apps/mqtt/mqtt.c **** static err_t
 635:../../Middlewares/Third_Party/LwIP/src/apps/mqtt/mqtt.c **** pub_ack_rec_rel_response(mqtt_client_t *client, u8_t msg, u16_t pkt_id, u8_t qos)
 636:../../Middlewares/Third_Party/LwIP/src/apps/mqtt/mqtt.c **** {
 637:../../Middlewares/Third_Party/LwIP/src/apps/mqtt/mqtt.c ****   err_t err = ERR_OK;
 638:../../Middlewares/Third_Party/LwIP/src/apps/mqtt/mqtt.c ****   if (mqtt_output_check_space(&client->output, 2)) {
 639:../../Middlewares/Third_Party/LwIP/src/apps/mqtt/mqtt.c ****     mqtt_output_append_fixed_header(&client->output, msg, 0, qos, 0, 2);
 640:../../Middlewares/Third_Party/LwIP/src/apps/mqtt/mqtt.c ****     mqtt_output_append_u16(&client->output, pkt_id);
 641:../../Middlewares/Third_Party/LwIP/src/apps/mqtt/mqtt.c ****     mqtt_output_send(&client->output, client->conn);
 642:../../Middlewares/Third_Party/LwIP/src/apps/mqtt/mqtt.c ****   } else {
 643:../../Middlewares/Third_Party/LwIP/src/apps/mqtt/mqtt.c ****     LWIP_DEBUGF(MQTT_DEBUG_TRACE, ("pub_ack_rec_rel_response: OOM creating response: %s with pkt_id
 644:../../Middlewares/Third_Party/LwIP/src/apps/mqtt/mqtt.c ****                                    mqtt_msg_type_to_str(msg), pkt_id));
 645:../../Middlewares/Third_Party/LwIP/src/apps/mqtt/mqtt.c ****     err = ERR_MEM;
 646:../../Middlewares/Third_Party/LwIP/src/apps/mqtt/mqtt.c ****   }
 647:../../Middlewares/Third_Party/LwIP/src/apps/mqtt/mqtt.c ****   return err;
 648:../../Middlewares/Third_Party/LwIP/src/apps/mqtt/mqtt.c **** }
 649:../../Middlewares/Third_Party/LwIP/src/apps/mqtt/mqtt.c **** 
 650:../../Middlewares/Third_Party/LwIP/src/apps/mqtt/mqtt.c **** /**
 651:../../Middlewares/Third_Party/LwIP/src/apps/mqtt/mqtt.c ****  * Subscribe response from server
 652:../../Middlewares/Third_Party/LwIP/src/apps/mqtt/mqtt.c ****  * @param r Matching request
 653:../../Middlewares/Third_Party/LwIP/src/apps/mqtt/mqtt.c ****  * @param result Result code from server
 654:../../Middlewares/Third_Party/LwIP/src/apps/mqtt/mqtt.c ****  */
 655:../../Middlewares/Third_Party/LwIP/src/apps/mqtt/mqtt.c **** static void
 656:../../Middlewares/Third_Party/LwIP/src/apps/mqtt/mqtt.c **** mqtt_incomming_suback(struct mqtt_request_t *r, u8_t result)
 657:../../Middlewares/Third_Party/LwIP/src/apps/mqtt/mqtt.c **** {
 474              		.loc 1 657 1 is_stmt 1 view -0
 475              		.cfi_startproc
 476              		@ args = 0, pretend = 0, frame = 0
 477              		@ frame_needed = 0, uses_anonymous_args = 0
 478              		.loc 1 657 1 is_stmt 0 view .LVU109
 479 0000 08B5     		push	{r3, lr}
 480              	.LCFI5:
 481              		.cfi_def_cfa_offset 8
 482              		.cfi_offset 3, -8
 483              		.cfi_offset 14, -4
 658:../../Middlewares/Third_Party/LwIP/src/apps/mqtt/mqtt.c ****   if (r->cb != NULL) {
 484              		.loc 1 658 3 is_stmt 1 view .LVU110
 485              		.loc 1 658 8 is_stmt 0 view .LVU111
 486 0002 4368     		ldr	r3, [r0, #4]
 487              		.loc 1 658 6 view .LVU112
 488 0004 23B1     		cbz	r3, .L28
 659:../../Middlewares/Third_Party/LwIP/src/apps/mqtt/mqtt.c ****     r->cb(r->arg, result < 3 ? ERR_OK : ERR_ABRT);
 489              		.loc 1 659 5 is_stmt 1 view .LVU113
 490 0006 8068     		ldr	r0, [r0, #8]
 491              	.LVL41:
ARM GAS  C:\Users\minis\AppData\Local\Temp\ccG6JyYg.s 			page 21


 492              		.loc 1 659 5 is_stmt 0 view .LVU114
 493 0008 0229     		cmp	r1, #2
 494 000a 02D8     		bhi	.L31
 495              		.loc 1 659 5 discriminator 1 view .LVU115
 496 000c 0021     		movs	r1, #0
 497              	.LVL42:
 498              	.L30:
 499              		.loc 1 659 5 discriminator 4 view .LVU116
 500 000e 9847     		blx	r3
 501              	.LVL43:
 502              	.L28:
 660:../../Middlewares/Third_Party/LwIP/src/apps/mqtt/mqtt.c ****   }
 661:../../Middlewares/Third_Party/LwIP/src/apps/mqtt/mqtt.c **** }
 503              		.loc 1 661 1 view .LVU117
 504 0010 08BD     		pop	{r3, pc}
 505              	.LVL44:
 506              	.L31:
 659:../../Middlewares/Third_Party/LwIP/src/apps/mqtt/mqtt.c ****     r->cb(r->arg, result < 3 ? ERR_OK : ERR_ABRT);
 507              		.loc 1 659 5 discriminator 2 view .LVU118
 508 0012 6FF00C01 		mvn	r1, #12
 509              	.LVL45:
 659:../../Middlewares/Third_Party/LwIP/src/apps/mqtt/mqtt.c ****     r->cb(r->arg, result < 3 ? ERR_OK : ERR_ABRT);
 510              		.loc 1 659 5 discriminator 2 view .LVU119
 511 0016 FAE7     		b	.L30
 512              		.cfi_endproc
 513              	.LFE196:
 515              		.section	.rodata.mqtt_create_request.str1.4,"aMS",%progbits,1
 516              		.align	2
 517              	.LC0:
 518 0000 2E2E2F2E 		.ascii	"../../Middlewares/Third_Party/LwIP/src/apps/mqtt/mq"
 518      2E2F4D69 
 518      64646C65 
 518      77617265 
 518      732F5468 
 519 0033 74742E63 		.ascii	"tt.c\000"
 519      00
 520              		.align	2
 521              	.LC1:
 522 0038 6D717474 		.ascii	"mqtt_create_request: r_objs != NULL\000"
 522      5F637265 
 522      6174655F 
 522      72657175 
 522      6573743A 
 523              		.align	2
 524              	.LC2:
 525 005c 41737365 		.ascii	"Assertion \"%s\" failed at line %d in %s\012\000"
 525      7274696F 
 525      6E202225 
 525      73222066 
 525      61696C65 
 526              		.section	.text.mqtt_create_request,"ax",%progbits
 527              		.align	1
 528              		.syntax unified
 529              		.thumb
 530              		.thumb_func
 532              	mqtt_create_request:
 533              	.LVL46:
ARM GAS  C:\Users\minis\AppData\Local\Temp\ccG6JyYg.s 			page 22


 534              	.LFB180:
 288:../../Middlewares/Third_Party/LwIP/src/apps/mqtt/mqtt.c ****   struct mqtt_request_t *r = NULL;
 535              		.loc 1 288 1 is_stmt 1 view -0
 536              		.cfi_startproc
 537              		@ args = 4, pretend = 0, frame = 0
 538              		@ frame_needed = 0, uses_anonymous_args = 0
 288:../../Middlewares/Third_Party/LwIP/src/apps/mqtt/mqtt.c ****   struct mqtt_request_t *r = NULL;
 539              		.loc 1 288 1 is_stmt 0 view .LVU121
 540 0000 F8B5     		push	{r3, r4, r5, r6, r7, lr}
 541              	.LCFI6:
 542              		.cfi_def_cfa_offset 24
 543              		.cfi_offset 3, -24
 544              		.cfi_offset 4, -20
 545              		.cfi_offset 5, -16
 546              		.cfi_offset 6, -12
 547              		.cfi_offset 7, -8
 548              		.cfi_offset 14, -4
 549 0002 0D46     		mov	r5, r1
 550 0004 1646     		mov	r6, r2
 551 0006 1F46     		mov	r7, r3
 289:../../Middlewares/Third_Party/LwIP/src/apps/mqtt/mqtt.c ****   u8_t n;
 552              		.loc 1 289 3 is_stmt 1 view .LVU122
 553              	.LVL47:
 290:../../Middlewares/Third_Party/LwIP/src/apps/mqtt/mqtt.c ****   LWIP_ASSERT("mqtt_create_request: r_objs != NULL", r_objs != NULL);
 554              		.loc 1 290 3 view .LVU123
 291:../../Middlewares/Third_Party/LwIP/src/apps/mqtt/mqtt.c ****   for (n = 0; n < r_objs_len; n++) {
 555              		.loc 1 291 3 view .LVU124
 291:../../Middlewares/Third_Party/LwIP/src/apps/mqtt/mqtt.c ****   for (n = 0; n < r_objs_len; n++) {
 556              		.loc 1 291 3 view .LVU125
 557 0008 0446     		mov	r4, r0
 558 000a 10B1     		cbz	r0, .L40
 559              	.LVL48:
 560              	.L34:
 291:../../Middlewares/Third_Party/LwIP/src/apps/mqtt/mqtt.c ****   for (n = 0; n < r_objs_len; n++) {
 561              		.loc 1 291 3 view .LVU126
 291:../../Middlewares/Third_Party/LwIP/src/apps/mqtt/mqtt.c ****   for (n = 0; n < r_objs_len; n++) {
 562              		.loc 1 291 3 view .LVU127
 292:../../Middlewares/Third_Party/LwIP/src/apps/mqtt/mqtt.c ****     /* Item point to itself if not in use */
 563              		.loc 1 292 3 view .LVU128
 292:../../Middlewares/Third_Party/LwIP/src/apps/mqtt/mqtt.c ****     /* Item point to itself if not in use */
 564              		.loc 1 292 10 is_stmt 0 view .LVU129
 565 000c 4FF0000C 		mov	ip, #0
 292:../../Middlewares/Third_Party/LwIP/src/apps/mqtt/mqtt.c ****     /* Item point to itself if not in use */
 566              		.loc 1 292 3 view .LVU130
 567 0010 0BE0     		b	.L35
 568              	.LVL49:
 569              	.L40:
 291:../../Middlewares/Third_Party/LwIP/src/apps/mqtt/mqtt.c ****   for (n = 0; n < r_objs_len; n++) {
 570              		.loc 1 291 3 is_stmt 1 discriminator 1 view .LVU131
 291:../../Middlewares/Third_Party/LwIP/src/apps/mqtt/mqtt.c ****   for (n = 0; n < r_objs_len; n++) {
 571              		.loc 1 291 3 discriminator 1 view .LVU132
 572 0012 104B     		ldr	r3, .L42
 573              	.LVL50:
 291:../../Middlewares/Third_Party/LwIP/src/apps/mqtt/mqtt.c ****   for (n = 0; n < r_objs_len; n++) {
 574              		.loc 1 291 3 is_stmt 0 discriminator 1 view .LVU133
 575 0014 40F22312 		movw	r2, #291
 576              	.LVL51:
ARM GAS  C:\Users\minis\AppData\Local\Temp\ccG6JyYg.s 			page 23


 291:../../Middlewares/Third_Party/LwIP/src/apps/mqtt/mqtt.c ****   for (n = 0; n < r_objs_len; n++) {
 577              		.loc 1 291 3 discriminator 1 view .LVU134
 578 0018 0F49     		ldr	r1, .L42+4
 579              	.LVL52:
 291:../../Middlewares/Third_Party/LwIP/src/apps/mqtt/mqtt.c ****   for (n = 0; n < r_objs_len; n++) {
 580              		.loc 1 291 3 discriminator 1 view .LVU135
 581 001a 1048     		ldr	r0, .L42+8
 582              	.LVL53:
 291:../../Middlewares/Third_Party/LwIP/src/apps/mqtt/mqtt.c ****   for (n = 0; n < r_objs_len; n++) {
 583              		.loc 1 291 3 discriminator 1 view .LVU136
 584 001c FFF7FEFF 		bl	printf
 585              	.LVL54:
 586 0020 F4E7     		b	.L34
 587              	.LVL55:
 588              	.L36:
 292:../../Middlewares/Third_Party/LwIP/src/apps/mqtt/mqtt.c ****     /* Item point to itself if not in use */
 589              		.loc 1 292 32 is_stmt 1 discriminator 2 view .LVU137
 590 0022 0CF1010C 		add	ip, ip, #1
 591              	.LVL56:
 292:../../Middlewares/Third_Party/LwIP/src/apps/mqtt/mqtt.c ****     /* Item point to itself if not in use */
 592              		.loc 1 292 32 is_stmt 0 discriminator 2 view .LVU138
 593 0026 5FFA8CFC 		uxtb	ip, ip
 594              	.LVL57:
 595              	.L35:
 292:../../Middlewares/Third_Party/LwIP/src/apps/mqtt/mqtt.c ****     /* Item point to itself if not in use */
 596              		.loc 1 292 17 is_stmt 1 discriminator 1 view .LVU139
 597 002a AC45     		cmp	ip, r5
 598 002c 0FD2     		bcs	.L41
 294:../../Middlewares/Third_Party/LwIP/src/apps/mqtt/mqtt.c ****       r = &r_objs[n];
 599              		.loc 1 294 5 view .LVU140
 294:../../Middlewares/Third_Party/LwIP/src/apps/mqtt/mqtt.c ****       r = &r_objs[n];
 600              		.loc 1 294 15 is_stmt 0 view .LVU141
 601 002e 4FEA0C1E 		lsl	lr, ip, #4
 602 0032 04EB0C10 		add	r0, r4, ip, lsl #4
 294:../../Middlewares/Third_Party/LwIP/src/apps/mqtt/mqtt.c ****       r = &r_objs[n];
 603              		.loc 1 294 18 view .LVU142
 604 0036 54F80E30 		ldr	r3, [r4, lr]
 294:../../Middlewares/Third_Party/LwIP/src/apps/mqtt/mqtt.c ****       r = &r_objs[n];
 605              		.loc 1 294 8 view .LVU143
 606 003a 9842     		cmp	r0, r3
 607 003c F1D1     		bne	.L36
 295:../../Middlewares/Third_Party/LwIP/src/apps/mqtt/mqtt.c ****       r->next = NULL;
 608              		.loc 1 295 7 is_stmt 1 view .LVU144
 609              	.LVL58:
 296:../../Middlewares/Third_Party/LwIP/src/apps/mqtt/mqtt.c ****       r->cb = cb;
 610              		.loc 1 296 7 view .LVU145
 296:../../Middlewares/Third_Party/LwIP/src/apps/mqtt/mqtt.c ****       r->cb = cb;
 611              		.loc 1 296 15 is_stmt 0 view .LVU146
 612 003e 0023     		movs	r3, #0
 613 0040 44F80E30 		str	r3, [r4, lr]
 297:../../Middlewares/Third_Party/LwIP/src/apps/mqtt/mqtt.c ****       r->arg = arg;
 614              		.loc 1 297 7 is_stmt 1 view .LVU147
 297:../../Middlewares/Third_Party/LwIP/src/apps/mqtt/mqtt.c ****       r->arg = arg;
 615              		.loc 1 297 13 is_stmt 0 view .LVU148
 616 0044 4760     		str	r7, [r0, #4]
 298:../../Middlewares/Third_Party/LwIP/src/apps/mqtt/mqtt.c ****       r->pkt_id = pkt_id;
 617              		.loc 1 298 7 is_stmt 1 view .LVU149
ARM GAS  C:\Users\minis\AppData\Local\Temp\ccG6JyYg.s 			page 24


 298:../../Middlewares/Third_Party/LwIP/src/apps/mqtt/mqtt.c ****       r->pkt_id = pkt_id;
 618              		.loc 1 298 14 is_stmt 0 view .LVU150
 619 0046 069B     		ldr	r3, [sp, #24]
 620 0048 8360     		str	r3, [r0, #8]
 299:../../Middlewares/Third_Party/LwIP/src/apps/mqtt/mqtt.c ****       break;
 621              		.loc 1 299 7 is_stmt 1 view .LVU151
 299:../../Middlewares/Third_Party/LwIP/src/apps/mqtt/mqtt.c ****       break;
 622              		.loc 1 299 17 is_stmt 0 view .LVU152
 623 004a 8681     		strh	r6, [r0, #12]	@ movhi
 300:../../Middlewares/Third_Party/LwIP/src/apps/mqtt/mqtt.c ****     }
 624              		.loc 1 300 7 is_stmt 1 view .LVU153
 625 004c 00E0     		b	.L33
 626              	.LVL59:
 627              	.L41:
 289:../../Middlewares/Third_Party/LwIP/src/apps/mqtt/mqtt.c ****   u8_t n;
 628              		.loc 1 289 26 is_stmt 0 view .LVU154
 629 004e 0020     		movs	r0, #0
 303:../../Middlewares/Third_Party/LwIP/src/apps/mqtt/mqtt.c **** }
 630              		.loc 1 303 3 is_stmt 1 view .LVU155
 631              	.LVL60:
 632              	.L33:
 304:../../Middlewares/Third_Party/LwIP/src/apps/mqtt/mqtt.c **** 
 633              		.loc 1 304 1 is_stmt 0 view .LVU156
 634 0050 F8BD     		pop	{r3, r4, r5, r6, r7, pc}
 635              	.LVL61:
 636              	.L43:
 304:../../Middlewares/Third_Party/LwIP/src/apps/mqtt/mqtt.c **** 
 637              		.loc 1 304 1 view .LVU157
 638 0052 00BF     		.align	2
 639              	.L42:
 640 0054 00000000 		.word	.LC0
 641 0058 38000000 		.word	.LC1
 642 005c 5C000000 		.word	.LC2
 643              		.cfi_endproc
 644              	.LFE180:
 646              		.section	.rodata.mqtt_output_check_space.str1.4,"aMS",%progbits,1
 647              		.align	2
 648              	.LC3:
 649 0000 6D717474 		.ascii	"mqtt_output_check_space: rb != NULL\000"
 649      5F6F7574 
 649      7075745F 
 649      63686563 
 649      6B5F7370 
 650              		.section	.text.mqtt_output_check_space,"ax",%progbits
 651              		.align	1
 652              		.syntax unified
 653              		.thumb
 654              		.thumb_func
 656              	mqtt_output_check_space:
 657              	.LVL62:
 658              	.LFB192:
 515:../../Middlewares/Third_Party/LwIP/src/apps/mqtt/mqtt.c ****   /* Start with length of type byte + remaining length */
 659              		.loc 1 515 1 is_stmt 1 view -0
 660              		.cfi_startproc
 661              		@ args = 0, pretend = 0, frame = 0
 662              		@ frame_needed = 0, uses_anonymous_args = 0
 515:../../Middlewares/Third_Party/LwIP/src/apps/mqtt/mqtt.c ****   /* Start with length of type byte + remaining length */
ARM GAS  C:\Users\minis\AppData\Local\Temp\ccG6JyYg.s 			page 25


 663              		.loc 1 515 1 is_stmt 0 view .LVU159
 664 0000 70B5     		push	{r4, r5, r6, lr}
 665              	.LCFI7:
 666              		.cfi_def_cfa_offset 16
 667              		.cfi_offset 4, -16
 668              		.cfi_offset 5, -12
 669              		.cfi_offset 6, -8
 670              		.cfi_offset 14, -4
 671 0002 0D46     		mov	r5, r1
 517:../../Middlewares/Third_Party/LwIP/src/apps/mqtt/mqtt.c **** 
 672              		.loc 1 517 3 is_stmt 1 view .LVU160
 517:../../Middlewares/Third_Party/LwIP/src/apps/mqtt/mqtt.c **** 
 673              		.loc 1 517 9 is_stmt 0 view .LVU161
 674 0004 4C1C     		adds	r4, r1, #1
 675 0006 A4B2     		uxth	r4, r4
 676              	.LVL63:
 519:../../Middlewares/Third_Party/LwIP/src/apps/mqtt/mqtt.c **** 
 677              		.loc 1 519 3 is_stmt 1 view .LVU162
 519:../../Middlewares/Third_Party/LwIP/src/apps/mqtt/mqtt.c **** 
 678              		.loc 1 519 3 view .LVU163
 679 0008 0646     		mov	r6, r0
 680 000a 68B1     		cbz	r0, .L48
 681              	.LVL64:
 682              	.L46:
 519:../../Middlewares/Third_Party/LwIP/src/apps/mqtt/mqtt.c **** 
 683              		.loc 1 519 3 view .LVU164
 519:../../Middlewares/Third_Party/LwIP/src/apps/mqtt/mqtt.c **** 
 684              		.loc 1 519 3 view .LVU165
 522:../../Middlewares/Third_Party/LwIP/src/apps/mqtt/mqtt.c ****     total_len++;
 685              		.loc 1 522 3 view .LVU166
 523:../../Middlewares/Third_Party/LwIP/src/apps/mqtt/mqtt.c ****     r_length >>= 7;
 686              		.loc 1 523 5 view .LVU167
 523:../../Middlewares/Third_Party/LwIP/src/apps/mqtt/mqtt.c ****     r_length >>= 7;
 687              		.loc 1 523 14 is_stmt 0 view .LVU168
 688 000c 0134     		adds	r4, r4, #1
 689              	.LVL65:
 523:../../Middlewares/Third_Party/LwIP/src/apps/mqtt/mqtt.c ****     r_length >>= 7;
 690              		.loc 1 523 14 view .LVU169
 691 000e A4B2     		uxth	r4, r4
 692              	.LVL66:
 524:../../Middlewares/Third_Party/LwIP/src/apps/mqtt/mqtt.c ****   } while (r_length > 0);
 693              		.loc 1 524 5 is_stmt 1 view .LVU170
 525:../../Middlewares/Third_Party/LwIP/src/apps/mqtt/mqtt.c **** 
 694              		.loc 1 525 21 discriminator 1 view .LVU171
 695 0010 ED09     		lsrs	r5, r5, #7
 696              	.LVL67:
 525:../../Middlewares/Third_Party/LwIP/src/apps/mqtt/mqtt.c **** 
 697              		.loc 1 525 21 is_stmt 0 discriminator 1 view .LVU172
 698 0012 FBD1     		bne	.L46
 527:../../Middlewares/Third_Party/LwIP/src/apps/mqtt/mqtt.c **** }
 699              		.loc 1 527 3 is_stmt 1 view .LVU173
 527:../../Middlewares/Third_Party/LwIP/src/apps/mqtt/mqtt.c **** }
 700              		.loc 1 527 24 is_stmt 0 view .LVU174
 701 0014 3046     		mov	r0, r6
 702 0016 FFF7FEFF 		bl	mqtt_ringbuf_len
 703              	.LVL68:
 527:../../Middlewares/Third_Party/LwIP/src/apps/mqtt/mqtt.c **** }
ARM GAS  C:\Users\minis\AppData\Local\Temp\ccG6JyYg.s 			page 26


 704              		.loc 1 527 24 discriminator 1 view .LVU175
 705 001a C0F58070 		rsb	r0, r0, #256
 528:../../Middlewares/Third_Party/LwIP/src/apps/mqtt/mqtt.c **** 
 706              		.loc 1 528 1 view .LVU176
 707 001e 8442     		cmp	r4, r0
 708 0020 CCBF     		ite	gt
 709 0022 0020     		movgt	r0, #0
 710 0024 0120     		movle	r0, #1
 711 0026 70BD     		pop	{r4, r5, r6, pc}
 712              	.LVL69:
 713              	.L48:
 519:../../Middlewares/Third_Party/LwIP/src/apps/mqtt/mqtt.c **** 
 714              		.loc 1 519 3 is_stmt 1 discriminator 1 view .LVU177
 519:../../Middlewares/Third_Party/LwIP/src/apps/mqtt/mqtt.c **** 
 715              		.loc 1 519 3 discriminator 1 view .LVU178
 716 0028 034B     		ldr	r3, .L49
 717 002a 40F20722 		movw	r2, #519
 718 002e 0349     		ldr	r1, .L49+4
 719              	.LVL70:
 519:../../Middlewares/Third_Party/LwIP/src/apps/mqtt/mqtt.c **** 
 720              		.loc 1 519 3 is_stmt 0 discriminator 1 view .LVU179
 721 0030 0348     		ldr	r0, .L49+8
 722              	.LVL71:
 519:../../Middlewares/Third_Party/LwIP/src/apps/mqtt/mqtt.c **** 
 723              		.loc 1 519 3 discriminator 1 view .LVU180
 724 0032 FFF7FEFF 		bl	printf
 725              	.LVL72:
 726 0036 E9E7     		b	.L46
 727              	.L50:
 728              		.align	2
 729              	.L49:
 730 0038 00000000 		.word	.LC0
 731 003c 00000000 		.word	.LC3
 732 0040 5C000000 		.word	.LC2
 733              		.cfi_endproc
 734              	.LFE192:
 736              		.section	.rodata.mqtt_append_request.str1.4,"aMS",%progbits,1
 737              		.align	2
 738              	.LC4:
 739 0000 6D717474 		.ascii	"mqtt_append_request: tail != NULL\000"
 739      5F617070 
 739      656E645F 
 739      72657175 
 739      6573743A 
 740 0022 0000     		.align	2
 741              	.LC5:
 742 0024 6D717474 		.ascii	"mqtt_append_request: time_before <= MQTT_REQ_TIMEOU"
 742      5F617070 
 742      656E645F 
 742      72657175 
 742      6573743A 
 743 0057 5400     		.ascii	"T\000"
 744              		.section	.text.mqtt_append_request,"ax",%progbits
 745              		.align	1
 746              		.syntax unified
 747              		.thumb
 748              		.thumb_func
ARM GAS  C:\Users\minis\AppData\Local\Temp\ccG6JyYg.s 			page 27


 750              	mqtt_append_request:
 751              	.LVL73:
 752              	.LFB181:
 314:../../Middlewares/Third_Party/LwIP/src/apps/mqtt/mqtt.c ****   struct mqtt_request_t *head = NULL;
 753              		.loc 1 314 1 is_stmt 1 view -0
 754              		.cfi_startproc
 755              		@ args = 0, pretend = 0, frame = 0
 756              		@ frame_needed = 0, uses_anonymous_args = 0
 314:../../Middlewares/Third_Party/LwIP/src/apps/mqtt/mqtt.c ****   struct mqtt_request_t *head = NULL;
 757              		.loc 1 314 1 is_stmt 0 view .LVU182
 758 0000 F8B5     		push	{r3, r4, r5, r6, r7, lr}
 759              	.LCFI8:
 760              		.cfi_def_cfa_offset 24
 761              		.cfi_offset 3, -24
 762              		.cfi_offset 4, -20
 763              		.cfi_offset 5, -16
 764              		.cfi_offset 6, -12
 765              		.cfi_offset 7, -8
 766              		.cfi_offset 14, -4
 767 0002 0E46     		mov	r6, r1
 315:../../Middlewares/Third_Party/LwIP/src/apps/mqtt/mqtt.c ****   s16_t time_before = 0;
 768              		.loc 1 315 3 is_stmt 1 view .LVU183
 769              	.LVL74:
 316:../../Middlewares/Third_Party/LwIP/src/apps/mqtt/mqtt.c ****   struct mqtt_request_t *iter;
 770              		.loc 1 316 3 view .LVU184
 317:../../Middlewares/Third_Party/LwIP/src/apps/mqtt/mqtt.c **** 
 771              		.loc 1 317 3 view .LVU185
 319:../../Middlewares/Third_Party/LwIP/src/apps/mqtt/mqtt.c **** 
 772              		.loc 1 319 3 view .LVU186
 319:../../Middlewares/Third_Party/LwIP/src/apps/mqtt/mqtt.c **** 
 773              		.loc 1 319 3 view .LVU187
 774 0004 0746     		mov	r7, r0
 775 0006 18B1     		cbz	r0, .L59
 776              	.LVL75:
 777              	.L52:
 319:../../Middlewares/Third_Party/LwIP/src/apps/mqtt/mqtt.c **** 
 778              		.loc 1 319 3 view .LVU188
 319:../../Middlewares/Third_Party/LwIP/src/apps/mqtt/mqtt.c **** 
 779              		.loc 1 319 3 view .LVU189
 322:../../Middlewares/Third_Party/LwIP/src/apps/mqtt/mqtt.c ****     time_before += iter->timeout_diff;
 780              		.loc 1 322 3 view .LVU190
 322:../../Middlewares/Third_Party/LwIP/src/apps/mqtt/mqtt.c ****     time_before += iter->timeout_diff;
 781              		.loc 1 322 13 is_stmt 0 view .LVU191
 782 0008 3B68     		ldr	r3, [r7]
 783              	.LVL76:
 316:../../Middlewares/Third_Party/LwIP/src/apps/mqtt/mqtt.c ****   struct mqtt_request_t *iter;
 784              		.loc 1 316 9 view .LVU192
 785 000a 0024     		movs	r4, #0
 315:../../Middlewares/Third_Party/LwIP/src/apps/mqtt/mqtt.c ****   s16_t time_before = 0;
 786              		.loc 1 315 26 view .LVU193
 787 000c 2546     		mov	r5, r4
 322:../../Middlewares/Third_Party/LwIP/src/apps/mqtt/mqtt.c ****     time_before += iter->timeout_diff;
 788              		.loc 1 322 3 view .LVU194
 789 000e 0CE0     		b	.L53
 790              	.LVL77:
 791              	.L59:
 319:../../Middlewares/Third_Party/LwIP/src/apps/mqtt/mqtt.c **** 
ARM GAS  C:\Users\minis\AppData\Local\Temp\ccG6JyYg.s 			page 28


 792              		.loc 1 319 3 is_stmt 1 discriminator 1 view .LVU195
 319:../../Middlewares/Third_Party/LwIP/src/apps/mqtt/mqtt.c **** 
 793              		.loc 1 319 3 discriminator 1 view .LVU196
 794 0010 104B     		ldr	r3, .L62
 795 0012 40F23F12 		movw	r2, #319
 796 0016 1049     		ldr	r1, .L62+4
 797              	.LVL78:
 319:../../Middlewares/Third_Party/LwIP/src/apps/mqtt/mqtt.c **** 
 798              		.loc 1 319 3 is_stmt 0 discriminator 1 view .LVU197
 799 0018 1048     		ldr	r0, .L62+8
 800              	.LVL79:
 319:../../Middlewares/Third_Party/LwIP/src/apps/mqtt/mqtt.c **** 
 801              		.loc 1 319 3 discriminator 1 view .LVU198
 802 001a FFF7FEFF 		bl	printf
 803              	.LVL80:
 804 001e F3E7     		b	.L52
 805              	.LVL81:
 806              	.L54:
 323:../../Middlewares/Third_Party/LwIP/src/apps/mqtt/mqtt.c ****     head = iter;
 807              		.loc 1 323 5 is_stmt 1 view .LVU199
 323:../../Middlewares/Third_Party/LwIP/src/apps/mqtt/mqtt.c ****     head = iter;
 808              		.loc 1 323 24 is_stmt 0 view .LVU200
 809 0020 DA89     		ldrh	r2, [r3, #14]
 323:../../Middlewares/Third_Party/LwIP/src/apps/mqtt/mqtt.c ****     head = iter;
 810              		.loc 1 323 17 view .LVU201
 811 0022 1444     		add	r4, r4, r2
 812              	.LVL82:
 323:../../Middlewares/Third_Party/LwIP/src/apps/mqtt/mqtt.c ****     head = iter;
 813              		.loc 1 323 17 view .LVU202
 814 0024 24B2     		sxth	r4, r4
 815              	.LVL83:
 324:../../Middlewares/Third_Party/LwIP/src/apps/mqtt/mqtt.c ****   }
 816              		.loc 1 324 5 is_stmt 1 view .LVU203
 322:../../Middlewares/Third_Party/LwIP/src/apps/mqtt/mqtt.c ****     time_before += iter->timeout_diff;
 817              		.loc 1 322 41 discriminator 3 view .LVU204
 324:../../Middlewares/Third_Party/LwIP/src/apps/mqtt/mqtt.c ****   }
 818              		.loc 1 324 10 is_stmt 0 view .LVU205
 819 0026 1D46     		mov	r5, r3
 322:../../Middlewares/Third_Party/LwIP/src/apps/mqtt/mqtt.c ****     time_before += iter->timeout_diff;
 820              		.loc 1 322 41 discriminator 3 view .LVU206
 821 0028 1B68     		ldr	r3, [r3]
 822              	.LVL84:
 823              	.L53:
 322:../../Middlewares/Third_Party/LwIP/src/apps/mqtt/mqtt.c ****     time_before += iter->timeout_diff;
 824              		.loc 1 322 27 is_stmt 1 discriminator 1 view .LVU207
 825 002a 002B     		cmp	r3, #0
 826 002c F8D1     		bne	.L54
 327:../../Middlewares/Third_Party/LwIP/src/apps/mqtt/mqtt.c ****   r->timeout_diff = MQTT_REQ_TIMEOUT - time_before;
 827              		.loc 1 327 3 view .LVU208
 327:../../Middlewares/Third_Party/LwIP/src/apps/mqtt/mqtt.c ****   r->timeout_diff = MQTT_REQ_TIMEOUT - time_before;
 828              		.loc 1 327 3 view .LVU209
 829 002e 1E2C     		cmp	r4, #30
 830 0030 05DC     		bgt	.L60
 831              	.LVL85:
 832              	.L55:
 327:../../Middlewares/Third_Party/LwIP/src/apps/mqtt/mqtt.c ****   r->timeout_diff = MQTT_REQ_TIMEOUT - time_before;
 833              		.loc 1 327 3 view .LVU210
ARM GAS  C:\Users\minis\AppData\Local\Temp\ccG6JyYg.s 			page 29


 327:../../Middlewares/Third_Party/LwIP/src/apps/mqtt/mqtt.c ****   r->timeout_diff = MQTT_REQ_TIMEOUT - time_before;
 834              		.loc 1 327 3 view .LVU211
 328:../../Middlewares/Third_Party/LwIP/src/apps/mqtt/mqtt.c ****   if (head == NULL) {
 835              		.loc 1 328 3 view .LVU212
 328:../../Middlewares/Third_Party/LwIP/src/apps/mqtt/mqtt.c ****   if (head == NULL) {
 836              		.loc 1 328 38 is_stmt 0 view .LVU213
 837 0032 C4F11E04 		rsb	r4, r4, #30
 838              	.LVL86:
 328:../../Middlewares/Third_Party/LwIP/src/apps/mqtt/mqtt.c ****   if (head == NULL) {
 839              		.loc 1 328 19 view .LVU214
 840 0036 F481     		strh	r4, [r6, #14]	@ movhi
 329:../../Middlewares/Third_Party/LwIP/src/apps/mqtt/mqtt.c ****     *tail = r;
 841              		.loc 1 329 3 is_stmt 1 view .LVU215
 329:../../Middlewares/Third_Party/LwIP/src/apps/mqtt/mqtt.c ****     *tail = r;
 842              		.loc 1 329 6 is_stmt 0 view .LVU216
 843 0038 4DB1     		cbz	r5, .L61
 332:../../Middlewares/Third_Party/LwIP/src/apps/mqtt/mqtt.c ****   }
 844              		.loc 1 332 5 is_stmt 1 view .LVU217
 332:../../Middlewares/Third_Party/LwIP/src/apps/mqtt/mqtt.c ****   }
 845              		.loc 1 332 16 is_stmt 0 view .LVU218
 846 003a 2E60     		str	r6, [r5]
 847              	.L51:
 334:../../Middlewares/Third_Party/LwIP/src/apps/mqtt/mqtt.c **** 
 848              		.loc 1 334 1 view .LVU219
 849 003c F8BD     		pop	{r3, r4, r5, r6, r7, pc}
 850              	.LVL87:
 851              	.L60:
 327:../../Middlewares/Third_Party/LwIP/src/apps/mqtt/mqtt.c ****   r->timeout_diff = MQTT_REQ_TIMEOUT - time_before;
 852              		.loc 1 327 3 is_stmt 1 discriminator 1 view .LVU220
 327:../../Middlewares/Third_Party/LwIP/src/apps/mqtt/mqtt.c ****   r->timeout_diff = MQTT_REQ_TIMEOUT - time_before;
 853              		.loc 1 327 3 discriminator 1 view .LVU221
 854 003e 054B     		ldr	r3, .L62
 855              	.LVL88:
 327:../../Middlewares/Third_Party/LwIP/src/apps/mqtt/mqtt.c ****   r->timeout_diff = MQTT_REQ_TIMEOUT - time_before;
 856              		.loc 1 327 3 is_stmt 0 discriminator 1 view .LVU222
 857 0040 40F24712 		movw	r2, #327
 858 0044 0649     		ldr	r1, .L62+12
 859 0046 0548     		ldr	r0, .L62+8
 860 0048 FFF7FEFF 		bl	printf
 861              	.LVL89:
 862 004c F1E7     		b	.L55
 863              	.LVL90:
 864              	.L61:
 330:../../Middlewares/Third_Party/LwIP/src/apps/mqtt/mqtt.c ****   } else {
 865              		.loc 1 330 5 is_stmt 1 view .LVU223
 330:../../Middlewares/Third_Party/LwIP/src/apps/mqtt/mqtt.c ****   } else {
 866              		.loc 1 330 11 is_stmt 0 view .LVU224
 867 004e 3E60     		str	r6, [r7]
 868 0050 F4E7     		b	.L51
 869              	.L63:
 870 0052 00BF     		.align	2
 871              	.L62:
 872 0054 00000000 		.word	.LC0
 873 0058 00000000 		.word	.LC4
 874 005c 5C000000 		.word	.LC2
 875 0060 24000000 		.word	.LC5
 876              		.cfi_endproc
ARM GAS  C:\Users\minis\AppData\Local\Temp\ccG6JyYg.s 			page 30


 877              	.LFE181:
 879              		.section	.rodata.mqtt_ringbuf_advance_get_idx.str1.4,"aMS",%progbits,1
 880              		.align	2
 881              	.LC6:
 882 0000 6D717474 		.ascii	"mqtt_ringbuf_advance_get_idx: len < MQTT_OUTPUT_RIN"
 882      5F72696E 
 882      67627566 
 882      5F616476 
 882      616E6365 
 883 0033 47425546 		.ascii	"GBUF_SIZE\000"
 883      5F53495A 
 883      4500
 884              		.section	.text.mqtt_ringbuf_advance_get_idx,"ax",%progbits
 885              		.align	1
 886              		.syntax unified
 887              		.thumb
 888              		.thumb_func
 890              	mqtt_ringbuf_advance_get_idx:
 891              	.LVL91:
 892              	.LFB177:
 202:../../Middlewares/Third_Party/LwIP/src/apps/mqtt/mqtt.c ****   LWIP_ASSERT("mqtt_ringbuf_advance_get_idx: len < MQTT_OUTPUT_RINGBUF_SIZE", len < MQTT_OUTPUT_RIN
 893              		.loc 1 202 1 is_stmt 1 view -0
 894              		.cfi_startproc
 895              		@ args = 0, pretend = 0, frame = 0
 896              		@ frame_needed = 0, uses_anonymous_args = 0
 202:../../Middlewares/Third_Party/LwIP/src/apps/mqtt/mqtt.c ****   LWIP_ASSERT("mqtt_ringbuf_advance_get_idx: len < MQTT_OUTPUT_RINGBUF_SIZE", len < MQTT_OUTPUT_RIN
 897              		.loc 1 202 1 is_stmt 0 view .LVU226
 898 0000 38B5     		push	{r3, r4, r5, lr}
 899              	.LCFI9:
 900              		.cfi_def_cfa_offset 16
 901              		.cfi_offset 3, -16
 902              		.cfi_offset 4, -12
 903              		.cfi_offset 5, -8
 904              		.cfi_offset 14, -4
 905 0002 0446     		mov	r4, r0
 906 0004 0D46     		mov	r5, r1
 203:../../Middlewares/Third_Party/LwIP/src/apps/mqtt/mqtt.c **** 
 907              		.loc 1 203 3 is_stmt 1 view .LVU227
 203:../../Middlewares/Third_Party/LwIP/src/apps/mqtt/mqtt.c **** 
 908              		.loc 1 203 3 view .LVU228
 909 0006 FF29     		cmp	r1, #255
 910 0008 09D8     		bhi	.L68
 911              	.LVL92:
 912              	.L65:
 203:../../Middlewares/Third_Party/LwIP/src/apps/mqtt/mqtt.c **** 
 913              		.loc 1 203 3 view .LVU229
 203:../../Middlewares/Third_Party/LwIP/src/apps/mqtt/mqtt.c **** 
 914              		.loc 1 203 3 view .LVU230
 205:../../Middlewares/Third_Party/LwIP/src/apps/mqtt/mqtt.c ****   if (rb->get >= MQTT_OUTPUT_RINGBUF_SIZE) {
 915              		.loc 1 205 3 view .LVU231
 205:../../Middlewares/Third_Party/LwIP/src/apps/mqtt/mqtt.c ****   if (rb->get >= MQTT_OUTPUT_RINGBUF_SIZE) {
 916              		.loc 1 205 5 is_stmt 0 view .LVU232
 917 000a 6188     		ldrh	r1, [r4, #2]
 205:../../Middlewares/Third_Party/LwIP/src/apps/mqtt/mqtt.c ****   if (rb->get >= MQTT_OUTPUT_RINGBUF_SIZE) {
 918              		.loc 1 205 11 view .LVU233
 919 000c 2944     		add	r1, r1, r5
 920 000e 89B2     		uxth	r1, r1
ARM GAS  C:\Users\minis\AppData\Local\Temp\ccG6JyYg.s 			page 31


 921 0010 6180     		strh	r1, [r4, #2]	@ movhi
 206:../../Middlewares/Third_Party/LwIP/src/apps/mqtt/mqtt.c ****     rb->get = rb->get - MQTT_OUTPUT_RINGBUF_SIZE;
 922              		.loc 1 206 3 is_stmt 1 view .LVU234
 206:../../Middlewares/Third_Party/LwIP/src/apps/mqtt/mqtt.c ****     rb->get = rb->get - MQTT_OUTPUT_RINGBUF_SIZE;
 923              		.loc 1 206 6 is_stmt 0 view .LVU235
 924 0012 FF29     		cmp	r1, #255
 925 0014 02D9     		bls	.L64
 207:../../Middlewares/Third_Party/LwIP/src/apps/mqtt/mqtt.c ****   }
 926              		.loc 1 207 5 is_stmt 1 view .LVU236
 207:../../Middlewares/Third_Party/LwIP/src/apps/mqtt/mqtt.c ****   }
 927              		.loc 1 207 23 is_stmt 0 view .LVU237
 928 0016 A1F58071 		sub	r1, r1, #256
 207:../../Middlewares/Third_Party/LwIP/src/apps/mqtt/mqtt.c ****   }
 929              		.loc 1 207 13 view .LVU238
 930 001a 6180     		strh	r1, [r4, #2]	@ movhi
 931              	.L64:
 209:../../Middlewares/Third_Party/LwIP/src/apps/mqtt/mqtt.c **** 
 932              		.loc 1 209 1 view .LVU239
 933 001c 38BD     		pop	{r3, r4, r5, pc}
 934              	.LVL93:
 935              	.L68:
 203:../../Middlewares/Third_Party/LwIP/src/apps/mqtt/mqtt.c **** 
 936              		.loc 1 203 3 is_stmt 1 discriminator 1 view .LVU240
 203:../../Middlewares/Third_Party/LwIP/src/apps/mqtt/mqtt.c **** 
 937              		.loc 1 203 3 discriminator 1 view .LVU241
 938 001e 034B     		ldr	r3, .L69
 939 0020 CB22     		movs	r2, #203
 940 0022 0349     		ldr	r1, .L69+4
 941              	.LVL94:
 203:../../Middlewares/Third_Party/LwIP/src/apps/mqtt/mqtt.c **** 
 942              		.loc 1 203 3 is_stmt 0 discriminator 1 view .LVU242
 943 0024 0348     		ldr	r0, .L69+8
 944              	.LVL95:
 203:../../Middlewares/Third_Party/LwIP/src/apps/mqtt/mqtt.c **** 
 945              		.loc 1 203 3 discriminator 1 view .LVU243
 946 0026 FFF7FEFF 		bl	printf
 947              	.LVL96:
 948 002a EEE7     		b	.L65
 949              	.L70:
 950              		.align	2
 951              	.L69:
 952 002c 00000000 		.word	.LC0
 953 0030 00000000 		.word	.LC6
 954 0034 5C000000 		.word	.LC2
 955              		.cfi_endproc
 956              	.LFE177:
 958              		.section	.rodata.mqtt_request_time_elapsed.str1.4,"aMS",%progbits,1
 959              		.align	2
 960              	.LC7:
 961 0000 6D717474 		.ascii	"mqtt_request_time_elapsed: tail != NULL\000"
 961      5F726571 
 961      75657374 
 961      5F74696D 
 961      655F656C 
 962              		.section	.text.mqtt_request_time_elapsed,"ax",%progbits
 963              		.align	1
 964              		.syntax unified
ARM GAS  C:\Users\minis\AppData\Local\Temp\ccG6JyYg.s 			page 32


 965              		.thumb
 966              		.thumb_func
 968              	mqtt_request_time_elapsed:
 969              	.LVL97:
 970              	.LFB184:
 392:../../Middlewares/Third_Party/LwIP/src/apps/mqtt/mqtt.c ****   struct mqtt_request_t *r;
 971              		.loc 1 392 1 is_stmt 1 view -0
 972              		.cfi_startproc
 973              		@ args = 0, pretend = 0, frame = 0
 974              		@ frame_needed = 0, uses_anonymous_args = 0
 392:../../Middlewares/Third_Party/LwIP/src/apps/mqtt/mqtt.c ****   struct mqtt_request_t *r;
 975              		.loc 1 392 1 is_stmt 0 view .LVU245
 976 0000 70B5     		push	{r4, r5, r6, lr}
 977              	.LCFI10:
 978              		.cfi_def_cfa_offset 16
 979              		.cfi_offset 4, -16
 980              		.cfi_offset 5, -12
 981              		.cfi_offset 6, -8
 982              		.cfi_offset 14, -4
 983 0002 0D46     		mov	r5, r1
 393:../../Middlewares/Third_Party/LwIP/src/apps/mqtt/mqtt.c ****   LWIP_ASSERT("mqtt_request_time_elapsed: tail != NULL", tail != NULL);
 984              		.loc 1 393 3 is_stmt 1 view .LVU246
 394:../../Middlewares/Third_Party/LwIP/src/apps/mqtt/mqtt.c ****   r = *tail;
 985              		.loc 1 394 3 view .LVU247
 394:../../Middlewares/Third_Party/LwIP/src/apps/mqtt/mqtt.c ****   r = *tail;
 986              		.loc 1 394 3 view .LVU248
 987 0004 0646     		mov	r6, r0
 988 0006 08B1     		cbz	r0, .L80
 989              	.LVL98:
 990              	.L72:
 394:../../Middlewares/Third_Party/LwIP/src/apps/mqtt/mqtt.c ****   r = *tail;
 991              		.loc 1 394 3 view .LVU249
 394:../../Middlewares/Third_Party/LwIP/src/apps/mqtt/mqtt.c ****   r = *tail;
 992              		.loc 1 394 3 view .LVU250
 395:../../Middlewares/Third_Party/LwIP/src/apps/mqtt/mqtt.c ****   while (t > 0 && r != NULL) {
 993              		.loc 1 395 3 view .LVU251
 395:../../Middlewares/Third_Party/LwIP/src/apps/mqtt/mqtt.c ****   while (t > 0 && r != NULL) {
 994              		.loc 1 395 5 is_stmt 0 view .LVU252
 995 0008 3468     		ldr	r4, [r6]
 996              	.LVL99:
 396:../../Middlewares/Third_Party/LwIP/src/apps/mqtt/mqtt.c ****     if (t >= r->timeout_diff) {
 997              		.loc 1 396 3 is_stmt 1 view .LVU253
 396:../../Middlewares/Third_Party/LwIP/src/apps/mqtt/mqtt.c ****     if (t >= r->timeout_diff) {
 998              		.loc 1 396 9 is_stmt 0 view .LVU254
 999 000a 0BE0     		b	.L73
 1000              	.LVL100:
 1001              	.L80:
 394:../../Middlewares/Third_Party/LwIP/src/apps/mqtt/mqtt.c ****   r = *tail;
 1002              		.loc 1 394 3 is_stmt 1 discriminator 1 view .LVU255
 394:../../Middlewares/Third_Party/LwIP/src/apps/mqtt/mqtt.c ****   r = *tail;
 1003              		.loc 1 394 3 discriminator 1 view .LVU256
 1004 000c 124B     		ldr	r3, .L81
 1005 000e 4FF4C572 		mov	r2, #394
 1006 0012 1249     		ldr	r1, .L81+4
 1007              	.LVL101:
 394:../../Middlewares/Third_Party/LwIP/src/apps/mqtt/mqtt.c ****   r = *tail;
 1008              		.loc 1 394 3 is_stmt 0 discriminator 1 view .LVU257
ARM GAS  C:\Users\minis\AppData\Local\Temp\ccG6JyYg.s 			page 33


 1009 0014 1248     		ldr	r0, .L81+8
 1010              	.LVL102:
 394:../../Middlewares/Third_Party/LwIP/src/apps/mqtt/mqtt.c ****   r = *tail;
 1011              		.loc 1 394 3 discriminator 1 view .LVU258
 1012 0016 FFF7FEFF 		bl	printf
 1013              	.LVL103:
 1014 001a F5E7     		b	.L72
 1015              	.LVL104:
 1016              	.L75:
 405:../../Middlewares/Third_Party/LwIP/src/apps/mqtt/mqtt.c ****       /* Tail might be be modified in callback, so re-read it in every iteration */
 1017              		.loc 1 405 7 is_stmt 1 view .LVU259
 1018 001c 2046     		mov	r0, r4
 1019 001e FFF7FEFF 		bl	mqtt_delete_request
 1020              	.LVL105:
 407:../../Middlewares/Third_Party/LwIP/src/apps/mqtt/mqtt.c ****     } else {
 1021              		.loc 1 407 7 view .LVU260
 407:../../Middlewares/Third_Party/LwIP/src/apps/mqtt/mqtt.c ****     } else {
 1022              		.loc 1 407 9 is_stmt 0 view .LVU261
 1023 0022 3468     		ldr	r4, [r6]
 1024              	.LVL106:
 1025              	.L73:
 396:../../Middlewares/Third_Party/LwIP/src/apps/mqtt/mqtt.c ****     if (t >= r->timeout_diff) {
 1026              		.loc 1 396 16 is_stmt 1 view .LVU262
 396:../../Middlewares/Third_Party/LwIP/src/apps/mqtt/mqtt.c ****     if (t >= r->timeout_diff) {
 1027              		.loc 1 396 21 is_stmt 0 view .LVU263
 1028 0024 231E     		subs	r3, r4, #0
 1029 0026 18BF     		it	ne
 1030 0028 0123     		movne	r3, #1
 396:../../Middlewares/Third_Party/LwIP/src/apps/mqtt/mqtt.c ****     if (t >= r->timeout_diff) {
 1031              		.loc 1 396 16 view .LVU264
 1032 002a A5B1     		cbz	r5, .L71
 396:../../Middlewares/Third_Party/LwIP/src/apps/mqtt/mqtt.c ****     if (t >= r->timeout_diff) {
 1033              		.loc 1 396 16 view .LVU265
 1034 002c 9BB1     		cbz	r3, .L71
 397:../../Middlewares/Third_Party/LwIP/src/apps/mqtt/mqtt.c ****       t -= (u8_t)r->timeout_diff;
 1035              		.loc 1 397 5 is_stmt 1 view .LVU266
 397:../../Middlewares/Third_Party/LwIP/src/apps/mqtt/mqtt.c ****       t -= (u8_t)r->timeout_diff;
 1036              		.loc 1 397 15 is_stmt 0 view .LVU267
 1037 002e E389     		ldrh	r3, [r4, #14]
 397:../../Middlewares/Third_Party/LwIP/src/apps/mqtt/mqtt.c ****       t -= (u8_t)r->timeout_diff;
 1038              		.loc 1 397 8 view .LVU268
 1039 0030 9D42     		cmp	r5, r3
 1040 0032 0CD3     		bcc	.L74
 398:../../Middlewares/Third_Party/LwIP/src/apps/mqtt/mqtt.c ****       /* Unchain */
 1041              		.loc 1 398 7 is_stmt 1 view .LVU269
 398:../../Middlewares/Third_Party/LwIP/src/apps/mqtt/mqtt.c ****       /* Unchain */
 1042              		.loc 1 398 12 is_stmt 0 view .LVU270
 1043 0034 DBB2     		uxtb	r3, r3
 398:../../Middlewares/Third_Party/LwIP/src/apps/mqtt/mqtt.c ****       /* Unchain */
 1044              		.loc 1 398 9 view .LVU271
 1045 0036 EB1A     		subs	r3, r5, r3
 1046 0038 DDB2     		uxtb	r5, r3
 1047              	.LVL107:
 400:../../Middlewares/Third_Party/LwIP/src/apps/mqtt/mqtt.c ****       /* Notify upper layer about timeout */
 1048              		.loc 1 400 7 is_stmt 1 view .LVU272
 400:../../Middlewares/Third_Party/LwIP/src/apps/mqtt/mqtt.c ****       /* Notify upper layer about timeout */
 1049              		.loc 1 400 16 is_stmt 0 view .LVU273
ARM GAS  C:\Users\minis\AppData\Local\Temp\ccG6JyYg.s 			page 34


 1050 003a 2368     		ldr	r3, [r4]
 400:../../Middlewares/Third_Party/LwIP/src/apps/mqtt/mqtt.c ****       /* Notify upper layer about timeout */
 1051              		.loc 1 400 13 view .LVU274
 1052 003c 3360     		str	r3, [r6]
 402:../../Middlewares/Third_Party/LwIP/src/apps/mqtt/mqtt.c ****         r->cb(r->arg, ERR_TIMEOUT);
 1053              		.loc 1 402 7 is_stmt 1 view .LVU275
 402:../../Middlewares/Third_Party/LwIP/src/apps/mqtt/mqtt.c ****         r->cb(r->arg, ERR_TIMEOUT);
 1054              		.loc 1 402 12 is_stmt 0 view .LVU276
 1055 003e 6368     		ldr	r3, [r4, #4]
 402:../../Middlewares/Third_Party/LwIP/src/apps/mqtt/mqtt.c ****         r->cb(r->arg, ERR_TIMEOUT);
 1056              		.loc 1 402 10 view .LVU277
 1057 0040 002B     		cmp	r3, #0
 1058 0042 EBD0     		beq	.L75
 403:../../Middlewares/Third_Party/LwIP/src/apps/mqtt/mqtt.c ****       }
 1059              		.loc 1 403 9 is_stmt 1 view .LVU278
 1060 0044 6FF00201 		mvn	r1, #2
 1061 0048 A068     		ldr	r0, [r4, #8]
 1062 004a 9847     		blx	r3
 1063              	.LVL108:
 1064 004c E6E7     		b	.L75
 1065              	.L74:
 409:../../Middlewares/Third_Party/LwIP/src/apps/mqtt/mqtt.c ****       t = 0;
 1066              		.loc 1 409 7 view .LVU279
 409:../../Middlewares/Third_Party/LwIP/src/apps/mqtt/mqtt.c ****       t = 0;
 1067              		.loc 1 409 23 is_stmt 0 view .LVU280
 1068 004e 5B1B     		subs	r3, r3, r5
 1069 0050 E381     		strh	r3, [r4, #14]	@ movhi
 410:../../Middlewares/Third_Party/LwIP/src/apps/mqtt/mqtt.c ****     }
 1070              		.loc 1 410 7 is_stmt 1 view .LVU281
 1071              	.LVL109:
 410:../../Middlewares/Third_Party/LwIP/src/apps/mqtt/mqtt.c ****     }
 1072              		.loc 1 410 9 is_stmt 0 view .LVU282
 1073 0052 0025     		movs	r5, #0
 1074 0054 E6E7     		b	.L73
 1075              	.LVL110:
 1076              	.L71:
 413:../../Middlewares/Third_Party/LwIP/src/apps/mqtt/mqtt.c **** 
 1077              		.loc 1 413 1 view .LVU283
 1078 0056 70BD     		pop	{r4, r5, r6, pc}
 1079              	.LVL111:
 1080              	.L82:
 413:../../Middlewares/Third_Party/LwIP/src/apps/mqtt/mqtt.c **** 
 1081              		.loc 1 413 1 view .LVU284
 1082              		.align	2
 1083              	.L81:
 1084 0058 00000000 		.word	.LC0
 1085 005c 00000000 		.word	.LC7
 1086 0060 5C000000 		.word	.LC2
 1087              		.cfi_endproc
 1088              	.LFE184:
 1090              		.section	.rodata.mqtt_clear_requests.str1.4,"aMS",%progbits,1
 1091              		.align	2
 1092              	.LC8:
 1093 0000 6D717474 		.ascii	"mqtt_clear_requests: tail != NULL\000"
 1093      5F636C65 
 1093      61725F72 
 1093      65717565 
ARM GAS  C:\Users\minis\AppData\Local\Temp\ccG6JyYg.s 			page 35


 1093      7374733A 
 1094              		.section	.text.mqtt_clear_requests,"ax",%progbits
 1095              		.align	1
 1096              		.syntax unified
 1097              		.thumb
 1098              		.thumb_func
 1100              	mqtt_clear_requests:
 1101              	.LVL112:
 1102              	.LFB185:
 421:../../Middlewares/Third_Party/LwIP/src/apps/mqtt/mqtt.c ****   struct mqtt_request_t *iter, *next;
 1103              		.loc 1 421 1 is_stmt 1 view -0
 1104              		.cfi_startproc
 1105              		@ args = 0, pretend = 0, frame = 0
 1106              		@ frame_needed = 0, uses_anonymous_args = 0
 421:../../Middlewares/Third_Party/LwIP/src/apps/mqtt/mqtt.c ****   struct mqtt_request_t *iter, *next;
 1107              		.loc 1 421 1 is_stmt 0 view .LVU286
 1108 0000 38B5     		push	{r3, r4, r5, lr}
 1109              	.LCFI11:
 1110              		.cfi_def_cfa_offset 16
 1111              		.cfi_offset 3, -16
 1112              		.cfi_offset 4, -12
 1113              		.cfi_offset 5, -8
 1114              		.cfi_offset 14, -4
 422:../../Middlewares/Third_Party/LwIP/src/apps/mqtt/mqtt.c ****   LWIP_ASSERT("mqtt_clear_requests: tail != NULL", tail != NULL);
 1115              		.loc 1 422 3 is_stmt 1 view .LVU287
 423:../../Middlewares/Third_Party/LwIP/src/apps/mqtt/mqtt.c ****   for (iter = *tail; iter != NULL; iter = next) {
 1116              		.loc 1 423 3 view .LVU288
 423:../../Middlewares/Third_Party/LwIP/src/apps/mqtt/mqtt.c ****   for (iter = *tail; iter != NULL; iter = next) {
 1117              		.loc 1 423 3 view .LVU289
 1118 0002 0546     		mov	r5, r0
 1119 0004 08B1     		cbz	r0, .L88
 1120              	.LVL113:
 1121              	.L84:
 423:../../Middlewares/Third_Party/LwIP/src/apps/mqtt/mqtt.c ****   for (iter = *tail; iter != NULL; iter = next) {
 1122              		.loc 1 423 3 view .LVU290
 423:../../Middlewares/Third_Party/LwIP/src/apps/mqtt/mqtt.c ****   for (iter = *tail; iter != NULL; iter = next) {
 1123              		.loc 1 423 3 view .LVU291
 424:../../Middlewares/Third_Party/LwIP/src/apps/mqtt/mqtt.c ****     next = iter->next;
 1124              		.loc 1 424 3 view .LVU292
 424:../../Middlewares/Third_Party/LwIP/src/apps/mqtt/mqtt.c ****     next = iter->next;
 1125              		.loc 1 424 13 is_stmt 0 view .LVU293
 1126 0006 2868     		ldr	r0, [r5]
 1127              	.LVL114:
 424:../../Middlewares/Third_Party/LwIP/src/apps/mqtt/mqtt.c ****     next = iter->next;
 1128              		.loc 1 424 3 view .LVU294
 1129 0008 0BE0     		b	.L85
 1130              	.LVL115:
 1131              	.L88:
 423:../../Middlewares/Third_Party/LwIP/src/apps/mqtt/mqtt.c ****   for (iter = *tail; iter != NULL; iter = next) {
 1132              		.loc 1 423 3 is_stmt 1 discriminator 1 view .LVU295
 423:../../Middlewares/Third_Party/LwIP/src/apps/mqtt/mqtt.c ****   for (iter = *tail; iter != NULL; iter = next) {
 1133              		.loc 1 423 3 discriminator 1 view .LVU296
 1134 000a 084B     		ldr	r3, .L89
 1135 000c 40F2A712 		movw	r2, #423
 1136 0010 0749     		ldr	r1, .L89+4
 1137 0012 0848     		ldr	r0, .L89+8
 1138              	.LVL116:
ARM GAS  C:\Users\minis\AppData\Local\Temp\ccG6JyYg.s 			page 36


 423:../../Middlewares/Third_Party/LwIP/src/apps/mqtt/mqtt.c ****   for (iter = *tail; iter != NULL; iter = next) {
 1139              		.loc 1 423 3 is_stmt 0 discriminator 1 view .LVU297
 1140 0014 FFF7FEFF 		bl	printf
 1141              	.LVL117:
 1142 0018 F5E7     		b	.L84
 1143              	.LVL118:
 1144              	.L86:
 425:../../Middlewares/Third_Party/LwIP/src/apps/mqtt/mqtt.c ****     mqtt_delete_request(iter);
 1145              		.loc 1 425 5 is_stmt 1 view .LVU298
 425:../../Middlewares/Third_Party/LwIP/src/apps/mqtt/mqtt.c ****     mqtt_delete_request(iter);
 1146              		.loc 1 425 10 is_stmt 0 view .LVU299
 1147 001a 0468     		ldr	r4, [r0]
 1148              	.LVL119:
 426:../../Middlewares/Third_Party/LwIP/src/apps/mqtt/mqtt.c ****   }
 1149              		.loc 1 426 5 is_stmt 1 view .LVU300
 1150 001c FFF7FEFF 		bl	mqtt_delete_request
 1151              	.LVL120:
 424:../../Middlewares/Third_Party/LwIP/src/apps/mqtt/mqtt.c ****     next = iter->next;
 1152              		.loc 1 424 41 discriminator 3 view .LVU301
 424:../../Middlewares/Third_Party/LwIP/src/apps/mqtt/mqtt.c ****     next = iter->next;
 1153              		.loc 1 424 41 is_stmt 0 discriminator 3 view .LVU302
 1154 0020 2046     		mov	r0, r4
 1155              	.LVL121:
 1156              	.L85:
 424:../../Middlewares/Third_Party/LwIP/src/apps/mqtt/mqtt.c ****     next = iter->next;
 1157              		.loc 1 424 27 is_stmt 1 discriminator 1 view .LVU303
 1158 0022 0028     		cmp	r0, #0
 1159 0024 F9D1     		bne	.L86
 428:../../Middlewares/Third_Party/LwIP/src/apps/mqtt/mqtt.c **** }
 1160              		.loc 1 428 3 view .LVU304
 428:../../Middlewares/Third_Party/LwIP/src/apps/mqtt/mqtt.c **** }
 1161              		.loc 1 428 9 is_stmt 0 view .LVU305
 1162 0026 0023     		movs	r3, #0
 1163 0028 2B60     		str	r3, [r5]
 429:../../Middlewares/Third_Party/LwIP/src/apps/mqtt/mqtt.c **** /**
 1164              		.loc 1 429 1 view .LVU306
 1165 002a 38BD     		pop	{r3, r4, r5, pc}
 1166              	.LVL122:
 1167              	.L90:
 429:../../Middlewares/Third_Party/LwIP/src/apps/mqtt/mqtt.c **** /**
 1168              		.loc 1 429 1 view .LVU307
 1169              		.align	2
 1170              	.L89:
 1171 002c 00000000 		.word	.LC0
 1172 0030 00000000 		.word	.LC8
 1173 0034 5C000000 		.word	.LC2
 1174              		.cfi_endproc
 1175              	.LFE185:
 1177              		.section	.rodata.mqtt_take_request.str1.4,"aMS",%progbits,1
 1178              		.align	2
 1179              	.LC9:
 1180 0000 6D717474 		.ascii	"mqtt_take_request: tail != NULL\000"
 1180      5F74616B 
 1180      655F7265 
 1180      71756573 
 1180      743A2074 
 1181              		.section	.text.mqtt_take_request,"ax",%progbits
ARM GAS  C:\Users\minis\AppData\Local\Temp\ccG6JyYg.s 			page 37


 1182              		.align	1
 1183              		.syntax unified
 1184              		.thumb
 1185              		.thumb_func
 1187              	mqtt_take_request:
 1188              	.LVL123:
 1189              	.LFB183:
 357:../../Middlewares/Third_Party/LwIP/src/apps/mqtt/mqtt.c ****   struct mqtt_request_t *iter = NULL, *prev = NULL;
 1190              		.loc 1 357 1 is_stmt 1 view -0
 1191              		.cfi_startproc
 1192              		@ args = 0, pretend = 0, frame = 0
 1193              		@ frame_needed = 0, uses_anonymous_args = 0
 357:../../Middlewares/Third_Party/LwIP/src/apps/mqtt/mqtt.c ****   struct mqtt_request_t *iter = NULL, *prev = NULL;
 1194              		.loc 1 357 1 is_stmt 0 view .LVU309
 1195 0000 38B5     		push	{r3, r4, r5, lr}
 1196              	.LCFI12:
 1197              		.cfi_def_cfa_offset 16
 1198              		.cfi_offset 3, -16
 1199              		.cfi_offset 4, -12
 1200              		.cfi_offset 5, -8
 1201              		.cfi_offset 14, -4
 1202 0002 0C46     		mov	r4, r1
 358:../../Middlewares/Third_Party/LwIP/src/apps/mqtt/mqtt.c ****   LWIP_ASSERT("mqtt_take_request: tail != NULL", tail != NULL);
 1203              		.loc 1 358 3 is_stmt 1 view .LVU310
 1204              	.LVL124:
 359:../../Middlewares/Third_Party/LwIP/src/apps/mqtt/mqtt.c ****   /* Search all request for pkt_id */
 1205              		.loc 1 359 3 view .LVU311
 359:../../Middlewares/Third_Party/LwIP/src/apps/mqtt/mqtt.c ****   /* Search all request for pkt_id */
 1206              		.loc 1 359 3 view .LVU312
 1207 0004 0546     		mov	r5, r0
 1208 0006 10B1     		cbz	r0, .L101
 1209              	.LVL125:
 1210              	.L92:
 359:../../Middlewares/Third_Party/LwIP/src/apps/mqtt/mqtt.c ****   /* Search all request for pkt_id */
 1211              		.loc 1 359 3 view .LVU313
 359:../../Middlewares/Third_Party/LwIP/src/apps/mqtt/mqtt.c ****   /* Search all request for pkt_id */
 1212              		.loc 1 359 3 view .LVU314
 361:../../Middlewares/Third_Party/LwIP/src/apps/mqtt/mqtt.c ****     if (iter->pkt_id == pkt_id) {
 1213              		.loc 1 361 3 view .LVU315
 361:../../Middlewares/Third_Party/LwIP/src/apps/mqtt/mqtt.c ****     if (iter->pkt_id == pkt_id) {
 1214              		.loc 1 361 13 is_stmt 0 view .LVU316
 1215 0008 2868     		ldr	r0, [r5]
 1216              	.LVL126:
 358:../../Middlewares/Third_Party/LwIP/src/apps/mqtt/mqtt.c ****   LWIP_ASSERT("mqtt_take_request: tail != NULL", tail != NULL);
 1217              		.loc 1 358 40 view .LVU317
 1218 000a 0022     		movs	r2, #0
 361:../../Middlewares/Third_Party/LwIP/src/apps/mqtt/mqtt.c ****     if (iter->pkt_id == pkt_id) {
 1219              		.loc 1 361 3 view .LVU318
 1220 000c 09E0     		b	.L93
 1221              	.LVL127:
 1222              	.L101:
 359:../../Middlewares/Third_Party/LwIP/src/apps/mqtt/mqtt.c ****   /* Search all request for pkt_id */
 1223              		.loc 1 359 3 is_stmt 1 discriminator 1 view .LVU319
 359:../../Middlewares/Third_Party/LwIP/src/apps/mqtt/mqtt.c ****   /* Search all request for pkt_id */
 1224              		.loc 1 359 3 discriminator 1 view .LVU320
 1225 000e 0F4B     		ldr	r3, .L104
 1226 0010 40F26712 		movw	r2, #359
ARM GAS  C:\Users\minis\AppData\Local\Temp\ccG6JyYg.s 			page 38


 1227 0014 0E49     		ldr	r1, .L104+4
 1228              	.LVL128:
 359:../../Middlewares/Third_Party/LwIP/src/apps/mqtt/mqtt.c ****   /* Search all request for pkt_id */
 1229              		.loc 1 359 3 is_stmt 0 discriminator 1 view .LVU321
 1230 0016 0F48     		ldr	r0, .L104+8
 1231              	.LVL129:
 359:../../Middlewares/Third_Party/LwIP/src/apps/mqtt/mqtt.c ****   /* Search all request for pkt_id */
 1232              		.loc 1 359 3 discriminator 1 view .LVU322
 1233 0018 FFF7FEFF 		bl	printf
 1234              	.LVL130:
 1235 001c F4E7     		b	.L92
 1236              	.LVL131:
 1237              	.L102:
 365:../../Middlewares/Third_Party/LwIP/src/apps/mqtt/mqtt.c ****   }
 1238              		.loc 1 365 5 is_stmt 1 view .LVU323
 361:../../Middlewares/Third_Party/LwIP/src/apps/mqtt/mqtt.c ****     if (iter->pkt_id == pkt_id) {
 1239              		.loc 1 361 41 discriminator 2 view .LVU324
 365:../../Middlewares/Third_Party/LwIP/src/apps/mqtt/mqtt.c ****   }
 1240              		.loc 1 365 10 is_stmt 0 view .LVU325
 1241 001e 0246     		mov	r2, r0
 361:../../Middlewares/Third_Party/LwIP/src/apps/mqtt/mqtt.c ****     if (iter->pkt_id == pkt_id) {
 1242              		.loc 1 361 41 discriminator 2 view .LVU326
 1243 0020 0068     		ldr	r0, [r0]
 1244              	.LVL132:
 1245              	.L93:
 361:../../Middlewares/Third_Party/LwIP/src/apps/mqtt/mqtt.c ****     if (iter->pkt_id == pkt_id) {
 1246              		.loc 1 361 27 is_stmt 1 discriminator 1 view .LVU327
 1247 0022 10B1     		cbz	r0, .L94
 362:../../Middlewares/Third_Party/LwIP/src/apps/mqtt/mqtt.c ****       break;
 1248              		.loc 1 362 5 view .LVU328
 362:../../Middlewares/Third_Party/LwIP/src/apps/mqtt/mqtt.c ****       break;
 1249              		.loc 1 362 13 is_stmt 0 view .LVU329
 1250 0024 8389     		ldrh	r3, [r0, #12]
 362:../../Middlewares/Third_Party/LwIP/src/apps/mqtt/mqtt.c ****       break;
 1251              		.loc 1 362 8 view .LVU330
 1252 0026 A342     		cmp	r3, r4
 1253 0028 F9D1     		bne	.L102
 1254              	.L94:
 369:../../Middlewares/Third_Party/LwIP/src/apps/mqtt/mqtt.c ****     /* unchain */
 1255              		.loc 1 369 3 is_stmt 1 view .LVU331
 369:../../Middlewares/Third_Party/LwIP/src/apps/mqtt/mqtt.c ****     /* unchain */
 1256              		.loc 1 369 6 is_stmt 0 view .LVU332
 1257 002a 50B1     		cbz	r0, .L91
 371:../../Middlewares/Third_Party/LwIP/src/apps/mqtt/mqtt.c ****       *tail = iter->next;
 1258              		.loc 1 371 5 is_stmt 1 view .LVU333
 371:../../Middlewares/Third_Party/LwIP/src/apps/mqtt/mqtt.c ****       *tail = iter->next;
 1259              		.loc 1 371 8 is_stmt 0 view .LVU334
 1260 002c 52B1     		cbz	r2, .L103
 374:../../Middlewares/Third_Party/LwIP/src/apps/mqtt/mqtt.c ****     }
 1261              		.loc 1 374 7 is_stmt 1 view .LVU335
 374:../../Middlewares/Third_Party/LwIP/src/apps/mqtt/mqtt.c ****     }
 1262              		.loc 1 374 24 is_stmt 0 view .LVU336
 1263 002e 0368     		ldr	r3, [r0]
 374:../../Middlewares/Third_Party/LwIP/src/apps/mqtt/mqtt.c ****     }
 1264              		.loc 1 374 18 view .LVU337
 1265 0030 1360     		str	r3, [r2]
 1266              	.L98:
ARM GAS  C:\Users\minis\AppData\Local\Temp\ccG6JyYg.s 			page 39


 377:../../Middlewares/Third_Party/LwIP/src/apps/mqtt/mqtt.c ****       iter->next->timeout_diff += iter->timeout_diff;
 1267              		.loc 1 377 5 is_stmt 1 view .LVU338
 377:../../Middlewares/Third_Party/LwIP/src/apps/mqtt/mqtt.c ****       iter->next->timeout_diff += iter->timeout_diff;
 1268              		.loc 1 377 13 is_stmt 0 view .LVU339
 1269 0032 0368     		ldr	r3, [r0]
 377:../../Middlewares/Third_Party/LwIP/src/apps/mqtt/mqtt.c ****       iter->next->timeout_diff += iter->timeout_diff;
 1270              		.loc 1 377 8 view .LVU340
 1271 0034 1BB1     		cbz	r3, .L99
 378:../../Middlewares/Third_Party/LwIP/src/apps/mqtt/mqtt.c ****     }
 1272              		.loc 1 378 7 is_stmt 1 view .LVU341
 378:../../Middlewares/Third_Party/LwIP/src/apps/mqtt/mqtt.c ****     }
 1273              		.loc 1 378 17 is_stmt 0 view .LVU342
 1274 0036 DA89     		ldrh	r2, [r3, #14]
 1275              	.LVL133:
 378:../../Middlewares/Third_Party/LwIP/src/apps/mqtt/mqtt.c ****     }
 1276              		.loc 1 378 39 view .LVU343
 1277 0038 C189     		ldrh	r1, [r0, #14]
 378:../../Middlewares/Third_Party/LwIP/src/apps/mqtt/mqtt.c ****     }
 1278              		.loc 1 378 32 view .LVU344
 1279 003a 0A44     		add	r2, r2, r1
 1280 003c DA81     		strh	r2, [r3, #14]	@ movhi
 1281              	.L99:
 380:../../Middlewares/Third_Party/LwIP/src/apps/mqtt/mqtt.c ****   }
 1282              		.loc 1 380 5 is_stmt 1 view .LVU345
 380:../../Middlewares/Third_Party/LwIP/src/apps/mqtt/mqtt.c ****   }
 1283              		.loc 1 380 16 is_stmt 0 view .LVU346
 1284 003e 0023     		movs	r3, #0
 1285 0040 0360     		str	r3, [r0]
 382:../../Middlewares/Third_Party/LwIP/src/apps/mqtt/mqtt.c **** }
 1286              		.loc 1 382 3 is_stmt 1 view .LVU347
 1287              	.L91:
 383:../../Middlewares/Third_Party/LwIP/src/apps/mqtt/mqtt.c **** 
 1288              		.loc 1 383 1 is_stmt 0 view .LVU348
 1289 0042 38BD     		pop	{r3, r4, r5, pc}
 1290              	.LVL134:
 1291              	.L103:
 372:../../Middlewares/Third_Party/LwIP/src/apps/mqtt/mqtt.c ****     } else {
 1292              		.loc 1 372 7 is_stmt 1 view .LVU349
 372:../../Middlewares/Third_Party/LwIP/src/apps/mqtt/mqtt.c ****     } else {
 1293              		.loc 1 372 19 is_stmt 0 view .LVU350
 1294 0044 0368     		ldr	r3, [r0]
 372:../../Middlewares/Third_Party/LwIP/src/apps/mqtt/mqtt.c ****     } else {
 1295              		.loc 1 372 13 view .LVU351
 1296 0046 2B60     		str	r3, [r5]
 1297 0048 F3E7     		b	.L98
 1298              	.L105:
 1299 004a 00BF     		.align	2
 1300              	.L104:
 1301 004c 00000000 		.word	.LC0
 1302 0050 00000000 		.word	.LC9
 1303 0054 5C000000 		.word	.LC2
 1304              		.cfi_endproc
 1305              	.LFE183:
 1307              		.section	.rodata.mqtt_init_requests.str1.4,"aMS",%progbits,1
 1308              		.align	2
 1309              	.LC10:
 1310 0000 6D717474 		.ascii	"mqtt_init_requests: r_objs != NULL\000"
ARM GAS  C:\Users\minis\AppData\Local\Temp\ccG6JyYg.s 			page 40


 1310      5F696E69 
 1310      745F7265 
 1310      71756573 
 1310      74733A20 
 1311              		.section	.text.mqtt_init_requests,"ax",%progbits
 1312              		.align	1
 1313              		.syntax unified
 1314              		.thumb
 1315              		.thumb_func
 1317              	mqtt_init_requests:
 1318              	.LVL135:
 1319              	.LFB186:
 437:../../Middlewares/Third_Party/LwIP/src/apps/mqtt/mqtt.c ****   u8_t n;
 1320              		.loc 1 437 1 is_stmt 1 view -0
 1321              		.cfi_startproc
 1322              		@ args = 0, pretend = 0, frame = 0
 1323              		@ frame_needed = 0, uses_anonymous_args = 0
 437:../../Middlewares/Third_Party/LwIP/src/apps/mqtt/mqtt.c ****   u8_t n;
 1324              		.loc 1 437 1 is_stmt 0 view .LVU353
 1325 0000 38B5     		push	{r3, r4, r5, lr}
 1326              	.LCFI13:
 1327              		.cfi_def_cfa_offset 16
 1328              		.cfi_offset 3, -16
 1329              		.cfi_offset 4, -12
 1330              		.cfi_offset 5, -8
 1331              		.cfi_offset 14, -4
 1332 0002 0C46     		mov	r4, r1
 438:../../Middlewares/Third_Party/LwIP/src/apps/mqtt/mqtt.c ****   LWIP_ASSERT("mqtt_init_requests: r_objs != NULL", r_objs != NULL);
 1333              		.loc 1 438 3 is_stmt 1 view .LVU354
 439:../../Middlewares/Third_Party/LwIP/src/apps/mqtt/mqtt.c ****   for (n = 0; n < r_objs_len; n++) {
 1334              		.loc 1 439 3 view .LVU355
 439:../../Middlewares/Third_Party/LwIP/src/apps/mqtt/mqtt.c ****   for (n = 0; n < r_objs_len; n++) {
 1335              		.loc 1 439 3 view .LVU356
 1336 0004 0546     		mov	r5, r0
 1337 0006 08B1     		cbz	r0, .L111
 1338              	.LVL136:
 1339              	.L107:
 437:../../Middlewares/Third_Party/LwIP/src/apps/mqtt/mqtt.c ****   u8_t n;
 1340              		.loc 1 437 1 is_stmt 0 view .LVU357
 1341 0008 0023     		movs	r3, #0
 1342 000a 0CE0     		b	.L108
 1343              	.LVL137:
 1344              	.L111:
 439:../../Middlewares/Third_Party/LwIP/src/apps/mqtt/mqtt.c ****   for (n = 0; n < r_objs_len; n++) {
 1345              		.loc 1 439 3 is_stmt 1 discriminator 1 view .LVU358
 439:../../Middlewares/Third_Party/LwIP/src/apps/mqtt/mqtt.c ****   for (n = 0; n < r_objs_len; n++) {
 1346              		.loc 1 439 3 discriminator 1 view .LVU359
 1347 000c 074B     		ldr	r3, .L112
 1348 000e 40F2B712 		movw	r2, #439
 1349 0012 0749     		ldr	r1, .L112+4
 1350              	.LVL138:
 439:../../Middlewares/Third_Party/LwIP/src/apps/mqtt/mqtt.c ****   for (n = 0; n < r_objs_len; n++) {
 1351              		.loc 1 439 3 is_stmt 0 discriminator 1 view .LVU360
 1352 0014 0748     		ldr	r0, .L112+8
 1353              	.LVL139:
 439:../../Middlewares/Third_Party/LwIP/src/apps/mqtt/mqtt.c ****   for (n = 0; n < r_objs_len; n++) {
 1354              		.loc 1 439 3 discriminator 1 view .LVU361
ARM GAS  C:\Users\minis\AppData\Local\Temp\ccG6JyYg.s 			page 41


 1355 0016 FFF7FEFF 		bl	printf
 1356              	.LVL140:
 1357 001a F5E7     		b	.L107
 1358              	.LVL141:
 1359              	.L109:
 442:../../Middlewares/Third_Party/LwIP/src/apps/mqtt/mqtt.c ****   }
 1360              		.loc 1 442 5 is_stmt 1 view .LVU362
 442:../../Middlewares/Third_Party/LwIP/src/apps/mqtt/mqtt.c ****   }
 1361              		.loc 1 442 11 is_stmt 0 view .LVU363
 1362 001c 05EB0312 		add	r2, r5, r3, lsl #4
 442:../../Middlewares/Third_Party/LwIP/src/apps/mqtt/mqtt.c ****   }
 1363              		.loc 1 442 20 view .LVU364
 1364 0020 1260     		str	r2, [r2]
 440:../../Middlewares/Third_Party/LwIP/src/apps/mqtt/mqtt.c ****     /* Item pointing to itself indicates unused */
 1365              		.loc 1 440 32 is_stmt 1 discriminator 3 view .LVU365
 1366 0022 0133     		adds	r3, r3, #1
 1367              	.LVL142:
 440:../../Middlewares/Third_Party/LwIP/src/apps/mqtt/mqtt.c ****     /* Item pointing to itself indicates unused */
 1368              		.loc 1 440 32 is_stmt 0 discriminator 3 view .LVU366
 1369 0024 DBB2     		uxtb	r3, r3
 1370              	.LVL143:
 1371              	.L108:
 440:../../Middlewares/Third_Party/LwIP/src/apps/mqtt/mqtt.c ****     /* Item pointing to itself indicates unused */
 1372              		.loc 1 440 17 is_stmt 1 discriminator 1 view .LVU367
 1373 0026 A342     		cmp	r3, r4
 1374 0028 F8D3     		bcc	.L109
 444:../../Middlewares/Third_Party/LwIP/src/apps/mqtt/mqtt.c **** 
 1375              		.loc 1 444 1 is_stmt 0 view .LVU368
 1376 002a 38BD     		pop	{r3, r4, r5, pc}
 1377              	.LVL144:
 1378              	.L113:
 444:../../Middlewares/Third_Party/LwIP/src/apps/mqtt/mqtt.c **** 
 1379              		.loc 1 444 1 view .LVU369
 1380              		.align	2
 1381              	.L112:
 1382 002c 00000000 		.word	.LC0
 1383 0030 00000000 		.word	.LC10
 1384 0034 5C000000 		.word	.LC2
 1385              		.cfi_endproc
 1386              	.LFE186:
 1388              		.section	.text.mqtt_output_send,"ax",%progbits
 1389              		.align	1
 1390              		.syntax unified
 1391              		.thumb
 1392              		.thumb_func
 1394              	mqtt_output_send:
 1395              	.LVL145:
 1396              	.LFB179:
 235:../../Middlewares/Third_Party/LwIP/src/apps/mqtt/mqtt.c ****   err_t err;
 1397              		.loc 1 235 1 is_stmt 1 view -0
 1398              		.cfi_startproc
 1399              		@ args = 0, pretend = 0, frame = 0
 1400              		@ frame_needed = 0, uses_anonymous_args = 0
 235:../../Middlewares/Third_Party/LwIP/src/apps/mqtt/mqtt.c ****   err_t err;
 1401              		.loc 1 235 1 is_stmt 0 view .LVU371
 1402 0000 F8B5     		push	{r3, r4, r5, r6, r7, lr}
 1403              	.LCFI14:
ARM GAS  C:\Users\minis\AppData\Local\Temp\ccG6JyYg.s 			page 42


 1404              		.cfi_def_cfa_offset 24
 1405              		.cfi_offset 3, -24
 1406              		.cfi_offset 4, -20
 1407              		.cfi_offset 5, -16
 1408              		.cfi_offset 6, -12
 1409              		.cfi_offset 7, -8
 1410              		.cfi_offset 14, -4
 1411 0002 0546     		mov	r5, r0
 1412 0004 0E46     		mov	r6, r1
 236:../../Middlewares/Third_Party/LwIP/src/apps/mqtt/mqtt.c ****   u8_t wrap = 0;
 1413              		.loc 1 236 3 is_stmt 1 view .LVU372
 237:../../Middlewares/Third_Party/LwIP/src/apps/mqtt/mqtt.c ****   u16_t ringbuf_lin_len = mqtt_ringbuf_linear_read_length(rb);
 1414              		.loc 1 237 3 view .LVU373
 1415              	.LVL146:
 238:../../Middlewares/Third_Party/LwIP/src/apps/mqtt/mqtt.c ****   u16_t send_len = altcp_sndbuf(tpcb);
 1416              		.loc 1 238 3 view .LVU374
 238:../../Middlewares/Third_Party/LwIP/src/apps/mqtt/mqtt.c ****   u16_t send_len = altcp_sndbuf(tpcb);
 1417              		.loc 1 238 27 is_stmt 0 view .LVU375
 1418 0006 FFF7FEFF 		bl	mqtt_ringbuf_len
 1419              	.LVL147:
 238:../../Middlewares/Third_Party/LwIP/src/apps/mqtt/mqtt.c ****   u16_t send_len = altcp_sndbuf(tpcb);
 1420              		.loc 1 238 27 discriminator 1 view .LVU376
 1421 000a 6B88     		ldrh	r3, [r5, #2]
 1422 000c C3F58072 		rsb	r2, r3, #256
 238:../../Middlewares/Third_Party/LwIP/src/apps/mqtt/mqtt.c ****   u16_t send_len = altcp_sndbuf(tpcb);
 1423              		.loc 1 238 9 discriminator 1 view .LVU377
 1424 0010 9042     		cmp	r0, r2
 1425 0012 20DA     		bge	.L115
 1426              	.LVL148:
 239:../../Middlewares/Third_Party/LwIP/src/apps/mqtt/mqtt.c ****   LWIP_ASSERT("mqtt_output_send: tpcb != NULL", tpcb != NULL);
 1427              		.loc 1 239 3 is_stmt 1 view .LVU378
 239:../../Middlewares/Third_Party/LwIP/src/apps/mqtt/mqtt.c ****   LWIP_ASSERT("mqtt_output_send: tpcb != NULL", tpcb != NULL);
 1428              		.loc 1 239 9 is_stmt 0 view .LVU379
 1429 0014 B6F86470 		ldrh	r7, [r6, #100]
 1430              	.LVL149:
 240:../../Middlewares/Third_Party/LwIP/src/apps/mqtt/mqtt.c **** 
 1431              		.loc 1 240 3 is_stmt 1 view .LVU380
 240:../../Middlewares/Third_Party/LwIP/src/apps/mqtt/mqtt.c **** 
 1432              		.loc 1 240 3 view .LVU381
 238:../../Middlewares/Third_Party/LwIP/src/apps/mqtt/mqtt.c ****   u16_t send_len = altcp_sndbuf(tpcb);
 1433              		.loc 1 238 27 is_stmt 0 discriminator 1 view .LVU382
 1434 0018 0346     		mov	r3, r0
 1435              	.LVL150:
 1436              	.L116:
 240:../../Middlewares/Third_Party/LwIP/src/apps/mqtt/mqtt.c **** 
 1437              		.loc 1 240 3 is_stmt 1 view .LVU383
 240:../../Middlewares/Third_Party/LwIP/src/apps/mqtt/mqtt.c **** 
 1438              		.loc 1 240 3 view .LVU384
 242:../../Middlewares/Third_Party/LwIP/src/apps/mqtt/mqtt.c ****     return;
 1439              		.loc 1 242 3 view .LVU385
 242:../../Middlewares/Third_Party/LwIP/src/apps/mqtt/mqtt.c ****     return;
 1440              		.loc 1 242 6 is_stmt 0 view .LVU386
 1441 001a 002B     		cmp	r3, #0
 1442 001c 18BF     		it	ne
 1443 001e 002F     		cmpne	r7, #0
 1444 0020 18D0     		beq	.L114
 247:../../Middlewares/Third_Party/LwIP/src/apps/mqtt/mqtt.c **** 
ARM GAS  C:\Users\minis\AppData\Local\Temp\ccG6JyYg.s 			page 43


 1445              		.loc 1 247 79 is_stmt 1 view .LVU387
 249:../../Middlewares/Third_Party/LwIP/src/apps/mqtt/mqtt.c ****     /* Space in TCP output buffer is larger than available in ring buffer linear portion */
 1446              		.loc 1 249 3 view .LVU388
 249:../../Middlewares/Third_Party/LwIP/src/apps/mqtt/mqtt.c ****     /* Space in TCP output buffer is larger than available in ring buffer linear portion */
 1447              		.loc 1 249 6 is_stmt 0 view .LVU389
 1448 0022 BB42     		cmp	r3, r7
 1449 0024 1DD2     		bcs	.L123
 251:../../Middlewares/Third_Party/LwIP/src/apps/mqtt/mqtt.c ****     /* Wrap around if more data in ring buffer after linear portion */
 1450              		.loc 1 251 5 is_stmt 1 view .LVU390
 1451              	.LVL151:
 253:../../Middlewares/Third_Party/LwIP/src/apps/mqtt/mqtt.c ****   }
 1452              		.loc 1 253 5 view .LVU391
 253:../../Middlewares/Third_Party/LwIP/src/apps/mqtt/mqtt.c ****   }
 1453              		.loc 1 253 34 is_stmt 0 discriminator 1 view .LVU392
 1454 0026 9842     		cmp	r0, r3
 1455 0028 94BF     		ite	ls
 1456 002a 0024     		movls	r4, #0
 1457 002c 0124     		movhi	r4, #1
 1458              	.LVL152:
 251:../../Middlewares/Third_Party/LwIP/src/apps/mqtt/mqtt.c ****     /* Wrap around if more data in ring buffer after linear portion */
 1459              		.loc 1 251 14 view .LVU393
 1460 002e 1F46     		mov	r7, r3
 1461              	.LVL153:
 1462              	.L118:
 255:../../Middlewares/Third_Party/LwIP/src/apps/mqtt/mqtt.c ****   if ((err == ERR_OK) && wrap) {
 1463              		.loc 1 255 3 is_stmt 1 view .LVU394
 255:../../Middlewares/Third_Party/LwIP/src/apps/mqtt/mqtt.c ****   if ((err == ERR_OK) && wrap) {
 1464              		.loc 1 255 27 is_stmt 0 view .LVU395
 1465 0030 2846     		mov	r0, r5
 1466 0032 FFF7FEFF 		bl	mqtt_ringbuf_get_ptr
 1467              	.LVL154:
 1468 0036 0146     		mov	r1, r0
 255:../../Middlewares/Third_Party/LwIP/src/apps/mqtt/mqtt.c ****   if ((err == ERR_OK) && wrap) {
 1469              		.loc 1 255 9 discriminator 1 view .LVU396
 1470 0038 ACB1     		cbz	r4, .L124
 1471 003a 0323     		movs	r3, #3
 1472              	.L119:
 255:../../Middlewares/Third_Party/LwIP/src/apps/mqtt/mqtt.c ****   if ((err == ERR_OK) && wrap) {
 1473              		.loc 1 255 9 discriminator 4 view .LVU397
 1474 003c 3A46     		mov	r2, r7
 1475 003e 3046     		mov	r0, r6
 1476 0040 FFF7FEFF 		bl	tcp_write
 1477              	.LVL155:
 256:../../Middlewares/Third_Party/LwIP/src/apps/mqtt/mqtt.c ****     mqtt_ringbuf_advance_get_idx(rb, send_len);
 1478              		.loc 1 256 3 is_stmt 1 view .LVU398
 256:../../Middlewares/Third_Party/LwIP/src/apps/mqtt/mqtt.c ****     mqtt_ringbuf_advance_get_idx(rb, send_len);
 1479              		.loc 1 256 23 is_stmt 0 view .LVU399
 1480 0044 B0FA80F3 		clz	r3, r0
 1481 0048 5B09     		lsrs	r3, r3, #5
 1482 004a 002C     		cmp	r4, #0
 1483 004c 08BF     		it	eq
 1484 004e 0023     		moveq	r3, #0
 256:../../Middlewares/Third_Party/LwIP/src/apps/mqtt/mqtt.c ****     mqtt_ringbuf_advance_get_idx(rb, send_len);
 1485              		.loc 1 256 6 view .LVU400
 1486 0050 5BB9     		cbnz	r3, .L128
 1487              	.LVL156:
 1488              	.L120:
ARM GAS  C:\Users\minis\AppData\Local\Temp\ccG6JyYg.s 			page 44


 263:../../Middlewares/Third_Party/LwIP/src/apps/mqtt/mqtt.c ****     mqtt_ringbuf_advance_get_idx(rb, send_len);
 1489              		.loc 1 263 3 is_stmt 1 view .LVU401
 263:../../Middlewares/Third_Party/LwIP/src/apps/mqtt/mqtt.c ****     mqtt_ringbuf_advance_get_idx(rb, send_len);
 1490              		.loc 1 263 6 is_stmt 0 view .LVU402
 1491 0052 78B3     		cbz	r0, .L129
 1492              	.LVL157:
 1493              	.L114:
 270:../../Middlewares/Third_Party/LwIP/src/apps/mqtt/mqtt.c **** 
 1494              		.loc 1 270 1 view .LVU403
 1495 0054 F8BD     		pop	{r3, r4, r5, r6, r7, pc}
 1496              	.LVL158:
 1497              	.L115:
 238:../../Middlewares/Third_Party/LwIP/src/apps/mqtt/mqtt.c ****   u16_t send_len = altcp_sndbuf(tpcb);
 1498              		.loc 1 238 9 discriminator 2 view .LVU404
 1499 0056 C3F58073 		rsb	r3, r3, #256
 1500 005a 9BB2     		uxth	r3, r3
 1501              	.LVL159:
 239:../../Middlewares/Third_Party/LwIP/src/apps/mqtt/mqtt.c ****   LWIP_ASSERT("mqtt_output_send: tpcb != NULL", tpcb != NULL);
 1502              		.loc 1 239 3 is_stmt 1 view .LVU405
 239:../../Middlewares/Third_Party/LwIP/src/apps/mqtt/mqtt.c ****   LWIP_ASSERT("mqtt_output_send: tpcb != NULL", tpcb != NULL);
 1503              		.loc 1 239 9 is_stmt 0 view .LVU406
 1504 005c B6F86470 		ldrh	r7, [r6, #100]
 1505              	.LVL160:
 240:../../Middlewares/Third_Party/LwIP/src/apps/mqtt/mqtt.c **** 
 1506              		.loc 1 240 3 is_stmt 1 view .LVU407
 240:../../Middlewares/Third_Party/LwIP/src/apps/mqtt/mqtt.c **** 
 1507              		.loc 1 240 3 view .LVU408
 1508 0060 DBE7     		b	.L116
 1509              	.LVL161:
 1510              	.L123:
 237:../../Middlewares/Third_Party/LwIP/src/apps/mqtt/mqtt.c ****   u16_t ringbuf_lin_len = mqtt_ringbuf_linear_read_length(rb);
 1511              		.loc 1 237 8 is_stmt 0 view .LVU409
 1512 0062 0024     		movs	r4, #0
 1513 0064 E4E7     		b	.L118
 1514              	.LVL162:
 1515              	.L124:
 255:../../Middlewares/Third_Party/LwIP/src/apps/mqtt/mqtt.c ****   if ((err == ERR_OK) && wrap) {
 1516              		.loc 1 255 9 discriminator 2 view .LVU410
 1517 0066 0123     		movs	r3, #1
 1518 0068 E8E7     		b	.L119
 1519              	.LVL163:
 1520              	.L128:
 257:../../Middlewares/Third_Party/LwIP/src/apps/mqtt/mqtt.c ****     /* Use the lesser one of ring buffer linear length and TCP send buffer size */
 1521              		.loc 1 257 5 is_stmt 1 view .LVU411
 1522 006a 3946     		mov	r1, r7
 1523 006c 2846     		mov	r0, r5
 1524              	.LVL164:
 257:../../Middlewares/Third_Party/LwIP/src/apps/mqtt/mqtt.c ****     /* Use the lesser one of ring buffer linear length and TCP send buffer size */
 1525              		.loc 1 257 5 is_stmt 0 view .LVU412
 1526 006e FFF7FEFF 		bl	mqtt_ringbuf_advance_get_idx
 1527              	.LVL165:
 259:../../Middlewares/Third_Party/LwIP/src/apps/mqtt/mqtt.c ****     err = altcp_write(tpcb, mqtt_ringbuf_get_ptr(rb), send_len, TCP_WRITE_FLAG_COPY);
 1528              		.loc 1 259 5 is_stmt 1 view .LVU413
 259:../../Middlewares/Third_Party/LwIP/src/apps/mqtt/mqtt.c ****     err = altcp_write(tpcb, mqtt_ringbuf_get_ptr(rb), send_len, TCP_WRITE_FLAG_COPY);
 1529              		.loc 1 259 16 is_stmt 0 view .LVU414
 1530 0072 B6F86470 		ldrh	r7, [r6, #100]
 1531              	.LVL166:
ARM GAS  C:\Users\minis\AppData\Local\Temp\ccG6JyYg.s 			page 45


 259:../../Middlewares/Third_Party/LwIP/src/apps/mqtt/mqtt.c ****     err = altcp_write(tpcb, mqtt_ringbuf_get_ptr(rb), send_len, TCP_WRITE_FLAG_COPY);
 1532              		.loc 1 259 16 view .LVU415
 1533 0076 3C46     		mov	r4, r7
 1534              	.LVL167:
 259:../../Middlewares/Third_Party/LwIP/src/apps/mqtt/mqtt.c ****     err = altcp_write(tpcb, mqtt_ringbuf_get_ptr(rb), send_len, TCP_WRITE_FLAG_COPY);
 1535              		.loc 1 259 16 view .LVU416
 1536 0078 2846     		mov	r0, r5
 1537 007a FFF7FEFF 		bl	mqtt_ringbuf_len
 1538              	.LVL168:
 259:../../Middlewares/Third_Party/LwIP/src/apps/mqtt/mqtt.c ****     err = altcp_write(tpcb, mqtt_ringbuf_get_ptr(rb), send_len, TCP_WRITE_FLAG_COPY);
 1539              		.loc 1 259 16 discriminator 1 view .LVU417
 1540 007e 6A88     		ldrh	r2, [r5, #2]
 1541 0080 C2F58073 		rsb	r3, r2, #256
 1542 0084 9842     		cmp	r0, r3
 1543 0086 11DA     		bge	.L125
 1544 0088 0146     		mov	r1, r0
 1545              	.L121:
 259:../../Middlewares/Third_Party/LwIP/src/apps/mqtt/mqtt.c ****     err = altcp_write(tpcb, mqtt_ringbuf_get_ptr(rb), send_len, TCP_WRITE_FLAG_COPY);
 1546              		.loc 1 259 14 discriminator 4 view .LVU418
 1547 008a 8C42     		cmp	r4, r1
 1548 008c 04DB     		blt	.L122
 259:../../Middlewares/Third_Party/LwIP/src/apps/mqtt/mqtt.c ****     err = altcp_write(tpcb, mqtt_ringbuf_get_ptr(rb), send_len, TCP_WRITE_FLAG_COPY);
 1549              		.loc 1 259 14 discriminator 1 view .LVU419
 1550 008e 9842     		cmp	r0, r3
 1551 0090 0EDB     		blt	.L126
 259:../../Middlewares/Third_Party/LwIP/src/apps/mqtt/mqtt.c ****     err = altcp_write(tpcb, mqtt_ringbuf_get_ptr(rb), send_len, TCP_WRITE_FLAG_COPY);
 1552              		.loc 1 259 14 discriminator 9 view .LVU420
 1553 0092 C2F58072 		rsb	r2, r2, #256
 1554 0096 97B2     		uxth	r7, r2
 1555              	.L122:
 1556              	.LVL169:
 260:../../Middlewares/Third_Party/LwIP/src/apps/mqtt/mqtt.c ****   }
 1557              		.loc 1 260 5 is_stmt 1 view .LVU421
 260:../../Middlewares/Third_Party/LwIP/src/apps/mqtt/mqtt.c ****   }
 1558              		.loc 1 260 29 is_stmt 0 view .LVU422
 1559 0098 2846     		mov	r0, r5
 1560 009a FFF7FEFF 		bl	mqtt_ringbuf_get_ptr
 1561              	.LVL170:
 1562 009e 0146     		mov	r1, r0
 260:../../Middlewares/Third_Party/LwIP/src/apps/mqtt/mqtt.c ****   }
 1563              		.loc 1 260 11 discriminator 1 view .LVU423
 1564 00a0 0123     		movs	r3, #1
 1565 00a2 3A46     		mov	r2, r7
 1566 00a4 3046     		mov	r0, r6
 1567 00a6 FFF7FEFF 		bl	tcp_write
 1568              	.LVL171:
 1569 00aa D2E7     		b	.L120
 1570              	.LVL172:
 1571              	.L125:
 259:../../Middlewares/Third_Party/LwIP/src/apps/mqtt/mqtt.c ****     err = altcp_write(tpcb, mqtt_ringbuf_get_ptr(rb), send_len, TCP_WRITE_FLAG_COPY);
 1572              		.loc 1 259 16 discriminator 2 view .LVU424
 1573 00ac 1946     		mov	r1, r3
 1574 00ae ECE7     		b	.L121
 1575              	.L126:
 259:../../Middlewares/Third_Party/LwIP/src/apps/mqtt/mqtt.c ****     err = altcp_write(tpcb, mqtt_ringbuf_get_ptr(rb), send_len, TCP_WRITE_FLAG_COPY);
 1576              		.loc 1 259 16 discriminator 8 view .LVU425
 1577 00b0 0746     		mov	r7, r0
ARM GAS  C:\Users\minis\AppData\Local\Temp\ccG6JyYg.s 			page 46


 1578 00b2 F1E7     		b	.L122
 1579              	.LVL173:
 1580              	.L129:
 264:../../Middlewares/Third_Party/LwIP/src/apps/mqtt/mqtt.c ****     /* Flush */
 1581              		.loc 1 264 5 is_stmt 1 view .LVU426
 1582 00b4 3946     		mov	r1, r7
 1583 00b6 2846     		mov	r0, r5
 1584              	.LVL174:
 264:../../Middlewares/Third_Party/LwIP/src/apps/mqtt/mqtt.c ****     /* Flush */
 1585              		.loc 1 264 5 is_stmt 0 view .LVU427
 1586 00b8 FFF7FEFF 		bl	mqtt_ringbuf_advance_get_idx
 1587              	.LVL175:
 266:../../Middlewares/Third_Party/LwIP/src/apps/mqtt/mqtt.c ****   } else {
 1588              		.loc 1 266 5 is_stmt 1 view .LVU428
 1589 00bc 3046     		mov	r0, r6
 1590 00be FFF7FEFF 		bl	tcp_output
 1591              	.LVL176:
 268:../../Middlewares/Third_Party/LwIP/src/apps/mqtt/mqtt.c ****   }
 1592              		.loc 1 268 114 view .LVU429
 1593 00c2 C7E7     		b	.L114
 1594              		.cfi_endproc
 1595              	.LFE179:
 1597              		.section	.text.mqtt_tcp_poll_cb,"ax",%progbits
 1598              		.align	1
 1599              		.syntax unified
 1600              		.thumb
 1601              		.thumb_func
 1603              	mqtt_tcp_poll_cb:
 1604              	.LVL177:
 1605              	.LFB202:
 662:../../Middlewares/Third_Party/LwIP/src/apps/mqtt/mqtt.c **** 
 663:../../Middlewares/Third_Party/LwIP/src/apps/mqtt/mqtt.c **** 
 664:../../Middlewares/Third_Party/LwIP/src/apps/mqtt/mqtt.c **** /**
 665:../../Middlewares/Third_Party/LwIP/src/apps/mqtt/mqtt.c ****  * Complete MQTT message received or buffer full
 666:../../Middlewares/Third_Party/LwIP/src/apps/mqtt/mqtt.c ****  * @param client MQTT client
 667:../../Middlewares/Third_Party/LwIP/src/apps/mqtt/mqtt.c ****  * @param fixed_hdr_idx header index
 668:../../Middlewares/Third_Party/LwIP/src/apps/mqtt/mqtt.c ****  * @param length length received part
 669:../../Middlewares/Third_Party/LwIP/src/apps/mqtt/mqtt.c ****  * @param remaining_length Remaining length of complete message
 670:../../Middlewares/Third_Party/LwIP/src/apps/mqtt/mqtt.c ****  */
 671:../../Middlewares/Third_Party/LwIP/src/apps/mqtt/mqtt.c **** static mqtt_connection_status_t
 672:../../Middlewares/Third_Party/LwIP/src/apps/mqtt/mqtt.c **** mqtt_message_received(mqtt_client_t *client, u8_t fixed_hdr_idx, u16_t length, u32_t remaining_leng
 673:../../Middlewares/Third_Party/LwIP/src/apps/mqtt/mqtt.c **** {
 674:../../Middlewares/Third_Party/LwIP/src/apps/mqtt/mqtt.c ****   mqtt_connection_status_t res = MQTT_CONNECT_ACCEPTED;
 675:../../Middlewares/Third_Party/LwIP/src/apps/mqtt/mqtt.c **** 
 676:../../Middlewares/Third_Party/LwIP/src/apps/mqtt/mqtt.c ****   u8_t *var_hdr_payload = client->rx_buffer + fixed_hdr_idx;
 677:../../Middlewares/Third_Party/LwIP/src/apps/mqtt/mqtt.c ****   size_t var_hdr_payload_bufsize = sizeof(client->rx_buffer) - fixed_hdr_idx;
 678:../../Middlewares/Third_Party/LwIP/src/apps/mqtt/mqtt.c **** 
 679:../../Middlewares/Third_Party/LwIP/src/apps/mqtt/mqtt.c ****   /* Control packet type */
 680:../../Middlewares/Third_Party/LwIP/src/apps/mqtt/mqtt.c ****   u8_t pkt_type = MQTT_CTL_PACKET_TYPE(client->rx_buffer[0]);
 681:../../Middlewares/Third_Party/LwIP/src/apps/mqtt/mqtt.c ****   u16_t pkt_id = 0;
 682:../../Middlewares/Third_Party/LwIP/src/apps/mqtt/mqtt.c **** 
 683:../../Middlewares/Third_Party/LwIP/src/apps/mqtt/mqtt.c ****   LWIP_ASSERT("client->msg_idx < MQTT_VAR_HEADER_BUFFER_LEN", client->msg_idx < MQTT_VAR_HEADER_BUF
 684:../../Middlewares/Third_Party/LwIP/src/apps/mqtt/mqtt.c ****   LWIP_ASSERT("fixed_hdr_idx <= client->msg_idx", fixed_hdr_idx <= client->msg_idx);
 685:../../Middlewares/Third_Party/LwIP/src/apps/mqtt/mqtt.c ****   LWIP_ERROR("buffer length mismatch", fixed_hdr_idx + length <= MQTT_VAR_HEADER_BUFFER_LEN,
 686:../../Middlewares/Third_Party/LwIP/src/apps/mqtt/mqtt.c ****              return MQTT_CONNECT_DISCONNECTED);
 687:../../Middlewares/Third_Party/LwIP/src/apps/mqtt/mqtt.c **** 
 688:../../Middlewares/Third_Party/LwIP/src/apps/mqtt/mqtt.c ****   if (pkt_type == MQTT_MSG_TYPE_CONNACK) {
ARM GAS  C:\Users\minis\AppData\Local\Temp\ccG6JyYg.s 			page 47


 689:../../Middlewares/Third_Party/LwIP/src/apps/mqtt/mqtt.c ****     if (client->conn_state == MQTT_CONNECTING) {
 690:../../Middlewares/Third_Party/LwIP/src/apps/mqtt/mqtt.c ****       if (length < 2) {
 691:../../Middlewares/Third_Party/LwIP/src/apps/mqtt/mqtt.c ****         LWIP_DEBUGF(MQTT_DEBUG_WARN,( "mqtt_message_received: Received short CONNACK message\n"));
 692:../../Middlewares/Third_Party/LwIP/src/apps/mqtt/mqtt.c ****         goto out_disconnect;
 693:../../Middlewares/Third_Party/LwIP/src/apps/mqtt/mqtt.c ****       }
 694:../../Middlewares/Third_Party/LwIP/src/apps/mqtt/mqtt.c ****       /* Get result code from CONNACK */
 695:../../Middlewares/Third_Party/LwIP/src/apps/mqtt/mqtt.c ****       res = (mqtt_connection_status_t)var_hdr_payload[1];
 696:../../Middlewares/Third_Party/LwIP/src/apps/mqtt/mqtt.c ****       LWIP_DEBUGF(MQTT_DEBUG_TRACE, ("mqtt_message_received: Connect response code %d\n", res));
 697:../../Middlewares/Third_Party/LwIP/src/apps/mqtt/mqtt.c ****       if (res == MQTT_CONNECT_ACCEPTED) {
 698:../../Middlewares/Third_Party/LwIP/src/apps/mqtt/mqtt.c ****         /* Reset cyclic_tick when changing to connected state */
 699:../../Middlewares/Third_Party/LwIP/src/apps/mqtt/mqtt.c ****         client->cyclic_tick = 0;
 700:../../Middlewares/Third_Party/LwIP/src/apps/mqtt/mqtt.c ****         client->conn_state = MQTT_CONNECTED;
 701:../../Middlewares/Third_Party/LwIP/src/apps/mqtt/mqtt.c ****         /* Notify upper layer */
 702:../../Middlewares/Third_Party/LwIP/src/apps/mqtt/mqtt.c ****         if (client->connect_cb != 0) {
 703:../../Middlewares/Third_Party/LwIP/src/apps/mqtt/mqtt.c ****           client->connect_cb(client, client->connect_arg, res);
 704:../../Middlewares/Third_Party/LwIP/src/apps/mqtt/mqtt.c ****         }
 705:../../Middlewares/Third_Party/LwIP/src/apps/mqtt/mqtt.c ****       }
 706:../../Middlewares/Third_Party/LwIP/src/apps/mqtt/mqtt.c ****     } else {
 707:../../Middlewares/Third_Party/LwIP/src/apps/mqtt/mqtt.c ****       LWIP_DEBUGF(MQTT_DEBUG_WARN, ("mqtt_message_received: Received CONNACK in connected state\n")
 708:../../Middlewares/Third_Party/LwIP/src/apps/mqtt/mqtt.c ****     }
 709:../../Middlewares/Third_Party/LwIP/src/apps/mqtt/mqtt.c ****   } else if (pkt_type == MQTT_MSG_TYPE_PINGRESP) {
 710:../../Middlewares/Third_Party/LwIP/src/apps/mqtt/mqtt.c ****     LWIP_DEBUGF(MQTT_DEBUG_TRACE, ( "mqtt_message_received: Received PINGRESP from server\n"));
 711:../../Middlewares/Third_Party/LwIP/src/apps/mqtt/mqtt.c **** 
 712:../../Middlewares/Third_Party/LwIP/src/apps/mqtt/mqtt.c ****   } else if (pkt_type == MQTT_MSG_TYPE_PUBLISH) {
 713:../../Middlewares/Third_Party/LwIP/src/apps/mqtt/mqtt.c ****     u16_t payload_offset = 0;
 714:../../Middlewares/Third_Party/LwIP/src/apps/mqtt/mqtt.c ****     u16_t payload_length = length;
 715:../../Middlewares/Third_Party/LwIP/src/apps/mqtt/mqtt.c ****     u8_t qos = MQTT_CTL_PACKET_QOS(client->rx_buffer[0]);
 716:../../Middlewares/Third_Party/LwIP/src/apps/mqtt/mqtt.c **** 
 717:../../Middlewares/Third_Party/LwIP/src/apps/mqtt/mqtt.c ****     if (client->msg_idx <= MQTT_VAR_HEADER_BUFFER_LEN) {
 718:../../Middlewares/Third_Party/LwIP/src/apps/mqtt/mqtt.c ****       /* Should have topic and pkt id*/
 719:../../Middlewares/Third_Party/LwIP/src/apps/mqtt/mqtt.c ****       u8_t *topic;
 720:../../Middlewares/Third_Party/LwIP/src/apps/mqtt/mqtt.c ****       u16_t after_topic;
 721:../../Middlewares/Third_Party/LwIP/src/apps/mqtt/mqtt.c ****       u8_t bkp;
 722:../../Middlewares/Third_Party/LwIP/src/apps/mqtt/mqtt.c ****       u16_t topic_len;
 723:../../Middlewares/Third_Party/LwIP/src/apps/mqtt/mqtt.c ****       u16_t qos_len = (qos ? 2U : 0U);
 724:../../Middlewares/Third_Party/LwIP/src/apps/mqtt/mqtt.c ****       if (length < 2 + qos_len) {
 725:../../Middlewares/Third_Party/LwIP/src/apps/mqtt/mqtt.c ****         LWIP_DEBUGF(MQTT_DEBUG_WARN,( "mqtt_message_received: Received short PUBLISH packet\n"));
 726:../../Middlewares/Third_Party/LwIP/src/apps/mqtt/mqtt.c ****         goto out_disconnect;
 727:../../Middlewares/Third_Party/LwIP/src/apps/mqtt/mqtt.c ****       }
 728:../../Middlewares/Third_Party/LwIP/src/apps/mqtt/mqtt.c ****       topic_len = var_hdr_payload[0];
 729:../../Middlewares/Third_Party/LwIP/src/apps/mqtt/mqtt.c ****       topic_len = (topic_len << 8) + (u16_t)(var_hdr_payload[1]);
 730:../../Middlewares/Third_Party/LwIP/src/apps/mqtt/mqtt.c ****       if ((topic_len > length - (2 + qos_len)) ||
 731:../../Middlewares/Third_Party/LwIP/src/apps/mqtt/mqtt.c ****           (topic_len > var_hdr_payload_bufsize - (2 + qos_len))) {
 732:../../Middlewares/Third_Party/LwIP/src/apps/mqtt/mqtt.c ****         LWIP_DEBUGF(MQTT_DEBUG_WARN,( "mqtt_message_received: Received short PUBLISH packet (topic)
 733:../../Middlewares/Third_Party/LwIP/src/apps/mqtt/mqtt.c ****         goto out_disconnect;
 734:../../Middlewares/Third_Party/LwIP/src/apps/mqtt/mqtt.c ****       }
 735:../../Middlewares/Third_Party/LwIP/src/apps/mqtt/mqtt.c **** 
 736:../../Middlewares/Third_Party/LwIP/src/apps/mqtt/mqtt.c ****       topic = var_hdr_payload + 2;
 737:../../Middlewares/Third_Party/LwIP/src/apps/mqtt/mqtt.c ****       after_topic = 2 + topic_len;
 738:../../Middlewares/Third_Party/LwIP/src/apps/mqtt/mqtt.c ****       /* Check buffer length, add one byte even for QoS 0 so that zero termination will fit */
 739:../../Middlewares/Third_Party/LwIP/src/apps/mqtt/mqtt.c ****       if ((after_topic + (qos ? 2U : 1U)) > var_hdr_payload_bufsize) {
 740:../../Middlewares/Third_Party/LwIP/src/apps/mqtt/mqtt.c ****         LWIP_DEBUGF(MQTT_DEBUG_WARN, ("mqtt_message_received: Receive buffer can not fit topic + pk
 741:../../Middlewares/Third_Party/LwIP/src/apps/mqtt/mqtt.c ****         goto out_disconnect;
 742:../../Middlewares/Third_Party/LwIP/src/apps/mqtt/mqtt.c ****       }
 743:../../Middlewares/Third_Party/LwIP/src/apps/mqtt/mqtt.c **** 
 744:../../Middlewares/Third_Party/LwIP/src/apps/mqtt/mqtt.c ****       /* id for QoS 1 and 2 */
 745:../../Middlewares/Third_Party/LwIP/src/apps/mqtt/mqtt.c ****       if (qos > 0) {
ARM GAS  C:\Users\minis\AppData\Local\Temp\ccG6JyYg.s 			page 48


 746:../../Middlewares/Third_Party/LwIP/src/apps/mqtt/mqtt.c ****         if (length < after_topic + 2U) {
 747:../../Middlewares/Third_Party/LwIP/src/apps/mqtt/mqtt.c ****           LWIP_DEBUGF(MQTT_DEBUG_WARN,( "mqtt_message_received: Received short PUBLISH packet (afte
 748:../../Middlewares/Third_Party/LwIP/src/apps/mqtt/mqtt.c ****           goto out_disconnect;
 749:../../Middlewares/Third_Party/LwIP/src/apps/mqtt/mqtt.c ****         }
 750:../../Middlewares/Third_Party/LwIP/src/apps/mqtt/mqtt.c ****         client->inpub_pkt_id = ((u16_t)var_hdr_payload[after_topic] << 8) + (u16_t)var_hdr_payload[
 751:../../Middlewares/Third_Party/LwIP/src/apps/mqtt/mqtt.c ****         after_topic += 2;
 752:../../Middlewares/Third_Party/LwIP/src/apps/mqtt/mqtt.c ****       } else {
 753:../../Middlewares/Third_Party/LwIP/src/apps/mqtt/mqtt.c ****         client->inpub_pkt_id = 0;
 754:../../Middlewares/Third_Party/LwIP/src/apps/mqtt/mqtt.c ****       }
 755:../../Middlewares/Third_Party/LwIP/src/apps/mqtt/mqtt.c ****       /* Take backup of byte after topic */
 756:../../Middlewares/Third_Party/LwIP/src/apps/mqtt/mqtt.c ****       bkp = topic[topic_len];
 757:../../Middlewares/Third_Party/LwIP/src/apps/mqtt/mqtt.c ****       /* Zero terminate string */
 758:../../Middlewares/Third_Party/LwIP/src/apps/mqtt/mqtt.c ****       topic[topic_len] = 0;
 759:../../Middlewares/Third_Party/LwIP/src/apps/mqtt/mqtt.c ****       /* Payload data remaining in receive buffer */
 760:../../Middlewares/Third_Party/LwIP/src/apps/mqtt/mqtt.c ****       payload_length = length - after_topic;
 761:../../Middlewares/Third_Party/LwIP/src/apps/mqtt/mqtt.c ****       payload_offset = after_topic;
 762:../../Middlewares/Third_Party/LwIP/src/apps/mqtt/mqtt.c **** 
 763:../../Middlewares/Third_Party/LwIP/src/apps/mqtt/mqtt.c ****       LWIP_DEBUGF(MQTT_DEBUG_TRACE, ("mqtt_incomming_publish: Received message with QoS %d at topic
 764:../../Middlewares/Third_Party/LwIP/src/apps/mqtt/mqtt.c ****                                      qos, topic, remaining_length + payload_length));
 765:../../Middlewares/Third_Party/LwIP/src/apps/mqtt/mqtt.c ****       if (client->pub_cb != NULL) {
 766:../../Middlewares/Third_Party/LwIP/src/apps/mqtt/mqtt.c ****         client->pub_cb(client->inpub_arg, (const char *)topic, remaining_length + payload_length);
 767:../../Middlewares/Third_Party/LwIP/src/apps/mqtt/mqtt.c ****       }
 768:../../Middlewares/Third_Party/LwIP/src/apps/mqtt/mqtt.c ****       /* Restore byte after topic */
 769:../../Middlewares/Third_Party/LwIP/src/apps/mqtt/mqtt.c ****       topic[topic_len] = bkp;
 770:../../Middlewares/Third_Party/LwIP/src/apps/mqtt/mqtt.c ****     }
 771:../../Middlewares/Third_Party/LwIP/src/apps/mqtt/mqtt.c ****     if (payload_length > 0 || remaining_length == 0) {
 772:../../Middlewares/Third_Party/LwIP/src/apps/mqtt/mqtt.c ****       if (length < (size_t)(payload_offset + payload_length)) {
 773:../../Middlewares/Third_Party/LwIP/src/apps/mqtt/mqtt.c ****         LWIP_DEBUGF(MQTT_DEBUG_WARN,( "mqtt_message_received: Received short packet (payload)\n"));
 774:../../Middlewares/Third_Party/LwIP/src/apps/mqtt/mqtt.c ****         goto out_disconnect;
 775:../../Middlewares/Third_Party/LwIP/src/apps/mqtt/mqtt.c ****       }
 776:../../Middlewares/Third_Party/LwIP/src/apps/mqtt/mqtt.c ****       client->data_cb(client->inpub_arg, var_hdr_payload + payload_offset, payload_length, remainin
 777:../../Middlewares/Third_Party/LwIP/src/apps/mqtt/mqtt.c ****       /* Reply if QoS > 0 */
 778:../../Middlewares/Third_Party/LwIP/src/apps/mqtt/mqtt.c ****       if (remaining_length == 0 && qos > 0) {
 779:../../Middlewares/Third_Party/LwIP/src/apps/mqtt/mqtt.c ****         /* Send PUBACK for QoS 1 or PUBREC for QoS 2 */
 780:../../Middlewares/Third_Party/LwIP/src/apps/mqtt/mqtt.c ****         u8_t resp_msg = (qos == 1) ? MQTT_MSG_TYPE_PUBACK : MQTT_MSG_TYPE_PUBREC;
 781:../../Middlewares/Third_Party/LwIP/src/apps/mqtt/mqtt.c ****         LWIP_DEBUGF(MQTT_DEBUG_TRACE, ("mqtt_incomming_publish: Sending publish response: %s with p
 782:../../Middlewares/Third_Party/LwIP/src/apps/mqtt/mqtt.c ****                                        mqtt_msg_type_to_str(resp_msg), client->inpub_pkt_id));
 783:../../Middlewares/Third_Party/LwIP/src/apps/mqtt/mqtt.c ****         pub_ack_rec_rel_response(client, resp_msg, client->inpub_pkt_id, 0);
 784:../../Middlewares/Third_Party/LwIP/src/apps/mqtt/mqtt.c ****       }
 785:../../Middlewares/Third_Party/LwIP/src/apps/mqtt/mqtt.c ****     }
 786:../../Middlewares/Third_Party/LwIP/src/apps/mqtt/mqtt.c ****   } else {
 787:../../Middlewares/Third_Party/LwIP/src/apps/mqtt/mqtt.c ****     /* Get packet identifier */
 788:../../Middlewares/Third_Party/LwIP/src/apps/mqtt/mqtt.c ****     pkt_id = (u16_t)var_hdr_payload[0] << 8;
 789:../../Middlewares/Third_Party/LwIP/src/apps/mqtt/mqtt.c ****     pkt_id |= (u16_t)var_hdr_payload[1];
 790:../../Middlewares/Third_Party/LwIP/src/apps/mqtt/mqtt.c ****     if (pkt_id == 0) {
 791:../../Middlewares/Third_Party/LwIP/src/apps/mqtt/mqtt.c ****       LWIP_DEBUGF(MQTT_DEBUG_WARN, ("mqtt_message_received: Got message with illegal packet identif
 792:../../Middlewares/Third_Party/LwIP/src/apps/mqtt/mqtt.c ****       goto out_disconnect;
 793:../../Middlewares/Third_Party/LwIP/src/apps/mqtt/mqtt.c ****     }
 794:../../Middlewares/Third_Party/LwIP/src/apps/mqtt/mqtt.c ****     if (pkt_type == MQTT_MSG_TYPE_PUBREC) {
 795:../../Middlewares/Third_Party/LwIP/src/apps/mqtt/mqtt.c ****       LWIP_DEBUGF(MQTT_DEBUG_TRACE, ("mqtt_message_received: PUBREC, sending PUBREL with pkt_id: %d
 796:../../Middlewares/Third_Party/LwIP/src/apps/mqtt/mqtt.c ****       pub_ack_rec_rel_response(client, MQTT_MSG_TYPE_PUBREL, pkt_id, 1);
 797:../../Middlewares/Third_Party/LwIP/src/apps/mqtt/mqtt.c **** 
 798:../../Middlewares/Third_Party/LwIP/src/apps/mqtt/mqtt.c ****     } else if (pkt_type == MQTT_MSG_TYPE_PUBREL) {
 799:../../Middlewares/Third_Party/LwIP/src/apps/mqtt/mqtt.c ****       LWIP_DEBUGF(MQTT_DEBUG_TRACE, ("mqtt_message_received: PUBREL, sending PUBCOMP response with 
 800:../../Middlewares/Third_Party/LwIP/src/apps/mqtt/mqtt.c ****       pub_ack_rec_rel_response(client, MQTT_MSG_TYPE_PUBCOMP, pkt_id, 0);
 801:../../Middlewares/Third_Party/LwIP/src/apps/mqtt/mqtt.c **** 
 802:../../Middlewares/Third_Party/LwIP/src/apps/mqtt/mqtt.c ****     } else if (pkt_type == MQTT_MSG_TYPE_SUBACK || pkt_type == MQTT_MSG_TYPE_UNSUBACK ||
ARM GAS  C:\Users\minis\AppData\Local\Temp\ccG6JyYg.s 			page 49


 803:../../Middlewares/Third_Party/LwIP/src/apps/mqtt/mqtt.c ****                pkt_type == MQTT_MSG_TYPE_PUBCOMP || pkt_type == MQTT_MSG_TYPE_PUBACK) {
 804:../../Middlewares/Third_Party/LwIP/src/apps/mqtt/mqtt.c ****       struct mqtt_request_t *r = mqtt_take_request(&client->pend_req_queue, pkt_id);
 805:../../Middlewares/Third_Party/LwIP/src/apps/mqtt/mqtt.c ****       if (r != NULL) {
 806:../../Middlewares/Third_Party/LwIP/src/apps/mqtt/mqtt.c ****         LWIP_DEBUGF(MQTT_DEBUG_TRACE, ("mqtt_message_received: %s response with id %d\n", mqtt_msg_
 807:../../Middlewares/Third_Party/LwIP/src/apps/mqtt/mqtt.c ****         if (pkt_type == MQTT_MSG_TYPE_SUBACK) {
 808:../../Middlewares/Third_Party/LwIP/src/apps/mqtt/mqtt.c ****           if (length < 3) {
 809:../../Middlewares/Third_Party/LwIP/src/apps/mqtt/mqtt.c ****             LWIP_DEBUGF(MQTT_DEBUG_WARN, ("mqtt_message_received: To small SUBACK packet\n"));
 810:../../Middlewares/Third_Party/LwIP/src/apps/mqtt/mqtt.c ****             goto out_disconnect;
 811:../../Middlewares/Third_Party/LwIP/src/apps/mqtt/mqtt.c ****           } else {
 812:../../Middlewares/Third_Party/LwIP/src/apps/mqtt/mqtt.c ****             mqtt_incomming_suback(r, var_hdr_payload[2]);
 813:../../Middlewares/Third_Party/LwIP/src/apps/mqtt/mqtt.c ****           }
 814:../../Middlewares/Third_Party/LwIP/src/apps/mqtt/mqtt.c ****         } else if (r->cb != NULL) {
 815:../../Middlewares/Third_Party/LwIP/src/apps/mqtt/mqtt.c ****           r->cb(r->arg, ERR_OK);
 816:../../Middlewares/Third_Party/LwIP/src/apps/mqtt/mqtt.c ****         }
 817:../../Middlewares/Third_Party/LwIP/src/apps/mqtt/mqtt.c ****         mqtt_delete_request(r);
 818:../../Middlewares/Third_Party/LwIP/src/apps/mqtt/mqtt.c ****       } else {
 819:../../Middlewares/Third_Party/LwIP/src/apps/mqtt/mqtt.c ****         LWIP_DEBUGF(MQTT_DEBUG_WARN, ( "mqtt_message_received: Received %s reply, with wrong pkt_id
 820:../../Middlewares/Third_Party/LwIP/src/apps/mqtt/mqtt.c ****       }
 821:../../Middlewares/Third_Party/LwIP/src/apps/mqtt/mqtt.c ****     } else {
 822:../../Middlewares/Third_Party/LwIP/src/apps/mqtt/mqtt.c ****       LWIP_DEBUGF(MQTT_DEBUG_WARN, ( "mqtt_message_received: Received unknown message type: %d\n", 
 823:../../Middlewares/Third_Party/LwIP/src/apps/mqtt/mqtt.c ****       goto out_disconnect;
 824:../../Middlewares/Third_Party/LwIP/src/apps/mqtt/mqtt.c ****     }
 825:../../Middlewares/Third_Party/LwIP/src/apps/mqtt/mqtt.c ****   }
 826:../../Middlewares/Third_Party/LwIP/src/apps/mqtt/mqtt.c ****   return res;
 827:../../Middlewares/Third_Party/LwIP/src/apps/mqtt/mqtt.c **** out_disconnect:
 828:../../Middlewares/Third_Party/LwIP/src/apps/mqtt/mqtt.c ****   return MQTT_CONNECT_DISCONNECTED;
 829:../../Middlewares/Third_Party/LwIP/src/apps/mqtt/mqtt.c **** }
 830:../../Middlewares/Third_Party/LwIP/src/apps/mqtt/mqtt.c **** 
 831:../../Middlewares/Third_Party/LwIP/src/apps/mqtt/mqtt.c **** 
 832:../../Middlewares/Third_Party/LwIP/src/apps/mqtt/mqtt.c **** /**
 833:../../Middlewares/Third_Party/LwIP/src/apps/mqtt/mqtt.c ****  * MQTT incoming message parser
 834:../../Middlewares/Third_Party/LwIP/src/apps/mqtt/mqtt.c ****  * @param client MQTT client
 835:../../Middlewares/Third_Party/LwIP/src/apps/mqtt/mqtt.c ****  * @param p PBUF chain of received data
 836:../../Middlewares/Third_Party/LwIP/src/apps/mqtt/mqtt.c ****  * @return Connection status
 837:../../Middlewares/Third_Party/LwIP/src/apps/mqtt/mqtt.c ****  */
 838:../../Middlewares/Third_Party/LwIP/src/apps/mqtt/mqtt.c **** static mqtt_connection_status_t
 839:../../Middlewares/Third_Party/LwIP/src/apps/mqtt/mqtt.c **** mqtt_parse_incoming(mqtt_client_t *client, struct pbuf *p)
 840:../../Middlewares/Third_Party/LwIP/src/apps/mqtt/mqtt.c **** {
 841:../../Middlewares/Third_Party/LwIP/src/apps/mqtt/mqtt.c ****   u16_t in_offset = 0;
 842:../../Middlewares/Third_Party/LwIP/src/apps/mqtt/mqtt.c ****   u32_t msg_rem_len = 0;
 843:../../Middlewares/Third_Party/LwIP/src/apps/mqtt/mqtt.c ****   u8_t fixed_hdr_idx = 0;
 844:../../Middlewares/Third_Party/LwIP/src/apps/mqtt/mqtt.c ****   u8_t b = 0;
 845:../../Middlewares/Third_Party/LwIP/src/apps/mqtt/mqtt.c **** 
 846:../../Middlewares/Third_Party/LwIP/src/apps/mqtt/mqtt.c ****   while (p->tot_len > in_offset) {
 847:../../Middlewares/Third_Party/LwIP/src/apps/mqtt/mqtt.c ****     /* We ALWAYS parse the header here first. Even if the header was not
 848:../../Middlewares/Third_Party/LwIP/src/apps/mqtt/mqtt.c ****        included in this segment, we re-parse it here by buffering it in
 849:../../Middlewares/Third_Party/LwIP/src/apps/mqtt/mqtt.c ****        client->rx_buffer. client->msg_idx keeps track of this. */
 850:../../Middlewares/Third_Party/LwIP/src/apps/mqtt/mqtt.c ****     if ((fixed_hdr_idx < 2) || ((b & 0x80) != 0)) {
 851:../../Middlewares/Third_Party/LwIP/src/apps/mqtt/mqtt.c **** 
 852:../../Middlewares/Third_Party/LwIP/src/apps/mqtt/mqtt.c ****       if (fixed_hdr_idx < client->msg_idx) {
 853:../../Middlewares/Third_Party/LwIP/src/apps/mqtt/mqtt.c ****         /* parse header from old pbuf (buffered in client->rx_buffer) */
 854:../../Middlewares/Third_Party/LwIP/src/apps/mqtt/mqtt.c ****         b = client->rx_buffer[fixed_hdr_idx];
 855:../../Middlewares/Third_Party/LwIP/src/apps/mqtt/mqtt.c ****       } else {
 856:../../Middlewares/Third_Party/LwIP/src/apps/mqtt/mqtt.c ****         /* parse header from this pbuf and save it in client->rx_buffer in case
 857:../../Middlewares/Third_Party/LwIP/src/apps/mqtt/mqtt.c ****            it comes in segmented */
 858:../../Middlewares/Third_Party/LwIP/src/apps/mqtt/mqtt.c ****         b = pbuf_get_at(p, in_offset++);
 859:../../Middlewares/Third_Party/LwIP/src/apps/mqtt/mqtt.c ****         client->rx_buffer[client->msg_idx++] = b;
ARM GAS  C:\Users\minis\AppData\Local\Temp\ccG6JyYg.s 			page 50


 860:../../Middlewares/Third_Party/LwIP/src/apps/mqtt/mqtt.c ****       }
 861:../../Middlewares/Third_Party/LwIP/src/apps/mqtt/mqtt.c ****       fixed_hdr_idx++;
 862:../../Middlewares/Third_Party/LwIP/src/apps/mqtt/mqtt.c **** 
 863:../../Middlewares/Third_Party/LwIP/src/apps/mqtt/mqtt.c ****       if (fixed_hdr_idx >= 2) {
 864:../../Middlewares/Third_Party/LwIP/src/apps/mqtt/mqtt.c ****         /* fixed header contains at least 2 bytes but can contain more, depending on
 865:../../Middlewares/Third_Party/LwIP/src/apps/mqtt/mqtt.c ****            'remaining length'. All bytes but the last of this have 0x80 set to
 866:../../Middlewares/Third_Party/LwIP/src/apps/mqtt/mqtt.c ****            indicate more bytes are coming. */
 867:../../Middlewares/Third_Party/LwIP/src/apps/mqtt/mqtt.c ****         msg_rem_len |= (u32_t)(b & 0x7f) << ((fixed_hdr_idx - 2) * 7);
 868:../../Middlewares/Third_Party/LwIP/src/apps/mqtt/mqtt.c ****         if ((b & 0x80) == 0) {
 869:../../Middlewares/Third_Party/LwIP/src/apps/mqtt/mqtt.c ****           /* fixed header is done */
 870:../../Middlewares/Third_Party/LwIP/src/apps/mqtt/mqtt.c ****           LWIP_DEBUGF(MQTT_DEBUG_TRACE, ("mqtt_parse_incoming: Remaining length after fixed header:
 871:../../Middlewares/Third_Party/LwIP/src/apps/mqtt/mqtt.c ****           if (msg_rem_len == 0) {
 872:../../Middlewares/Third_Party/LwIP/src/apps/mqtt/mqtt.c ****             /* Complete message with no extra headers of payload received */
 873:../../Middlewares/Third_Party/LwIP/src/apps/mqtt/mqtt.c ****             mqtt_message_received(client, fixed_hdr_idx, 0, 0);
 874:../../Middlewares/Third_Party/LwIP/src/apps/mqtt/mqtt.c ****             client->msg_idx = 0;
 875:../../Middlewares/Third_Party/LwIP/src/apps/mqtt/mqtt.c ****             fixed_hdr_idx = 0;
 876:../../Middlewares/Third_Party/LwIP/src/apps/mqtt/mqtt.c ****           } else {
 877:../../Middlewares/Third_Party/LwIP/src/apps/mqtt/mqtt.c ****             /* Bytes remaining in message (changes remaining length if this is
 878:../../Middlewares/Third_Party/LwIP/src/apps/mqtt/mqtt.c ****                not the first segment of this message) */
 879:../../Middlewares/Third_Party/LwIP/src/apps/mqtt/mqtt.c ****             msg_rem_len = (msg_rem_len + fixed_hdr_idx) - client->msg_idx;
 880:../../Middlewares/Third_Party/LwIP/src/apps/mqtt/mqtt.c ****           }
 881:../../Middlewares/Third_Party/LwIP/src/apps/mqtt/mqtt.c ****         }
 882:../../Middlewares/Third_Party/LwIP/src/apps/mqtt/mqtt.c ****       }
 883:../../Middlewares/Third_Party/LwIP/src/apps/mqtt/mqtt.c ****     } else {
 884:../../Middlewares/Third_Party/LwIP/src/apps/mqtt/mqtt.c ****       /* Fixed header has been parsed, parse variable header */
 885:../../Middlewares/Third_Party/LwIP/src/apps/mqtt/mqtt.c ****       u16_t cpy_len, cpy_start, buffer_space;
 886:../../Middlewares/Third_Party/LwIP/src/apps/mqtt/mqtt.c **** 
 887:../../Middlewares/Third_Party/LwIP/src/apps/mqtt/mqtt.c ****       cpy_start = (client->msg_idx - fixed_hdr_idx) % (MQTT_VAR_HEADER_BUFFER_LEN - fixed_hdr_idx) 
 888:../../Middlewares/Third_Party/LwIP/src/apps/mqtt/mqtt.c **** 
 889:../../Middlewares/Third_Party/LwIP/src/apps/mqtt/mqtt.c ****       /* Allow to copy the lesser one of available length in input data or bytes remaining in messa
 890:../../Middlewares/Third_Party/LwIP/src/apps/mqtt/mqtt.c ****       cpy_len = (u16_t)LWIP_MIN((u16_t)(p->tot_len - in_offset), msg_rem_len);
 891:../../Middlewares/Third_Party/LwIP/src/apps/mqtt/mqtt.c **** 
 892:../../Middlewares/Third_Party/LwIP/src/apps/mqtt/mqtt.c ****       /* Limit to available space in buffer */
 893:../../Middlewares/Third_Party/LwIP/src/apps/mqtt/mqtt.c ****       buffer_space = MQTT_VAR_HEADER_BUFFER_LEN - cpy_start;
 894:../../Middlewares/Third_Party/LwIP/src/apps/mqtt/mqtt.c ****       if (cpy_len > buffer_space) {
 895:../../Middlewares/Third_Party/LwIP/src/apps/mqtt/mqtt.c ****         cpy_len = buffer_space;
 896:../../Middlewares/Third_Party/LwIP/src/apps/mqtt/mqtt.c ****       }
 897:../../Middlewares/Third_Party/LwIP/src/apps/mqtt/mqtt.c ****       pbuf_copy_partial(p, client->rx_buffer + cpy_start, cpy_len, in_offset);
 898:../../Middlewares/Third_Party/LwIP/src/apps/mqtt/mqtt.c **** 
 899:../../Middlewares/Third_Party/LwIP/src/apps/mqtt/mqtt.c ****       /* Advance get and put indexes  */
 900:../../Middlewares/Third_Party/LwIP/src/apps/mqtt/mqtt.c ****       client->msg_idx += cpy_len;
 901:../../Middlewares/Third_Party/LwIP/src/apps/mqtt/mqtt.c ****       in_offset += cpy_len;
 902:../../Middlewares/Third_Party/LwIP/src/apps/mqtt/mqtt.c ****       msg_rem_len -= cpy_len;
 903:../../Middlewares/Third_Party/LwIP/src/apps/mqtt/mqtt.c **** 
 904:../../Middlewares/Third_Party/LwIP/src/apps/mqtt/mqtt.c ****       LWIP_DEBUGF(MQTT_DEBUG_TRACE, ("mqtt_parse_incoming: msg_idx: %"U32_F", cpy_len: %"U16_F", re
 905:../../Middlewares/Third_Party/LwIP/src/apps/mqtt/mqtt.c ****       if ((msg_rem_len == 0) || (cpy_len == buffer_space)) {
 906:../../Middlewares/Third_Party/LwIP/src/apps/mqtt/mqtt.c ****         /* Whole message received or buffer is full */
 907:../../Middlewares/Third_Party/LwIP/src/apps/mqtt/mqtt.c ****         mqtt_connection_status_t res = mqtt_message_received(client, fixed_hdr_idx, (cpy_start + cp
 908:../../Middlewares/Third_Party/LwIP/src/apps/mqtt/mqtt.c ****         if (res != MQTT_CONNECT_ACCEPTED) {
 909:../../Middlewares/Third_Party/LwIP/src/apps/mqtt/mqtt.c ****           return res;
 910:../../Middlewares/Third_Party/LwIP/src/apps/mqtt/mqtt.c ****         }
 911:../../Middlewares/Third_Party/LwIP/src/apps/mqtt/mqtt.c ****         if (msg_rem_len == 0) {
 912:../../Middlewares/Third_Party/LwIP/src/apps/mqtt/mqtt.c ****           /* Reset parser state */
 913:../../Middlewares/Third_Party/LwIP/src/apps/mqtt/mqtt.c ****           client->msg_idx = 0;
 914:../../Middlewares/Third_Party/LwIP/src/apps/mqtt/mqtt.c ****           /* msg_tot_len = 0; */
 915:../../Middlewares/Third_Party/LwIP/src/apps/mqtt/mqtt.c ****           fixed_hdr_idx = 0;
 916:../../Middlewares/Third_Party/LwIP/src/apps/mqtt/mqtt.c ****         }
ARM GAS  C:\Users\minis\AppData\Local\Temp\ccG6JyYg.s 			page 51


 917:../../Middlewares/Third_Party/LwIP/src/apps/mqtt/mqtt.c ****       }
 918:../../Middlewares/Third_Party/LwIP/src/apps/mqtt/mqtt.c ****     }
 919:../../Middlewares/Third_Party/LwIP/src/apps/mqtt/mqtt.c ****   }
 920:../../Middlewares/Third_Party/LwIP/src/apps/mqtt/mqtt.c ****   return MQTT_CONNECT_ACCEPTED;
 921:../../Middlewares/Third_Party/LwIP/src/apps/mqtt/mqtt.c **** }
 922:../../Middlewares/Third_Party/LwIP/src/apps/mqtt/mqtt.c **** 
 923:../../Middlewares/Third_Party/LwIP/src/apps/mqtt/mqtt.c **** 
 924:../../Middlewares/Third_Party/LwIP/src/apps/mqtt/mqtt.c **** /**
 925:../../Middlewares/Third_Party/LwIP/src/apps/mqtt/mqtt.c ****  * TCP received callback function. @see tcp_recv_fn
 926:../../Middlewares/Third_Party/LwIP/src/apps/mqtt/mqtt.c ****  * @param arg MQTT client
 927:../../Middlewares/Third_Party/LwIP/src/apps/mqtt/mqtt.c ****  * @param p PBUF chain of received data
 928:../../Middlewares/Third_Party/LwIP/src/apps/mqtt/mqtt.c ****  * @param err Passed as return value if not ERR_OK
 929:../../Middlewares/Third_Party/LwIP/src/apps/mqtt/mqtt.c ****  * @return ERR_OK or err passed into callback
 930:../../Middlewares/Third_Party/LwIP/src/apps/mqtt/mqtt.c ****  */
 931:../../Middlewares/Third_Party/LwIP/src/apps/mqtt/mqtt.c **** static err_t
 932:../../Middlewares/Third_Party/LwIP/src/apps/mqtt/mqtt.c **** mqtt_tcp_recv_cb(void *arg, struct altcp_pcb *pcb, struct pbuf *p, err_t err)
 933:../../Middlewares/Third_Party/LwIP/src/apps/mqtt/mqtt.c **** {
 934:../../Middlewares/Third_Party/LwIP/src/apps/mqtt/mqtt.c ****   mqtt_client_t *client = (mqtt_client_t *)arg;
 935:../../Middlewares/Third_Party/LwIP/src/apps/mqtt/mqtt.c ****   LWIP_ASSERT("mqtt_tcp_recv_cb: client != NULL", client != NULL);
 936:../../Middlewares/Third_Party/LwIP/src/apps/mqtt/mqtt.c ****   LWIP_ASSERT("mqtt_tcp_recv_cb: client->conn == pcb", client->conn == pcb);
 937:../../Middlewares/Third_Party/LwIP/src/apps/mqtt/mqtt.c **** 
 938:../../Middlewares/Third_Party/LwIP/src/apps/mqtt/mqtt.c ****   if (p == NULL) {
 939:../../Middlewares/Third_Party/LwIP/src/apps/mqtt/mqtt.c ****     LWIP_DEBUGF(MQTT_DEBUG_TRACE, ("mqtt_tcp_recv_cb: Recv pbuf=NULL, remote has closed connection\
 940:../../Middlewares/Third_Party/LwIP/src/apps/mqtt/mqtt.c ****     mqtt_close(client, MQTT_CONNECT_DISCONNECTED);
 941:../../Middlewares/Third_Party/LwIP/src/apps/mqtt/mqtt.c ****   } else {
 942:../../Middlewares/Third_Party/LwIP/src/apps/mqtt/mqtt.c ****     mqtt_connection_status_t res;
 943:../../Middlewares/Third_Party/LwIP/src/apps/mqtt/mqtt.c ****     if (err != ERR_OK) {
 944:../../Middlewares/Third_Party/LwIP/src/apps/mqtt/mqtt.c ****       LWIP_DEBUGF(MQTT_DEBUG_WARN, ("mqtt_tcp_recv_cb: Recv err=%d\n", err));
 945:../../Middlewares/Third_Party/LwIP/src/apps/mqtt/mqtt.c ****       pbuf_free(p);
 946:../../Middlewares/Third_Party/LwIP/src/apps/mqtt/mqtt.c ****       return err;
 947:../../Middlewares/Third_Party/LwIP/src/apps/mqtt/mqtt.c ****     }
 948:../../Middlewares/Third_Party/LwIP/src/apps/mqtt/mqtt.c **** 
 949:../../Middlewares/Third_Party/LwIP/src/apps/mqtt/mqtt.c ****     /* Tell remote that data has been received */
 950:../../Middlewares/Third_Party/LwIP/src/apps/mqtt/mqtt.c ****     altcp_recved(pcb, p->tot_len);
 951:../../Middlewares/Third_Party/LwIP/src/apps/mqtt/mqtt.c ****     res = mqtt_parse_incoming(client, p);
 952:../../Middlewares/Third_Party/LwIP/src/apps/mqtt/mqtt.c ****     pbuf_free(p);
 953:../../Middlewares/Third_Party/LwIP/src/apps/mqtt/mqtt.c **** 
 954:../../Middlewares/Third_Party/LwIP/src/apps/mqtt/mqtt.c ****     if (res != MQTT_CONNECT_ACCEPTED) {
 955:../../Middlewares/Third_Party/LwIP/src/apps/mqtt/mqtt.c ****       mqtt_close(client, res);
 956:../../Middlewares/Third_Party/LwIP/src/apps/mqtt/mqtt.c ****     }
 957:../../Middlewares/Third_Party/LwIP/src/apps/mqtt/mqtt.c ****     /* If keep alive functionality is used */
 958:../../Middlewares/Third_Party/LwIP/src/apps/mqtt/mqtt.c ****     if (client->keep_alive != 0) {
 959:../../Middlewares/Third_Party/LwIP/src/apps/mqtt/mqtt.c ****       /* Reset server alive watchdog */
 960:../../Middlewares/Third_Party/LwIP/src/apps/mqtt/mqtt.c ****       client->server_watchdog = 0;
 961:../../Middlewares/Third_Party/LwIP/src/apps/mqtt/mqtt.c ****     }
 962:../../Middlewares/Third_Party/LwIP/src/apps/mqtt/mqtt.c **** 
 963:../../Middlewares/Third_Party/LwIP/src/apps/mqtt/mqtt.c ****   }
 964:../../Middlewares/Third_Party/LwIP/src/apps/mqtt/mqtt.c ****   return ERR_OK;
 965:../../Middlewares/Third_Party/LwIP/src/apps/mqtt/mqtt.c **** }
 966:../../Middlewares/Third_Party/LwIP/src/apps/mqtt/mqtt.c **** 
 967:../../Middlewares/Third_Party/LwIP/src/apps/mqtt/mqtt.c **** 
 968:../../Middlewares/Third_Party/LwIP/src/apps/mqtt/mqtt.c **** /**
 969:../../Middlewares/Third_Party/LwIP/src/apps/mqtt/mqtt.c ****  * TCP data sent callback function. @see tcp_sent_fn
 970:../../Middlewares/Third_Party/LwIP/src/apps/mqtt/mqtt.c ****  * @param arg MQTT client
 971:../../Middlewares/Third_Party/LwIP/src/apps/mqtt/mqtt.c ****  * @param tpcb TCP connection handle
 972:../../Middlewares/Third_Party/LwIP/src/apps/mqtt/mqtt.c ****  * @param len Number of bytes sent
 973:../../Middlewares/Third_Party/LwIP/src/apps/mqtt/mqtt.c ****  * @return ERR_OK
ARM GAS  C:\Users\minis\AppData\Local\Temp\ccG6JyYg.s 			page 52


 974:../../Middlewares/Third_Party/LwIP/src/apps/mqtt/mqtt.c ****  */
 975:../../Middlewares/Third_Party/LwIP/src/apps/mqtt/mqtt.c **** static err_t
 976:../../Middlewares/Third_Party/LwIP/src/apps/mqtt/mqtt.c **** mqtt_tcp_sent_cb(void *arg, struct altcp_pcb *tpcb, u16_t len)
 977:../../Middlewares/Third_Party/LwIP/src/apps/mqtt/mqtt.c **** {
 978:../../Middlewares/Third_Party/LwIP/src/apps/mqtt/mqtt.c ****   mqtt_client_t *client = (mqtt_client_t *)arg;
 979:../../Middlewares/Third_Party/LwIP/src/apps/mqtt/mqtt.c **** 
 980:../../Middlewares/Third_Party/LwIP/src/apps/mqtt/mqtt.c ****   LWIP_UNUSED_ARG(tpcb);
 981:../../Middlewares/Third_Party/LwIP/src/apps/mqtt/mqtt.c ****   LWIP_UNUSED_ARG(len);
 982:../../Middlewares/Third_Party/LwIP/src/apps/mqtt/mqtt.c **** 
 983:../../Middlewares/Third_Party/LwIP/src/apps/mqtt/mqtt.c ****   if (client->conn_state == MQTT_CONNECTED) {
 984:../../Middlewares/Third_Party/LwIP/src/apps/mqtt/mqtt.c ****     struct mqtt_request_t *r;
 985:../../Middlewares/Third_Party/LwIP/src/apps/mqtt/mqtt.c **** 
 986:../../Middlewares/Third_Party/LwIP/src/apps/mqtt/mqtt.c ****     /* Reset keep-alive send timer and server watchdog */
 987:../../Middlewares/Third_Party/LwIP/src/apps/mqtt/mqtt.c ****     client->cyclic_tick = 0;
 988:../../Middlewares/Third_Party/LwIP/src/apps/mqtt/mqtt.c ****     client->server_watchdog = 0;
 989:../../Middlewares/Third_Party/LwIP/src/apps/mqtt/mqtt.c ****     /* QoS 0 publish has no response from server, so call its callbacks here */
 990:../../Middlewares/Third_Party/LwIP/src/apps/mqtt/mqtt.c ****     while ((r = mqtt_take_request(&client->pend_req_queue, 0)) != NULL) {
 991:../../Middlewares/Third_Party/LwIP/src/apps/mqtt/mqtt.c ****       LWIP_DEBUGF(MQTT_DEBUG_TRACE, ("mqtt_tcp_sent_cb: Calling QoS 0 publish complete callback\n")
 992:../../Middlewares/Third_Party/LwIP/src/apps/mqtt/mqtt.c ****       if (r->cb != NULL) {
 993:../../Middlewares/Third_Party/LwIP/src/apps/mqtt/mqtt.c ****         r->cb(r->arg, ERR_OK);
 994:../../Middlewares/Third_Party/LwIP/src/apps/mqtt/mqtt.c ****       }
 995:../../Middlewares/Third_Party/LwIP/src/apps/mqtt/mqtt.c ****       mqtt_delete_request(r);
 996:../../Middlewares/Third_Party/LwIP/src/apps/mqtt/mqtt.c ****     }
 997:../../Middlewares/Third_Party/LwIP/src/apps/mqtt/mqtt.c ****     /* Try send any remaining buffers from output queue */
 998:../../Middlewares/Third_Party/LwIP/src/apps/mqtt/mqtt.c ****     mqtt_output_send(&client->output, client->conn);
 999:../../Middlewares/Third_Party/LwIP/src/apps/mqtt/mqtt.c ****   }
1000:../../Middlewares/Third_Party/LwIP/src/apps/mqtt/mqtt.c ****   return ERR_OK;
1001:../../Middlewares/Third_Party/LwIP/src/apps/mqtt/mqtt.c **** }
1002:../../Middlewares/Third_Party/LwIP/src/apps/mqtt/mqtt.c **** 
1003:../../Middlewares/Third_Party/LwIP/src/apps/mqtt/mqtt.c **** /**
1004:../../Middlewares/Third_Party/LwIP/src/apps/mqtt/mqtt.c ****  * TCP error callback function. @see tcp_err_fn
1005:../../Middlewares/Third_Party/LwIP/src/apps/mqtt/mqtt.c ****  * @param arg MQTT client
1006:../../Middlewares/Third_Party/LwIP/src/apps/mqtt/mqtt.c ****  * @param err Error encountered
1007:../../Middlewares/Third_Party/LwIP/src/apps/mqtt/mqtt.c ****  */
1008:../../Middlewares/Third_Party/LwIP/src/apps/mqtt/mqtt.c **** static void
1009:../../Middlewares/Third_Party/LwIP/src/apps/mqtt/mqtt.c **** mqtt_tcp_err_cb(void *arg, err_t err)
1010:../../Middlewares/Third_Party/LwIP/src/apps/mqtt/mqtt.c **** {
1011:../../Middlewares/Third_Party/LwIP/src/apps/mqtt/mqtt.c ****   mqtt_client_t *client = (mqtt_client_t *)arg;
1012:../../Middlewares/Third_Party/LwIP/src/apps/mqtt/mqtt.c ****   LWIP_UNUSED_ARG(err); /* only used for debug output */
1013:../../Middlewares/Third_Party/LwIP/src/apps/mqtt/mqtt.c ****   LWIP_DEBUGF(MQTT_DEBUG_TRACE, ("mqtt_tcp_err_cb: TCP error callback: error %d, arg: %p\n", err, a
1014:../../Middlewares/Third_Party/LwIP/src/apps/mqtt/mqtt.c ****   LWIP_ASSERT("mqtt_tcp_err_cb: client != NULL", client != NULL);
1015:../../Middlewares/Third_Party/LwIP/src/apps/mqtt/mqtt.c ****   /* Set conn to null before calling close as pcb is already deallocated*/
1016:../../Middlewares/Third_Party/LwIP/src/apps/mqtt/mqtt.c ****   client->conn = 0;
1017:../../Middlewares/Third_Party/LwIP/src/apps/mqtt/mqtt.c ****   mqtt_close(client, MQTT_CONNECT_DISCONNECTED);
1018:../../Middlewares/Third_Party/LwIP/src/apps/mqtt/mqtt.c **** }
1019:../../Middlewares/Third_Party/LwIP/src/apps/mqtt/mqtt.c **** 
1020:../../Middlewares/Third_Party/LwIP/src/apps/mqtt/mqtt.c **** /**
1021:../../Middlewares/Third_Party/LwIP/src/apps/mqtt/mqtt.c ****  * TCP poll callback function. @see tcp_poll_fn
1022:../../Middlewares/Third_Party/LwIP/src/apps/mqtt/mqtt.c ****  * @param arg MQTT client
1023:../../Middlewares/Third_Party/LwIP/src/apps/mqtt/mqtt.c ****  * @param tpcb TCP connection handle
1024:../../Middlewares/Third_Party/LwIP/src/apps/mqtt/mqtt.c ****  * @return err ERR_OK
1025:../../Middlewares/Third_Party/LwIP/src/apps/mqtt/mqtt.c ****  */
1026:../../Middlewares/Third_Party/LwIP/src/apps/mqtt/mqtt.c **** static err_t
1027:../../Middlewares/Third_Party/LwIP/src/apps/mqtt/mqtt.c **** mqtt_tcp_poll_cb(void *arg, struct altcp_pcb *tpcb)
1028:../../Middlewares/Third_Party/LwIP/src/apps/mqtt/mqtt.c **** {
 1606              		.loc 1 1028 1 view -0
 1607              		.cfi_startproc
ARM GAS  C:\Users\minis\AppData\Local\Temp\ccG6JyYg.s 			page 53


 1608              		@ args = 0, pretend = 0, frame = 0
 1609              		@ frame_needed = 0, uses_anonymous_args = 0
 1610              		.loc 1 1028 1 is_stmt 0 view .LVU431
 1611 0000 08B5     		push	{r3, lr}
 1612              	.LCFI15:
 1613              		.cfi_def_cfa_offset 8
 1614              		.cfi_offset 3, -8
 1615              		.cfi_offset 14, -4
1029:../../Middlewares/Third_Party/LwIP/src/apps/mqtt/mqtt.c ****   mqtt_client_t *client = (mqtt_client_t *)arg;
 1616              		.loc 1 1029 3 is_stmt 1 view .LVU432
 1617              	.LVL178:
1030:../../Middlewares/Third_Party/LwIP/src/apps/mqtt/mqtt.c ****   if (client->conn_state == MQTT_CONNECTED) {
 1618              		.loc 1 1030 3 view .LVU433
 1619              		.loc 1 1030 13 is_stmt 0 view .LVU434
 1620 0002 837A     		ldrb	r3, [r0, #10]	@ zero_extendqisi2
 1621              		.loc 1 1030 6 view .LVU435
 1622 0004 032B     		cmp	r3, #3
 1623 0006 01D0     		beq	.L133
 1624              	.LVL179:
 1625              	.L131:
1031:../../Middlewares/Third_Party/LwIP/src/apps/mqtt/mqtt.c ****     /* Try send any remaining buffers from output queue */
1032:../../Middlewares/Third_Party/LwIP/src/apps/mqtt/mqtt.c ****     mqtt_output_send(&client->output, tpcb);
1033:../../Middlewares/Third_Party/LwIP/src/apps/mqtt/mqtt.c ****   }
1034:../../Middlewares/Third_Party/LwIP/src/apps/mqtt/mqtt.c ****   return ERR_OK;
 1626              		.loc 1 1034 3 is_stmt 1 view .LVU436
1035:../../Middlewares/Third_Party/LwIP/src/apps/mqtt/mqtt.c **** }
 1627              		.loc 1 1035 1 is_stmt 0 view .LVU437
 1628 0008 0020     		movs	r0, #0
 1629 000a 08BD     		pop	{r3, pc}
 1630              	.LVL180:
 1631              	.L133:
1032:../../Middlewares/Third_Party/LwIP/src/apps/mqtt/mqtt.c ****   }
 1632              		.loc 1 1032 5 is_stmt 1 view .LVU438
 1633 000c EC30     		adds	r0, r0, #236
 1634              	.LVL181:
1032:../../Middlewares/Third_Party/LwIP/src/apps/mqtt/mqtt.c ****   }
 1635              		.loc 1 1032 5 is_stmt 0 view .LVU439
 1636 000e FFF7FEFF 		bl	mqtt_output_send
 1637              	.LVL182:
1032:../../Middlewares/Third_Party/LwIP/src/apps/mqtt/mqtt.c ****   }
 1638              		.loc 1 1032 5 view .LVU440
 1639 0012 F9E7     		b	.L131
 1640              		.cfi_endproc
 1641              	.LFE202:
 1643              		.section	.text.mqtt_tcp_sent_cb,"ax",%progbits
 1644              		.align	1
 1645              		.syntax unified
 1646              		.thumb
 1647              		.thumb_func
 1649              	mqtt_tcp_sent_cb:
 1650              	.LVL183:
 1651              	.LFB200:
 977:../../Middlewares/Third_Party/LwIP/src/apps/mqtt/mqtt.c ****   mqtt_client_t *client = (mqtt_client_t *)arg;
 1652              		.loc 1 977 1 is_stmt 1 view -0
 1653              		.cfi_startproc
 1654              		@ args = 0, pretend = 0, frame = 0
 1655              		@ frame_needed = 0, uses_anonymous_args = 0
ARM GAS  C:\Users\minis\AppData\Local\Temp\ccG6JyYg.s 			page 54


 977:../../Middlewares/Third_Party/LwIP/src/apps/mqtt/mqtt.c ****   mqtt_client_t *client = (mqtt_client_t *)arg;
 1656              		.loc 1 977 1 is_stmt 0 view .LVU442
 1657 0000 38B5     		push	{r3, r4, r5, lr}
 1658              	.LCFI16:
 1659              		.cfi_def_cfa_offset 16
 1660              		.cfi_offset 3, -16
 1661              		.cfi_offset 4, -12
 1662              		.cfi_offset 5, -8
 1663              		.cfi_offset 14, -4
 978:../../Middlewares/Third_Party/LwIP/src/apps/mqtt/mqtt.c **** 
 1664              		.loc 1 978 3 is_stmt 1 view .LVU443
 1665              	.LVL184:
 980:../../Middlewares/Third_Party/LwIP/src/apps/mqtt/mqtt.c ****   LWIP_UNUSED_ARG(len);
 1666              		.loc 1 980 3 view .LVU444
 981:../../Middlewares/Third_Party/LwIP/src/apps/mqtt/mqtt.c **** 
 1667              		.loc 1 981 3 view .LVU445
 983:../../Middlewares/Third_Party/LwIP/src/apps/mqtt/mqtt.c ****     struct mqtt_request_t *r;
 1668              		.loc 1 983 3 view .LVU446
 983:../../Middlewares/Third_Party/LwIP/src/apps/mqtt/mqtt.c ****     struct mqtt_request_t *r;
 1669              		.loc 1 983 13 is_stmt 0 view .LVU447
 1670 0002 837A     		ldrb	r3, [r0, #10]	@ zero_extendqisi2
 983:../../Middlewares/Third_Party/LwIP/src/apps/mqtt/mqtt.c ****     struct mqtt_request_t *r;
 1671              		.loc 1 983 6 view .LVU448
 1672 0004 032B     		cmp	r3, #3
 1673 0006 01D0     		beq	.L140
 1674              	.LVL185:
 1675              	.L135:
1000:../../Middlewares/Third_Party/LwIP/src/apps/mqtt/mqtt.c **** }
 1676              		.loc 1 1000 3 is_stmt 1 view .LVU449
1001:../../Middlewares/Third_Party/LwIP/src/apps/mqtt/mqtt.c **** 
 1677              		.loc 1 1001 1 is_stmt 0 view .LVU450
 1678 0008 0020     		movs	r0, #0
 1679 000a 38BD     		pop	{r3, r4, r5, pc}
 1680              	.LVL186:
 1681              	.L140:
1001:../../Middlewares/Third_Party/LwIP/src/apps/mqtt/mqtt.c **** 
 1682              		.loc 1 1001 1 view .LVU451
 1683 000c 0546     		mov	r5, r0
 1684              	.LBB2:
 984:../../Middlewares/Third_Party/LwIP/src/apps/mqtt/mqtt.c **** 
 1685              		.loc 1 984 5 is_stmt 1 view .LVU452
 987:../../Middlewares/Third_Party/LwIP/src/apps/mqtt/mqtt.c ****     client->server_watchdog = 0;
 1686              		.loc 1 987 5 view .LVU453
 987:../../Middlewares/Third_Party/LwIP/src/apps/mqtt/mqtt.c ****     client->server_watchdog = 0;
 1687              		.loc 1 987 25 is_stmt 0 view .LVU454
 1688 000e 0023     		movs	r3, #0
 1689 0010 0380     		strh	r3, [r0]	@ movhi
 988:../../Middlewares/Third_Party/LwIP/src/apps/mqtt/mqtt.c ****     /* QoS 0 publish has no response from server, so call its callbacks here */
 1690              		.loc 1 988 5 is_stmt 1 view .LVU455
 988:../../Middlewares/Third_Party/LwIP/src/apps/mqtt/mqtt.c ****     /* QoS 0 publish has no response from server, so call its callbacks here */
 1691              		.loc 1 988 29 is_stmt 0 view .LVU456
 1692 0012 8380     		strh	r3, [r0, #4]	@ movhi
 990:../../Middlewares/Third_Party/LwIP/src/apps/mqtt/mqtt.c ****       LWIP_DEBUGF(MQTT_DEBUG_TRACE, ("mqtt_tcp_sent_cb: Calling QoS 0 publish complete callback\n")
 1693              		.loc 1 990 5 is_stmt 1 view .LVU457
 990:../../Middlewares/Third_Party/LwIP/src/apps/mqtt/mqtt.c ****       LWIP_DEBUGF(MQTT_DEBUG_TRACE, ("mqtt_tcp_sent_cb: Calling QoS 0 publish complete callback\n")
 1694              		.loc 1 990 11 is_stmt 0 view .LVU458
 1695 0014 02E0     		b	.L136
ARM GAS  C:\Users\minis\AppData\Local\Temp\ccG6JyYg.s 			page 55


 1696              	.LVL187:
 1697              	.L137:
 995:../../Middlewares/Third_Party/LwIP/src/apps/mqtt/mqtt.c ****     }
 1698              		.loc 1 995 7 is_stmt 1 view .LVU459
 1699 0016 2046     		mov	r0, r4
 1700 0018 FFF7FEFF 		bl	mqtt_delete_request
 1701              	.LVL188:
 1702              	.L136:
 990:../../Middlewares/Third_Party/LwIP/src/apps/mqtt/mqtt.c ****       LWIP_DEBUGF(MQTT_DEBUG_TRACE, ("mqtt_tcp_sent_cb: Calling QoS 0 publish complete callback\n")
 1703              		.loc 1 990 64 view .LVU460
 990:../../Middlewares/Third_Party/LwIP/src/apps/mqtt/mqtt.c ****       LWIP_DEBUGF(MQTT_DEBUG_TRACE, ("mqtt_tcp_sent_cb: Calling QoS 0 publish complete callback\n")
 1704              		.loc 1 990 17 is_stmt 0 view .LVU461
 1705 001c 0021     		movs	r1, #0
 1706 001e 05F11800 		add	r0, r5, #24
 1707 0022 FFF7FEFF 		bl	mqtt_take_request
 1708              	.LVL189:
 990:../../Middlewares/Third_Party/LwIP/src/apps/mqtt/mqtt.c ****       LWIP_DEBUGF(MQTT_DEBUG_TRACE, ("mqtt_tcp_sent_cb: Calling QoS 0 publish complete callback\n")
 1709              		.loc 1 990 64 discriminator 1 view .LVU462
 1710 0026 0446     		mov	r4, r0
 1711 0028 30B1     		cbz	r0, .L141
 991:../../Middlewares/Third_Party/LwIP/src/apps/mqtt/mqtt.c ****       if (r->cb != NULL) {
 1712              		.loc 1 991 101 is_stmt 1 view .LVU463
 992:../../Middlewares/Third_Party/LwIP/src/apps/mqtt/mqtt.c ****         r->cb(r->arg, ERR_OK);
 1713              		.loc 1 992 7 view .LVU464
 992:../../Middlewares/Third_Party/LwIP/src/apps/mqtt/mqtt.c ****         r->cb(r->arg, ERR_OK);
 1714              		.loc 1 992 12 is_stmt 0 view .LVU465
 1715 002a 6368     		ldr	r3, [r4, #4]
 992:../../Middlewares/Third_Party/LwIP/src/apps/mqtt/mqtt.c ****         r->cb(r->arg, ERR_OK);
 1716              		.loc 1 992 10 view .LVU466
 1717 002c 002B     		cmp	r3, #0
 1718 002e F2D0     		beq	.L137
 993:../../Middlewares/Third_Party/LwIP/src/apps/mqtt/mqtt.c ****       }
 1719              		.loc 1 993 9 is_stmt 1 view .LVU467
 1720 0030 0021     		movs	r1, #0
 1721 0032 A068     		ldr	r0, [r4, #8]
 1722              	.LVL190:
 993:../../Middlewares/Third_Party/LwIP/src/apps/mqtt/mqtt.c ****       }
 1723              		.loc 1 993 9 is_stmt 0 view .LVU468
 1724 0034 9847     		blx	r3
 1725              	.LVL191:
 1726 0036 EEE7     		b	.L137
 1727              	.LVL192:
 1728              	.L141:
 998:../../Middlewares/Third_Party/LwIP/src/apps/mqtt/mqtt.c ****   }
 1729              		.loc 1 998 5 is_stmt 1 view .LVU469
 1730 0038 E968     		ldr	r1, [r5, #12]
 1731 003a 05F1EC00 		add	r0, r5, #236
 1732              	.LVL193:
 998:../../Middlewares/Third_Party/LwIP/src/apps/mqtt/mqtt.c ****   }
 1733              		.loc 1 998 5 is_stmt 0 view .LVU470
 1734 003e FFF7FEFF 		bl	mqtt_output_send
 1735              	.LVL194:
 1736 0042 E1E7     		b	.L135
 1737              	.LBE2:
 1738              		.cfi_endproc
 1739              	.LFE200:
 1741              		.section	.text.pub_ack_rec_rel_response,"ax",%progbits
ARM GAS  C:\Users\minis\AppData\Local\Temp\ccG6JyYg.s 			page 56


 1742              		.align	1
 1743              		.syntax unified
 1744              		.thumb
 1745              		.thumb_func
 1747              	pub_ack_rec_rel_response:
 1748              	.LVL195:
 1749              	.LFB195:
 636:../../Middlewares/Third_Party/LwIP/src/apps/mqtt/mqtt.c ****   err_t err = ERR_OK;
 1750              		.loc 1 636 1 is_stmt 1 view -0
 1751              		.cfi_startproc
 1752              		@ args = 0, pretend = 0, frame = 0
 1753              		@ frame_needed = 0, uses_anonymous_args = 0
 636:../../Middlewares/Third_Party/LwIP/src/apps/mqtt/mqtt.c ****   err_t err = ERR_OK;
 1754              		.loc 1 636 1 is_stmt 0 view .LVU472
 1755 0000 2DE9F043 		push	{r4, r5, r6, r7, r8, r9, lr}
 1756              	.LCFI17:
 1757              		.cfi_def_cfa_offset 28
 1758              		.cfi_offset 4, -28
 1759              		.cfi_offset 5, -24
 1760              		.cfi_offset 6, -20
 1761              		.cfi_offset 7, -16
 1762              		.cfi_offset 8, -12
 1763              		.cfi_offset 9, -8
 1764              		.cfi_offset 14, -4
 1765 0004 83B0     		sub	sp, sp, #12
 1766              	.LCFI18:
 1767              		.cfi_def_cfa_offset 40
 1768 0006 0546     		mov	r5, r0
 1769 0008 8846     		mov	r8, r1
 1770 000a 9146     		mov	r9, r2
 1771 000c 1F46     		mov	r7, r3
 637:../../Middlewares/Third_Party/LwIP/src/apps/mqtt/mqtt.c ****   if (mqtt_output_check_space(&client->output, 2)) {
 1772              		.loc 1 637 3 is_stmt 1 view .LVU473
 1773              	.LVL196:
 638:../../Middlewares/Third_Party/LwIP/src/apps/mqtt/mqtt.c ****     mqtt_output_append_fixed_header(&client->output, msg, 0, qos, 0, 2);
 1774              		.loc 1 638 3 view .LVU474
 638:../../Middlewares/Third_Party/LwIP/src/apps/mqtt/mqtt.c ****     mqtt_output_append_fixed_header(&client->output, msg, 0, qos, 0, 2);
 1775              		.loc 1 638 7 is_stmt 0 view .LVU475
 1776 000e 00F1EC06 		add	r6, r0, #236
 1777 0012 0221     		movs	r1, #2
 1778              	.LVL197:
 638:../../Middlewares/Third_Party/LwIP/src/apps/mqtt/mqtt.c ****     mqtt_output_append_fixed_header(&client->output, msg, 0, qos, 0, 2);
 1779              		.loc 1 638 7 view .LVU476
 1780 0014 3046     		mov	r0, r6
 1781              	.LVL198:
 638:../../Middlewares/Third_Party/LwIP/src/apps/mqtt/mqtt.c ****     mqtt_output_append_fixed_header(&client->output, msg, 0, qos, 0, 2);
 1782              		.loc 1 638 7 view .LVU477
 1783 0016 FFF7FEFF 		bl	mqtt_output_check_space
 1784              	.LVL199:
 638:../../Middlewares/Third_Party/LwIP/src/apps/mqtt/mqtt.c ****     mqtt_output_append_fixed_header(&client->output, msg, 0, qos, 0, 2);
 1785              		.loc 1 638 6 discriminator 1 view .LVU478
 1786 001a A8B1     		cbz	r0, .L144
 639:../../Middlewares/Third_Party/LwIP/src/apps/mqtt/mqtt.c ****     mqtt_output_append_u16(&client->output, pkt_id);
 1787              		.loc 1 639 5 is_stmt 1 view .LVU479
 1788 001c 0223     		movs	r3, #2
 1789 001e 0193     		str	r3, [sp, #4]
 1790 0020 0024     		movs	r4, #0
ARM GAS  C:\Users\minis\AppData\Local\Temp\ccG6JyYg.s 			page 57


 1791 0022 0094     		str	r4, [sp]
 1792 0024 3B46     		mov	r3, r7
 1793 0026 2246     		mov	r2, r4
 1794 0028 4146     		mov	r1, r8
 1795 002a 3046     		mov	r0, r6
 1796 002c FFF7FEFF 		bl	mqtt_output_append_fixed_header
 1797              	.LVL200:
 640:../../Middlewares/Third_Party/LwIP/src/apps/mqtt/mqtt.c ****     mqtt_output_send(&client->output, client->conn);
 1798              		.loc 1 640 5 view .LVU480
 1799 0030 4946     		mov	r1, r9
 1800 0032 3046     		mov	r0, r6
 1801 0034 FFF7FEFF 		bl	mqtt_output_append_u16
 1802              	.LVL201:
 641:../../Middlewares/Third_Party/LwIP/src/apps/mqtt/mqtt.c ****   } else {
 1803              		.loc 1 641 5 view .LVU481
 1804 0038 E968     		ldr	r1, [r5, #12]
 1805 003a 3046     		mov	r0, r6
 1806 003c FFF7FEFF 		bl	mqtt_output_send
 1807              	.LVL202:
 637:../../Middlewares/Third_Party/LwIP/src/apps/mqtt/mqtt.c ****   if (mqtt_output_check_space(&client->output, 2)) {
 1808              		.loc 1 637 9 is_stmt 0 view .LVU482
 1809 0040 2046     		mov	r0, r4
 1810              	.L143:
 1811              	.LVL203:
 647:../../Middlewares/Third_Party/LwIP/src/apps/mqtt/mqtt.c **** }
 1812              		.loc 1 647 3 is_stmt 1 view .LVU483
 648:../../Middlewares/Third_Party/LwIP/src/apps/mqtt/mqtt.c **** 
 1813              		.loc 1 648 1 is_stmt 0 view .LVU484
 1814 0042 03B0     		add	sp, sp, #12
 1815              	.LCFI19:
 1816              		.cfi_remember_state
 1817              		.cfi_def_cfa_offset 28
 1818              		@ sp needed
 1819 0044 BDE8F083 		pop	{r4, r5, r6, r7, r8, r9, pc}
 1820              	.LVL204:
 1821              	.L144:
 1822              	.LCFI20:
 1823              		.cfi_restore_state
 645:../../Middlewares/Third_Party/LwIP/src/apps/mqtt/mqtt.c ****   }
 1824              		.loc 1 645 9 view .LVU485
 1825 0048 4FF0FF30 		mov	r0, #-1
 1826 004c F9E7     		b	.L143
 1827              		.cfi_endproc
 1828              	.LFE195:
 1830              		.section	.rodata.mqtt_message_received.str1.4,"aMS",%progbits,1
 1831              		.align	2
 1832              	.LC11:
 1833 0000 636C6965 		.ascii	"client->msg_idx < MQTT_VAR_HEADER_BUFFER_LEN\000"
 1833      6E742D3E 
 1833      6D73675F 
 1833      69647820 
 1833      3C204D51 
 1834 002d 000000   		.align	2
 1835              	.LC12:
 1836 0030 66697865 		.ascii	"fixed_hdr_idx <= client->msg_idx\000"
 1836      645F6864 
 1836      725F6964 
ARM GAS  C:\Users\minis\AppData\Local\Temp\ccG6JyYg.s 			page 58


 1836      78203C3D 
 1836      20636C69 
 1837 0051 000000   		.align	2
 1838              	.LC13:
 1839 0054 62756666 		.ascii	"buffer length mismatch\000"
 1839      6572206C 
 1839      656E6774 
 1839      68206D69 
 1839      736D6174 
 1840              		.section	.text.mqtt_message_received,"ax",%progbits
 1841              		.align	1
 1842              		.syntax unified
 1843              		.thumb
 1844              		.thumb_func
 1846              	mqtt_message_received:
 1847              	.LVL205:
 1848              	.LFB197:
 673:../../Middlewares/Third_Party/LwIP/src/apps/mqtt/mqtt.c ****   mqtt_connection_status_t res = MQTT_CONNECT_ACCEPTED;
 1849              		.loc 1 673 1 is_stmt 1 view -0
 1850              		.cfi_startproc
 1851              		@ args = 0, pretend = 0, frame = 8
 1852              		@ frame_needed = 0, uses_anonymous_args = 0
 673:../../Middlewares/Third_Party/LwIP/src/apps/mqtt/mqtt.c ****   mqtt_connection_status_t res = MQTT_CONNECT_ACCEPTED;
 1853              		.loc 1 673 1 is_stmt 0 view .LVU487
 1854 0000 2DE9F04F 		push	{r4, r5, r6, r7, r8, r9, r10, fp, lr}
 1855              	.LCFI21:
 1856              		.cfi_def_cfa_offset 36
 1857              		.cfi_offset 4, -36
 1858              		.cfi_offset 5, -32
 1859              		.cfi_offset 6, -28
 1860              		.cfi_offset 7, -24
 1861              		.cfi_offset 8, -20
 1862              		.cfi_offset 9, -16
 1863              		.cfi_offset 10, -12
 1864              		.cfi_offset 11, -8
 1865              		.cfi_offset 14, -4
 1866 0004 83B0     		sub	sp, sp, #12
 1867              	.LCFI22:
 1868              		.cfi_def_cfa_offset 48
 1869 0006 0446     		mov	r4, r0
 1870 0008 8946     		mov	r9, r1
 1871 000a 1546     		mov	r5, r2
 1872 000c 1E46     		mov	r6, r3
 674:../../Middlewares/Third_Party/LwIP/src/apps/mqtt/mqtt.c **** 
 1873              		.loc 1 674 3 is_stmt 1 view .LVU488
 1874              	.LVL206:
 676:../../Middlewares/Third_Party/LwIP/src/apps/mqtt/mqtt.c ****   size_t var_hdr_payload_bufsize = sizeof(client->rx_buffer) - fixed_hdr_idx;
 1875              		.loc 1 676 3 view .LVU489
 676:../../Middlewares/Third_Party/LwIP/src/apps/mqtt/mqtt.c ****   size_t var_hdr_payload_bufsize = sizeof(client->rx_buffer) - fixed_hdr_idx;
 1876              		.loc 1 676 27 is_stmt 0 view .LVU490
 1877 000e 00F16C0B 		add	fp, r0, #108
 676:../../Middlewares/Third_Party/LwIP/src/apps/mqtt/mqtt.c ****   size_t var_hdr_payload_bufsize = sizeof(client->rx_buffer) - fixed_hdr_idx;
 1878              		.loc 1 676 9 view .LVU491
 1879 0012 0BEB0107 		add	r7, fp, r1
 1880              	.LVL207:
 677:../../Middlewares/Third_Party/LwIP/src/apps/mqtt/mqtt.c **** 
 1881              		.loc 1 677 3 is_stmt 1 view .LVU492
ARM GAS  C:\Users\minis\AppData\Local\Temp\ccG6JyYg.s 			page 59


 677:../../Middlewares/Third_Party/LwIP/src/apps/mqtt/mqtt.c **** 
 1882              		.loc 1 677 10 is_stmt 0 view .LVU493
 1883 0016 C1F1800A 		rsb	r10, r1, #128
 1884              	.LVL208:
 680:../../Middlewares/Third_Party/LwIP/src/apps/mqtt/mqtt.c ****   u16_t pkt_id = 0;
 1885              		.loc 1 680 3 is_stmt 1 view .LVU494
 680:../../Middlewares/Third_Party/LwIP/src/apps/mqtt/mqtt.c ****   u16_t pkt_id = 0;
 1886              		.loc 1 680 19 is_stmt 0 view .LVU495
 1887 001a 90F86C80 		ldrb	r8, [r0, #108]	@ zero_extendqisi2
 680:../../Middlewares/Third_Party/LwIP/src/apps/mqtt/mqtt.c ****   u16_t pkt_id = 0;
 1888              		.loc 1 680 8 view .LVU496
 1889 001e 4FEA1818 		lsr	r8, r8, #4
 1890              	.LVL209:
 681:../../Middlewares/Third_Party/LwIP/src/apps/mqtt/mqtt.c **** 
 1891              		.loc 1 681 3 is_stmt 1 view .LVU497
 683:../../Middlewares/Third_Party/LwIP/src/apps/mqtt/mqtt.c ****   LWIP_ASSERT("fixed_hdr_idx <= client->msg_idx", fixed_hdr_idx <= client->msg_idx);
 1892              		.loc 1 683 3 view .LVU498
 683:../../Middlewares/Third_Party/LwIP/src/apps/mqtt/mqtt.c ****   LWIP_ASSERT("fixed_hdr_idx <= client->msg_idx", fixed_hdr_idx <= client->msg_idx);
 1893              		.loc 1 683 3 view .LVU499
 1894 0022 836E     		ldr	r3, [r0, #104]
 1895              	.LVL210:
 683:../../Middlewares/Third_Party/LwIP/src/apps/mqtt/mqtt.c ****   LWIP_ASSERT("fixed_hdr_idx <= client->msg_idx", fixed_hdr_idx <= client->msg_idx);
 1896              		.loc 1 683 3 is_stmt 0 view .LVU500
 1897 0024 7F2B     		cmp	r3, #127
 1898 0026 31D8     		bhi	.L185
 1899              	.LVL211:
 1900              	.L147:
 683:../../Middlewares/Third_Party/LwIP/src/apps/mqtt/mqtt.c ****   LWIP_ASSERT("fixed_hdr_idx <= client->msg_idx", fixed_hdr_idx <= client->msg_idx);
 1901              		.loc 1 683 3 is_stmt 1 view .LVU501
 683:../../Middlewares/Third_Party/LwIP/src/apps/mqtt/mqtt.c ****   LWIP_ASSERT("fixed_hdr_idx <= client->msg_idx", fixed_hdr_idx <= client->msg_idx);
 1902              		.loc 1 683 3 view .LVU502
 684:../../Middlewares/Third_Party/LwIP/src/apps/mqtt/mqtt.c ****   LWIP_ERROR("buffer length mismatch", fixed_hdr_idx + length <= MQTT_VAR_HEADER_BUFFER_LEN,
 1903              		.loc 1 684 3 view .LVU503
 684:../../Middlewares/Third_Party/LwIP/src/apps/mqtt/mqtt.c ****   LWIP_ERROR("buffer length mismatch", fixed_hdr_idx + length <= MQTT_VAR_HEADER_BUFFER_LEN,
 1904              		.loc 1 684 3 view .LVU504
 1905 0028 A36E     		ldr	r3, [r4, #104]
 1906 002a 9945     		cmp	r9, r3
 1907 002c 36D8     		bhi	.L186
 1908              	.L148:
 684:../../Middlewares/Third_Party/LwIP/src/apps/mqtt/mqtt.c ****   LWIP_ERROR("buffer length mismatch", fixed_hdr_idx + length <= MQTT_VAR_HEADER_BUFFER_LEN,
 1909              		.loc 1 684 3 view .LVU505
 684:../../Middlewares/Third_Party/LwIP/src/apps/mqtt/mqtt.c ****   LWIP_ERROR("buffer length mismatch", fixed_hdr_idx + length <= MQTT_VAR_HEADER_BUFFER_LEN,
 1910              		.loc 1 684 3 view .LVU506
 685:../../Middlewares/Third_Party/LwIP/src/apps/mqtt/mqtt.c ****              return MQTT_CONNECT_DISCONNECTED);
 1911              		.loc 1 685 3 view .LVU507
 685:../../Middlewares/Third_Party/LwIP/src/apps/mqtt/mqtt.c ****              return MQTT_CONNECT_DISCONNECTED);
 1912              		.loc 1 685 3 view .LVU508
 1913 002e 09EB0503 		add	r3, r9, r5
 1914 0032 802B     		cmp	r3, #128
 1915 0034 3ADC     		bgt	.L187
 685:../../Middlewares/Third_Party/LwIP/src/apps/mqtt/mqtt.c ****              return MQTT_CONNECT_DISCONNECTED);
 1916              		.loc 1 685 3 view .LVU509
 688:../../Middlewares/Third_Party/LwIP/src/apps/mqtt/mqtt.c ****     if (client->conn_state == MQTT_CONNECTING) {
 1917              		.loc 1 688 3 view .LVU510
 688:../../Middlewares/Third_Party/LwIP/src/apps/mqtt/mqtt.c ****     if (client->conn_state == MQTT_CONNECTING) {
 1918              		.loc 1 688 6 is_stmt 0 view .LVU511
 1919 0036 B8F1020F 		cmp	r8, #2
ARM GAS  C:\Users\minis\AppData\Local\Temp\ccG6JyYg.s 			page 60


 1920 003a 41D0     		beq	.L188
 709:../../Middlewares/Third_Party/LwIP/src/apps/mqtt/mqtt.c ****     LWIP_DEBUGF(MQTT_DEBUG_TRACE, ( "mqtt_message_received: Received PINGRESP from server\n"));
 1921              		.loc 1 709 10 is_stmt 1 view .LVU512
 709:../../Middlewares/Third_Party/LwIP/src/apps/mqtt/mqtt.c ****     LWIP_DEBUGF(MQTT_DEBUG_TRACE, ( "mqtt_message_received: Received PINGRESP from server\n"));
 1922              		.loc 1 709 13 is_stmt 0 view .LVU513
 1923 003c B8F10D0F 		cmp	r8, #13
 1924 0040 00F00981 		beq	.L166
 712:../../Middlewares/Third_Party/LwIP/src/apps/mqtt/mqtt.c ****     u16_t payload_offset = 0;
 1925              		.loc 1 712 10 is_stmt 1 view .LVU514
 712:../../Middlewares/Third_Party/LwIP/src/apps/mqtt/mqtt.c ****     u16_t payload_offset = 0;
 1926              		.loc 1 712 13 is_stmt 0 view .LVU515
 1927 0044 B8F1030F 		cmp	r8, #3
 1928 0048 54D0     		beq	.L189
 788:../../Middlewares/Third_Party/LwIP/src/apps/mqtt/mqtt.c ****     pkt_id |= (u16_t)var_hdr_payload[1];
 1929              		.loc 1 788 5 is_stmt 1 view .LVU516
 788:../../Middlewares/Third_Party/LwIP/src/apps/mqtt/mqtt.c ****     pkt_id |= (u16_t)var_hdr_payload[1];
 1930              		.loc 1 788 36 is_stmt 0 view .LVU517
 1931 004a 1BF80930 		ldrb	r3, [fp, r9]	@ zero_extendqisi2
 1932              	.LVL212:
 789:../../Middlewares/Third_Party/LwIP/src/apps/mqtt/mqtt.c ****     if (pkt_id == 0) {
 1933              		.loc 1 789 5 is_stmt 1 view .LVU518
 789:../../Middlewares/Third_Party/LwIP/src/apps/mqtt/mqtt.c ****     if (pkt_id == 0) {
 1934              		.loc 1 789 37 is_stmt 0 view .LVU519
 1935 004e 7A78     		ldrb	r2, [r7, #1]	@ zero_extendqisi2
 1936              	.LVL213:
 790:../../Middlewares/Third_Party/LwIP/src/apps/mqtt/mqtt.c ****       LWIP_DEBUGF(MQTT_DEBUG_WARN, ("mqtt_message_received: Got message with illegal packet identif
 1937              		.loc 1 790 5 is_stmt 1 view .LVU520
 790:../../Middlewares/Third_Party/LwIP/src/apps/mqtt/mqtt.c ****       LWIP_DEBUGF(MQTT_DEBUG_WARN, ("mqtt_message_received: Got message with illegal packet identif
 1938              		.loc 1 790 8 is_stmt 0 view .LVU521
 1939 0050 52EA0322 		orrs	r2, r2, r3, lsl #8
 1940              	.LVL214:
 790:../../Middlewares/Third_Party/LwIP/src/apps/mqtt/mqtt.c ****       LWIP_DEBUGF(MQTT_DEBUG_WARN, ("mqtt_message_received: Got message with illegal packet identif
 1941              		.loc 1 790 8 view .LVU522
 1942 0054 00F01781 		beq	.L179
 794:../../Middlewares/Third_Party/LwIP/src/apps/mqtt/mqtt.c ****       LWIP_DEBUGF(MQTT_DEBUG_TRACE, ("mqtt_message_received: PUBREC, sending PUBREL with pkt_id: %d
 1943              		.loc 1 794 5 is_stmt 1 view .LVU523
 1944 0058 B8F10B0F 		cmp	r8, #11
 1945 005c 00F21681 		bhi	.L180
 1946 0060 0123     		movs	r3, #1
 1947 0062 03FA08F3 		lsl	r3, r3, r8
 1948 0066 13F4296F 		tst	r3, #2704
 1949 006a 40F0D780 		bne	.L160
 1950 006e 13F0400F 		tst	r3, #64
 1951 0072 40F0CC80 		bne	.L161
 1952 0076 13F0200F 		tst	r3, #32
 1953 007a 00F00A81 		beq	.L181
 795:../../Middlewares/Third_Party/LwIP/src/apps/mqtt/mqtt.c ****       pub_ack_rec_rel_response(client, MQTT_MSG_TYPE_PUBREL, pkt_id, 1);
 1954              		.loc 1 795 113 view .LVU524
 796:../../Middlewares/Third_Party/LwIP/src/apps/mqtt/mqtt.c **** 
 1955              		.loc 1 796 7 view .LVU525
 1956 007e 0123     		movs	r3, #1
 1957 0080 0621     		movs	r1, #6
 1958 0082 2046     		mov	r0, r4
 1959 0084 FFF7FEFF 		bl	pub_ack_rec_rel_response
 1960              	.LVL215:
 674:../../Middlewares/Third_Party/LwIP/src/apps/mqtt/mqtt.c **** 
 1961              		.loc 1 674 28 is_stmt 0 view .LVU526
ARM GAS  C:\Users\minis\AppData\Local\Temp\ccG6JyYg.s 			page 61


 1962 0088 0025     		movs	r5, #0
 1963              	.LVL216:
 674:../../Middlewares/Third_Party/LwIP/src/apps/mqtt/mqtt.c **** 
 1964              		.loc 1 674 28 view .LVU527
 1965 008a 1DE0     		b	.L150
 1966              	.LVL217:
 1967              	.L185:
 683:../../Middlewares/Third_Party/LwIP/src/apps/mqtt/mqtt.c ****   LWIP_ASSERT("fixed_hdr_idx <= client->msg_idx", fixed_hdr_idx <= client->msg_idx);
 1968              		.loc 1 683 3 is_stmt 1 discriminator 1 view .LVU528
 683:../../Middlewares/Third_Party/LwIP/src/apps/mqtt/mqtt.c ****   LWIP_ASSERT("fixed_hdr_idx <= client->msg_idx", fixed_hdr_idx <= client->msg_idx);
 1969              		.loc 1 683 3 discriminator 1 view .LVU529
 1970 008c 854B     		ldr	r3, .L193
 1971 008e 40F2AB22 		movw	r2, #683
 1972              	.LVL218:
 683:../../Middlewares/Third_Party/LwIP/src/apps/mqtt/mqtt.c ****   LWIP_ASSERT("fixed_hdr_idx <= client->msg_idx", fixed_hdr_idx <= client->msg_idx);
 1973              		.loc 1 683 3 is_stmt 0 discriminator 1 view .LVU530
 1974 0092 8549     		ldr	r1, .L193+4
 1975              	.LVL219:
 683:../../Middlewares/Third_Party/LwIP/src/apps/mqtt/mqtt.c ****   LWIP_ASSERT("fixed_hdr_idx <= client->msg_idx", fixed_hdr_idx <= client->msg_idx);
 1976              		.loc 1 683 3 discriminator 1 view .LVU531
 1977 0094 8548     		ldr	r0, .L193+8
 1978              	.LVL220:
 683:../../Middlewares/Third_Party/LwIP/src/apps/mqtt/mqtt.c ****   LWIP_ASSERT("fixed_hdr_idx <= client->msg_idx", fixed_hdr_idx <= client->msg_idx);
 1979              		.loc 1 683 3 discriminator 1 view .LVU532
 1980 0096 FFF7FEFF 		bl	printf
 1981              	.LVL221:
 1982 009a C5E7     		b	.L147
 1983              	.L186:
 684:../../Middlewares/Third_Party/LwIP/src/apps/mqtt/mqtt.c ****   LWIP_ERROR("buffer length mismatch", fixed_hdr_idx + length <= MQTT_VAR_HEADER_BUFFER_LEN,
 1984              		.loc 1 684 3 is_stmt 1 discriminator 1 view .LVU533
 684:../../Middlewares/Third_Party/LwIP/src/apps/mqtt/mqtt.c ****   LWIP_ERROR("buffer length mismatch", fixed_hdr_idx + length <= MQTT_VAR_HEADER_BUFFER_LEN,
 1985              		.loc 1 684 3 discriminator 1 view .LVU534
 1986 009c 814B     		ldr	r3, .L193
 1987 009e 4FF42B72 		mov	r2, #684
 1988 00a2 8349     		ldr	r1, .L193+12
 1989 00a4 8148     		ldr	r0, .L193+8
 1990 00a6 FFF7FEFF 		bl	printf
 1991              	.LVL222:
 1992 00aa C0E7     		b	.L148
 1993              	.L187:
 685:../../Middlewares/Third_Party/LwIP/src/apps/mqtt/mqtt.c ****              return MQTT_CONNECT_DISCONNECTED);
 1994              		.loc 1 685 3 discriminator 1 view .LVU535
 685:../../Middlewares/Third_Party/LwIP/src/apps/mqtt/mqtt.c ****              return MQTT_CONNECT_DISCONNECTED);
 1995              		.loc 1 685 3 discriminator 1 view .LVU536
 1996 00ac 7D4B     		ldr	r3, .L193
 1997 00ae 40F2AD22 		movw	r2, #685
 1998 00b2 8049     		ldr	r1, .L193+16
 1999 00b4 7D48     		ldr	r0, .L193+8
 2000 00b6 FFF7FEFF 		bl	printf
 2001              	.LVL223:
 685:../../Middlewares/Third_Party/LwIP/src/apps/mqtt/mqtt.c ****              return MQTT_CONNECT_DISCONNECTED);
 2002              		.loc 1 685 3 discriminator 1 view .LVU537
 685:../../Middlewares/Third_Party/LwIP/src/apps/mqtt/mqtt.c ****              return MQTT_CONNECT_DISCONNECTED);
 2003              		.loc 1 685 3 discriminator 1 view .LVU538
 2004 00ba 4FF48075 		mov	r5, #256
 2005              	.LVL224:
 685:../../Middlewares/Third_Party/LwIP/src/apps/mqtt/mqtt.c ****              return MQTT_CONNECT_DISCONNECTED);
ARM GAS  C:\Users\minis\AppData\Local\Temp\ccG6JyYg.s 			page 62


 2006              		.loc 1 685 3 is_stmt 0 view .LVU539
 2007 00be 03E0     		b	.L150
 2008              	.L188:
 689:../../Middlewares/Third_Party/LwIP/src/apps/mqtt/mqtt.c ****       if (length < 2) {
 2009              		.loc 1 689 5 is_stmt 1 view .LVU540
 689:../../Middlewares/Third_Party/LwIP/src/apps/mqtt/mqtt.c ****       if (length < 2) {
 2010              		.loc 1 689 15 is_stmt 0 view .LVU541
 2011 00c0 A37A     		ldrb	r3, [r4, #10]	@ zero_extendqisi2
 689:../../Middlewares/Third_Party/LwIP/src/apps/mqtt/mqtt.c ****       if (length < 2) {
 2012              		.loc 1 689 8 view .LVU542
 2013 00c2 022B     		cmp	r3, #2
 2014 00c4 04D0     		beq	.L190
 674:../../Middlewares/Third_Party/LwIP/src/apps/mqtt/mqtt.c **** 
 2015              		.loc 1 674 28 view .LVU543
 2016 00c6 0025     		movs	r5, #0
 2017              	.LVL225:
 2018              	.L150:
 829:../../Middlewares/Third_Party/LwIP/src/apps/mqtt/mqtt.c **** 
 2019              		.loc 1 829 1 view .LVU544
 2020 00c8 2846     		mov	r0, r5
 2021 00ca 03B0     		add	sp, sp, #12
 2022              	.LCFI23:
 2023              		.cfi_remember_state
 2024              		.cfi_def_cfa_offset 36
 2025              		@ sp needed
 2026 00cc BDE8F08F 		pop	{r4, r5, r6, r7, r8, r9, r10, fp, pc}
 2027              	.LVL226:
 2028              	.L190:
 2029              	.LCFI24:
 2030              		.cfi_restore_state
 690:../../Middlewares/Third_Party/LwIP/src/apps/mqtt/mqtt.c ****         LWIP_DEBUGF(MQTT_DEBUG_WARN,( "mqtt_message_received: Received short CONNACK message\n"));
 2031              		.loc 1 690 7 is_stmt 1 view .LVU545
 690:../../Middlewares/Third_Party/LwIP/src/apps/mqtt/mqtt.c ****         LWIP_DEBUGF(MQTT_DEBUG_WARN,( "mqtt_message_received: Received short CONNACK message\n"));
 2032              		.loc 1 690 10 is_stmt 0 view .LVU546
 2033 00d0 012D     		cmp	r5, #1
 2034 00d2 40F2BD80 		bls	.L165
 695:../../Middlewares/Third_Party/LwIP/src/apps/mqtt/mqtt.c ****       LWIP_DEBUGF(MQTT_DEBUG_TRACE, ("mqtt_message_received: Connect response code %d\n", res));
 2035              		.loc 1 695 7 is_stmt 1 view .LVU547
 695:../../Middlewares/Third_Party/LwIP/src/apps/mqtt/mqtt.c ****       LWIP_DEBUGF(MQTT_DEBUG_TRACE, ("mqtt_message_received: Connect response code %d\n", res));
 2036              		.loc 1 695 54 is_stmt 0 view .LVU548
 2037 00d6 7D78     		ldrb	r5, [r7, #1]	@ zero_extendqisi2
 2038              	.LVL227:
 696:../../Middlewares/Third_Party/LwIP/src/apps/mqtt/mqtt.c ****       if (res == MQTT_CONNECT_ACCEPTED) {
 2039              		.loc 1 696 96 is_stmt 1 view .LVU549
 697:../../Middlewares/Third_Party/LwIP/src/apps/mqtt/mqtt.c ****         /* Reset cyclic_tick when changing to connected state */
 2040              		.loc 1 697 7 view .LVU550
 697:../../Middlewares/Third_Party/LwIP/src/apps/mqtt/mqtt.c ****         /* Reset cyclic_tick when changing to connected state */
 2041              		.loc 1 697 10 is_stmt 0 view .LVU551
 2042 00d8 002D     		cmp	r5, #0
 2043 00da F5D1     		bne	.L150
 699:../../Middlewares/Third_Party/LwIP/src/apps/mqtt/mqtt.c ****         client->conn_state = MQTT_CONNECTED;
 2044              		.loc 1 699 9 is_stmt 1 view .LVU552
 699:../../Middlewares/Third_Party/LwIP/src/apps/mqtt/mqtt.c ****         client->conn_state = MQTT_CONNECTED;
 2045              		.loc 1 699 29 is_stmt 0 view .LVU553
 2046 00dc 0023     		movs	r3, #0
 2047 00de 2380     		strh	r3, [r4]	@ movhi
 700:../../Middlewares/Third_Party/LwIP/src/apps/mqtt/mqtt.c ****         /* Notify upper layer */
ARM GAS  C:\Users\minis\AppData\Local\Temp\ccG6JyYg.s 			page 63


 2048              		.loc 1 700 9 is_stmt 1 view .LVU554
 700:../../Middlewares/Third_Party/LwIP/src/apps/mqtt/mqtt.c ****         /* Notify upper layer */
 2049              		.loc 1 700 28 is_stmt 0 view .LVU555
 2050 00e0 0323     		movs	r3, #3
 2051 00e2 A372     		strb	r3, [r4, #10]
 702:../../Middlewares/Third_Party/LwIP/src/apps/mqtt/mqtt.c ****           client->connect_cb(client, client->connect_arg, res);
 2052              		.loc 1 702 9 is_stmt 1 view .LVU556
 702:../../Middlewares/Third_Party/LwIP/src/apps/mqtt/mqtt.c ****           client->connect_cb(client, client->connect_arg, res);
 2053              		.loc 1 702 19 is_stmt 0 view .LVU557
 2054 00e4 6369     		ldr	r3, [r4, #20]
 702:../../Middlewares/Third_Party/LwIP/src/apps/mqtt/mqtt.c ****           client->connect_cb(client, client->connect_arg, res);
 2055              		.loc 1 702 12 view .LVU558
 2056 00e6 002B     		cmp	r3, #0
 2057 00e8 EED0     		beq	.L150
 703:../../Middlewares/Third_Party/LwIP/src/apps/mqtt/mqtt.c ****         }
 2058              		.loc 1 703 11 is_stmt 1 view .LVU559
 2059 00ea 2A46     		mov	r2, r5
 2060 00ec 2169     		ldr	r1, [r4, #16]
 2061 00ee 2046     		mov	r0, r4
 2062 00f0 9847     		blx	r3
 2063              	.LVL228:
 2064 00f2 E9E7     		b	.L150
 2065              	.LVL229:
 2066              	.L189:
 2067              	.LBB3:
 713:../../Middlewares/Third_Party/LwIP/src/apps/mqtt/mqtt.c ****     u16_t payload_length = length;
 2068              		.loc 1 713 5 view .LVU560
 714:../../Middlewares/Third_Party/LwIP/src/apps/mqtt/mqtt.c ****     u8_t qos = MQTT_CTL_PACKET_QOS(client->rx_buffer[0]);
 2069              		.loc 1 714 5 view .LVU561
 715:../../Middlewares/Third_Party/LwIP/src/apps/mqtt/mqtt.c **** 
 2070              		.loc 1 715 5 view .LVU562
 715:../../Middlewares/Third_Party/LwIP/src/apps/mqtt/mqtt.c **** 
 2071              		.loc 1 715 16 is_stmt 0 view .LVU563
 2072 00f4 94F86C80 		ldrb	r8, [r4, #108]	@ zero_extendqisi2
 2073              	.LVL230:
 715:../../Middlewares/Third_Party/LwIP/src/apps/mqtt/mqtt.c **** 
 2074              		.loc 1 715 10 view .LVU564
 2075 00f8 C8F34108 		ubfx	r8, r8, #1, #2
 2076              	.LVL231:
 717:../../Middlewares/Third_Party/LwIP/src/apps/mqtt/mqtt.c ****       /* Should have topic and pkt id*/
 2077              		.loc 1 717 5 is_stmt 1 view .LVU565
 717:../../Middlewares/Third_Party/LwIP/src/apps/mqtt/mqtt.c ****       /* Should have topic and pkt id*/
 2078              		.loc 1 717 15 is_stmt 0 view .LVU566
 2079 00fc A36E     		ldr	r3, [r4, #104]
 717:../../Middlewares/Third_Party/LwIP/src/apps/mqtt/mqtt.c ****       /* Should have topic and pkt id*/
 2080              		.loc 1 717 8 view .LVU567
 2081 00fe 802B     		cmp	r3, #128
 2082 0100 57D8     		bhi	.L167
 2083              	.LBB4:
 719:../../Middlewares/Third_Party/LwIP/src/apps/mqtt/mqtt.c ****       u16_t after_topic;
 2084              		.loc 1 719 7 is_stmt 1 view .LVU568
 720:../../Middlewares/Third_Party/LwIP/src/apps/mqtt/mqtt.c ****       u8_t bkp;
 2085              		.loc 1 720 7 view .LVU569
 721:../../Middlewares/Third_Party/LwIP/src/apps/mqtt/mqtt.c ****       u16_t topic_len;
 2086              		.loc 1 721 7 view .LVU570
 722:../../Middlewares/Third_Party/LwIP/src/apps/mqtt/mqtt.c ****       u16_t qos_len = (qos ? 2U : 0U);
 2087              		.loc 1 722 7 view .LVU571
ARM GAS  C:\Users\minis\AppData\Local\Temp\ccG6JyYg.s 			page 64


 723:../../Middlewares/Third_Party/LwIP/src/apps/mqtt/mqtt.c ****       if (length < 2 + qos_len) {
 2088              		.loc 1 723 7 view .LVU572
 723:../../Middlewares/Third_Party/LwIP/src/apps/mqtt/mqtt.c ****       if (length < 2 + qos_len) {
 2089              		.loc 1 723 13 is_stmt 0 view .LVU573
 2090 0102 B8F1000F 		cmp	r8, #0
 2091 0106 38D0     		beq	.L168
 723:../../Middlewares/Third_Party/LwIP/src/apps/mqtt/mqtt.c ****       if (length < 2 + qos_len) {
 2092              		.loc 1 723 13 discriminator 1 view .LVU574
 2093 0108 0223     		movs	r3, #2
 2094              	.L154:
 2095              	.LVL232:
 724:../../Middlewares/Third_Party/LwIP/src/apps/mqtt/mqtt.c ****         LWIP_DEBUGF(MQTT_DEBUG_WARN,( "mqtt_message_received: Received short PUBLISH packet\n"));
 2096              		.loc 1 724 7 is_stmt 1 view .LVU575
 724:../../Middlewares/Third_Party/LwIP/src/apps/mqtt/mqtt.c ****         LWIP_DEBUGF(MQTT_DEBUG_WARN,( "mqtt_message_received: Received short PUBLISH packet\n"));
 2097              		.loc 1 724 18 is_stmt 0 view .LVU576
 2098 010a 5A1C     		adds	r2, r3, #1
 724:../../Middlewares/Third_Party/LwIP/src/apps/mqtt/mqtt.c ****         LWIP_DEBUGF(MQTT_DEBUG_WARN,( "mqtt_message_received: Received short PUBLISH packet\n"));
 2099              		.loc 1 724 10 view .LVU577
 2100 010c 9542     		cmp	r5, r2
 2101 010e 40F3A480 		ble	.L169
 728:../../Middlewares/Third_Party/LwIP/src/apps/mqtt/mqtt.c ****       topic_len = (topic_len << 8) + (u16_t)(var_hdr_payload[1]);
 2102              		.loc 1 728 7 is_stmt 1 view .LVU578
 728:../../Middlewares/Third_Party/LwIP/src/apps/mqtt/mqtt.c ****       topic_len = (topic_len << 8) + (u16_t)(var_hdr_payload[1]);
 2103              		.loc 1 728 34 is_stmt 0 view .LVU579
 2104 0112 1BF80920 		ldrb	r2, [fp, r9]	@ zero_extendqisi2
 2105              	.LVL233:
 729:../../Middlewares/Third_Party/LwIP/src/apps/mqtt/mqtt.c ****       if ((topic_len > length - (2 + qos_len)) ||
 2106              		.loc 1 729 7 is_stmt 1 view .LVU580
 729:../../Middlewares/Third_Party/LwIP/src/apps/mqtt/mqtt.c ****       if ((topic_len > length - (2 + qos_len)) ||
 2107              		.loc 1 729 61 is_stmt 0 view .LVU581
 2108 0116 97F801B0 		ldrb	fp, [r7, #1]	@ zero_extendqisi2
 729:../../Middlewares/Third_Party/LwIP/src/apps/mqtt/mqtt.c ****       if ((topic_len > length - (2 + qos_len)) ||
 2109              		.loc 1 729 17 view .LVU582
 2110 011a 0BEB022B 		add	fp, fp, r2, lsl #8
 2111 011e 1FFA8BFB 		uxth	fp, fp
 2112              	.LVL234:
 730:../../Middlewares/Third_Party/LwIP/src/apps/mqtt/mqtt.c ****           (topic_len > var_hdr_payload_bufsize - (2 + qos_len))) {
 2113              		.loc 1 730 7 is_stmt 1 view .LVU583
 730:../../Middlewares/Third_Party/LwIP/src/apps/mqtt/mqtt.c ****           (topic_len > var_hdr_payload_bufsize - (2 + qos_len))) {
 2114              		.loc 1 730 36 is_stmt 0 view .LVU584
 2115 0122 9A1C     		adds	r2, r3, #2
 730:../../Middlewares/Third_Party/LwIP/src/apps/mqtt/mqtt.c ****           (topic_len > var_hdr_payload_bufsize - (2 + qos_len))) {
 2116              		.loc 1 730 31 view .LVU585
 2117 0124 AA1A     		subs	r2, r5, r2
 730:../../Middlewares/Third_Party/LwIP/src/apps/mqtt/mqtt.c ****           (topic_len > var_hdr_payload_bufsize - (2 + qos_len))) {
 2118              		.loc 1 730 10 view .LVU586
 2119 0126 9345     		cmp	fp, r2
 2120 0128 00F39A80 		bgt	.L170
 731:../../Middlewares/Third_Party/LwIP/src/apps/mqtt/mqtt.c ****         LWIP_DEBUGF(MQTT_DEBUG_WARN,( "mqtt_message_received: Received short PUBLISH packet (topic)
 2121              		.loc 1 731 48 view .LVU587
 2122 012c AAEB0303 		sub	r3, r10, r3
 2123              	.LVL235:
 731:../../Middlewares/Third_Party/LwIP/src/apps/mqtt/mqtt.c ****         LWIP_DEBUGF(MQTT_DEBUG_WARN,( "mqtt_message_received: Received short PUBLISH packet (topic)
 2124              		.loc 1 731 48 view .LVU588
 2125 0130 023B     		subs	r3, r3, #2
 730:../../Middlewares/Third_Party/LwIP/src/apps/mqtt/mqtt.c ****           (topic_len > var_hdr_payload_bufsize - (2 + qos_len))) {
 2126              		.loc 1 730 48 discriminator 1 view .LVU589
ARM GAS  C:\Users\minis\AppData\Local\Temp\ccG6JyYg.s 			page 65


 2127 0132 9B45     		cmp	fp, r3
 2128 0134 00F29780 		bhi	.L171
 736:../../Middlewares/Third_Party/LwIP/src/apps/mqtt/mqtt.c ****       after_topic = 2 + topic_len;
 2129              		.loc 1 736 7 is_stmt 1 view .LVU590
 736:../../Middlewares/Third_Party/LwIP/src/apps/mqtt/mqtt.c ****       after_topic = 2 + topic_len;
 2130              		.loc 1 736 13 is_stmt 0 view .LVU591
 2131 0138 BB1C     		adds	r3, r7, #2
 2132 013a 0093     		str	r3, [sp]
 2133              	.LVL236:
 737:../../Middlewares/Third_Party/LwIP/src/apps/mqtt/mqtt.c ****       /* Check buffer length, add one byte even for QoS 0 so that zero termination will fit */
 2134              		.loc 1 737 7 is_stmt 1 view .LVU592
 737:../../Middlewares/Third_Party/LwIP/src/apps/mqtt/mqtt.c ****       /* Check buffer length, add one byte even for QoS 0 so that zero termination will fit */
 2135              		.loc 1 737 19 is_stmt 0 view .LVU593
 2136 013c 0BF10209 		add	r9, fp, #2
 2137 0140 1FFA89F9 		uxth	r9, r9
 2138              	.LVL237:
 739:../../Middlewares/Third_Party/LwIP/src/apps/mqtt/mqtt.c ****         LWIP_DEBUGF(MQTT_DEBUG_WARN, ("mqtt_message_received: Receive buffer can not fit topic + pk
 2139              		.loc 1 739 7 is_stmt 1 view .LVU594
 739:../../Middlewares/Third_Party/LwIP/src/apps/mqtt/mqtt.c ****         LWIP_DEBUGF(MQTT_DEBUG_WARN, ("mqtt_message_received: Receive buffer can not fit topic + pk
 2140              		.loc 1 739 24 is_stmt 0 view .LVU595
 2141 0144 4A46     		mov	r2, r9
 739:../../Middlewares/Third_Party/LwIP/src/apps/mqtt/mqtt.c ****         LWIP_DEBUGF(MQTT_DEBUG_WARN, ("mqtt_message_received: Receive buffer can not fit topic + pk
 2142              		.loc 1 739 36 view .LVU596
 2143 0146 B8F1000F 		cmp	r8, #0
 2144 014a 18D0     		beq	.L172
 739:../../Middlewares/Third_Party/LwIP/src/apps/mqtt/mqtt.c ****         LWIP_DEBUGF(MQTT_DEBUG_WARN, ("mqtt_message_received: Receive buffer can not fit topic + pk
 2145              		.loc 1 739 36 discriminator 1 view .LVU597
 2146 014c 0223     		movs	r3, #2
 2147              	.LVL238:
 2148              	.L155:
 739:../../Middlewares/Third_Party/LwIP/src/apps/mqtt/mqtt.c ****         LWIP_DEBUGF(MQTT_DEBUG_WARN, ("mqtt_message_received: Receive buffer can not fit topic + pk
 2149              		.loc 1 739 24 discriminator 4 view .LVU598
 2150 014e 1344     		add	r3, r3, r2
 739:../../Middlewares/Third_Party/LwIP/src/apps/mqtt/mqtt.c ****         LWIP_DEBUGF(MQTT_DEBUG_WARN, ("mqtt_message_received: Receive buffer can not fit topic + pk
 2151              		.loc 1 739 10 discriminator 4 view .LVU599
 2152 0150 5345     		cmp	r3, r10
 2153 0152 00F28B80 		bhi	.L173
 745:../../Middlewares/Third_Party/LwIP/src/apps/mqtt/mqtt.c ****         if (length < after_topic + 2U) {
 2154              		.loc 1 745 7 is_stmt 1 view .LVU600
 745:../../Middlewares/Third_Party/LwIP/src/apps/mqtt/mqtt.c ****         if (length < after_topic + 2U) {
 2155              		.loc 1 745 10 is_stmt 0 view .LVU601
 2156 0156 B8F1000F 		cmp	r8, #0
 2157 015a 12D0     		beq	.L156
 746:../../Middlewares/Third_Party/LwIP/src/apps/mqtt/mqtt.c ****           LWIP_DEBUGF(MQTT_DEBUG_WARN,( "mqtt_message_received: Received short PUBLISH packet (afte
 2158              		.loc 1 746 9 is_stmt 1 view .LVU602
 746:../../Middlewares/Third_Party/LwIP/src/apps/mqtt/mqtt.c ****           LWIP_DEBUGF(MQTT_DEBUG_WARN,( "mqtt_message_received: Received short PUBLISH packet (afte
 2159              		.loc 1 746 34 is_stmt 0 view .LVU603
 2160 015c 931C     		adds	r3, r2, #2
 746:../../Middlewares/Third_Party/LwIP/src/apps/mqtt/mqtt.c ****           LWIP_DEBUGF(MQTT_DEBUG_WARN,( "mqtt_message_received: Received short PUBLISH packet (afte
 2161              		.loc 1 746 12 view .LVU604
 2162 015e 9D42     		cmp	r5, r3
 2163 0160 C0F08780 		bcc	.L174
 750:../../Middlewares/Third_Party/LwIP/src/apps/mqtt/mqtt.c ****         after_topic += 2;
 2164              		.loc 1 750 9 is_stmt 1 view .LVU605
 750:../../Middlewares/Third_Party/LwIP/src/apps/mqtt/mqtt.c ****         after_topic += 2;
 2165              		.loc 1 750 55 is_stmt 0 view .LVU606
 2166 0164 B95C     		ldrb	r1, [r7, r2]	@ zero_extendqisi2
ARM GAS  C:\Users\minis\AppData\Local\Temp\ccG6JyYg.s 			page 66


 750:../../Middlewares/Third_Party/LwIP/src/apps/mqtt/mqtt.c ****         after_topic += 2;
 2167              		.loc 1 750 99 view .LVU607
 2168 0166 3A44     		add	r2, r2, r7
 2169 0168 5378     		ldrb	r3, [r2, #1]	@ zero_extendqisi2
 750:../../Middlewares/Third_Party/LwIP/src/apps/mqtt/mqtt.c ****         after_topic += 2;
 2170              		.loc 1 750 75 view .LVU608
 2171 016a 03EB0123 		add	r3, r3, r1, lsl #8
 750:../../Middlewares/Third_Party/LwIP/src/apps/mqtt/mqtt.c ****         after_topic += 2;
 2172              		.loc 1 750 30 view .LVU609
 2173 016e 2381     		strh	r3, [r4, #8]	@ movhi
 751:../../Middlewares/Third_Party/LwIP/src/apps/mqtt/mqtt.c ****       } else {
 2174              		.loc 1 751 9 is_stmt 1 view .LVU610
 751:../../Middlewares/Third_Party/LwIP/src/apps/mqtt/mqtt.c ****       } else {
 2175              		.loc 1 751 21 is_stmt 0 view .LVU611
 2176 0170 0BF10409 		add	r9, fp, #4
 2177              	.LVL239:
 751:../../Middlewares/Third_Party/LwIP/src/apps/mqtt/mqtt.c ****       } else {
 2178              		.loc 1 751 21 view .LVU612
 2179 0174 1FFA89F9 		uxth	r9, r9
 2180              	.LVL240:
 751:../../Middlewares/Third_Party/LwIP/src/apps/mqtt/mqtt.c ****       } else {
 2181              		.loc 1 751 21 view .LVU613
 2182 0178 05E0     		b	.L157
 2183              	.LVL241:
 2184              	.L168:
 723:../../Middlewares/Third_Party/LwIP/src/apps/mqtt/mqtt.c ****       if (length < 2 + qos_len) {
 2185              		.loc 1 723 13 discriminator 2 view .LVU614
 2186 017a 0023     		movs	r3, #0
 2187 017c C5E7     		b	.L154
 2188              	.LVL242:
 2189              	.L172:
 739:../../Middlewares/Third_Party/LwIP/src/apps/mqtt/mqtt.c ****         LWIP_DEBUGF(MQTT_DEBUG_WARN, ("mqtt_message_received: Receive buffer can not fit topic + pk
 2190              		.loc 1 739 36 discriminator 2 view .LVU615
 2191 017e 0123     		movs	r3, #1
 2192              	.LVL243:
 739:../../Middlewares/Third_Party/LwIP/src/apps/mqtt/mqtt.c ****         LWIP_DEBUGF(MQTT_DEBUG_WARN, ("mqtt_message_received: Receive buffer can not fit topic + pk
 2193              		.loc 1 739 36 discriminator 2 view .LVU616
 2194 0180 E5E7     		b	.L155
 2195              	.L156:
 753:../../Middlewares/Third_Party/LwIP/src/apps/mqtt/mqtt.c ****       }
 2196              		.loc 1 753 9 is_stmt 1 view .LVU617
 753:../../Middlewares/Third_Party/LwIP/src/apps/mqtt/mqtt.c ****       }
 2197              		.loc 1 753 30 is_stmt 0 view .LVU618
 2198 0182 0023     		movs	r3, #0
 2199 0184 2381     		strh	r3, [r4, #8]	@ movhi
 2200              	.L157:
 756:../../Middlewares/Third_Party/LwIP/src/apps/mqtt/mqtt.c ****       /* Zero terminate string */
 2201              		.loc 1 756 7 is_stmt 1 view .LVU619
 756:../../Middlewares/Third_Party/LwIP/src/apps/mqtt/mqtt.c ****       /* Zero terminate string */
 2202              		.loc 1 756 11 is_stmt 0 view .LVU620
 2203 0186 0099     		ldr	r1, [sp]
 2204 0188 11F80B30 		ldrb	r3, [r1, fp]	@ zero_extendqisi2
 2205 018c 0193     		str	r3, [sp, #4]
 2206              	.LVL244:
 758:../../Middlewares/Third_Party/LwIP/src/apps/mqtt/mqtt.c ****       /* Payload data remaining in receive buffer */
 2207              		.loc 1 758 7 is_stmt 1 view .LVU621
 758:../../Middlewares/Third_Party/LwIP/src/apps/mqtt/mqtt.c ****       /* Payload data remaining in receive buffer */
ARM GAS  C:\Users\minis\AppData\Local\Temp\ccG6JyYg.s 			page 67


 2208              		.loc 1 758 24 is_stmt 0 view .LVU622
 2209 018e 0023     		movs	r3, #0
 2210 0190 01F80B30 		strb	r3, [r1, fp]
 760:../../Middlewares/Third_Party/LwIP/src/apps/mqtt/mqtt.c ****       payload_offset = after_topic;
 2211              		.loc 1 760 7 is_stmt 1 view .LVU623
 760:../../Middlewares/Third_Party/LwIP/src/apps/mqtt/mqtt.c ****       payload_offset = after_topic;
 2212              		.loc 1 760 22 is_stmt 0 view .LVU624
 2213 0194 A5EB090A 		sub	r10, r5, r9
 2214              	.LVL245:
 760:../../Middlewares/Third_Party/LwIP/src/apps/mqtt/mqtt.c ****       payload_offset = after_topic;
 2215              		.loc 1 760 22 view .LVU625
 2216 0198 1FFA8AFA 		uxth	r10, r10
 2217              	.LVL246:
 761:../../Middlewares/Third_Party/LwIP/src/apps/mqtt/mqtt.c **** 
 2218              		.loc 1 761 7 is_stmt 1 view .LVU626
 764:../../Middlewares/Third_Party/LwIP/src/apps/mqtt/mqtt.c ****       if (client->pub_cb != NULL) {
 2219              		.loc 1 764 85 view .LVU627
 765:../../Middlewares/Third_Party/LwIP/src/apps/mqtt/mqtt.c ****         client->pub_cb(client->inpub_arg, (const char *)topic, remaining_length + payload_length);
 2220              		.loc 1 765 7 view .LVU628
 765:../../Middlewares/Third_Party/LwIP/src/apps/mqtt/mqtt.c ****         client->pub_cb(client->inpub_arg, (const char *)topic, remaining_length + payload_length);
 2221              		.loc 1 765 17 is_stmt 0 view .LVU629
 2222 019c 636E     		ldr	r3, [r4, #100]
 765:../../Middlewares/Third_Party/LwIP/src/apps/mqtt/mqtt.c ****         client->pub_cb(client->inpub_arg, (const char *)topic, remaining_length + payload_length);
 2223              		.loc 1 765 10 view .LVU630
 2224 019e 1BB1     		cbz	r3, .L158
 766:../../Middlewares/Third_Party/LwIP/src/apps/mqtt/mqtt.c ****       }
 2225              		.loc 1 766 9 is_stmt 1 view .LVU631
 2226 01a0 0AEB0602 		add	r2, r10, r6
 2227 01a4 E06D     		ldr	r0, [r4, #92]
 2228 01a6 9847     		blx	r3
 2229              	.LVL247:
 2230              	.L158:
 769:../../Middlewares/Third_Party/LwIP/src/apps/mqtt/mqtt.c ****     }
 2231              		.loc 1 769 7 view .LVU632
 769:../../Middlewares/Third_Party/LwIP/src/apps/mqtt/mqtt.c ****     }
 2232              		.loc 1 769 24 is_stmt 0 view .LVU633
 2233 01a8 009B     		ldr	r3, [sp]
 2234 01aa 019A     		ldr	r2, [sp, #4]
 2235 01ac 03F80B20 		strb	r2, [r3, fp]
 2236 01b0 02E0     		b	.L153
 2237              	.LVL248:
 2238              	.L167:
 769:../../Middlewares/Third_Party/LwIP/src/apps/mqtt/mqtt.c ****     }
 2239              		.loc 1 769 24 view .LVU634
 2240              	.LBE4:
 714:../../Middlewares/Third_Party/LwIP/src/apps/mqtt/mqtt.c ****     u8_t qos = MQTT_CTL_PACKET_QOS(client->rx_buffer[0]);
 2241              		.loc 1 714 11 view .LVU635
 2242 01b2 AA46     		mov	r10, r5
 2243              	.LVL249:
 713:../../Middlewares/Third_Party/LwIP/src/apps/mqtt/mqtt.c ****     u16_t payload_length = length;
 2244              		.loc 1 713 11 view .LVU636
 2245 01b4 4FF00009 		mov	r9, #0
 2246              	.LVL250:
 2247              	.L153:
 771:../../Middlewares/Third_Party/LwIP/src/apps/mqtt/mqtt.c ****       if (length < (size_t)(payload_offset + payload_length)) {
 2248              		.loc 1 771 5 is_stmt 1 view .LVU637
 771:../../Middlewares/Third_Party/LwIP/src/apps/mqtt/mqtt.c ****       if (length < (size_t)(payload_offset + payload_length)) {
ARM GAS  C:\Users\minis\AppData\Local\Temp\ccG6JyYg.s 			page 68


 2249              		.loc 1 771 48 is_stmt 0 view .LVU638
 2250 01b8 B6FA86F6 		clz	r6, r6
 2251              	.LVL251:
 771:../../Middlewares/Third_Party/LwIP/src/apps/mqtt/mqtt.c ****       if (length < (size_t)(payload_offset + payload_length)) {
 2252              		.loc 1 771 48 view .LVU639
 2253 01bc 7609     		lsrs	r6, r6, #5
 771:../../Middlewares/Third_Party/LwIP/src/apps/mqtt/mqtt.c ****       if (length < (size_t)(payload_offset + payload_length)) {
 2254              		.loc 1 771 28 view .LVU640
 2255 01be BAF1000F 		cmp	r10, #0
 2256 01c2 0CBF     		ite	eq
 2257 01c4 3346     		moveq	r3, r6
 2258 01c6 46F00103 		orrne	r3, r6, #1
 771:../../Middlewares/Third_Party/LwIP/src/apps/mqtt/mqtt.c ****       if (length < (size_t)(payload_offset + payload_length)) {
 2259              		.loc 1 771 8 view .LVU641
 2260 01ca 002B     		cmp	r3, #0
 2261 01cc 54D0     		beq	.L175
 772:../../Middlewares/Third_Party/LwIP/src/apps/mqtt/mqtt.c ****         LWIP_DEBUGF(MQTT_DEBUG_WARN,( "mqtt_message_received: Received short packet (payload)\n"));
 2262              		.loc 1 772 7 is_stmt 1 view .LVU642
 772:../../Middlewares/Third_Party/LwIP/src/apps/mqtt/mqtt.c ****         LWIP_DEBUGF(MQTT_DEBUG_WARN,( "mqtt_message_received: Received short packet (payload)\n"));
 2263              		.loc 1 772 44 is_stmt 0 view .LVU643
 2264 01ce 09EB0A03 		add	r3, r9, r10
 772:../../Middlewares/Third_Party/LwIP/src/apps/mqtt/mqtt.c ****         LWIP_DEBUGF(MQTT_DEBUG_WARN,( "mqtt_message_received: Received short packet (payload)\n"));
 2265              		.loc 1 772 10 view .LVU644
 2266 01d2 9D42     		cmp	r5, r3
 2267 01d4 52D3     		bcc	.L176
 776:../../Middlewares/Third_Party/LwIP/src/apps/mqtt/mqtt.c ****       /* Reply if QoS > 0 */
 2268              		.loc 1 776 7 is_stmt 1 view .LVU645
 776:../../Middlewares/Third_Party/LwIP/src/apps/mqtt/mqtt.c ****       /* Reply if QoS > 0 */
 2269              		.loc 1 776 13 is_stmt 0 view .LVU646
 2270 01d6 256E     		ldr	r5, [r4, #96]
 776:../../Middlewares/Third_Party/LwIP/src/apps/mqtt/mqtt.c ****       /* Reply if QoS > 0 */
 2271              		.loc 1 776 7 view .LVU647
 2272 01d8 3346     		mov	r3, r6
 2273 01da 5246     		mov	r2, r10
 2274 01dc 07EB0901 		add	r1, r7, r9
 2275 01e0 E06D     		ldr	r0, [r4, #92]
 2276 01e2 A847     		blx	r5
 2277              	.LVL252:
 778:../../Middlewares/Third_Party/LwIP/src/apps/mqtt/mqtt.c ****         /* Send PUBACK for QoS 1 or PUBREC for QoS 2 */
 2278              		.loc 1 778 7 is_stmt 1 view .LVU648
 778:../../Middlewares/Third_Party/LwIP/src/apps/mqtt/mqtt.c ****         /* Send PUBACK for QoS 1 or PUBREC for QoS 2 */
 2279              		.loc 1 778 33 is_stmt 0 view .LVU649
 2280 01e4 B8F1000F 		cmp	r8, #0
 2281 01e8 0CBF     		ite	eq
 2282 01ea 0026     		moveq	r6, #0
 2283 01ec 06F00106 		andne	r6, r6, #1
 778:../../Middlewares/Third_Party/LwIP/src/apps/mqtt/mqtt.c ****         /* Send PUBACK for QoS 1 or PUBREC for QoS 2 */
 2284              		.loc 1 778 10 view .LVU650
 2285 01f0 002E     		cmp	r6, #0
 2286 01f2 46D0     		beq	.L177
 2287              	.LBB5:
 780:../../Middlewares/Third_Party/LwIP/src/apps/mqtt/mqtt.c ****         LWIP_DEBUGF(MQTT_DEBUG_TRACE, ("mqtt_incomming_publish: Sending publish response: %s with p
 2288              		.loc 1 780 9 is_stmt 1 view .LVU651
 780:../../Middlewares/Third_Party/LwIP/src/apps/mqtt/mqtt.c ****         LWIP_DEBUGF(MQTT_DEBUG_TRACE, ("mqtt_incomming_publish: Sending publish response: %s with p
 2289              		.loc 1 780 14 is_stmt 0 view .LVU652
 2290 01f4 B8F1010F 		cmp	r8, #1
 2291 01f8 07D0     		beq	.L191
ARM GAS  C:\Users\minis\AppData\Local\Temp\ccG6JyYg.s 			page 69


 780:../../Middlewares/Third_Party/LwIP/src/apps/mqtt/mqtt.c ****         LWIP_DEBUGF(MQTT_DEBUG_TRACE, ("mqtt_incomming_publish: Sending publish response: %s with p
 2292              		.loc 1 780 14 discriminator 2 view .LVU653
 2293 01fa 0521     		movs	r1, #5
 2294              	.L159:
 2295              	.LVL253:
 782:../../Middlewares/Third_Party/LwIP/src/apps/mqtt/mqtt.c ****         pub_ack_rec_rel_response(client, resp_msg, client->inpub_pkt_id, 0);
 2296              		.loc 1 782 94 is_stmt 1 view .LVU654
 783:../../Middlewares/Third_Party/LwIP/src/apps/mqtt/mqtt.c ****       }
 2297              		.loc 1 783 9 view .LVU655
 2298 01fc 0023     		movs	r3, #0
 2299 01fe 2289     		ldrh	r2, [r4, #8]
 2300 0200 2046     		mov	r0, r4
 2301 0202 FFF7FEFF 		bl	pub_ack_rec_rel_response
 2302              	.LVL254:
 783:../../Middlewares/Third_Party/LwIP/src/apps/mqtt/mqtt.c ****       }
 2303              		.loc 1 783 9 is_stmt 0 view .LVU656
 2304              	.LBE5:
 2305              	.LBE3:
 674:../../Middlewares/Third_Party/LwIP/src/apps/mqtt/mqtt.c **** 
 2306              		.loc 1 674 28 view .LVU657
 2307 0206 0025     		movs	r5, #0
 2308 0208 5EE7     		b	.L150
 2309              	.LVL255:
 2310              	.L191:
 2311              	.LBB7:
 2312              	.LBB6:
 780:../../Middlewares/Third_Party/LwIP/src/apps/mqtt/mqtt.c ****         LWIP_DEBUGF(MQTT_DEBUG_TRACE, ("mqtt_incomming_publish: Sending publish response: %s with p
 2313              		.loc 1 780 14 discriminator 1 view .LVU658
 2314 020a 0421     		movs	r1, #4
 2315 020c F6E7     		b	.L159
 2316              	.LVL256:
 2317              	.L161:
 780:../../Middlewares/Third_Party/LwIP/src/apps/mqtt/mqtt.c ****         LWIP_DEBUGF(MQTT_DEBUG_TRACE, ("mqtt_incomming_publish: Sending publish response: %s with p
 2318              		.loc 1 780 14 discriminator 1 view .LVU659
 2319              	.LBE6:
 2320              	.LBE7:
 799:../../Middlewares/Third_Party/LwIP/src/apps/mqtt/mqtt.c ****       pub_ack_rec_rel_response(client, MQTT_MSG_TYPE_PUBCOMP, pkt_id, 0);
 2321              		.loc 1 799 123 is_stmt 1 view .LVU660
 800:../../Middlewares/Third_Party/LwIP/src/apps/mqtt/mqtt.c **** 
 2322              		.loc 1 800 7 view .LVU661
 2323 020e 0023     		movs	r3, #0
 2324 0210 0721     		movs	r1, #7
 2325 0212 2046     		mov	r0, r4
 2326 0214 FFF7FEFF 		bl	pub_ack_rec_rel_response
 2327              	.LVL257:
 674:../../Middlewares/Third_Party/LwIP/src/apps/mqtt/mqtt.c **** 
 2328              		.loc 1 674 28 is_stmt 0 view .LVU662
 2329 0218 0025     		movs	r5, #0
 2330 021a 55E7     		b	.L150
 2331              	.LVL258:
 2332              	.L160:
 2333              	.LBB8:
 804:../../Middlewares/Third_Party/LwIP/src/apps/mqtt/mqtt.c ****       if (r != NULL) {
 2334              		.loc 1 804 7 is_stmt 1 view .LVU663
 804:../../Middlewares/Third_Party/LwIP/src/apps/mqtt/mqtt.c ****       if (r != NULL) {
 2335              		.loc 1 804 34 is_stmt 0 view .LVU664
 2336 021c 1146     		mov	r1, r2
ARM GAS  C:\Users\minis\AppData\Local\Temp\ccG6JyYg.s 			page 70


 2337 021e 04F11800 		add	r0, r4, #24
 2338 0222 FFF7FEFF 		bl	mqtt_take_request
 2339              	.LVL259:
 805:../../Middlewares/Third_Party/LwIP/src/apps/mqtt/mqtt.c ****         LWIP_DEBUGF(MQTT_DEBUG_TRACE, ("mqtt_message_received: %s response with id %d\n", mqtt_msg_
 2340              		.loc 1 805 7 is_stmt 1 view .LVU665
 805:../../Middlewares/Third_Party/LwIP/src/apps/mqtt/mqtt.c ****         LWIP_DEBUGF(MQTT_DEBUG_TRACE, ("mqtt_message_received: %s response with id %d\n", mqtt_msg_
 2341              		.loc 1 805 10 is_stmt 0 view .LVU666
 2342 0226 0446     		mov	r4, r0
 2343              	.LVL260:
 805:../../Middlewares/Third_Party/LwIP/src/apps/mqtt/mqtt.c ****         LWIP_DEBUGF(MQTT_DEBUG_TRACE, ("mqtt_message_received: %s response with id %d\n", mqtt_msg_
 2344              		.loc 1 805 10 view .LVU667
 2345 0228 B0B3     		cbz	r0, .L182
 806:../../Middlewares/Third_Party/LwIP/src/apps/mqtt/mqtt.c ****         if (pkt_type == MQTT_MSG_TYPE_SUBACK) {
 2346              		.loc 1 806 131 is_stmt 1 view .LVU668
 807:../../Middlewares/Third_Party/LwIP/src/apps/mqtt/mqtt.c ****           if (length < 3) {
 2347              		.loc 1 807 9 view .LVU669
 807:../../Middlewares/Third_Party/LwIP/src/apps/mqtt/mqtt.c ****           if (length < 3) {
 2348              		.loc 1 807 12 is_stmt 0 view .LVU670
 2349 022a B8F1090F 		cmp	r8, #9
 2350 022e 09D0     		beq	.L192
 814:../../Middlewares/Third_Party/LwIP/src/apps/mqtt/mqtt.c ****           r->cb(r->arg, ERR_OK);
 2351              		.loc 1 814 16 is_stmt 1 view .LVU671
 814:../../Middlewares/Third_Party/LwIP/src/apps/mqtt/mqtt.c ****           r->cb(r->arg, ERR_OK);
 2352              		.loc 1 814 21 is_stmt 0 view .LVU672
 2353 0230 4368     		ldr	r3, [r0, #4]
 814:../../Middlewares/Third_Party/LwIP/src/apps/mqtt/mqtt.c ****           r->cb(r->arg, ERR_OK);
 2354              		.loc 1 814 19 view .LVU673
 2355 0232 13B1     		cbz	r3, .L163
 815:../../Middlewares/Third_Party/LwIP/src/apps/mqtt/mqtt.c ****         }
 2356              		.loc 1 815 11 is_stmt 1 view .LVU674
 2357 0234 0021     		movs	r1, #0
 2358 0236 8068     		ldr	r0, [r0, #8]
 2359              	.LVL261:
 815:../../Middlewares/Third_Party/LwIP/src/apps/mqtt/mqtt.c ****         }
 2360              		.loc 1 815 11 is_stmt 0 view .LVU675
 2361 0238 9847     		blx	r3
 2362              	.LVL262:
 2363              	.L163:
 817:../../Middlewares/Third_Party/LwIP/src/apps/mqtt/mqtt.c ****       } else {
 2364              		.loc 1 817 9 is_stmt 1 view .LVU676
 2365 023a 2046     		mov	r0, r4
 2366 023c FFF7FEFF 		bl	mqtt_delete_request
 2367              	.LVL263:
 2368              	.LBE8:
 674:../../Middlewares/Third_Party/LwIP/src/apps/mqtt/mqtt.c **** 
 2369              		.loc 1 674 28 is_stmt 0 view .LVU677
 2370 0240 0025     		movs	r5, #0
 2371              	.LBB9:
 2372 0242 41E7     		b	.L150
 2373              	.LVL264:
 2374              	.L192:
 808:../../Middlewares/Third_Party/LwIP/src/apps/mqtt/mqtt.c ****             LWIP_DEBUGF(MQTT_DEBUG_WARN, ("mqtt_message_received: To small SUBACK packet\n"));
 2375              		.loc 1 808 11 is_stmt 1 view .LVU678
 808:../../Middlewares/Third_Party/LwIP/src/apps/mqtt/mqtt.c ****             LWIP_DEBUGF(MQTT_DEBUG_WARN, ("mqtt_message_received: To small SUBACK packet\n"));
 2376              		.loc 1 808 14 is_stmt 0 view .LVU679
 2377 0244 022D     		cmp	r5, #2
 2378 0246 29D9     		bls	.L183
ARM GAS  C:\Users\minis\AppData\Local\Temp\ccG6JyYg.s 			page 71


 812:../../Middlewares/Third_Party/LwIP/src/apps/mqtt/mqtt.c ****           }
 2379              		.loc 1 812 13 is_stmt 1 view .LVU680
 2380 0248 B978     		ldrb	r1, [r7, #2]	@ zero_extendqisi2
 2381 024a FFF7FEFF 		bl	mqtt_incomming_suback
 2382              	.LVL265:
 812:../../Middlewares/Third_Party/LwIP/src/apps/mqtt/mqtt.c ****           }
 2383              		.loc 1 812 13 is_stmt 0 view .LVU681
 2384 024e F4E7     		b	.L163
 2385              	.LVL266:
 2386              	.L165:
 812:../../Middlewares/Third_Party/LwIP/src/apps/mqtt/mqtt.c ****           }
 2387              		.loc 1 812 13 view .LVU682
 2388              	.LBE9:
 828:../../Middlewares/Third_Party/LwIP/src/apps/mqtt/mqtt.c **** }
 2389              		.loc 1 828 10 view .LVU683
 2390 0250 4FF48075 		mov	r5, #256
 2391 0254 38E7     		b	.L150
 2392              	.L166:
 674:../../Middlewares/Third_Party/LwIP/src/apps/mqtt/mqtt.c **** 
 2393              		.loc 1 674 28 view .LVU684
 2394 0256 0025     		movs	r5, #0
 2395 0258 36E7     		b	.L150
 2396              	.LVL267:
 2397              	.L169:
 828:../../Middlewares/Third_Party/LwIP/src/apps/mqtt/mqtt.c **** }
 2398              		.loc 1 828 10 view .LVU685
 2399 025a 4FF48075 		mov	r5, #256
 2400              	.LVL268:
 828:../../Middlewares/Third_Party/LwIP/src/apps/mqtt/mqtt.c **** }
 2401              		.loc 1 828 10 view .LVU686
 2402 025e 33E7     		b	.L150
 2403              	.LVL269:
 2404              	.L170:
 828:../../Middlewares/Third_Party/LwIP/src/apps/mqtt/mqtt.c **** }
 2405              		.loc 1 828 10 view .LVU687
 2406 0260 4FF48075 		mov	r5, #256
 2407              	.LVL270:
 828:../../Middlewares/Third_Party/LwIP/src/apps/mqtt/mqtt.c **** }
 2408              		.loc 1 828 10 view .LVU688
 2409 0264 30E7     		b	.L150
 2410              	.LVL271:
 2411              	.L171:
 828:../../Middlewares/Third_Party/LwIP/src/apps/mqtt/mqtt.c **** }
 2412              		.loc 1 828 10 view .LVU689
 2413 0266 4FF48075 		mov	r5, #256
 2414              	.LVL272:
 828:../../Middlewares/Third_Party/LwIP/src/apps/mqtt/mqtt.c **** }
 2415              		.loc 1 828 10 view .LVU690
 2416 026a 2DE7     		b	.L150
 2417              	.LVL273:
 2418              	.L173:
 828:../../Middlewares/Third_Party/LwIP/src/apps/mqtt/mqtt.c **** }
 2419              		.loc 1 828 10 view .LVU691
 2420 026c 4FF48075 		mov	r5, #256
 2421              	.LVL274:
 828:../../Middlewares/Third_Party/LwIP/src/apps/mqtt/mqtt.c **** }
 2422              		.loc 1 828 10 view .LVU692
ARM GAS  C:\Users\minis\AppData\Local\Temp\ccG6JyYg.s 			page 72


 2423 0270 2AE7     		b	.L150
 2424              	.LVL275:
 2425              	.L174:
 828:../../Middlewares/Third_Party/LwIP/src/apps/mqtt/mqtt.c **** }
 2426              		.loc 1 828 10 view .LVU693
 2427 0272 4FF48075 		mov	r5, #256
 2428              	.LVL276:
 828:../../Middlewares/Third_Party/LwIP/src/apps/mqtt/mqtt.c **** }
 2429              		.loc 1 828 10 view .LVU694
 2430 0276 27E7     		b	.L150
 2431              	.LVL277:
 2432              	.L175:
 674:../../Middlewares/Third_Party/LwIP/src/apps/mqtt/mqtt.c **** 
 2433              		.loc 1 674 28 view .LVU695
 2434 0278 0025     		movs	r5, #0
 2435 027a 25E7     		b	.L150
 2436              	.L176:
 828:../../Middlewares/Third_Party/LwIP/src/apps/mqtt/mqtt.c **** }
 2437              		.loc 1 828 10 view .LVU696
 2438 027c 4FF48075 		mov	r5, #256
 2439 0280 22E7     		b	.L150
 2440              	.L177:
 674:../../Middlewares/Third_Party/LwIP/src/apps/mqtt/mqtt.c **** 
 2441              		.loc 1 674 28 view .LVU697
 2442 0282 0025     		movs	r5, #0
 2443 0284 20E7     		b	.L150
 2444              	.LVL278:
 2445              	.L179:
 828:../../Middlewares/Third_Party/LwIP/src/apps/mqtt/mqtt.c **** }
 2446              		.loc 1 828 10 view .LVU698
 2447 0286 4FF48075 		mov	r5, #256
 2448 028a 1DE7     		b	.L150
 2449              	.L180:
 790:../../Middlewares/Third_Party/LwIP/src/apps/mqtt/mqtt.c ****       LWIP_DEBUGF(MQTT_DEBUG_WARN, ("mqtt_message_received: Got message with illegal packet identif
 2450              		.loc 1 790 8 view .LVU699
 2451 028c 4FF48075 		mov	r5, #256
 2452 0290 1AE7     		b	.L150
 2453              	.L181:
 2454 0292 4FF48075 		mov	r5, #256
 2455 0296 17E7     		b	.L150
 2456              	.LVL279:
 2457              	.L182:
 674:../../Middlewares/Third_Party/LwIP/src/apps/mqtt/mqtt.c **** 
 2458              		.loc 1 674 28 view .LVU700
 2459 0298 0025     		movs	r5, #0
 2460 029a 15E7     		b	.L150
 2461              	.L183:
 828:../../Middlewares/Third_Party/LwIP/src/apps/mqtt/mqtt.c **** }
 2462              		.loc 1 828 10 view .LVU701
 2463 029c 4FF48075 		mov	r5, #256
 2464 02a0 12E7     		b	.L150
 2465              	.L194:
 2466 02a2 00BF     		.align	2
 2467              	.L193:
 2468 02a4 00000000 		.word	.LC0
 2469 02a8 00000000 		.word	.LC11
 2470 02ac 5C000000 		.word	.LC2
ARM GAS  C:\Users\minis\AppData\Local\Temp\ccG6JyYg.s 			page 73


 2471 02b0 30000000 		.word	.LC12
 2472 02b4 54000000 		.word	.LC13
 2473              		.cfi_endproc
 2474              	.LFE197:
 2476              		.section	.rodata.mqtt_close.str1.4,"aMS",%progbits,1
 2477              		.align	2
 2478              	.LC14:
 2479 0000 6D717474 		.ascii	"mqtt_close: client != NULL\000"
 2479      5F636C6F 
 2479      73653A20 
 2479      636C6965 
 2479      6E742021 
 2480              		.section	.text.mqtt_close,"ax",%progbits
 2481              		.align	1
 2482              		.syntax unified
 2483              		.thumb
 2484              		.thumb_func
 2486              	mqtt_close:
 2487              	.LVL280:
 2488              	.LFB193:
 538:../../Middlewares/Third_Party/LwIP/src/apps/mqtt/mqtt.c ****   LWIP_ASSERT("mqtt_close: client != NULL", client != NULL);
 2489              		.loc 1 538 1 is_stmt 1 view -0
 2490              		.cfi_startproc
 2491              		@ args = 0, pretend = 0, frame = 0
 2492              		@ frame_needed = 0, uses_anonymous_args = 0
 538:../../Middlewares/Third_Party/LwIP/src/apps/mqtt/mqtt.c ****   LWIP_ASSERT("mqtt_close: client != NULL", client != NULL);
 2493              		.loc 1 538 1 is_stmt 0 view .LVU703
 2494 0000 38B5     		push	{r3, r4, r5, lr}
 2495              	.LCFI25:
 2496              		.cfi_def_cfa_offset 16
 2497              		.cfi_offset 3, -16
 2498              		.cfi_offset 4, -12
 2499              		.cfi_offset 5, -8
 2500              		.cfi_offset 14, -4
 2501 0002 0D46     		mov	r5, r1
 539:../../Middlewares/Third_Party/LwIP/src/apps/mqtt/mqtt.c **** 
 2502              		.loc 1 539 3 is_stmt 1 view .LVU704
 539:../../Middlewares/Third_Party/LwIP/src/apps/mqtt/mqtt.c **** 
 2503              		.loc 1 539 3 view .LVU705
 2504 0004 0446     		mov	r4, r0
 2505 0006 28B3     		cbz	r0, .L201
 2506              	.LVL281:
 2507              	.L196:
 539:../../Middlewares/Third_Party/LwIP/src/apps/mqtt/mqtt.c **** 
 2508              		.loc 1 539 3 view .LVU706
 539:../../Middlewares/Third_Party/LwIP/src/apps/mqtt/mqtt.c **** 
 2509              		.loc 1 539 3 view .LVU707
 542:../../Middlewares/Third_Party/LwIP/src/apps/mqtt/mqtt.c ****     err_t res;
 2510              		.loc 1 542 3 view .LVU708
 542:../../Middlewares/Third_Party/LwIP/src/apps/mqtt/mqtt.c ****     err_t res;
 2511              		.loc 1 542 13 is_stmt 0 view .LVU709
 2512 0008 E068     		ldr	r0, [r4, #12]
 542:../../Middlewares/Third_Party/LwIP/src/apps/mqtt/mqtt.c ****     err_t res;
 2513              		.loc 1 542 6 view .LVU710
 2514 000a 80B1     		cbz	r0, .L197
 2515              	.LBB10:
 543:../../Middlewares/Third_Party/LwIP/src/apps/mqtt/mqtt.c ****     altcp_recv(client->conn, NULL);
ARM GAS  C:\Users\minis\AppData\Local\Temp\ccG6JyYg.s 			page 74


 2516              		.loc 1 543 5 is_stmt 1 view .LVU711
 544:../../Middlewares/Third_Party/LwIP/src/apps/mqtt/mqtt.c ****     altcp_err(client->conn,  NULL);
 2517              		.loc 1 544 5 view .LVU712
 2518 000c 0021     		movs	r1, #0
 2519 000e FFF7FEFF 		bl	tcp_recv
 2520              	.LVL282:
 545:../../Middlewares/Third_Party/LwIP/src/apps/mqtt/mqtt.c ****     altcp_sent(client->conn, NULL);
 2521              		.loc 1 545 5 view .LVU713
 2522 0012 0021     		movs	r1, #0
 2523 0014 E068     		ldr	r0, [r4, #12]
 2524 0016 FFF7FEFF 		bl	tcp_err
 2525              	.LVL283:
 546:../../Middlewares/Third_Party/LwIP/src/apps/mqtt/mqtt.c ****     res = altcp_close(client->conn);
 2526              		.loc 1 546 5 view .LVU714
 2527 001a 0021     		movs	r1, #0
 2528 001c E068     		ldr	r0, [r4, #12]
 2529 001e FFF7FEFF 		bl	tcp_sent
 2530              	.LVL284:
 547:../../Middlewares/Third_Party/LwIP/src/apps/mqtt/mqtt.c ****     if (res != ERR_OK) {
 2531              		.loc 1 547 5 view .LVU715
 547:../../Middlewares/Third_Party/LwIP/src/apps/mqtt/mqtt.c ****     if (res != ERR_OK) {
 2532              		.loc 1 547 11 is_stmt 0 view .LVU716
 2533 0022 E068     		ldr	r0, [r4, #12]
 2534 0024 FFF7FEFF 		bl	tcp_close
 2535              	.LVL285:
 548:../../Middlewares/Third_Party/LwIP/src/apps/mqtt/mqtt.c ****       altcp_abort(client->conn);
 2536              		.loc 1 548 5 is_stmt 1 view .LVU717
 548:../../Middlewares/Third_Party/LwIP/src/apps/mqtt/mqtt.c ****       altcp_abort(client->conn);
 2537              		.loc 1 548 8 is_stmt 0 view .LVU718
 2538 0028 E0B9     		cbnz	r0, .L202
 2539              	.LVL286:
 2540              	.L198:
 550:../../Middlewares/Third_Party/LwIP/src/apps/mqtt/mqtt.c ****     }
 2541              		.loc 1 550 86 is_stmt 1 view .LVU719
 552:../../Middlewares/Third_Party/LwIP/src/apps/mqtt/mqtt.c ****   }
 2542              		.loc 1 552 5 view .LVU720
 552:../../Middlewares/Third_Party/LwIP/src/apps/mqtt/mqtt.c ****   }
 2543              		.loc 1 552 18 is_stmt 0 view .LVU721
 2544 002a 0023     		movs	r3, #0
 2545 002c E360     		str	r3, [r4, #12]
 2546              	.LVL287:
 2547              	.L197:
 552:../../Middlewares/Third_Party/LwIP/src/apps/mqtt/mqtt.c ****   }
 2548              		.loc 1 552 18 view .LVU722
 2549              	.LBE10:
 556:../../Middlewares/Third_Party/LwIP/src/apps/mqtt/mqtt.c ****   /* Stop cyclic timer */
 2550              		.loc 1 556 3 is_stmt 1 view .LVU723
 2551 002e 04F11800 		add	r0, r4, #24
 2552 0032 FFF7FEFF 		bl	mqtt_clear_requests
 2553              	.LVL288:
 558:../../Middlewares/Third_Party/LwIP/src/apps/mqtt/mqtt.c **** 
 2554              		.loc 1 558 3 view .LVU724
 2555 0036 2146     		mov	r1, r4
 2556 0038 0C48     		ldr	r0, .L203
 2557 003a FFF7FEFF 		bl	sys_untimeout
 2558              	.LVL289:
 561:../../Middlewares/Third_Party/LwIP/src/apps/mqtt/mqtt.c **** 
ARM GAS  C:\Users\minis\AppData\Local\Temp\ccG6JyYg.s 			page 75


 2559              		.loc 1 561 3 view .LVU725
 561:../../Middlewares/Third_Party/LwIP/src/apps/mqtt/mqtt.c **** 
 2560              		.loc 1 561 13 is_stmt 0 view .LVU726
 2561 003e A37A     		ldrb	r3, [r4, #10]	@ zero_extendqisi2
 561:../../Middlewares/Third_Party/LwIP/src/apps/mqtt/mqtt.c **** 
 2562              		.loc 1 561 6 view .LVU727
 2563 0040 3BB1     		cbz	r3, .L195
 563:../../Middlewares/Third_Party/LwIP/src/apps/mqtt/mqtt.c ****     if (client->connect_cb != NULL) {
 2564              		.loc 1 563 5 is_stmt 1 view .LVU728
 563:../../Middlewares/Third_Party/LwIP/src/apps/mqtt/mqtt.c ****     if (client->connect_cb != NULL) {
 2565              		.loc 1 563 24 is_stmt 0 view .LVU729
 2566 0042 0023     		movs	r3, #0
 2567 0044 A372     		strb	r3, [r4, #10]
 564:../../Middlewares/Third_Party/LwIP/src/apps/mqtt/mqtt.c ****       client->connect_cb(client, client->connect_arg, reason);
 2568              		.loc 1 564 5 is_stmt 1 view .LVU730
 564:../../Middlewares/Third_Party/LwIP/src/apps/mqtt/mqtt.c ****       client->connect_cb(client, client->connect_arg, reason);
 2569              		.loc 1 564 15 is_stmt 0 view .LVU731
 2570 0046 6369     		ldr	r3, [r4, #20]
 564:../../Middlewares/Third_Party/LwIP/src/apps/mqtt/mqtt.c ****       client->connect_cb(client, client->connect_arg, reason);
 2571              		.loc 1 564 8 view .LVU732
 2572 0048 1BB1     		cbz	r3, .L195
 565:../../Middlewares/Third_Party/LwIP/src/apps/mqtt/mqtt.c ****     }
 2573              		.loc 1 565 7 is_stmt 1 view .LVU733
 2574 004a 2A46     		mov	r2, r5
 2575 004c 2169     		ldr	r1, [r4, #16]
 2576 004e 2046     		mov	r0, r4
 2577 0050 9847     		blx	r3
 2578              	.LVL290:
 2579              	.L195:
 568:../../Middlewares/Third_Party/LwIP/src/apps/mqtt/mqtt.c **** 
 2580              		.loc 1 568 1 is_stmt 0 view .LVU734
 2581 0052 38BD     		pop	{r3, r4, r5, pc}
 2582              	.LVL291:
 2583              	.L201:
 539:../../Middlewares/Third_Party/LwIP/src/apps/mqtt/mqtt.c **** 
 2584              		.loc 1 539 3 is_stmt 1 discriminator 1 view .LVU735
 539:../../Middlewares/Third_Party/LwIP/src/apps/mqtt/mqtt.c **** 
 2585              		.loc 1 539 3 discriminator 1 view .LVU736
 2586 0054 064B     		ldr	r3, .L203+4
 2587 0056 40F21B22 		movw	r2, #539
 2588 005a 0649     		ldr	r1, .L203+8
 2589              	.LVL292:
 539:../../Middlewares/Third_Party/LwIP/src/apps/mqtt/mqtt.c **** 
 2590              		.loc 1 539 3 is_stmt 0 discriminator 1 view .LVU737
 2591 005c 0648     		ldr	r0, .L203+12
 2592              	.LVL293:
 539:../../Middlewares/Third_Party/LwIP/src/apps/mqtt/mqtt.c **** 
 2593              		.loc 1 539 3 discriminator 1 view .LVU738
 2594 005e FFF7FEFF 		bl	printf
 2595              	.LVL294:
 2596 0062 D1E7     		b	.L196
 2597              	.LVL295:
 2598              	.L202:
 2599              	.LBB11:
 549:../../Middlewares/Third_Party/LwIP/src/apps/mqtt/mqtt.c ****       LWIP_DEBUGF(MQTT_DEBUG_TRACE, ("mqtt_close: Close err=%s\n", lwip_strerr(res)));
 2600              		.loc 1 549 7 is_stmt 1 view .LVU739
 2601 0064 E068     		ldr	r0, [r4, #12]
ARM GAS  C:\Users\minis\AppData\Local\Temp\ccG6JyYg.s 			page 76


 2602              	.LVL296:
 549:../../Middlewares/Third_Party/LwIP/src/apps/mqtt/mqtt.c ****       LWIP_DEBUGF(MQTT_DEBUG_TRACE, ("mqtt_close: Close err=%s\n", lwip_strerr(res)));
 2603              		.loc 1 549 7 is_stmt 0 view .LVU740
 2604 0066 FFF7FEFF 		bl	tcp_abort
 2605              	.LVL297:
 2606 006a DEE7     		b	.L198
 2607              	.L204:
 2608              		.align	2
 2609              	.L203:
 2610 006c 00000000 		.word	mqtt_cyclic_timer
 2611 0070 00000000 		.word	.LC0
 2612 0074 00000000 		.word	.LC14
 2613 0078 5C000000 		.word	.LC2
 2614              	.LBE11:
 2615              		.cfi_endproc
 2616              	.LFE193:
 2618              		.section	.rodata.mqtt_tcp_err_cb.str1.4,"aMS",%progbits,1
 2619              		.align	2
 2620              	.LC15:
 2621 0000 6D717474 		.ascii	"mqtt_tcp_err_cb: client != NULL\000"
 2621      5F746370 
 2621      5F657272 
 2621      5F63623A 
 2621      20636C69 
 2622              		.section	.text.mqtt_tcp_err_cb,"ax",%progbits
 2623              		.align	1
 2624              		.syntax unified
 2625              		.thumb
 2626              		.thumb_func
 2628              	mqtt_tcp_err_cb:
 2629              	.LVL298:
 2630              	.LFB201:
1010:../../Middlewares/Third_Party/LwIP/src/apps/mqtt/mqtt.c ****   mqtt_client_t *client = (mqtt_client_t *)arg;
 2631              		.loc 1 1010 1 is_stmt 1 view -0
 2632              		.cfi_startproc
 2633              		@ args = 0, pretend = 0, frame = 0
 2634              		@ frame_needed = 0, uses_anonymous_args = 0
1010:../../Middlewares/Third_Party/LwIP/src/apps/mqtt/mqtt.c ****   mqtt_client_t *client = (mqtt_client_t *)arg;
 2635              		.loc 1 1010 1 is_stmt 0 view .LVU742
 2636 0000 10B5     		push	{r4, lr}
 2637              	.LCFI26:
 2638              		.cfi_def_cfa_offset 8
 2639              		.cfi_offset 4, -8
 2640              		.cfi_offset 14, -4
1011:../../Middlewares/Third_Party/LwIP/src/apps/mqtt/mqtt.c ****   LWIP_UNUSED_ARG(err); /* only used for debug output */
 2641              		.loc 1 1011 3 is_stmt 1 view .LVU743
 2642              	.LVL299:
1012:../../Middlewares/Third_Party/LwIP/src/apps/mqtt/mqtt.c ****   LWIP_DEBUGF(MQTT_DEBUG_TRACE, ("mqtt_tcp_err_cb: TCP error callback: error %d, arg: %p\n", err, a
 2643              		.loc 1 1012 3 view .LVU744
1013:../../Middlewares/Third_Party/LwIP/src/apps/mqtt/mqtt.c ****   LWIP_ASSERT("mqtt_tcp_err_cb: client != NULL", client != NULL);
 2644              		.loc 1 1013 104 view .LVU745
1014:../../Middlewares/Third_Party/LwIP/src/apps/mqtt/mqtt.c ****   /* Set conn to null before calling close as pcb is already deallocated*/
 2645              		.loc 1 1014 3 view .LVU746
1014:../../Middlewares/Third_Party/LwIP/src/apps/mqtt/mqtt.c ****   /* Set conn to null before calling close as pcb is already deallocated*/
 2646              		.loc 1 1014 3 view .LVU747
 2647 0002 0446     		mov	r4, r0
 2648 0004 38B1     		cbz	r0, .L208
ARM GAS  C:\Users\minis\AppData\Local\Temp\ccG6JyYg.s 			page 77


 2649              	.LVL300:
 2650              	.L206:
1014:../../Middlewares/Third_Party/LwIP/src/apps/mqtt/mqtt.c ****   /* Set conn to null before calling close as pcb is already deallocated*/
 2651              		.loc 1 1014 3 view .LVU748
1014:../../Middlewares/Third_Party/LwIP/src/apps/mqtt/mqtt.c ****   /* Set conn to null before calling close as pcb is already deallocated*/
 2652              		.loc 1 1014 3 view .LVU749
1016:../../Middlewares/Third_Party/LwIP/src/apps/mqtt/mqtt.c ****   mqtt_close(client, MQTT_CONNECT_DISCONNECTED);
 2653              		.loc 1 1016 3 view .LVU750
1016:../../Middlewares/Third_Party/LwIP/src/apps/mqtt/mqtt.c ****   mqtt_close(client, MQTT_CONNECT_DISCONNECTED);
 2654              		.loc 1 1016 16 is_stmt 0 view .LVU751
 2655 0006 0023     		movs	r3, #0
 2656 0008 E360     		str	r3, [r4, #12]
1017:../../Middlewares/Third_Party/LwIP/src/apps/mqtt/mqtt.c **** }
 2657              		.loc 1 1017 3 is_stmt 1 view .LVU752
 2658 000a 4FF48071 		mov	r1, #256
 2659 000e 2046     		mov	r0, r4
 2660 0010 FFF7FEFF 		bl	mqtt_close
 2661              	.LVL301:
1018:../../Middlewares/Third_Party/LwIP/src/apps/mqtt/mqtt.c **** 
 2662              		.loc 1 1018 1 is_stmt 0 view .LVU753
 2663 0014 10BD     		pop	{r4, pc}
 2664              	.LVL302:
 2665              	.L208:
1014:../../Middlewares/Third_Party/LwIP/src/apps/mqtt/mqtt.c ****   /* Set conn to null before calling close as pcb is already deallocated*/
 2666              		.loc 1 1014 3 is_stmt 1 discriminator 1 view .LVU754
1014:../../Middlewares/Third_Party/LwIP/src/apps/mqtt/mqtt.c ****   /* Set conn to null before calling close as pcb is already deallocated*/
 2667              		.loc 1 1014 3 discriminator 1 view .LVU755
 2668 0016 044B     		ldr	r3, .L209
 2669 0018 40F2F632 		movw	r2, #1014
 2670 001c 0349     		ldr	r1, .L209+4
 2671              	.LVL303:
1014:../../Middlewares/Third_Party/LwIP/src/apps/mqtt/mqtt.c ****   /* Set conn to null before calling close as pcb is already deallocated*/
 2672              		.loc 1 1014 3 is_stmt 0 discriminator 1 view .LVU756
 2673 001e 0448     		ldr	r0, .L209+8
 2674              	.LVL304:
1014:../../Middlewares/Third_Party/LwIP/src/apps/mqtt/mqtt.c ****   /* Set conn to null before calling close as pcb is already deallocated*/
 2675              		.loc 1 1014 3 discriminator 1 view .LVU757
 2676 0020 FFF7FEFF 		bl	printf
 2677              	.LVL305:
 2678 0024 EFE7     		b	.L206
 2679              	.L210:
 2680 0026 00BF     		.align	2
 2681              	.L209:
 2682 0028 00000000 		.word	.LC0
 2683 002c 00000000 		.word	.LC15
 2684 0030 5C000000 		.word	.LC2
 2685              		.cfi_endproc
 2686              	.LFE201:
 2688              		.section	.rodata.mqtt_cyclic_timer.str1.4,"aMS",%progbits,1
 2689              		.align	2
 2690              	.LC16:
 2691 0000 6D717474 		.ascii	"mqtt_cyclic_timer: client != NULL\000"
 2691      5F637963 
 2691      6C69635F 
 2691      74696D65 
 2691      723A2063 
 2692              		.section	.text.mqtt_cyclic_timer,"ax",%progbits
ARM GAS  C:\Users\minis\AppData\Local\Temp\ccG6JyYg.s 			page 78


 2693              		.align	1
 2694              		.syntax unified
 2695              		.thumb
 2696              		.thumb_func
 2698              	mqtt_cyclic_timer:
 2699              	.LVL306:
 2700              	.LFB194:
 577:../../Middlewares/Third_Party/LwIP/src/apps/mqtt/mqtt.c ****   u8_t restart_timer = 1;
 2701              		.loc 1 577 1 is_stmt 1 view -0
 2702              		.cfi_startproc
 2703              		@ args = 0, pretend = 0, frame = 0
 2704              		@ frame_needed = 0, uses_anonymous_args = 0
 577:../../Middlewares/Third_Party/LwIP/src/apps/mqtt/mqtt.c ****   u8_t restart_timer = 1;
 2705              		.loc 1 577 1 is_stmt 0 view .LVU759
 2706 0000 F0B5     		push	{r4, r5, r6, r7, lr}
 2707              	.LCFI27:
 2708              		.cfi_def_cfa_offset 20
 2709              		.cfi_offset 4, -20
 2710              		.cfi_offset 5, -16
 2711              		.cfi_offset 6, -12
 2712              		.cfi_offset 7, -8
 2713              		.cfi_offset 14, -4
 2714 0002 83B0     		sub	sp, sp, #12
 2715              	.LCFI28:
 2716              		.cfi_def_cfa_offset 32
 578:../../Middlewares/Third_Party/LwIP/src/apps/mqtt/mqtt.c ****   mqtt_client_t *client = (mqtt_client_t *)arg;
 2717              		.loc 1 578 3 is_stmt 1 view .LVU760
 2718              	.LVL307:
 579:../../Middlewares/Third_Party/LwIP/src/apps/mqtt/mqtt.c ****   LWIP_ASSERT("mqtt_cyclic_timer: client != NULL", client != NULL);
 2719              		.loc 1 579 3 view .LVU761
 580:../../Middlewares/Third_Party/LwIP/src/apps/mqtt/mqtt.c **** 
 2720              		.loc 1 580 3 view .LVU762
 580:../../Middlewares/Third_Party/LwIP/src/apps/mqtt/mqtt.c **** 
 2721              		.loc 1 580 3 view .LVU763
 2722 0004 0446     		mov	r4, r0
 2723 0006 30B1     		cbz	r0, .L221
 2724              	.LVL308:
 2725              	.L212:
 580:../../Middlewares/Third_Party/LwIP/src/apps/mqtt/mqtt.c **** 
 2726              		.loc 1 580 3 view .LVU764
 580:../../Middlewares/Third_Party/LwIP/src/apps/mqtt/mqtt.c **** 
 2727              		.loc 1 580 3 view .LVU765
 582:../../Middlewares/Third_Party/LwIP/src/apps/mqtt/mqtt.c ****     client->cyclic_tick++;
 2728              		.loc 1 582 3 view .LVU766
 582:../../Middlewares/Third_Party/LwIP/src/apps/mqtt/mqtt.c ****     client->cyclic_tick++;
 2729              		.loc 1 582 13 is_stmt 0 view .LVU767
 2730 0008 A37A     		ldrb	r3, [r4, #10]	@ zero_extendqisi2
 582:../../Middlewares/Third_Party/LwIP/src/apps/mqtt/mqtt.c ****     client->cyclic_tick++;
 2731              		.loc 1 582 6 view .LVU768
 2732 000a 022B     		cmp	r3, #2
 2733 000c 0BD0     		beq	.L222
 590:../../Middlewares/Third_Party/LwIP/src/apps/mqtt/mqtt.c ****     /* Handle timeout for pending requests */
 2734              		.loc 1 590 10 is_stmt 1 view .LVU769
 590:../../Middlewares/Third_Party/LwIP/src/apps/mqtt/mqtt.c ****     /* Handle timeout for pending requests */
 2735              		.loc 1 590 13 is_stmt 0 view .LVU770
 2736 000e 032B     		cmp	r3, #3
 2737 0010 1ED0     		beq	.L223
ARM GAS  C:\Users\minis\AppData\Local\Temp\ccG6JyYg.s 			page 79


 2738              	.LVL309:
 2739              	.L211:
 623:../../Middlewares/Third_Party/LwIP/src/apps/mqtt/mqtt.c **** 
 2740              		.loc 1 623 1 view .LVU771
 2741 0012 03B0     		add	sp, sp, #12
 2742              	.LCFI29:
 2743              		.cfi_remember_state
 2744              		.cfi_def_cfa_offset 20
 2745              		@ sp needed
 2746 0014 F0BD     		pop	{r4, r5, r6, r7, pc}
 2747              	.LVL310:
 2748              	.L221:
 2749              	.LCFI30:
 2750              		.cfi_restore_state
 580:../../Middlewares/Third_Party/LwIP/src/apps/mqtt/mqtt.c **** 
 2751              		.loc 1 580 3 is_stmt 1 discriminator 1 view .LVU772
 580:../../Middlewares/Third_Party/LwIP/src/apps/mqtt/mqtt.c **** 
 2752              		.loc 1 580 3 discriminator 1 view .LVU773
 2753 0016 2A4B     		ldr	r3, .L227
 2754 0018 4FF41172 		mov	r2, #580
 2755 001c 2949     		ldr	r1, .L227+4
 2756 001e 2A48     		ldr	r0, .L227+8
 2757              	.LVL311:
 580:../../Middlewares/Third_Party/LwIP/src/apps/mqtt/mqtt.c **** 
 2758              		.loc 1 580 3 is_stmt 0 discriminator 1 view .LVU774
 2759 0020 FFF7FEFF 		bl	printf
 2760              	.LVL312:
 2761 0024 F0E7     		b	.L212
 2762              	.L222:
 583:../../Middlewares/Third_Party/LwIP/src/apps/mqtt/mqtt.c ****     if ((client->cyclic_tick * MQTT_CYCLIC_TIMER_INTERVAL) >= MQTT_CONNECT_TIMOUT) {
 2763              		.loc 1 583 5 is_stmt 1 view .LVU775
 583:../../Middlewares/Third_Party/LwIP/src/apps/mqtt/mqtt.c ****     if ((client->cyclic_tick * MQTT_CYCLIC_TIMER_INTERVAL) >= MQTT_CONNECT_TIMOUT) {
 2764              		.loc 1 583 11 is_stmt 0 view .LVU776
 2765 0026 2388     		ldrh	r3, [r4]
 583:../../Middlewares/Third_Party/LwIP/src/apps/mqtt/mqtt.c ****     if ((client->cyclic_tick * MQTT_CYCLIC_TIMER_INTERVAL) >= MQTT_CONNECT_TIMOUT) {
 2766              		.loc 1 583 24 view .LVU777
 2767 0028 0133     		adds	r3, r3, #1
 2768 002a 9BB2     		uxth	r3, r3
 2769 002c 2380     		strh	r3, [r4]	@ movhi
 584:../../Middlewares/Third_Party/LwIP/src/apps/mqtt/mqtt.c ****       LWIP_DEBUGF(MQTT_DEBUG_TRACE, ("mqtt_cyclic_timer: CONNECT attempt to server timed out\n"));
 2770              		.loc 1 584 5 is_stmt 1 view .LVU778
 584:../../Middlewares/Third_Party/LwIP/src/apps/mqtt/mqtt.c ****       LWIP_DEBUGF(MQTT_DEBUG_TRACE, ("mqtt_cyclic_timer: CONNECT attempt to server timed out\n"));
 2771              		.loc 1 584 30 is_stmt 0 view .LVU779
 2772 002e 03EB8303 		add	r3, r3, r3, lsl #2
 584:../../Middlewares/Third_Party/LwIP/src/apps/mqtt/mqtt.c ****       LWIP_DEBUGF(MQTT_DEBUG_TRACE, ("mqtt_cyclic_timer: CONNECT attempt to server timed out\n"));
 2773              		.loc 1 584 8 view .LVU780
 2774 0032 632B     		cmp	r3, #99
 2775 0034 06DC     		bgt	.L224
 2776              	.LVL313:
 2777              	.L214:
 621:../../Middlewares/Third_Party/LwIP/src/apps/mqtt/mqtt.c ****   }
 2778              		.loc 1 621 5 is_stmt 1 view .LVU781
 2779 0036 2246     		mov	r2, r4
 2780 0038 2449     		ldr	r1, .L227+12
 2781 003a 41F28830 		movw	r0, #5000
 2782 003e FFF7FEFF 		bl	sys_timeout
 2783              	.LVL314:
ARM GAS  C:\Users\minis\AppData\Local\Temp\ccG6JyYg.s 			page 80


 623:../../Middlewares/Third_Party/LwIP/src/apps/mqtt/mqtt.c **** 
 2784              		.loc 1 623 1 is_stmt 0 view .LVU782
 2785 0042 E6E7     		b	.L211
 2786              	.LVL315:
 2787              	.L224:
 585:../../Middlewares/Third_Party/LwIP/src/apps/mqtt/mqtt.c ****       /* Disconnect TCP */
 2788              		.loc 1 585 98 is_stmt 1 view .LVU783
 587:../../Middlewares/Third_Party/LwIP/src/apps/mqtt/mqtt.c ****       restart_timer = 0;
 2789              		.loc 1 587 7 view .LVU784
 2790 0044 40F20111 		movw	r1, #257
 2791 0048 2046     		mov	r0, r4
 2792 004a FFF7FEFF 		bl	mqtt_close
 2793              	.LVL316:
 588:../../Middlewares/Third_Party/LwIP/src/apps/mqtt/mqtt.c ****     }
 2794              		.loc 1 588 7 view .LVU785
 620:../../Middlewares/Third_Party/LwIP/src/apps/mqtt/mqtt.c ****     sys_timeout(MQTT_CYCLIC_TIMER_INTERVAL * 1000, mqtt_cyclic_timer, arg);
 2795              		.loc 1 620 3 view .LVU786
 2796 004e E0E7     		b	.L211
 2797              	.LVL317:
 2798              	.L223:
 592:../../Middlewares/Third_Party/LwIP/src/apps/mqtt/mqtt.c **** 
 2799              		.loc 1 592 5 view .LVU787
 2800 0050 0521     		movs	r1, #5
 2801 0052 04F11800 		add	r0, r4, #24
 2802 0056 FFF7FEFF 		bl	mqtt_request_time_elapsed
 2803              	.LVL318:
 595:../../Middlewares/Third_Party/LwIP/src/apps/mqtt/mqtt.c **** 
 2804              		.loc 1 595 5 view .LVU788
 595:../../Middlewares/Third_Party/LwIP/src/apps/mqtt/mqtt.c **** 
 2805              		.loc 1 595 15 is_stmt 0 view .LVU789
 2806 005a 6288     		ldrh	r2, [r4, #2]
 595:../../Middlewares/Third_Party/LwIP/src/apps/mqtt/mqtt.c **** 
 2807              		.loc 1 595 8 view .LVU790
 2808 005c 002A     		cmp	r2, #0
 2809 005e EAD0     		beq	.L214
 597:../../Middlewares/Third_Party/LwIP/src/apps/mqtt/mqtt.c ****       /* If reception from server has been idle for 1.5*keep_alive time, server is considered unres
 2810              		.loc 1 597 7 is_stmt 1 view .LVU791
 597:../../Middlewares/Third_Party/LwIP/src/apps/mqtt/mqtt.c ****       /* If reception from server has been idle for 1.5*keep_alive time, server is considered unres
 2811              		.loc 1 597 13 is_stmt 0 view .LVU792
 2812 0060 A388     		ldrh	r3, [r4, #4]
 597:../../Middlewares/Third_Party/LwIP/src/apps/mqtt/mqtt.c ****       /* If reception from server has been idle for 1.5*keep_alive time, server is considered unres
 2813              		.loc 1 597 30 view .LVU793
 2814 0062 0133     		adds	r3, r3, #1
 2815 0064 9BB2     		uxth	r3, r3
 2816 0066 A380     		strh	r3, [r4, #4]	@ movhi
 599:../../Middlewares/Third_Party/LwIP/src/apps/mqtt/mqtt.c ****         LWIP_DEBUGF(MQTT_DEBUG_WARN, ("mqtt_cyclic_timer: Server incoming keep-alive timeout\n"));
 2817              		.loc 1 599 7 is_stmt 1 view .LVU794
 599:../../Middlewares/Third_Party/LwIP/src/apps/mqtt/mqtt.c ****         LWIP_DEBUGF(MQTT_DEBUG_WARN, ("mqtt_cyclic_timer: Server incoming keep-alive timeout\n"));
 2818              		.loc 1 599 36 is_stmt 0 view .LVU795
 2819 0068 03EB8303 		add	r3, r3, r3, lsl #2
 599:../../Middlewares/Third_Party/LwIP/src/apps/mqtt/mqtt.c ****         LWIP_DEBUGF(MQTT_DEBUG_WARN, ("mqtt_cyclic_timer: Server incoming keep-alive timeout\n"));
 2820              		.loc 1 599 88 view .LVU796
 2821 006c 02EB5202 		add	r2, r2, r2, lsr #1
 599:../../Middlewares/Third_Party/LwIP/src/apps/mqtt/mqtt.c ****         LWIP_DEBUGF(MQTT_DEBUG_WARN, ("mqtt_cyclic_timer: Server incoming keep-alive timeout\n"));
 2822              		.loc 1 599 10 view .LVU797
 2823 0070 9342     		cmp	r3, r2
 2824 0072 0BDC     		bgt	.L225
ARM GAS  C:\Users\minis\AppData\Local\Temp\ccG6JyYg.s 			page 81


 578:../../Middlewares/Third_Party/LwIP/src/apps/mqtt/mqtt.c ****   mqtt_client_t *client = (mqtt_client_t *)arg;
 2825              		.loc 1 578 8 view .LVU798
 2826 0074 0125     		movs	r5, #1
 2827              	.LVL319:
 2828              	.L216:
 606:../../Middlewares/Third_Party/LwIP/src/apps/mqtt/mqtt.c ****         LWIP_DEBUGF(MQTT_DEBUG_TRACE, ("mqtt_cyclic_timer: Sending keep-alive message to server\n")
 2829              		.loc 1 606 7 is_stmt 1 view .LVU799
 606:../../Middlewares/Third_Party/LwIP/src/apps/mqtt/mqtt.c ****         LWIP_DEBUGF(MQTT_DEBUG_TRACE, ("mqtt_cyclic_timer: Sending keep-alive message to server\n")
 2830              		.loc 1 606 18 is_stmt 0 view .LVU800
 2831 0076 2388     		ldrh	r3, [r4]
 606:../../Middlewares/Third_Party/LwIP/src/apps/mqtt/mqtt.c ****         LWIP_DEBUGF(MQTT_DEBUG_TRACE, ("mqtt_cyclic_timer: Sending keep-alive message to server\n")
 2832              		.loc 1 606 32 view .LVU801
 2833 0078 03EB8301 		add	r1, r3, r3, lsl #2
 606:../../Middlewares/Third_Party/LwIP/src/apps/mqtt/mqtt.c ****         LWIP_DEBUGF(MQTT_DEBUG_TRACE, ("mqtt_cyclic_timer: Sending keep-alive message to server\n")
 2834              		.loc 1 606 71 view .LVU802
 2835 007c 6288     		ldrh	r2, [r4, #2]
 606:../../Middlewares/Third_Party/LwIP/src/apps/mqtt/mqtt.c ****         LWIP_DEBUGF(MQTT_DEBUG_TRACE, ("mqtt_cyclic_timer: Sending keep-alive message to server\n")
 2836              		.loc 1 606 10 view .LVU803
 2837 007e 9142     		cmp	r1, r2
 2838 0080 0BDA     		bge	.L226
 613:../../Middlewares/Third_Party/LwIP/src/apps/mqtt/mqtt.c ****       }
 2839              		.loc 1 613 9 is_stmt 1 view .LVU804
 613:../../Middlewares/Third_Party/LwIP/src/apps/mqtt/mqtt.c ****       }
 2840              		.loc 1 613 28 is_stmt 0 view .LVU805
 2841 0082 0133     		adds	r3, r3, #1
 2842 0084 2380     		strh	r3, [r4]	@ movhi
 2843              	.L218:
 620:../../Middlewares/Third_Party/LwIP/src/apps/mqtt/mqtt.c ****     sys_timeout(MQTT_CYCLIC_TIMER_INTERVAL * 1000, mqtt_cyclic_timer, arg);
 2844              		.loc 1 620 3 is_stmt 1 view .LVU806
 620:../../Middlewares/Third_Party/LwIP/src/apps/mqtt/mqtt.c ****     sys_timeout(MQTT_CYCLIC_TIMER_INTERVAL * 1000, mqtt_cyclic_timer, arg);
 2845              		.loc 1 620 6 is_stmt 0 view .LVU807
 2846 0086 002D     		cmp	r5, #0
 2847 0088 C3D0     		beq	.L211
 2848 008a D4E7     		b	.L214
 2849              	.LVL320:
 2850              	.L225:
 600:../../Middlewares/Third_Party/LwIP/src/apps/mqtt/mqtt.c ****         mqtt_close(client, MQTT_CONNECT_TIMEOUT);
 2851              		.loc 1 600 98 is_stmt 1 view .LVU808
 601:../../Middlewares/Third_Party/LwIP/src/apps/mqtt/mqtt.c ****         restart_timer = 0;
 2852              		.loc 1 601 9 view .LVU809
 2853 008c 40F20111 		movw	r1, #257
 2854 0090 2046     		mov	r0, r4
 2855 0092 FFF7FEFF 		bl	mqtt_close
 2856              	.LVL321:
 602:../../Middlewares/Third_Party/LwIP/src/apps/mqtt/mqtt.c ****       }
 2857              		.loc 1 602 9 view .LVU810
 602:../../Middlewares/Third_Party/LwIP/src/apps/mqtt/mqtt.c ****       }
 2858              		.loc 1 602 23 is_stmt 0 view .LVU811
 2859 0096 0025     		movs	r5, #0
 2860 0098 EDE7     		b	.L216
 2861              	.LVL322:
 2862              	.L226:
 607:../../Middlewares/Third_Party/LwIP/src/apps/mqtt/mqtt.c ****         if (mqtt_output_check_space(&client->output, 0) != 0) {
 2863              		.loc 1 607 101 is_stmt 1 view .LVU812
 608:../../Middlewares/Third_Party/LwIP/src/apps/mqtt/mqtt.c ****           mqtt_output_append_fixed_header(&client->output, MQTT_MSG_TYPE_PINGREQ, 0, 0, 0, 0);
 2864              		.loc 1 608 9 view .LVU813
 608:../../Middlewares/Third_Party/LwIP/src/apps/mqtt/mqtt.c ****           mqtt_output_append_fixed_header(&client->output, MQTT_MSG_TYPE_PINGREQ, 0, 0, 0, 0);
ARM GAS  C:\Users\minis\AppData\Local\Temp\ccG6JyYg.s 			page 82


 2865              		.loc 1 608 13 is_stmt 0 view .LVU814
 2866 009a 04F1EC06 		add	r6, r4, #236
 2867 009e 0021     		movs	r1, #0
 2868 00a0 3046     		mov	r0, r6
 2869 00a2 FFF7FEFF 		bl	mqtt_output_check_space
 2870              	.LVL323:
 608:../../Middlewares/Third_Party/LwIP/src/apps/mqtt/mqtt.c ****           mqtt_output_append_fixed_header(&client->output, MQTT_MSG_TYPE_PINGREQ, 0, 0, 0, 0);
 2871              		.loc 1 608 12 discriminator 1 view .LVU815
 2872 00a6 0028     		cmp	r0, #0
 2873 00a8 EDD0     		beq	.L218
 609:../../Middlewares/Third_Party/LwIP/src/apps/mqtt/mqtt.c ****           client->cyclic_tick = 0;
 2874              		.loc 1 609 11 is_stmt 1 view .LVU816
 2875 00aa 0027     		movs	r7, #0
 2876 00ac 0197     		str	r7, [sp, #4]
 2877 00ae 0097     		str	r7, [sp]
 2878 00b0 3B46     		mov	r3, r7
 2879 00b2 3A46     		mov	r2, r7
 2880 00b4 0C21     		movs	r1, #12
 2881 00b6 3046     		mov	r0, r6
 2882 00b8 FFF7FEFF 		bl	mqtt_output_append_fixed_header
 2883              	.LVL324:
 610:../../Middlewares/Third_Party/LwIP/src/apps/mqtt/mqtt.c ****         }
 2884              		.loc 1 610 11 view .LVU817
 610:../../Middlewares/Third_Party/LwIP/src/apps/mqtt/mqtt.c ****         }
 2885              		.loc 1 610 31 is_stmt 0 view .LVU818
 2886 00bc 2780     		strh	r7, [r4]	@ movhi
 2887 00be E2E7     		b	.L218
 2888              	.L228:
 2889              		.align	2
 2890              	.L227:
 2891 00c0 00000000 		.word	.LC0
 2892 00c4 00000000 		.word	.LC16
 2893 00c8 5C000000 		.word	.LC2
 2894 00cc 00000000 		.word	mqtt_cyclic_timer
 2895              		.cfi_endproc
 2896              	.LFE194:
 2898              		.section	.text.mqtt_tcp_connect_cb,"ax",%progbits
 2899              		.align	1
 2900              		.syntax unified
 2901              		.thumb
 2902              		.thumb_func
 2904              	mqtt_tcp_connect_cb:
 2905              	.LVL325:
 2906              	.LFB203:
1036:../../Middlewares/Third_Party/LwIP/src/apps/mqtt/mqtt.c **** 
1037:../../Middlewares/Third_Party/LwIP/src/apps/mqtt/mqtt.c **** /**
1038:../../Middlewares/Third_Party/LwIP/src/apps/mqtt/mqtt.c ****  * TCP connect callback function. @see tcp_connected_fn
1039:../../Middlewares/Third_Party/LwIP/src/apps/mqtt/mqtt.c ****  * @param arg MQTT client
1040:../../Middlewares/Third_Party/LwIP/src/apps/mqtt/mqtt.c ****  * @param err Always ERR_OK, mqtt_tcp_err_cb is called in case of error
1041:../../Middlewares/Third_Party/LwIP/src/apps/mqtt/mqtt.c ****  * @return ERR_OK
1042:../../Middlewares/Third_Party/LwIP/src/apps/mqtt/mqtt.c ****  */
1043:../../Middlewares/Third_Party/LwIP/src/apps/mqtt/mqtt.c **** static err_t
1044:../../Middlewares/Third_Party/LwIP/src/apps/mqtt/mqtt.c **** mqtt_tcp_connect_cb(void *arg, struct altcp_pcb *tpcb, err_t err)
1045:../../Middlewares/Third_Party/LwIP/src/apps/mqtt/mqtt.c **** {
 2907              		.loc 1 1045 1 is_stmt 1 view -0
 2908              		.cfi_startproc
 2909              		@ args = 0, pretend = 0, frame = 0
ARM GAS  C:\Users\minis\AppData\Local\Temp\ccG6JyYg.s 			page 83


 2910              		@ frame_needed = 0, uses_anonymous_args = 0
 2911              		.loc 1 1045 1 is_stmt 0 view .LVU820
 2912 0000 F8B5     		push	{r3, r4, r5, r6, r7, lr}
 2913              	.LCFI31:
 2914              		.cfi_def_cfa_offset 24
 2915              		.cfi_offset 3, -24
 2916              		.cfi_offset 4, -20
 2917              		.cfi_offset 5, -16
 2918              		.cfi_offset 6, -12
 2919              		.cfi_offset 7, -8
 2920              		.cfi_offset 14, -4
1046:../../Middlewares/Third_Party/LwIP/src/apps/mqtt/mqtt.c ****   mqtt_client_t *client = (mqtt_client_t *)arg;
 2921              		.loc 1 1046 3 is_stmt 1 view .LVU821
 2922              	.LVL326:
1047:../../Middlewares/Third_Party/LwIP/src/apps/mqtt/mqtt.c **** 
1048:../../Middlewares/Third_Party/LwIP/src/apps/mqtt/mqtt.c ****   if (err != ERR_OK) {
 2923              		.loc 1 1048 3 view .LVU822
 2924              		.loc 1 1048 6 is_stmt 0 view .LVU823
 2925 0002 1646     		mov	r6, r2
 2926 0004 0AB1     		cbz	r2, .L232
 2927              	.LVL327:
 2928              	.L230:
1049:../../Middlewares/Third_Party/LwIP/src/apps/mqtt/mqtt.c ****     LWIP_DEBUGF(MQTT_DEBUG_WARN, ("mqtt_tcp_connect_cb: TCP connect error %d\n", err));
1050:../../Middlewares/Third_Party/LwIP/src/apps/mqtt/mqtt.c ****     return err;
1051:../../Middlewares/Third_Party/LwIP/src/apps/mqtt/mqtt.c ****   }
1052:../../Middlewares/Third_Party/LwIP/src/apps/mqtt/mqtt.c **** 
1053:../../Middlewares/Third_Party/LwIP/src/apps/mqtt/mqtt.c ****   /* Initiate receiver state */
1054:../../Middlewares/Third_Party/LwIP/src/apps/mqtt/mqtt.c ****   client->msg_idx = 0;
1055:../../Middlewares/Third_Party/LwIP/src/apps/mqtt/mqtt.c **** 
1056:../../Middlewares/Third_Party/LwIP/src/apps/mqtt/mqtt.c ****   /* Setup TCP callbacks */
1057:../../Middlewares/Third_Party/LwIP/src/apps/mqtt/mqtt.c ****   altcp_recv(tpcb, mqtt_tcp_recv_cb);
1058:../../Middlewares/Third_Party/LwIP/src/apps/mqtt/mqtt.c ****   altcp_sent(tpcb, mqtt_tcp_sent_cb);
1059:../../Middlewares/Third_Party/LwIP/src/apps/mqtt/mqtt.c ****   altcp_poll(tpcb, mqtt_tcp_poll_cb, 2);
1060:../../Middlewares/Third_Party/LwIP/src/apps/mqtt/mqtt.c **** 
1061:../../Middlewares/Third_Party/LwIP/src/apps/mqtt/mqtt.c ****   LWIP_DEBUGF(MQTT_DEBUG_TRACE, ("mqtt_tcp_connect_cb: TCP connection established to server\n"));
1062:../../Middlewares/Third_Party/LwIP/src/apps/mqtt/mqtt.c ****   /* Enter MQTT connect state */
1063:../../Middlewares/Third_Party/LwIP/src/apps/mqtt/mqtt.c ****   client->conn_state = MQTT_CONNECTING;
1064:../../Middlewares/Third_Party/LwIP/src/apps/mqtt/mqtt.c **** 
1065:../../Middlewares/Third_Party/LwIP/src/apps/mqtt/mqtt.c ****   /* Start cyclic timer */
1066:../../Middlewares/Third_Party/LwIP/src/apps/mqtt/mqtt.c ****   sys_timeout(MQTT_CYCLIC_TIMER_INTERVAL * 1000, mqtt_cyclic_timer, client);
1067:../../Middlewares/Third_Party/LwIP/src/apps/mqtt/mqtt.c ****   client->cyclic_tick = 0;
1068:../../Middlewares/Third_Party/LwIP/src/apps/mqtt/mqtt.c **** 
1069:../../Middlewares/Third_Party/LwIP/src/apps/mqtt/mqtt.c ****   /* Start transmission from output queue, connect message is the first one out*/
1070:../../Middlewares/Third_Party/LwIP/src/apps/mqtt/mqtt.c ****   mqtt_output_send(&client->output, client->conn);
1071:../../Middlewares/Third_Party/LwIP/src/apps/mqtt/mqtt.c **** 
1072:../../Middlewares/Third_Party/LwIP/src/apps/mqtt/mqtt.c ****   return ERR_OK;
1073:../../Middlewares/Third_Party/LwIP/src/apps/mqtt/mqtt.c **** }
 2929              		.loc 1 1073 1 view .LVU824
 2930 0006 3046     		mov	r0, r6
 2931 0008 F8BD     		pop	{r3, r4, r5, r6, r7, pc}
 2932              	.LVL328:
 2933              	.L232:
 2934              		.loc 1 1073 1 view .LVU825
 2935 000a 0446     		mov	r4, r0
 2936 000c 0D46     		mov	r5, r1
1054:../../Middlewares/Third_Party/LwIP/src/apps/mqtt/mqtt.c **** 
 2937              		.loc 1 1054 3 is_stmt 1 view .LVU826
ARM GAS  C:\Users\minis\AppData\Local\Temp\ccG6JyYg.s 			page 84


1054:../../Middlewares/Third_Party/LwIP/src/apps/mqtt/mqtt.c **** 
 2938              		.loc 1 1054 19 is_stmt 0 view .LVU827
 2939 000e 0027     		movs	r7, #0
 2940 0010 8766     		str	r7, [r0, #104]
1057:../../Middlewares/Third_Party/LwIP/src/apps/mqtt/mqtt.c ****   altcp_sent(tpcb, mqtt_tcp_sent_cb);
 2941              		.loc 1 1057 3 is_stmt 1 view .LVU828
 2942 0012 0E49     		ldr	r1, .L233
 2943              	.LVL329:
1057:../../Middlewares/Third_Party/LwIP/src/apps/mqtt/mqtt.c ****   altcp_sent(tpcb, mqtt_tcp_sent_cb);
 2944              		.loc 1 1057 3 is_stmt 0 view .LVU829
 2945 0014 2846     		mov	r0, r5
 2946              	.LVL330:
1057:../../Middlewares/Third_Party/LwIP/src/apps/mqtt/mqtt.c ****   altcp_sent(tpcb, mqtt_tcp_sent_cb);
 2947              		.loc 1 1057 3 view .LVU830
 2948 0016 FFF7FEFF 		bl	tcp_recv
 2949              	.LVL331:
1058:../../Middlewares/Third_Party/LwIP/src/apps/mqtt/mqtt.c ****   altcp_poll(tpcb, mqtt_tcp_poll_cb, 2);
 2950              		.loc 1 1058 3 is_stmt 1 view .LVU831
 2951 001a 0D49     		ldr	r1, .L233+4
 2952 001c 2846     		mov	r0, r5
 2953 001e FFF7FEFF 		bl	tcp_sent
 2954              	.LVL332:
1059:../../Middlewares/Third_Party/LwIP/src/apps/mqtt/mqtt.c **** 
 2955              		.loc 1 1059 3 view .LVU832
 2956 0022 0222     		movs	r2, #2
 2957 0024 0B49     		ldr	r1, .L233+8
 2958 0026 2846     		mov	r0, r5
 2959 0028 FFF7FEFF 		bl	tcp_poll
 2960              	.LVL333:
1061:../../Middlewares/Third_Party/LwIP/src/apps/mqtt/mqtt.c ****   /* Enter MQTT connect state */
 2961              		.loc 1 1061 97 view .LVU833
1063:../../Middlewares/Third_Party/LwIP/src/apps/mqtt/mqtt.c **** 
 2962              		.loc 1 1063 3 view .LVU834
1063:../../Middlewares/Third_Party/LwIP/src/apps/mqtt/mqtt.c **** 
 2963              		.loc 1 1063 22 is_stmt 0 view .LVU835
 2964 002c 0223     		movs	r3, #2
 2965 002e A372     		strb	r3, [r4, #10]
1066:../../Middlewares/Third_Party/LwIP/src/apps/mqtt/mqtt.c ****   client->cyclic_tick = 0;
 2966              		.loc 1 1066 3 is_stmt 1 view .LVU836
 2967 0030 2246     		mov	r2, r4
 2968 0032 0949     		ldr	r1, .L233+12
 2969 0034 41F28830 		movw	r0, #5000
 2970 0038 FFF7FEFF 		bl	sys_timeout
 2971              	.LVL334:
1067:../../Middlewares/Third_Party/LwIP/src/apps/mqtt/mqtt.c **** 
 2972              		.loc 1 1067 3 view .LVU837
1067:../../Middlewares/Third_Party/LwIP/src/apps/mqtt/mqtt.c **** 
 2973              		.loc 1 1067 23 is_stmt 0 view .LVU838
 2974 003c 2780     		strh	r7, [r4]	@ movhi
1070:../../Middlewares/Third_Party/LwIP/src/apps/mqtt/mqtt.c **** 
 2975              		.loc 1 1070 3 is_stmt 1 view .LVU839
 2976 003e E168     		ldr	r1, [r4, #12]
 2977 0040 04F1EC00 		add	r0, r4, #236
 2978 0044 FFF7FEFF 		bl	mqtt_output_send
 2979              	.LVL335:
1072:../../Middlewares/Third_Party/LwIP/src/apps/mqtt/mqtt.c **** }
 2980              		.loc 1 1072 3 view .LVU840
ARM GAS  C:\Users\minis\AppData\Local\Temp\ccG6JyYg.s 			page 85


1072:../../Middlewares/Third_Party/LwIP/src/apps/mqtt/mqtt.c **** }
 2981              		.loc 1 1072 10 is_stmt 0 view .LVU841
 2982 0048 DDE7     		b	.L230
 2983              	.L234:
 2984 004a 00BF     		.align	2
 2985              	.L233:
 2986 004c 00000000 		.word	mqtt_tcp_recv_cb
 2987 0050 00000000 		.word	mqtt_tcp_sent_cb
 2988 0054 00000000 		.word	mqtt_tcp_poll_cb
 2989 0058 00000000 		.word	mqtt_cyclic_timer
 2990              		.cfi_endproc
 2991              	.LFE203:
 2993              		.section	.text.mqtt_parse_incoming,"ax",%progbits
 2994              		.align	1
 2995              		.syntax unified
 2996              		.thumb
 2997              		.thumb_func
 2999              	mqtt_parse_incoming:
 3000              	.LVL336:
 3001              	.LFB198:
 840:../../Middlewares/Third_Party/LwIP/src/apps/mqtt/mqtt.c ****   u16_t in_offset = 0;
 3002              		.loc 1 840 1 is_stmt 1 view -0
 3003              		.cfi_startproc
 3004              		@ args = 0, pretend = 0, frame = 8
 3005              		@ frame_needed = 0, uses_anonymous_args = 0
 840:../../Middlewares/Third_Party/LwIP/src/apps/mqtt/mqtt.c ****   u16_t in_offset = 0;
 3006              		.loc 1 840 1 is_stmt 0 view .LVU843
 3007 0000 2DE9F04F 		push	{r4, r5, r6, r7, r8, r9, r10, fp, lr}
 3008              	.LCFI32:
 3009              		.cfi_def_cfa_offset 36
 3010              		.cfi_offset 4, -36
 3011              		.cfi_offset 5, -32
 3012              		.cfi_offset 6, -28
 3013              		.cfi_offset 7, -24
 3014              		.cfi_offset 8, -20
 3015              		.cfi_offset 9, -16
 3016              		.cfi_offset 10, -12
 3017              		.cfi_offset 11, -8
 3018              		.cfi_offset 14, -4
 3019 0004 83B0     		sub	sp, sp, #12
 3020              	.LCFI33:
 3021              		.cfi_def_cfa_offset 48
 3022 0006 8046     		mov	r8, r0
 3023 0008 0091     		str	r1, [sp]
 841:../../Middlewares/Third_Party/LwIP/src/apps/mqtt/mqtt.c ****   u32_t msg_rem_len = 0;
 3024              		.loc 1 841 3 is_stmt 1 view .LVU844
 3025              	.LVL337:
 842:../../Middlewares/Third_Party/LwIP/src/apps/mqtt/mqtt.c ****   u8_t fixed_hdr_idx = 0;
 3026              		.loc 1 842 3 view .LVU845
 843:../../Middlewares/Third_Party/LwIP/src/apps/mqtt/mqtt.c ****   u8_t b = 0;
 3027              		.loc 1 843 3 view .LVU846
 844:../../Middlewares/Third_Party/LwIP/src/apps/mqtt/mqtt.c **** 
 3028              		.loc 1 844 3 view .LVU847
 846:../../Middlewares/Third_Party/LwIP/src/apps/mqtt/mqtt.c ****     /* We ALWAYS parse the header here first. Even if the header was not
 3029              		.loc 1 846 3 view .LVU848
 844:../../Middlewares/Third_Party/LwIP/src/apps/mqtt/mqtt.c **** 
 3030              		.loc 1 844 8 is_stmt 0 view .LVU849
ARM GAS  C:\Users\minis\AppData\Local\Temp\ccG6JyYg.s 			page 86


 3031 000a 4FF0000A 		mov	r10, #0
 843:../../Middlewares/Third_Party/LwIP/src/apps/mqtt/mqtt.c ****   u8_t b = 0;
 3032              		.loc 1 843 8 view .LVU850
 3033 000e 5546     		mov	r5, r10
 842:../../Middlewares/Third_Party/LwIP/src/apps/mqtt/mqtt.c ****   u8_t fixed_hdr_idx = 0;
 3034              		.loc 1 842 9 view .LVU851
 3035 0010 D146     		mov	r9, r10
 841:../../Middlewares/Third_Party/LwIP/src/apps/mqtt/mqtt.c ****   u32_t msg_rem_len = 0;
 3036              		.loc 1 841 9 view .LVU852
 3037 0012 5746     		mov	r7, r10
 846:../../Middlewares/Third_Party/LwIP/src/apps/mqtt/mqtt.c ****     /* We ALWAYS parse the header here first. Even if the header was not
 3038              		.loc 1 846 9 view .LVU853
 3039 0014 4AE0     		b	.L236
 3040              	.LVL338:
 3041              	.L238:
 858:../../Middlewares/Third_Party/LwIP/src/apps/mqtt/mqtt.c ****         client->rx_buffer[client->msg_idx++] = b;
 3042              		.loc 1 858 9 is_stmt 1 view .LVU854
 858:../../Middlewares/Third_Party/LwIP/src/apps/mqtt/mqtt.c ****         client->rx_buffer[client->msg_idx++] = b;
 3043              		.loc 1 858 13 is_stmt 0 view .LVU855
 3044 0016 7C1C     		adds	r4, r7, #1
 3045 0018 A4B2     		uxth	r4, r4
 3046              	.LVL339:
 858:../../Middlewares/Third_Party/LwIP/src/apps/mqtt/mqtt.c ****         client->rx_buffer[client->msg_idx++] = b;
 3047              		.loc 1 858 13 view .LVU856
 3048 001a 3946     		mov	r1, r7
 3049 001c 0098     		ldr	r0, [sp]
 3050 001e FFF7FEFF 		bl	pbuf_get_at
 3051              	.LVL340:
 3052 0022 8246     		mov	r10, r0
 3053              	.LVL341:
 859:../../Middlewares/Third_Party/LwIP/src/apps/mqtt/mqtt.c ****       }
 3054              		.loc 1 859 9 is_stmt 1 view .LVU857
 859:../../Middlewares/Third_Party/LwIP/src/apps/mqtt/mqtt.c ****       }
 3055              		.loc 1 859 33 is_stmt 0 view .LVU858
 3056 0024 D8F86830 		ldr	r3, [r8, #104]
 859:../../Middlewares/Third_Party/LwIP/src/apps/mqtt/mqtt.c ****       }
 3057              		.loc 1 859 42 view .LVU859
 3058 0028 5A1C     		adds	r2, r3, #1
 3059 002a C8F86820 		str	r2, [r8, #104]
 859:../../Middlewares/Third_Party/LwIP/src/apps/mqtt/mqtt.c ****       }
 3060              		.loc 1 859 46 view .LVU860
 3061 002e 4344     		add	r3, r3, r8
 3062 0030 83F86C00 		strb	r0, [r3, #108]
 858:../../Middlewares/Third_Party/LwIP/src/apps/mqtt/mqtt.c ****         client->rx_buffer[client->msg_idx++] = b;
 3063              		.loc 1 858 13 view .LVU861
 3064 0034 2746     		mov	r7, r4
 3065 0036 4DE0     		b	.L239
 3066              	.LVL342:
 3067              	.L251:
 873:../../Middlewares/Third_Party/LwIP/src/apps/mqtt/mqtt.c ****             client->msg_idx = 0;
 3068              		.loc 1 873 13 is_stmt 1 view .LVU862
 3069 0038 0023     		movs	r3, #0
 3070 003a 1A46     		mov	r2, r3
 3071 003c 2946     		mov	r1, r5
 3072 003e 4046     		mov	r0, r8
 3073 0040 FFF7FEFF 		bl	mqtt_message_received
 3074              	.LVL343:
ARM GAS  C:\Users\minis\AppData\Local\Temp\ccG6JyYg.s 			page 87


 874:../../Middlewares/Third_Party/LwIP/src/apps/mqtt/mqtt.c ****             fixed_hdr_idx = 0;
 3075              		.loc 1 874 13 view .LVU863
 874:../../Middlewares/Third_Party/LwIP/src/apps/mqtt/mqtt.c ****             fixed_hdr_idx = 0;
 3076              		.loc 1 874 29 is_stmt 0 view .LVU864
 3077 0044 0025     		movs	r5, #0
 3078              	.LVL344:
 874:../../Middlewares/Third_Party/LwIP/src/apps/mqtt/mqtt.c ****             fixed_hdr_idx = 0;
 3079              		.loc 1 874 29 view .LVU865
 3080 0046 C8F86850 		str	r5, [r8, #104]
 875:../../Middlewares/Third_Party/LwIP/src/apps/mqtt/mqtt.c ****           } else {
 3081              		.loc 1 875 13 is_stmt 1 view .LVU866
 3082              	.LVL345:
 875:../../Middlewares/Third_Party/LwIP/src/apps/mqtt/mqtt.c ****           } else {
 3083              		.loc 1 875 13 is_stmt 0 view .LVU867
 3084 004a 2FE0     		b	.L236
 3085              	.LVL346:
 3086              	.L237:
 3087              	.LBB12:
 885:../../Middlewares/Third_Party/LwIP/src/apps/mqtt/mqtt.c **** 
 3088              		.loc 1 885 7 is_stmt 1 view .LVU868
 887:../../Middlewares/Third_Party/LwIP/src/apps/mqtt/mqtt.c **** 
 3089              		.loc 1 887 7 view .LVU869
 887:../../Middlewares/Third_Party/LwIP/src/apps/mqtt/mqtt.c **** 
 3090              		.loc 1 887 26 is_stmt 0 view .LVU870
 3091 004c D8F86860 		ldr	r6, [r8, #104]
 887:../../Middlewares/Third_Party/LwIP/src/apps/mqtt/mqtt.c **** 
 3092              		.loc 1 887 36 view .LVU871
 3093 0050 761B     		subs	r6, r6, r5
 887:../../Middlewares/Third_Party/LwIP/src/apps/mqtt/mqtt.c **** 
 3094              		.loc 1 887 83 view .LVU872
 3095 0052 C5F18003 		rsb	r3, r5, #128
 887:../../Middlewares/Third_Party/LwIP/src/apps/mqtt/mqtt.c **** 
 3096              		.loc 1 887 53 view .LVU873
 3097 0056 B6FBF3F2 		udiv	r2, r6, r3
 3098 005a 03FB1266 		mls	r6, r3, r2, r6
 887:../../Middlewares/Third_Party/LwIP/src/apps/mqtt/mqtt.c **** 
 3099              		.loc 1 887 100 view .LVU874
 3100 005e 0195     		str	r5, [sp, #4]
 887:../../Middlewares/Third_Party/LwIP/src/apps/mqtt/mqtt.c **** 
 3101              		.loc 1 887 17 view .LVU875
 3102 0060 15FA86F6 		uxtah	r6, r5, r6
 3103 0064 B6B2     		uxth	r6, r6
 3104              	.LVL347:
 890:../../Middlewares/Third_Party/LwIP/src/apps/mqtt/mqtt.c **** 
 3105              		.loc 1 890 7 is_stmt 1 view .LVU876
 890:../../Middlewares/Third_Party/LwIP/src/apps/mqtt/mqtt.c **** 
 3106              		.loc 1 890 24 is_stmt 0 view .LVU877
 3107 0066 E41B     		subs	r4, r4, r7
 3108 0068 A4B2     		uxth	r4, r4
 890:../../Middlewares/Third_Party/LwIP/src/apps/mqtt/mqtt.c **** 
 3109              		.loc 1 890 17 view .LVU878
 3110 006a 4C45     		cmp	r4, r9
 3111 006c 01D3     		bcc	.L242
 890:../../Middlewares/Third_Party/LwIP/src/apps/mqtt/mqtt.c **** 
 3112              		.loc 1 890 17 discriminator 2 view .LVU879
 3113 006e 1FFA89F4 		uxth	r4, r9
 3114              	.L242:
ARM GAS  C:\Users\minis\AppData\Local\Temp\ccG6JyYg.s 			page 88


 3115              	.LVL348:
 893:../../Middlewares/Third_Party/LwIP/src/apps/mqtt/mqtt.c ****       if (cpy_len > buffer_space) {
 3116              		.loc 1 893 7 is_stmt 1 view .LVU880
 893:../../Middlewares/Third_Party/LwIP/src/apps/mqtt/mqtt.c ****       if (cpy_len > buffer_space) {
 3117              		.loc 1 893 20 is_stmt 0 view .LVU881
 3118 0072 C6F1800B 		rsb	fp, r6, #128
 3119 0076 1FFA8BFB 		uxth	fp, fp
 3120              	.LVL349:
 894:../../Middlewares/Third_Party/LwIP/src/apps/mqtt/mqtt.c ****         cpy_len = buffer_space;
 3121              		.loc 1 894 7 is_stmt 1 view .LVU882
 894:../../Middlewares/Third_Party/LwIP/src/apps/mqtt/mqtt.c ****         cpy_len = buffer_space;
 3122              		.loc 1 894 10 is_stmt 0 view .LVU883
 3123 007a 5C45     		cmp	r4, fp
 3124 007c 00D9     		bls	.L243
 895:../../Middlewares/Third_Party/LwIP/src/apps/mqtt/mqtt.c ****       }
 3125              		.loc 1 895 17 view .LVU884
 3126 007e 5C46     		mov	r4, fp
 3127              	.LVL350:
 3128              	.L243:
 897:../../Middlewares/Third_Party/LwIP/src/apps/mqtt/mqtt.c **** 
 3129              		.loc 1 897 7 is_stmt 1 view .LVU885
 897:../../Middlewares/Third_Party/LwIP/src/apps/mqtt/mqtt.c **** 
 3130              		.loc 1 897 28 is_stmt 0 view .LVU886
 3131 0080 08F16C01 		add	r1, r8, #108
 897:../../Middlewares/Third_Party/LwIP/src/apps/mqtt/mqtt.c **** 
 3132              		.loc 1 897 7 view .LVU887
 3133 0084 3B46     		mov	r3, r7
 3134 0086 2246     		mov	r2, r4
 3135 0088 3144     		add	r1, r1, r6
 3136 008a 0098     		ldr	r0, [sp]
 3137 008c FFF7FEFF 		bl	pbuf_copy_partial
 3138              	.LVL351:
 900:../../Middlewares/Third_Party/LwIP/src/apps/mqtt/mqtt.c ****       in_offset += cpy_len;
 3139              		.loc 1 900 7 is_stmt 1 view .LVU888
 900:../../Middlewares/Third_Party/LwIP/src/apps/mqtt/mqtt.c ****       in_offset += cpy_len;
 3140              		.loc 1 900 13 is_stmt 0 view .LVU889
 3141 0090 D8F86830 		ldr	r3, [r8, #104]
 900:../../Middlewares/Third_Party/LwIP/src/apps/mqtt/mqtt.c ****       in_offset += cpy_len;
 3142              		.loc 1 900 23 view .LVU890
 3143 0094 2344     		add	r3, r3, r4
 3144 0096 C8F86830 		str	r3, [r8, #104]
 901:../../Middlewares/Third_Party/LwIP/src/apps/mqtt/mqtt.c ****       msg_rem_len -= cpy_len;
 3145              		.loc 1 901 7 is_stmt 1 view .LVU891
 901:../../Middlewares/Third_Party/LwIP/src/apps/mqtt/mqtt.c ****       msg_rem_len -= cpy_len;
 3146              		.loc 1 901 17 is_stmt 0 view .LVU892
 3147 009a 2744     		add	r7, r7, r4
 3148              	.LVL352:
 901:../../Middlewares/Third_Party/LwIP/src/apps/mqtt/mqtt.c ****       msg_rem_len -= cpy_len;
 3149              		.loc 1 901 17 view .LVU893
 3150 009c BFB2     		uxth	r7, r7
 3151              	.LVL353:
 902:../../Middlewares/Third_Party/LwIP/src/apps/mqtt/mqtt.c **** 
 3152              		.loc 1 902 7 is_stmt 1 view .LVU894
 902:../../Middlewares/Third_Party/LwIP/src/apps/mqtt/mqtt.c **** 
 3153              		.loc 1 902 19 is_stmt 0 view .LVU895
 3154 009e A9EB0409 		sub	r9, r9, r4
 3155              	.LVL354:
ARM GAS  C:\Users\minis\AppData\Local\Temp\ccG6JyYg.s 			page 89


 904:../../Middlewares/Third_Party/LwIP/src/apps/mqtt/mqtt.c ****       if ((msg_rem_len == 0) || (cpy_len == buffer_space)) {
 3156              		.loc 1 904 160 is_stmt 1 view .LVU896
 905:../../Middlewares/Third_Party/LwIP/src/apps/mqtt/mqtt.c ****         /* Whole message received or buffer is full */
 3157              		.loc 1 905 7 view .LVU897
 905:../../Middlewares/Third_Party/LwIP/src/apps/mqtt/mqtt.c ****         /* Whole message received or buffer is full */
 3158              		.loc 1 905 10 is_stmt 0 view .LVU898
 3159 00a2 5C45     		cmp	r4, fp
 3160 00a4 18BF     		it	ne
 3161 00a6 B9F1000F 		cmpne	r9, #0
 3162 00aa 2BD0     		beq	.L249
 3163              	.LVL355:
 3164              	.L236:
 905:../../Middlewares/Third_Party/LwIP/src/apps/mqtt/mqtt.c ****         /* Whole message received or buffer is full */
 3165              		.loc 1 905 10 view .LVU899
 3166              	.LBE12:
 846:../../Middlewares/Third_Party/LwIP/src/apps/mqtt/mqtt.c ****     /* We ALWAYS parse the header here first. Even if the header was not
 3167              		.loc 1 846 21 is_stmt 1 view .LVU900
 846:../../Middlewares/Third_Party/LwIP/src/apps/mqtt/mqtt.c ****     /* We ALWAYS parse the header here first. Even if the header was not
 3168              		.loc 1 846 11 is_stmt 0 view .LVU901
 3169 00ac 009B     		ldr	r3, [sp]
 3170 00ae 1C89     		ldrh	r4, [r3, #8]
 846:../../Middlewares/Third_Party/LwIP/src/apps/mqtt/mqtt.c ****     /* We ALWAYS parse the header here first. Even if the header was not
 3171              		.loc 1 846 21 view .LVU902
 3172 00b0 BC42     		cmp	r4, r7
 3173 00b2 3AD9     		bls	.L250
 850:../../Middlewares/Third_Party/LwIP/src/apps/mqtt/mqtt.c **** 
 3174              		.loc 1 850 5 is_stmt 1 view .LVU903
 850:../../Middlewares/Third_Party/LwIP/src/apps/mqtt/mqtt.c **** 
 3175              		.loc 1 850 44 is_stmt 0 view .LVU904
 3176 00b4 CAF3C713 		ubfx	r3, r10, #7, #8
 850:../../Middlewares/Third_Party/LwIP/src/apps/mqtt/mqtt.c **** 
 3177              		.loc 1 850 29 view .LVU905
 3178 00b8 012D     		cmp	r5, #1
 3179 00ba 98BF     		it	ls
 3180 00bc 43F00103 		orrls	r3, r3, #1
 850:../../Middlewares/Third_Party/LwIP/src/apps/mqtt/mqtt.c **** 
 3181              		.loc 1 850 8 view .LVU906
 3182 00c0 002B     		cmp	r3, #0
 3183 00c2 C3D0     		beq	.L237
 852:../../Middlewares/Third_Party/LwIP/src/apps/mqtt/mqtt.c ****         /* parse header from old pbuf (buffered in client->rx_buffer) */
 3184              		.loc 1 852 7 is_stmt 1 view .LVU907
 852:../../Middlewares/Third_Party/LwIP/src/apps/mqtt/mqtt.c ****         /* parse header from old pbuf (buffered in client->rx_buffer) */
 3185              		.loc 1 852 33 is_stmt 0 view .LVU908
 3186 00c4 D8F86830 		ldr	r3, [r8, #104]
 852:../../Middlewares/Third_Party/LwIP/src/apps/mqtt/mqtt.c ****         /* parse header from old pbuf (buffered in client->rx_buffer) */
 3187              		.loc 1 852 10 view .LVU909
 3188 00c8 9D42     		cmp	r5, r3
 3189 00ca A4D2     		bcs	.L238
 854:../../Middlewares/Third_Party/LwIP/src/apps/mqtt/mqtt.c ****       } else {
 3190              		.loc 1 854 9 is_stmt 1 view .LVU910
 854:../../Middlewares/Third_Party/LwIP/src/apps/mqtt/mqtt.c ****       } else {
 3191              		.loc 1 854 11 is_stmt 0 view .LVU911
 3192 00cc 08EB0503 		add	r3, r8, r5
 3193 00d0 93F86CA0 		ldrb	r10, [r3, #108]	@ zero_extendqisi2
 3194              	.LVL356:
 3195              	.L239:
 861:../../Middlewares/Third_Party/LwIP/src/apps/mqtt/mqtt.c **** 
ARM GAS  C:\Users\minis\AppData\Local\Temp\ccG6JyYg.s 			page 90


 3196              		.loc 1 861 7 is_stmt 1 view .LVU912
 861:../../Middlewares/Third_Party/LwIP/src/apps/mqtt/mqtt.c **** 
 3197              		.loc 1 861 20 is_stmt 0 view .LVU913
 3198 00d4 0135     		adds	r5, r5, #1
 3199              	.LVL357:
 861:../../Middlewares/Third_Party/LwIP/src/apps/mqtt/mqtt.c **** 
 3200              		.loc 1 861 20 view .LVU914
 3201 00d6 EDB2     		uxtb	r5, r5
 3202              	.LVL358:
 863:../../Middlewares/Third_Party/LwIP/src/apps/mqtt/mqtt.c ****         /* fixed header contains at least 2 bytes but can contain more, depending on
 3203              		.loc 1 863 7 is_stmt 1 view .LVU915
 863:../../Middlewares/Third_Party/LwIP/src/apps/mqtt/mqtt.c ****         /* fixed header contains at least 2 bytes but can contain more, depending on
 3204              		.loc 1 863 10 is_stmt 0 view .LVU916
 3205 00d8 012D     		cmp	r5, #1
 3206 00da E7D9     		bls	.L236
 867:../../Middlewares/Third_Party/LwIP/src/apps/mqtt/mqtt.c ****         if ((b & 0x80) == 0) {
 3207              		.loc 1 867 9 is_stmt 1 view .LVU917
 867:../../Middlewares/Third_Party/LwIP/src/apps/mqtt/mqtt.c ****         if ((b & 0x80) == 0) {
 3208              		.loc 1 867 24 is_stmt 0 view .LVU918
 3209 00dc 0AF07F03 		and	r3, r10, #127
 867:../../Middlewares/Third_Party/LwIP/src/apps/mqtt/mqtt.c ****         if ((b & 0x80) == 0) {
 3210              		.loc 1 867 61 view .LVU919
 3211 00e0 AA1E     		subs	r2, r5, #2
 867:../../Middlewares/Third_Party/LwIP/src/apps/mqtt/mqtt.c ****         if ((b & 0x80) == 0) {
 3212              		.loc 1 867 66 view .LVU920
 3213 00e2 C2EBC202 		rsb	r2, r2, r2, lsl #3
 867:../../Middlewares/Third_Party/LwIP/src/apps/mqtt/mqtt.c ****         if ((b & 0x80) == 0) {
 3214              		.loc 1 867 42 view .LVU921
 3215 00e6 9340     		lsls	r3, r3, r2
 867:../../Middlewares/Third_Party/LwIP/src/apps/mqtt/mqtt.c ****         if ((b & 0x80) == 0) {
 3216              		.loc 1 867 21 view .LVU922
 3217 00e8 49EA0309 		orr	r9, r9, r3
 3218              	.LVL359:
 868:../../Middlewares/Third_Party/LwIP/src/apps/mqtt/mqtt.c ****           /* fixed header is done */
 3219              		.loc 1 868 9 is_stmt 1 view .LVU923
 868:../../Middlewares/Third_Party/LwIP/src/apps/mqtt/mqtt.c ****           /* fixed header is done */
 3220              		.loc 1 868 12 is_stmt 0 view .LVU924
 3221 00ec 1AF0800F 		tst	r10, #128
 3222 00f0 DCD1     		bne	.L236
 870:../../Middlewares/Third_Party/LwIP/src/apps/mqtt/mqtt.c ****           if (msg_rem_len == 0) {
 3223              		.loc 1 870 127 is_stmt 1 view .LVU925
 871:../../Middlewares/Third_Party/LwIP/src/apps/mqtt/mqtt.c ****             /* Complete message with no extra headers of payload received */
 3224              		.loc 1 871 11 view .LVU926
 871:../../Middlewares/Third_Party/LwIP/src/apps/mqtt/mqtt.c ****             /* Complete message with no extra headers of payload received */
 3225              		.loc 1 871 14 is_stmt 0 view .LVU927
 3226 00f2 B9F1000F 		cmp	r9, #0
 3227 00f6 9FD0     		beq	.L251
 879:../../Middlewares/Third_Party/LwIP/src/apps/mqtt/mqtt.c ****           }
 3228              		.loc 1 879 13 is_stmt 1 view .LVU928
 879:../../Middlewares/Third_Party/LwIP/src/apps/mqtt/mqtt.c ****           }
 3229              		.loc 1 879 40 is_stmt 0 view .LVU929
 3230 00f8 A944     		add	r9, r9, r5
 3231              	.LVL360:
 879:../../Middlewares/Third_Party/LwIP/src/apps/mqtt/mqtt.c ****           }
 3232              		.loc 1 879 65 view .LVU930
 3233 00fa D8F86830 		ldr	r3, [r8, #104]
 879:../../Middlewares/Third_Party/LwIP/src/apps/mqtt/mqtt.c ****           }
ARM GAS  C:\Users\minis\AppData\Local\Temp\ccG6JyYg.s 			page 91


 3234              		.loc 1 879 25 view .LVU931
 3235 00fe A9EB0309 		sub	r9, r9, r3
 3236              	.LVL361:
 879:../../Middlewares/Third_Party/LwIP/src/apps/mqtt/mqtt.c ****           }
 3237              		.loc 1 879 25 view .LVU932
 3238 0102 D3E7     		b	.L236
 3239              	.LVL362:
 3240              	.L249:
 3241              	.LBB14:
 3242              	.LBB13:
 907:../../Middlewares/Third_Party/LwIP/src/apps/mqtt/mqtt.c ****         if (res != MQTT_CONNECT_ACCEPTED) {
 3243              		.loc 1 907 9 is_stmt 1 view .LVU933
 907:../../Middlewares/Third_Party/LwIP/src/apps/mqtt/mqtt.c ****         if (res != MQTT_CONNECT_ACCEPTED) {
 3244              		.loc 1 907 96 is_stmt 0 view .LVU934
 3245 0104 A219     		adds	r2, r4, r6
 3246 0106 92B2     		uxth	r2, r2
 907:../../Middlewares/Third_Party/LwIP/src/apps/mqtt/mqtt.c ****         if (res != MQTT_CONNECT_ACCEPTED) {
 3247              		.loc 1 907 40 view .LVU935
 3248 0108 019B     		ldr	r3, [sp, #4]
 3249 010a D21A     		subs	r2, r2, r3
 3250 010c 4B46     		mov	r3, r9
 3251 010e 92B2     		uxth	r2, r2
 3252 0110 2946     		mov	r1, r5
 3253 0112 4046     		mov	r0, r8
 3254 0114 FFF7FEFF 		bl	mqtt_message_received
 3255              	.LVL363:
 908:../../Middlewares/Third_Party/LwIP/src/apps/mqtt/mqtt.c ****           return res;
 3256              		.loc 1 908 9 is_stmt 1 view .LVU936
 908:../../Middlewares/Third_Party/LwIP/src/apps/mqtt/mqtt.c ****           return res;
 3257              		.loc 1 908 12 is_stmt 0 view .LVU937
 3258 0118 0346     		mov	r3, r0
 3259 011a 38B9     		cbnz	r0, .L244
 911:../../Middlewares/Third_Party/LwIP/src/apps/mqtt/mqtt.c ****           /* Reset parser state */
 3260              		.loc 1 911 9 is_stmt 1 view .LVU938
 911:../../Middlewares/Third_Party/LwIP/src/apps/mqtt/mqtt.c ****           /* Reset parser state */
 3261              		.loc 1 911 12 is_stmt 0 view .LVU939
 3262 011c B9F1000F 		cmp	r9, #0
 3263 0120 C4D1     		bne	.L236
 913:../../Middlewares/Third_Party/LwIP/src/apps/mqtt/mqtt.c ****           /* msg_tot_len = 0; */
 3264              		.loc 1 913 11 is_stmt 1 view .LVU940
 913:../../Middlewares/Third_Party/LwIP/src/apps/mqtt/mqtt.c ****           /* msg_tot_len = 0; */
 3265              		.loc 1 913 27 is_stmt 0 view .LVU941
 3266 0122 0025     		movs	r5, #0
 3267              	.LVL364:
 913:../../Middlewares/Third_Party/LwIP/src/apps/mqtt/mqtt.c ****           /* msg_tot_len = 0; */
 3268              		.loc 1 913 27 view .LVU942
 3269 0124 C8F86850 		str	r5, [r8, #104]
 915:../../Middlewares/Third_Party/LwIP/src/apps/mqtt/mqtt.c ****         }
 3270              		.loc 1 915 11 is_stmt 1 view .LVU943
 3271              	.LVL365:
 915:../../Middlewares/Third_Party/LwIP/src/apps/mqtt/mqtt.c ****         }
 3272              		.loc 1 915 11 is_stmt 0 view .LVU944
 3273 0128 C0E7     		b	.L236
 3274              	.LVL366:
 3275              	.L250:
 915:../../Middlewares/Third_Party/LwIP/src/apps/mqtt/mqtt.c ****         }
 3276              		.loc 1 915 11 view .LVU945
ARM GAS  C:\Users\minis\AppData\Local\Temp\ccG6JyYg.s 			page 92


 3277              	.LBE13:
 3278              	.LBE14:
 920:../../Middlewares/Third_Party/LwIP/src/apps/mqtt/mqtt.c **** }
 3279              		.loc 1 920 10 view .LVU946
 3280 012a 0023     		movs	r3, #0
 3281              	.L244:
 921:../../Middlewares/Third_Party/LwIP/src/apps/mqtt/mqtt.c **** 
 3282              		.loc 1 921 1 view .LVU947
 3283 012c 1846     		mov	r0, r3
 3284 012e 03B0     		add	sp, sp, #12
 3285              	.LCFI34:
 3286              		.cfi_def_cfa_offset 36
 3287              	.LVL367:
 921:../../Middlewares/Third_Party/LwIP/src/apps/mqtt/mqtt.c **** 
 3288              		.loc 1 921 1 view .LVU948
 3289              		@ sp needed
 3290 0130 BDE8F08F 		pop	{r4, r5, r6, r7, r8, r9, r10, fp, pc}
 921:../../Middlewares/Third_Party/LwIP/src/apps/mqtt/mqtt.c **** 
 3291              		.loc 1 921 1 view .LVU949
 3292              		.cfi_endproc
 3293              	.LFE198:
 3295              		.section	.rodata.mqtt_tcp_recv_cb.str1.4,"aMS",%progbits,1
 3296              		.align	2
 3297              	.LC17:
 3298 0000 6D717474 		.ascii	"mqtt_tcp_recv_cb: client != NULL\000"
 3298      5F746370 
 3298      5F726563 
 3298      765F6362 
 3298      3A20636C 
 3299 0021 000000   		.align	2
 3300              	.LC18:
 3301 0024 6D717474 		.ascii	"mqtt_tcp_recv_cb: client->conn == pcb\000"
 3301      5F746370 
 3301      5F726563 
 3301      765F6362 
 3301      3A20636C 
 3302              		.section	.text.mqtt_tcp_recv_cb,"ax",%progbits
 3303              		.align	1
 3304              		.syntax unified
 3305              		.thumb
 3306              		.thumb_func
 3308              	mqtt_tcp_recv_cb:
 3309              	.LVL368:
 3310              	.LFB199:
 933:../../Middlewares/Third_Party/LwIP/src/apps/mqtt/mqtt.c ****   mqtt_client_t *client = (mqtt_client_t *)arg;
 3311              		.loc 1 933 1 is_stmt 1 view -0
 3312              		.cfi_startproc
 3313              		@ args = 0, pretend = 0, frame = 0
 3314              		@ frame_needed = 0, uses_anonymous_args = 0
 933:../../Middlewares/Third_Party/LwIP/src/apps/mqtt/mqtt.c ****   mqtt_client_t *client = (mqtt_client_t *)arg;
 3315              		.loc 1 933 1 is_stmt 0 view .LVU951
 3316 0000 F8B5     		push	{r3, r4, r5, r6, r7, lr}
 3317              	.LCFI35:
 3318              		.cfi_def_cfa_offset 24
 3319              		.cfi_offset 3, -24
 3320              		.cfi_offset 4, -20
 3321              		.cfi_offset 5, -16
ARM GAS  C:\Users\minis\AppData\Local\Temp\ccG6JyYg.s 			page 93


 3322              		.cfi_offset 6, -12
 3323              		.cfi_offset 7, -8
 3324              		.cfi_offset 14, -4
 3325 0002 0E46     		mov	r6, r1
 3326 0004 1446     		mov	r4, r2
 3327 0006 1D46     		mov	r5, r3
 934:../../Middlewares/Third_Party/LwIP/src/apps/mqtt/mqtt.c ****   LWIP_ASSERT("mqtt_tcp_recv_cb: client != NULL", client != NULL);
 3328              		.loc 1 934 3 is_stmt 1 view .LVU952
 3329              	.LVL369:
 935:../../Middlewares/Third_Party/LwIP/src/apps/mqtt/mqtt.c ****   LWIP_ASSERT("mqtt_tcp_recv_cb: client->conn == pcb", client->conn == pcb);
 3330              		.loc 1 935 3 view .LVU953
 935:../../Middlewares/Third_Party/LwIP/src/apps/mqtt/mqtt.c ****   LWIP_ASSERT("mqtt_tcp_recv_cb: client->conn == pcb", client->conn == pcb);
 3331              		.loc 1 935 3 view .LVU954
 3332 0008 0746     		mov	r7, r0
 3333 000a E8B1     		cbz	r0, .L260
 3334              	.LVL370:
 3335              	.L253:
 935:../../Middlewares/Third_Party/LwIP/src/apps/mqtt/mqtt.c ****   LWIP_ASSERT("mqtt_tcp_recv_cb: client->conn == pcb", client->conn == pcb);
 3336              		.loc 1 935 3 view .LVU955
 935:../../Middlewares/Third_Party/LwIP/src/apps/mqtt/mqtt.c ****   LWIP_ASSERT("mqtt_tcp_recv_cb: client->conn == pcb", client->conn == pcb);
 3337              		.loc 1 935 3 view .LVU956
 936:../../Middlewares/Third_Party/LwIP/src/apps/mqtt/mqtt.c **** 
 3338              		.loc 1 936 3 view .LVU957
 936:../../Middlewares/Third_Party/LwIP/src/apps/mqtt/mqtt.c **** 
 3339              		.loc 1 936 3 view .LVU958
 3340 000c FB68     		ldr	r3, [r7, #12]
 3341 000e B342     		cmp	r3, r6
 3342 0010 06D0     		beq	.L254
 936:../../Middlewares/Third_Party/LwIP/src/apps/mqtt/mqtt.c **** 
 3343              		.loc 1 936 3 discriminator 1 view .LVU959
 936:../../Middlewares/Third_Party/LwIP/src/apps/mqtt/mqtt.c **** 
 3344              		.loc 1 936 3 discriminator 1 view .LVU960
 3345 0012 1A4B     		ldr	r3, .L264
 3346 0014 4FF46A72 		mov	r2, #936
 3347 0018 1949     		ldr	r1, .L264+4
 3348 001a 1A48     		ldr	r0, .L264+8
 3349 001c FFF7FEFF 		bl	printf
 3350              	.LVL371:
 3351              	.L254:
 936:../../Middlewares/Third_Party/LwIP/src/apps/mqtt/mqtt.c **** 
 3352              		.loc 1 936 3 view .LVU961
 936:../../Middlewares/Third_Party/LwIP/src/apps/mqtt/mqtt.c **** 
 3353              		.loc 1 936 3 view .LVU962
 938:../../Middlewares/Third_Party/LwIP/src/apps/mqtt/mqtt.c ****     LWIP_DEBUGF(MQTT_DEBUG_TRACE, ("mqtt_tcp_recv_cb: Recv pbuf=NULL, remote has closed connection\
 3354              		.loc 1 938 3 view .LVU963
 938:../../Middlewares/Third_Party/LwIP/src/apps/mqtt/mqtt.c ****     LWIP_DEBUGF(MQTT_DEBUG_TRACE, ("mqtt_tcp_recv_cb: Recv pbuf=NULL, remote has closed connection\
 3355              		.loc 1 938 6 is_stmt 0 view .LVU964
 3356 0020 D4B1     		cbz	r4, .L261
 3357              	.LBB15:
 942:../../Middlewares/Third_Party/LwIP/src/apps/mqtt/mqtt.c ****     if (err != ERR_OK) {
 3358              		.loc 1 942 5 is_stmt 1 view .LVU965
 943:../../Middlewares/Third_Party/LwIP/src/apps/mqtt/mqtt.c ****       LWIP_DEBUGF(MQTT_DEBUG_WARN, ("mqtt_tcp_recv_cb: Recv err=%d\n", err));
 3359              		.loc 1 943 5 view .LVU966
 943:../../Middlewares/Third_Party/LwIP/src/apps/mqtt/mqtt.c ****       LWIP_DEBUGF(MQTT_DEBUG_WARN, ("mqtt_tcp_recv_cb: Recv err=%d\n", err));
 3360              		.loc 1 943 8 is_stmt 0 view .LVU967
 3361 0022 05BB     		cbnz	r5, .L262
 950:../../Middlewares/Third_Party/LwIP/src/apps/mqtt/mqtt.c ****     res = mqtt_parse_incoming(client, p);
ARM GAS  C:\Users\minis\AppData\Local\Temp\ccG6JyYg.s 			page 94


 3362              		.loc 1 950 5 is_stmt 1 view .LVU968
 3363 0024 2189     		ldrh	r1, [r4, #8]
 3364 0026 3046     		mov	r0, r6
 3365 0028 FFF7FEFF 		bl	tcp_recved
 3366              	.LVL372:
 951:../../Middlewares/Third_Party/LwIP/src/apps/mqtt/mqtt.c ****     pbuf_free(p);
 3367              		.loc 1 951 5 view .LVU969
 951:../../Middlewares/Third_Party/LwIP/src/apps/mqtt/mqtt.c ****     pbuf_free(p);
 3368              		.loc 1 951 11 is_stmt 0 view .LVU970
 3369 002c 2146     		mov	r1, r4
 3370 002e 3846     		mov	r0, r7
 3371 0030 FFF7FEFF 		bl	mqtt_parse_incoming
 3372              	.LVL373:
 3373 0034 0646     		mov	r6, r0
 3374              	.LVL374:
 952:../../Middlewares/Third_Party/LwIP/src/apps/mqtt/mqtt.c **** 
 3375              		.loc 1 952 5 is_stmt 1 view .LVU971
 3376 0036 2046     		mov	r0, r4
 3377 0038 FFF7FEFF 		bl	pbuf_free
 3378              	.LVL375:
 954:../../Middlewares/Third_Party/LwIP/src/apps/mqtt/mqtt.c ****       mqtt_close(client, res);
 3379              		.loc 1 954 5 view .LVU972
 954:../../Middlewares/Third_Party/LwIP/src/apps/mqtt/mqtt.c ****       mqtt_close(client, res);
 3380              		.loc 1 954 8 is_stmt 0 view .LVU973
 3381 003c C6B9     		cbnz	r6, .L263
 3382              	.L258:
 958:../../Middlewares/Third_Party/LwIP/src/apps/mqtt/mqtt.c ****       /* Reset server alive watchdog */
 3383              		.loc 1 958 5 is_stmt 1 view .LVU974
 958:../../Middlewares/Third_Party/LwIP/src/apps/mqtt/mqtt.c ****       /* Reset server alive watchdog */
 3384              		.loc 1 958 15 is_stmt 0 view .LVU975
 3385 003e 7B88     		ldrh	r3, [r7, #2]
 958:../../Middlewares/Third_Party/LwIP/src/apps/mqtt/mqtt.c ****       /* Reset server alive watchdog */
 3386              		.loc 1 958 8 view .LVU976
 3387 0040 A3B1     		cbz	r3, .L256
 960:../../Middlewares/Third_Party/LwIP/src/apps/mqtt/mqtt.c ****     }
 3388              		.loc 1 960 7 is_stmt 1 view .LVU977
 960:../../Middlewares/Third_Party/LwIP/src/apps/mqtt/mqtt.c ****     }
 3389              		.loc 1 960 31 is_stmt 0 view .LVU978
 3390 0042 0023     		movs	r3, #0
 3391 0044 BB80     		strh	r3, [r7, #4]	@ movhi
 3392 0046 11E0     		b	.L256
 3393              	.LVL376:
 3394              	.L260:
 960:../../Middlewares/Third_Party/LwIP/src/apps/mqtt/mqtt.c ****     }
 3395              		.loc 1 960 31 view .LVU979
 3396              	.LBE15:
 935:../../Middlewares/Third_Party/LwIP/src/apps/mqtt/mqtt.c ****   LWIP_ASSERT("mqtt_tcp_recv_cb: client->conn == pcb", client->conn == pcb);
 3397              		.loc 1 935 3 is_stmt 1 discriminator 1 view .LVU980
 935:../../Middlewares/Third_Party/LwIP/src/apps/mqtt/mqtt.c ****   LWIP_ASSERT("mqtt_tcp_recv_cb: client->conn == pcb", client->conn == pcb);
 3398              		.loc 1 935 3 discriminator 1 view .LVU981
 3399 0048 0C4B     		ldr	r3, .L264
 3400              	.LVL377:
 935:../../Middlewares/Third_Party/LwIP/src/apps/mqtt/mqtt.c ****   LWIP_ASSERT("mqtt_tcp_recv_cb: client->conn == pcb", client->conn == pcb);
 3401              		.loc 1 935 3 is_stmt 0 discriminator 1 view .LVU982
 3402 004a 40F2A732 		movw	r2, #935
 3403              	.LVL378:
 935:../../Middlewares/Third_Party/LwIP/src/apps/mqtt/mqtt.c ****   LWIP_ASSERT("mqtt_tcp_recv_cb: client->conn == pcb", client->conn == pcb);
ARM GAS  C:\Users\minis\AppData\Local\Temp\ccG6JyYg.s 			page 95


 3404              		.loc 1 935 3 discriminator 1 view .LVU983
 3405 004e 0E49     		ldr	r1, .L264+12
 3406              	.LVL379:
 935:../../Middlewares/Third_Party/LwIP/src/apps/mqtt/mqtt.c ****   LWIP_ASSERT("mqtt_tcp_recv_cb: client->conn == pcb", client->conn == pcb);
 3407              		.loc 1 935 3 discriminator 1 view .LVU984
 3408 0050 0C48     		ldr	r0, .L264+8
 3409              	.LVL380:
 935:../../Middlewares/Third_Party/LwIP/src/apps/mqtt/mqtt.c ****   LWIP_ASSERT("mqtt_tcp_recv_cb: client->conn == pcb", client->conn == pcb);
 3410              		.loc 1 935 3 discriminator 1 view .LVU985
 3411 0052 FFF7FEFF 		bl	printf
 3412              	.LVL381:
 3413 0056 D9E7     		b	.L253
 3414              	.L261:
 939:../../Middlewares/Third_Party/LwIP/src/apps/mqtt/mqtt.c ****     mqtt_close(client, MQTT_CONNECT_DISCONNECTED);
 3415              		.loc 1 939 104 is_stmt 1 view .LVU986
 940:../../Middlewares/Third_Party/LwIP/src/apps/mqtt/mqtt.c ****   } else {
 3416              		.loc 1 940 5 view .LVU987
 3417 0058 4FF48071 		mov	r1, #256
 3418 005c 3846     		mov	r0, r7
 3419 005e FFF7FEFF 		bl	mqtt_close
 3420              	.LVL382:
 964:../../Middlewares/Third_Party/LwIP/src/apps/mqtt/mqtt.c **** }
 3421              		.loc 1 964 10 is_stmt 0 view .LVU988
 3422 0062 0025     		movs	r5, #0
 3423              	.LVL383:
 964:../../Middlewares/Third_Party/LwIP/src/apps/mqtt/mqtt.c **** }
 3424              		.loc 1 964 10 view .LVU989
 3425 0064 02E0     		b	.L256
 3426              	.L262:
 3427              	.LBB16:
 944:../../Middlewares/Third_Party/LwIP/src/apps/mqtt/mqtt.c ****       pbuf_free(p);
 3428              		.loc 1 944 77 is_stmt 1 view .LVU990
 945:../../Middlewares/Third_Party/LwIP/src/apps/mqtt/mqtt.c ****       return err;
 3429              		.loc 1 945 7 view .LVU991
 3430 0066 2046     		mov	r0, r4
 3431 0068 FFF7FEFF 		bl	pbuf_free
 3432              	.LVL384:
 946:../../Middlewares/Third_Party/LwIP/src/apps/mqtt/mqtt.c ****     }
 3433              		.loc 1 946 7 view .LVU992
 3434              	.L256:
 946:../../Middlewares/Third_Party/LwIP/src/apps/mqtt/mqtt.c ****     }
 3435              		.loc 1 946 7 is_stmt 0 view .LVU993
 3436              	.LBE16:
 965:../../Middlewares/Third_Party/LwIP/src/apps/mqtt/mqtt.c **** 
 3437              		.loc 1 965 1 view .LVU994
 3438 006c 2846     		mov	r0, r5
 3439 006e F8BD     		pop	{r3, r4, r5, r6, r7, pc}
 3440              	.LVL385:
 3441              	.L263:
 3442              	.LBB17:
 955:../../Middlewares/Third_Party/LwIP/src/apps/mqtt/mqtt.c ****     }
 3443              		.loc 1 955 7 is_stmt 1 view .LVU995
 3444 0070 3146     		mov	r1, r6
 3445 0072 3846     		mov	r0, r7
 3446 0074 FFF7FEFF 		bl	mqtt_close
 3447              	.LVL386:
 3448 0078 E1E7     		b	.L258
ARM GAS  C:\Users\minis\AppData\Local\Temp\ccG6JyYg.s 			page 96


 3449              	.L265:
 3450 007a 00BF     		.align	2
 3451              	.L264:
 3452 007c 00000000 		.word	.LC0
 3453 0080 24000000 		.word	.LC18
 3454 0084 5C000000 		.word	.LC2
 3455 0088 00000000 		.word	.LC17
 3456              	.LBE17:
 3457              		.cfi_endproc
 3458              	.LFE199:
 3460              		.section	.rodata.mqtt_publish.str1.4,"aMS",%progbits,1
 3461              		.align	2
 3462              	.LC19:
 3463 0000 6D717474 		.ascii	"mqtt_publish: client != NULL\000"
 3463      5F707562 
 3463      6C697368 
 3463      3A20636C 
 3463      69656E74 
 3464 001d 000000   		.align	2
 3465              	.LC20:
 3466 0020 6D717474 		.ascii	"mqtt_publish: topic != NULL\000"
 3466      5F707562 
 3466      6C697368 
 3466      3A20746F 
 3466      70696320 
 3467              		.align	2
 3468              	.LC21:
 3469 003c 6D717474 		.ascii	"mqtt_publish: TCP disconnected\000"
 3469      5F707562 
 3469      6C697368 
 3469      3A205443 
 3469      50206469 
 3470 005b 00       		.align	2
 3471              	.LC22:
 3472 005c 6D717474 		.ascii	"mqtt_publish: topic length overflow\000"
 3472      5F707562 
 3472      6C697368 
 3472      3A20746F 
 3472      70696320 
 3473              		.align	2
 3474              	.LC23:
 3475 0080 6D717474 		.ascii	"mqtt_publish: total length overflow\000"
 3475      5F707562 
 3475      6C697368 
 3475      3A20746F 
 3475      74616C20 
 3476              		.section	.text.mqtt_publish,"ax",%progbits
 3477              		.align	1
 3478              		.global	mqtt_publish
 3479              		.syntax unified
 3480              		.thumb
 3481              		.thumb_func
 3483              	mqtt_publish:
 3484              	.LVL387:
 3485              	.LFB204:
1074:../../Middlewares/Third_Party/LwIP/src/apps/mqtt/mqtt.c **** 
1075:../../Middlewares/Third_Party/LwIP/src/apps/mqtt/mqtt.c **** 
ARM GAS  C:\Users\minis\AppData\Local\Temp\ccG6JyYg.s 			page 97


1076:../../Middlewares/Third_Party/LwIP/src/apps/mqtt/mqtt.c **** 
1077:../../Middlewares/Third_Party/LwIP/src/apps/mqtt/mqtt.c **** /*-------------------------------------------------------------------------------------------------
1078:../../Middlewares/Third_Party/LwIP/src/apps/mqtt/mqtt.c **** /* Public API */
1079:../../Middlewares/Third_Party/LwIP/src/apps/mqtt/mqtt.c **** 
1080:../../Middlewares/Third_Party/LwIP/src/apps/mqtt/mqtt.c **** 
1081:../../Middlewares/Third_Party/LwIP/src/apps/mqtt/mqtt.c **** /**
1082:../../Middlewares/Third_Party/LwIP/src/apps/mqtt/mqtt.c ****  * @ingroup mqtt
1083:../../Middlewares/Third_Party/LwIP/src/apps/mqtt/mqtt.c ****  * MQTT publish function.
1084:../../Middlewares/Third_Party/LwIP/src/apps/mqtt/mqtt.c ****  * @param client MQTT client
1085:../../Middlewares/Third_Party/LwIP/src/apps/mqtt/mqtt.c ****  * @param topic Publish topic string
1086:../../Middlewares/Third_Party/LwIP/src/apps/mqtt/mqtt.c ****  * @param payload Data to publish (NULL is allowed)
1087:../../Middlewares/Third_Party/LwIP/src/apps/mqtt/mqtt.c ****  * @param payload_length Length of payload (0 is allowed)
1088:../../Middlewares/Third_Party/LwIP/src/apps/mqtt/mqtt.c ****  * @param qos Quality of service, 0 1 or 2
1089:../../Middlewares/Third_Party/LwIP/src/apps/mqtt/mqtt.c ****  * @param retain MQTT retain flag
1090:../../Middlewares/Third_Party/LwIP/src/apps/mqtt/mqtt.c ****  * @param cb Callback to call when publish is complete or has timed out
1091:../../Middlewares/Third_Party/LwIP/src/apps/mqtt/mqtt.c ****  * @param arg User supplied argument to publish callback
1092:../../Middlewares/Third_Party/LwIP/src/apps/mqtt/mqtt.c ****  * @return ERR_OK if successful
1093:../../Middlewares/Third_Party/LwIP/src/apps/mqtt/mqtt.c ****  *         ERR_CONN if client is disconnected
1094:../../Middlewares/Third_Party/LwIP/src/apps/mqtt/mqtt.c ****  *         ERR_MEM if short on memory
1095:../../Middlewares/Third_Party/LwIP/src/apps/mqtt/mqtt.c ****  */
1096:../../Middlewares/Third_Party/LwIP/src/apps/mqtt/mqtt.c **** err_t
1097:../../Middlewares/Third_Party/LwIP/src/apps/mqtt/mqtt.c **** mqtt_publish(mqtt_client_t *client, const char *topic, const void *payload, u16_t payload_length, u
1098:../../Middlewares/Third_Party/LwIP/src/apps/mqtt/mqtt.c ****              mqtt_request_cb_t cb, void *arg)
1099:../../Middlewares/Third_Party/LwIP/src/apps/mqtt/mqtt.c **** {
 3486              		.loc 1 1099 1 view -0
 3487              		.cfi_startproc
 3488              		@ args = 16, pretend = 0, frame = 8
 3489              		@ frame_needed = 0, uses_anonymous_args = 0
 3490              		.loc 1 1099 1 is_stmt 0 view .LVU997
 3491 0000 2DE9F04F 		push	{r4, r5, r6, r7, r8, r9, r10, fp, lr}
 3492              	.LCFI36:
 3493              		.cfi_def_cfa_offset 36
 3494              		.cfi_offset 4, -36
 3495              		.cfi_offset 5, -32
 3496              		.cfi_offset 6, -28
 3497              		.cfi_offset 7, -24
 3498              		.cfi_offset 8, -20
 3499              		.cfi_offset 9, -16
 3500              		.cfi_offset 10, -12
 3501              		.cfi_offset 11, -8
 3502              		.cfi_offset 14, -4
 3503 0004 85B0     		sub	sp, sp, #20
 3504              	.LCFI37:
 3505              		.cfi_def_cfa_offset 56
 3506 0006 0F46     		mov	r7, r1
 3507 0008 0292     		str	r2, [sp, #8]
 3508 000a 9946     		mov	r9, r3
 3509 000c 9DF838A0 		ldrb	r10, [sp, #56]	@ zero_extendqisi2
1100:../../Middlewares/Third_Party/LwIP/src/apps/mqtt/mqtt.c ****   struct mqtt_request_t *r;
 3510              		.loc 1 1100 3 is_stmt 1 view .LVU998
1101:../../Middlewares/Third_Party/LwIP/src/apps/mqtt/mqtt.c ****   u16_t pkt_id;
 3511              		.loc 1 1101 3 view .LVU999
1102:../../Middlewares/Third_Party/LwIP/src/apps/mqtt/mqtt.c ****   size_t topic_strlen;
 3512              		.loc 1 1102 3 view .LVU1000
1103:../../Middlewares/Third_Party/LwIP/src/apps/mqtt/mqtt.c ****   size_t total_len;
 3513              		.loc 1 1103 3 view .LVU1001
1104:../../Middlewares/Third_Party/LwIP/src/apps/mqtt/mqtt.c ****   u16_t topic_len;
ARM GAS  C:\Users\minis\AppData\Local\Temp\ccG6JyYg.s 			page 98


 3514              		.loc 1 1104 3 view .LVU1002
1105:../../Middlewares/Third_Party/LwIP/src/apps/mqtt/mqtt.c ****   u16_t remaining_length;
 3515              		.loc 1 1105 3 view .LVU1003
1106:../../Middlewares/Third_Party/LwIP/src/apps/mqtt/mqtt.c **** 
1107:../../Middlewares/Third_Party/LwIP/src/apps/mqtt/mqtt.c ****   LWIP_ASSERT_CORE_LOCKED();
 3516              		.loc 1 1107 28 view .LVU1004
1108:../../Middlewares/Third_Party/LwIP/src/apps/mqtt/mqtt.c ****   LWIP_ASSERT("mqtt_publish: client != NULL", client);
 3517              		.loc 1 1108 3 view .LVU1005
 3518              		.loc 1 1108 3 view .LVU1006
 3519 0010 0646     		mov	r6, r0
 3520 0012 0028     		cmp	r0, #0
 3521 0014 50D0     		beq	.L280
 3522              	.LVL388:
 3523              	.L267:
 3524              		.loc 1 1108 3 view .LVU1007
 3525              		.loc 1 1108 3 view .LVU1008
1109:../../Middlewares/Third_Party/LwIP/src/apps/mqtt/mqtt.c ****   LWIP_ASSERT("mqtt_publish: topic != NULL", topic);
 3526              		.loc 1 1109 3 view .LVU1009
 3527              		.loc 1 1109 3 view .LVU1010
 3528 0016 002F     		cmp	r7, #0
 3529 0018 56D0     		beq	.L281
 3530              	.L268:
 3531              		.loc 1 1109 3 view .LVU1011
 3532              		.loc 1 1109 3 view .LVU1012
1110:../../Middlewares/Third_Party/LwIP/src/apps/mqtt/mqtt.c ****   LWIP_ERROR("mqtt_publish: TCP disconnected", (client->conn_state != TCP_DISCONNECTED), return ERR
 3533              		.loc 1 1110 3 view .LVU1013
 3534              		.loc 1 1110 3 view .LVU1014
 3535 001a B37A     		ldrb	r3, [r6, #10]	@ zero_extendqisi2
 3536 001c 002B     		cmp	r3, #0
 3537 001e 5BD0     		beq	.L282
 3538              		.loc 1 1110 3 view .LVU1015
1111:../../Middlewares/Third_Party/LwIP/src/apps/mqtt/mqtt.c **** 
1112:../../Middlewares/Third_Party/LwIP/src/apps/mqtt/mqtt.c ****   topic_strlen = strlen(topic);
 3539              		.loc 1 1112 3 view .LVU1016
 3540              		.loc 1 1112 18 is_stmt 0 view .LVU1017
 3541 0020 3846     		mov	r0, r7
 3542 0022 FFF7FEFF 		bl	strlen
 3543              	.LVL389:
1113:../../Middlewares/Third_Party/LwIP/src/apps/mqtt/mqtt.c ****   LWIP_ERROR("mqtt_publish: topic length overflow", (topic_strlen <= (0xFFFF - 2)), return ERR_ARG)
 3544              		.loc 1 1113 3 is_stmt 1 view .LVU1018
 3545              		.loc 1 1113 3 view .LVU1019
 3546 0026 4FF6FD73 		movw	r3, #65533
 3547 002a 9842     		cmp	r0, r3
 3548 002c 5ED8     		bhi	.L283
 3549              		.loc 1 1113 3 view .LVU1020
1114:../../Middlewares/Third_Party/LwIP/src/apps/mqtt/mqtt.c ****   topic_len = (u16_t)topic_strlen;
 3550              		.loc 1 1114 3 view .LVU1021
 3551              		.loc 1 1114 13 is_stmt 0 view .LVU1022
 3552 002e 85B2     		uxth	r5, r0
 3553              	.LVL390:
1115:../../Middlewares/Third_Party/LwIP/src/apps/mqtt/mqtt.c ****   total_len = 2 + topic_len + payload_length;
 3554              		.loc 1 1115 3 is_stmt 1 view .LVU1023
 3555              		.loc 1 1115 17 is_stmt 0 view .LVU1024
 3556 0030 AC1C     		adds	r4, r5, #2
 3557              		.loc 1 1115 29 view .LVU1025
 3558 0032 4C44     		add	r4, r4, r9
 3559              	.LVL391:
ARM GAS  C:\Users\minis\AppData\Local\Temp\ccG6JyYg.s 			page 99


1116:../../Middlewares/Third_Party/LwIP/src/apps/mqtt/mqtt.c **** 
1117:../../Middlewares/Third_Party/LwIP/src/apps/mqtt/mqtt.c ****   if (qos > 0) {
 3560              		.loc 1 1117 3 is_stmt 1 view .LVU1026
 3561              		.loc 1 1117 6 is_stmt 0 view .LVU1027
 3562 0034 BAF1000F 		cmp	r10, #0
 3563 0038 62D1     		bne	.L284
1118:../../Middlewares/Third_Party/LwIP/src/apps/mqtt/mqtt.c ****     total_len += 2;
1119:../../Middlewares/Third_Party/LwIP/src/apps/mqtt/mqtt.c ****     /* Generate pkt_id id for QoS1 and 2 */
1120:../../Middlewares/Third_Party/LwIP/src/apps/mqtt/mqtt.c ****     pkt_id = msg_generate_packet_id(client);
1121:../../Middlewares/Third_Party/LwIP/src/apps/mqtt/mqtt.c ****   } else {
1122:../../Middlewares/Third_Party/LwIP/src/apps/mqtt/mqtt.c ****     /* Use reserved value pkt_id 0 for QoS 0 in request handle */
1123:../../Middlewares/Third_Party/LwIP/src/apps/mqtt/mqtt.c ****     pkt_id = 0;
 3564              		.loc 1 1123 12 view .LVU1028
 3565 003a 4FF0000B 		mov	fp, #0
 3566              	.LVL392:
 3567              	.L272:
1124:../../Middlewares/Third_Party/LwIP/src/apps/mqtt/mqtt.c ****   }
1125:../../Middlewares/Third_Party/LwIP/src/apps/mqtt/mqtt.c ****   LWIP_ERROR("mqtt_publish: total length overflow", (total_len <= 0xFFFF), return ERR_ARG);
 3568              		.loc 1 1125 3 is_stmt 1 view .LVU1029
 3569              		.loc 1 1125 3 view .LVU1030
 3570 003e B4F5803F 		cmp	r4, #65536
 3571 0042 63D2     		bcs	.L285
 3572              		.loc 1 1125 3 view .LVU1031
1126:../../Middlewares/Third_Party/LwIP/src/apps/mqtt/mqtt.c ****   remaining_length = (u16_t)total_len;
 3573              		.loc 1 1126 3 view .LVU1032
 3574              		.loc 1 1126 20 is_stmt 0 view .LVU1033
 3575 0044 A4B2     		uxth	r4, r4
 3576              	.LVL393:
1127:../../Middlewares/Third_Party/LwIP/src/apps/mqtt/mqtt.c **** 
1128:../../Middlewares/Third_Party/LwIP/src/apps/mqtt/mqtt.c ****   LWIP_DEBUGF(MQTT_DEBUG_TRACE, ("mqtt_publish: Publish with payload length %d to topic \"%s\"\n", 
 3577              		.loc 1 1128 123 is_stmt 1 view .LVU1034
1129:../../Middlewares/Third_Party/LwIP/src/apps/mqtt/mqtt.c **** 
1130:../../Middlewares/Third_Party/LwIP/src/apps/mqtt/mqtt.c ****   r = mqtt_create_request(client->req_list, LWIP_ARRAYSIZE(client->req_list), pkt_id, cb, arg);
 3578              		.loc 1 1130 3 view .LVU1035
 3579              		.loc 1 1130 7 is_stmt 0 view .LVU1036
 3580 0046 119B     		ldr	r3, [sp, #68]
 3581 0048 0093     		str	r3, [sp]
 3582 004a 109B     		ldr	r3, [sp, #64]
 3583 004c 5A46     		mov	r2, fp
 3584 004e 0421     		movs	r1, #4
 3585 0050 06F11C00 		add	r0, r6, #28
 3586 0054 FFF7FEFF 		bl	mqtt_create_request
 3587              	.LVL394:
1131:../../Middlewares/Third_Party/LwIP/src/apps/mqtt/mqtt.c ****   if (r == NULL) {
 3588              		.loc 1 1131 3 is_stmt 1 view .LVU1037
 3589              		.loc 1 1131 6 is_stmt 0 view .LVU1038
 3590 0058 0390     		str	r0, [sp, #12]
 3591 005a 0028     		cmp	r0, #0
 3592 005c 71D0     		beq	.L278
1132:../../Middlewares/Third_Party/LwIP/src/apps/mqtt/mqtt.c ****     return ERR_MEM;
1133:../../Middlewares/Third_Party/LwIP/src/apps/mqtt/mqtt.c ****   }
1134:../../Middlewares/Third_Party/LwIP/src/apps/mqtt/mqtt.c **** 
1135:../../Middlewares/Third_Party/LwIP/src/apps/mqtt/mqtt.c ****   if (mqtt_output_check_space(&client->output, remaining_length) == 0) {
 3593              		.loc 1 1135 3 is_stmt 1 view .LVU1039
 3594              		.loc 1 1135 7 is_stmt 0 view .LVU1040
 3595 005e 06F1EC08 		add	r8, r6, #236
 3596 0062 2146     		mov	r1, r4
ARM GAS  C:\Users\minis\AppData\Local\Temp\ccG6JyYg.s 			page 100


 3597 0064 4046     		mov	r0, r8
 3598              	.LVL395:
 3599              		.loc 1 1135 7 view .LVU1041
 3600 0066 FFF7FEFF 		bl	mqtt_output_check_space
 3601              	.LVL396:
 3602              		.loc 1 1135 6 discriminator 1 view .LVU1042
 3603 006a 0028     		cmp	r0, #0
 3604 006c 58D0     		beq	.L286
1136:../../Middlewares/Third_Party/LwIP/src/apps/mqtt/mqtt.c ****     mqtt_delete_request(r);
1137:../../Middlewares/Third_Party/LwIP/src/apps/mqtt/mqtt.c ****     return ERR_MEM;
1138:../../Middlewares/Third_Party/LwIP/src/apps/mqtt/mqtt.c ****   }
1139:../../Middlewares/Third_Party/LwIP/src/apps/mqtt/mqtt.c ****   /* Append fixed header */
1140:../../Middlewares/Third_Party/LwIP/src/apps/mqtt/mqtt.c ****   mqtt_output_append_fixed_header(&client->output, MQTT_MSG_TYPE_PUBLISH, 0, qos, retain, remaining
 3605              		.loc 1 1140 3 is_stmt 1 view .LVU1043
 3606 006e 0194     		str	r4, [sp, #4]
 3607 0070 9DF83C30 		ldrb	r3, [sp, #60]	@ zero_extendqisi2
 3608 0074 0093     		str	r3, [sp]
 3609 0076 5346     		mov	r3, r10
 3610 0078 0022     		movs	r2, #0
 3611 007a 0321     		movs	r1, #3
 3612 007c 4046     		mov	r0, r8
 3613 007e FFF7FEFF 		bl	mqtt_output_append_fixed_header
 3614              	.LVL397:
1141:../../Middlewares/Third_Party/LwIP/src/apps/mqtt/mqtt.c **** 
1142:../../Middlewares/Third_Party/LwIP/src/apps/mqtt/mqtt.c ****   /* Append Topic */
1143:../../Middlewares/Third_Party/LwIP/src/apps/mqtt/mqtt.c ****   mqtt_output_append_string(&client->output, topic, topic_len);
 3615              		.loc 1 1143 3 view .LVU1044
 3616 0082 2A46     		mov	r2, r5
 3617 0084 3946     		mov	r1, r7
 3618 0086 4046     		mov	r0, r8
 3619 0088 FFF7FEFF 		bl	mqtt_output_append_string
 3620              	.LVL398:
1144:../../Middlewares/Third_Party/LwIP/src/apps/mqtt/mqtt.c **** 
1145:../../Middlewares/Third_Party/LwIP/src/apps/mqtt/mqtt.c ****   /* Append packet if for QoS 1 and 2*/
1146:../../Middlewares/Third_Party/LwIP/src/apps/mqtt/mqtt.c ****   if (qos > 0) {
 3621              		.loc 1 1146 3 view .LVU1045
 3622              		.loc 1 1146 6 is_stmt 0 view .LVU1046
 3623 008c BAF1000F 		cmp	r10, #0
 3624 0090 4CD1     		bne	.L287
 3625              	.L275:
1147:../../Middlewares/Third_Party/LwIP/src/apps/mqtt/mqtt.c ****     mqtt_output_append_u16(&client->output, pkt_id);
1148:../../Middlewares/Third_Party/LwIP/src/apps/mqtt/mqtt.c ****   }
1149:../../Middlewares/Third_Party/LwIP/src/apps/mqtt/mqtt.c **** 
1150:../../Middlewares/Third_Party/LwIP/src/apps/mqtt/mqtt.c ****   /* Append optional publish payload */
1151:../../Middlewares/Third_Party/LwIP/src/apps/mqtt/mqtt.c ****   if ((payload != NULL) && (payload_length > 0)) {
 3626              		.loc 1 1151 3 is_stmt 1 view .LVU1047
 3627              		.loc 1 1151 6 is_stmt 0 view .LVU1048
 3628 0092 029B     		ldr	r3, [sp, #8]
 3629 0094 002B     		cmp	r3, #0
 3630 0096 18BF     		it	ne
 3631 0098 B9F1000F 		cmpne	r9, #0
 3632 009c 4BD1     		bne	.L288
 3633              	.L276:
1152:../../Middlewares/Third_Party/LwIP/src/apps/mqtt/mqtt.c ****     mqtt_output_append_buf(&client->output, payload, payload_length);
1153:../../Middlewares/Third_Party/LwIP/src/apps/mqtt/mqtt.c ****   }
1154:../../Middlewares/Third_Party/LwIP/src/apps/mqtt/mqtt.c **** 
1155:../../Middlewares/Third_Party/LwIP/src/apps/mqtt/mqtt.c ****   mqtt_append_request(&client->pend_req_queue, r);
ARM GAS  C:\Users\minis\AppData\Local\Temp\ccG6JyYg.s 			page 101


 3634              		.loc 1 1155 3 is_stmt 1 view .LVU1049
 3635 009e 0399     		ldr	r1, [sp, #12]
 3636 00a0 06F11800 		add	r0, r6, #24
 3637 00a4 FFF7FEFF 		bl	mqtt_append_request
 3638              	.LVL399:
1156:../../Middlewares/Third_Party/LwIP/src/apps/mqtt/mqtt.c ****   mqtt_output_send(&client->output, client->conn);
 3639              		.loc 1 1156 3 view .LVU1050
 3640 00a8 F168     		ldr	r1, [r6, #12]
 3641 00aa 4046     		mov	r0, r8
 3642 00ac FFF7FEFF 		bl	mqtt_output_send
 3643              	.LVL400:
1157:../../Middlewares/Third_Party/LwIP/src/apps/mqtt/mqtt.c ****   return ERR_OK;
 3644              		.loc 1 1157 3 view .LVU1051
 3645              		.loc 1 1157 10 is_stmt 0 view .LVU1052
 3646 00b0 0020     		movs	r0, #0
 3647              	.LVL401:
 3648              	.L270:
1158:../../Middlewares/Third_Party/LwIP/src/apps/mqtt/mqtt.c **** }
 3649              		.loc 1 1158 1 view .LVU1053
 3650 00b2 05B0     		add	sp, sp, #20
 3651              	.LCFI38:
 3652              		.cfi_remember_state
 3653              		.cfi_def_cfa_offset 36
 3654              		@ sp needed
 3655 00b4 BDE8F08F 		pop	{r4, r5, r6, r7, r8, r9, r10, fp, pc}
 3656              	.LVL402:
 3657              	.L280:
 3658              	.LCFI39:
 3659              		.cfi_restore_state
1108:../../Middlewares/Third_Party/LwIP/src/apps/mqtt/mqtt.c ****   LWIP_ASSERT("mqtt_publish: topic != NULL", topic);
 3660              		.loc 1 1108 3 is_stmt 1 discriminator 1 view .LVU1054
1108:../../Middlewares/Third_Party/LwIP/src/apps/mqtt/mqtt.c ****   LWIP_ASSERT("mqtt_publish: topic != NULL", topic);
 3661              		.loc 1 1108 3 discriminator 1 view .LVU1055
 3662 00b8 234B     		ldr	r3, .L289
 3663              	.LVL403:
1108:../../Middlewares/Third_Party/LwIP/src/apps/mqtt/mqtt.c ****   LWIP_ASSERT("mqtt_publish: topic != NULL", topic);
 3664              		.loc 1 1108 3 is_stmt 0 discriminator 1 view .LVU1056
 3665 00ba 40F25442 		movw	r2, #1108
 3666              	.LVL404:
1108:../../Middlewares/Third_Party/LwIP/src/apps/mqtt/mqtt.c ****   LWIP_ASSERT("mqtt_publish: topic != NULL", topic);
 3667              		.loc 1 1108 3 discriminator 1 view .LVU1057
 3668 00be 2349     		ldr	r1, .L289+4
 3669              	.LVL405:
1108:../../Middlewares/Third_Party/LwIP/src/apps/mqtt/mqtt.c ****   LWIP_ASSERT("mqtt_publish: topic != NULL", topic);
 3670              		.loc 1 1108 3 discriminator 1 view .LVU1058
 3671 00c0 2348     		ldr	r0, .L289+8
 3672              	.LVL406:
1108:../../Middlewares/Third_Party/LwIP/src/apps/mqtt/mqtt.c ****   LWIP_ASSERT("mqtt_publish: topic != NULL", topic);
 3673              		.loc 1 1108 3 discriminator 1 view .LVU1059
 3674 00c2 FFF7FEFF 		bl	printf
 3675              	.LVL407:
 3676 00c6 A6E7     		b	.L267
 3677              	.L281:
1109:../../Middlewares/Third_Party/LwIP/src/apps/mqtt/mqtt.c ****   LWIP_ERROR("mqtt_publish: TCP disconnected", (client->conn_state != TCP_DISCONNECTED), return ERR
 3678              		.loc 1 1109 3 is_stmt 1 discriminator 1 view .LVU1060
1109:../../Middlewares/Third_Party/LwIP/src/apps/mqtt/mqtt.c ****   LWIP_ERROR("mqtt_publish: TCP disconnected", (client->conn_state != TCP_DISCONNECTED), return ERR
 3679              		.loc 1 1109 3 discriminator 1 view .LVU1061
ARM GAS  C:\Users\minis\AppData\Local\Temp\ccG6JyYg.s 			page 102


 3680 00c8 1F4B     		ldr	r3, .L289
 3681 00ca 40F25542 		movw	r2, #1109
 3682 00ce 2149     		ldr	r1, .L289+12
 3683 00d0 1F48     		ldr	r0, .L289+8
 3684 00d2 FFF7FEFF 		bl	printf
 3685              	.LVL408:
 3686 00d6 A0E7     		b	.L268
 3687              	.L282:
1110:../../Middlewares/Third_Party/LwIP/src/apps/mqtt/mqtt.c **** 
 3688              		.loc 1 1110 3 discriminator 1 view .LVU1062
1110:../../Middlewares/Third_Party/LwIP/src/apps/mqtt/mqtt.c **** 
 3689              		.loc 1 1110 3 discriminator 1 view .LVU1063
 3690 00d8 1B4B     		ldr	r3, .L289
 3691 00da 40F25642 		movw	r2, #1110
 3692 00de 1E49     		ldr	r1, .L289+16
 3693 00e0 1B48     		ldr	r0, .L289+8
 3694 00e2 FFF7FEFF 		bl	printf
 3695              	.LVL409:
1110:../../Middlewares/Third_Party/LwIP/src/apps/mqtt/mqtt.c **** 
 3696              		.loc 1 1110 3 discriminator 1 view .LVU1064
1110:../../Middlewares/Third_Party/LwIP/src/apps/mqtt/mqtt.c **** 
 3697              		.loc 1 1110 3 discriminator 1 view .LVU1065
 3698 00e6 6FF00A00 		mvn	r0, #10
1110:../../Middlewares/Third_Party/LwIP/src/apps/mqtt/mqtt.c **** 
 3699              		.loc 1 1110 3 is_stmt 0 view .LVU1066
 3700 00ea E2E7     		b	.L270
 3701              	.LVL410:
 3702              	.L283:
1113:../../Middlewares/Third_Party/LwIP/src/apps/mqtt/mqtt.c ****   topic_len = (u16_t)topic_strlen;
 3703              		.loc 1 1113 3 is_stmt 1 discriminator 1 view .LVU1067
1113:../../Middlewares/Third_Party/LwIP/src/apps/mqtt/mqtt.c ****   topic_len = (u16_t)topic_strlen;
 3704              		.loc 1 1113 3 discriminator 1 view .LVU1068
 3705 00ec 164B     		ldr	r3, .L289
 3706 00ee 40F25942 		movw	r2, #1113
 3707 00f2 1A49     		ldr	r1, .L289+20
 3708 00f4 1648     		ldr	r0, .L289+8
 3709              	.LVL411:
1113:../../Middlewares/Third_Party/LwIP/src/apps/mqtt/mqtt.c ****   topic_len = (u16_t)topic_strlen;
 3710              		.loc 1 1113 3 is_stmt 0 discriminator 1 view .LVU1069
 3711 00f6 FFF7FEFF 		bl	printf
 3712              	.LVL412:
1113:../../Middlewares/Third_Party/LwIP/src/apps/mqtt/mqtt.c ****   topic_len = (u16_t)topic_strlen;
 3713              		.loc 1 1113 3 is_stmt 1 discriminator 1 view .LVU1070
1113:../../Middlewares/Third_Party/LwIP/src/apps/mqtt/mqtt.c ****   topic_len = (u16_t)topic_strlen;
 3714              		.loc 1 1113 3 discriminator 1 view .LVU1071
 3715 00fa 6FF00F00 		mvn	r0, #15
1113:../../Middlewares/Third_Party/LwIP/src/apps/mqtt/mqtt.c ****   topic_len = (u16_t)topic_strlen;
 3716              		.loc 1 1113 3 is_stmt 0 view .LVU1072
 3717 00fe D8E7     		b	.L270
 3718              	.LVL413:
 3719              	.L284:
1118:../../Middlewares/Third_Party/LwIP/src/apps/mqtt/mqtt.c ****     /* Generate pkt_id id for QoS1 and 2 */
 3720              		.loc 1 1118 5 is_stmt 1 view .LVU1073
1118:../../Middlewares/Third_Party/LwIP/src/apps/mqtt/mqtt.c ****     /* Generate pkt_id id for QoS1 and 2 */
 3721              		.loc 1 1118 15 is_stmt 0 view .LVU1074
 3722 0100 0234     		adds	r4, r4, #2
 3723              	.LVL414:
ARM GAS  C:\Users\minis\AppData\Local\Temp\ccG6JyYg.s 			page 103


1120:../../Middlewares/Third_Party/LwIP/src/apps/mqtt/mqtt.c ****   } else {
 3724              		.loc 1 1120 5 is_stmt 1 view .LVU1075
1120:../../Middlewares/Third_Party/LwIP/src/apps/mqtt/mqtt.c ****   } else {
 3725              		.loc 1 1120 14 is_stmt 0 view .LVU1076
 3726 0102 3046     		mov	r0, r6
 3727              	.LVL415:
1120:../../Middlewares/Third_Party/LwIP/src/apps/mqtt/mqtt.c ****   } else {
 3728              		.loc 1 1120 14 view .LVU1077
 3729 0104 FFF7FEFF 		bl	msg_generate_packet_id
 3730              	.LVL416:
 3731 0108 8346     		mov	fp, r0
 3732              	.LVL417:
1120:../../Middlewares/Third_Party/LwIP/src/apps/mqtt/mqtt.c ****   } else {
 3733              		.loc 1 1120 14 view .LVU1078
 3734 010a 98E7     		b	.L272
 3735              	.L285:
1125:../../Middlewares/Third_Party/LwIP/src/apps/mqtt/mqtt.c ****   remaining_length = (u16_t)total_len;
 3736              		.loc 1 1125 3 is_stmt 1 discriminator 1 view .LVU1079
1125:../../Middlewares/Third_Party/LwIP/src/apps/mqtt/mqtt.c ****   remaining_length = (u16_t)total_len;
 3737              		.loc 1 1125 3 discriminator 1 view .LVU1080
 3738 010c 0E4B     		ldr	r3, .L289
 3739 010e 40F26542 		movw	r2, #1125
 3740 0112 1349     		ldr	r1, .L289+24
 3741 0114 0E48     		ldr	r0, .L289+8
 3742 0116 FFF7FEFF 		bl	printf
 3743              	.LVL418:
1125:../../Middlewares/Third_Party/LwIP/src/apps/mqtt/mqtt.c ****   remaining_length = (u16_t)total_len;
 3744              		.loc 1 1125 3 discriminator 1 view .LVU1081
1125:../../Middlewares/Third_Party/LwIP/src/apps/mqtt/mqtt.c ****   remaining_length = (u16_t)total_len;
 3745              		.loc 1 1125 3 discriminator 1 view .LVU1082
 3746 011a 6FF00F00 		mvn	r0, #15
1125:../../Middlewares/Third_Party/LwIP/src/apps/mqtt/mqtt.c ****   remaining_length = (u16_t)total_len;
 3747              		.loc 1 1125 3 is_stmt 0 view .LVU1083
 3748 011e C8E7     		b	.L270
 3749              	.LVL419:
 3750              	.L286:
1136:../../Middlewares/Third_Party/LwIP/src/apps/mqtt/mqtt.c ****     return ERR_MEM;
 3751              		.loc 1 1136 5 is_stmt 1 view .LVU1084
 3752 0120 0398     		ldr	r0, [sp, #12]
 3753 0122 FFF7FEFF 		bl	mqtt_delete_request
 3754              	.LVL420:
1137:../../Middlewares/Third_Party/LwIP/src/apps/mqtt/mqtt.c ****   }
 3755              		.loc 1 1137 5 view .LVU1085
1137:../../Middlewares/Third_Party/LwIP/src/apps/mqtt/mqtt.c ****   }
 3756              		.loc 1 1137 12 is_stmt 0 view .LVU1086
 3757 0126 4FF0FF30 		mov	r0, #-1
 3758 012a C2E7     		b	.L270
 3759              	.L287:
1147:../../Middlewares/Third_Party/LwIP/src/apps/mqtt/mqtt.c ****   }
 3760              		.loc 1 1147 5 is_stmt 1 view .LVU1087
 3761 012c 5946     		mov	r1, fp
 3762 012e 4046     		mov	r0, r8
 3763 0130 FFF7FEFF 		bl	mqtt_output_append_u16
 3764              	.LVL421:
 3765 0134 ADE7     		b	.L275
 3766              	.L288:
1152:../../Middlewares/Third_Party/LwIP/src/apps/mqtt/mqtt.c ****   }
ARM GAS  C:\Users\minis\AppData\Local\Temp\ccG6JyYg.s 			page 104


 3767              		.loc 1 1152 5 view .LVU1088
 3768 0136 4A46     		mov	r2, r9
 3769 0138 1946     		mov	r1, r3
 3770 013a 4046     		mov	r0, r8
 3771 013c FFF7FEFF 		bl	mqtt_output_append_buf
 3772              	.LVL422:
 3773 0140 ADE7     		b	.L276
 3774              	.LVL423:
 3775              	.L278:
1132:../../Middlewares/Third_Party/LwIP/src/apps/mqtt/mqtt.c ****   }
 3776              		.loc 1 1132 12 is_stmt 0 view .LVU1089
 3777 0142 4FF0FF30 		mov	r0, #-1
 3778              	.LVL424:
1132:../../Middlewares/Third_Party/LwIP/src/apps/mqtt/mqtt.c ****   }
 3779              		.loc 1 1132 12 view .LVU1090
 3780 0146 B4E7     		b	.L270
 3781              	.L290:
 3782              		.align	2
 3783              	.L289:
 3784 0148 00000000 		.word	.LC0
 3785 014c 00000000 		.word	.LC19
 3786 0150 5C000000 		.word	.LC2
 3787 0154 20000000 		.word	.LC20
 3788 0158 3C000000 		.word	.LC21
 3789 015c 5C000000 		.word	.LC22
 3790 0160 80000000 		.word	.LC23
 3791              		.cfi_endproc
 3792              	.LFE204:
 3794              		.section	.rodata.mqtt_sub_unsub.str1.4,"aMS",%progbits,1
 3795              		.align	2
 3796              	.LC24:
 3797 0000 6D717474 		.ascii	"mqtt_sub_unsub: client != NULL\000"
 3797      5F737562 
 3797      5F756E73 
 3797      75623A20 
 3797      636C6965 
 3798 001f 00       		.align	2
 3799              	.LC25:
 3800 0020 6D717474 		.ascii	"mqtt_sub_unsub: topic != NULL\000"
 3800      5F737562 
 3800      5F756E73 
 3800      75623A20 
 3800      746F7069 
 3801 003e 0000     		.align	2
 3802              	.LC26:
 3803 0040 6D717474 		.ascii	"mqtt_sub_unsub: topic length overflow\000"
 3803      5F737562 
 3803      5F756E73 
 3803      75623A20 
 3803      746F7069 
 3804 0066 0000     		.align	2
 3805              	.LC27:
 3806 0068 6D717474 		.ascii	"mqtt_sub_unsub: total length overflow\000"
 3806      5F737562 
 3806      5F756E73 
 3806      75623A20 
 3806      746F7461 
ARM GAS  C:\Users\minis\AppData\Local\Temp\ccG6JyYg.s 			page 105


 3807 008e 0000     		.align	2
 3808              	.LC28:
 3809 0090 6D717474 		.ascii	"mqtt_sub_unsub: qos < 3\000"
 3809      5F737562 
 3809      5F756E73 
 3809      75623A20 
 3809      716F7320 
 3810              		.section	.text.mqtt_sub_unsub,"ax",%progbits
 3811              		.align	1
 3812              		.global	mqtt_sub_unsub
 3813              		.syntax unified
 3814              		.thumb
 3815              		.thumb_func
 3817              	mqtt_sub_unsub:
 3818              	.LVL425:
 3819              	.LFB205:
1159:../../Middlewares/Third_Party/LwIP/src/apps/mqtt/mqtt.c **** 
1160:../../Middlewares/Third_Party/LwIP/src/apps/mqtt/mqtt.c **** 
1161:../../Middlewares/Third_Party/LwIP/src/apps/mqtt/mqtt.c **** /**
1162:../../Middlewares/Third_Party/LwIP/src/apps/mqtt/mqtt.c ****  * @ingroup mqtt
1163:../../Middlewares/Third_Party/LwIP/src/apps/mqtt/mqtt.c ****  * MQTT subscribe/unsubscribe function.
1164:../../Middlewares/Third_Party/LwIP/src/apps/mqtt/mqtt.c ****  * @param client MQTT client
1165:../../Middlewares/Third_Party/LwIP/src/apps/mqtt/mqtt.c ****  * @param topic topic to subscribe to
1166:../../Middlewares/Third_Party/LwIP/src/apps/mqtt/mqtt.c ****  * @param qos Quality of service, 0 1 or 2 (only used for subscribe)
1167:../../Middlewares/Third_Party/LwIP/src/apps/mqtt/mqtt.c ****  * @param cb Callback to call when subscribe/unsubscribe reponse is received
1168:../../Middlewares/Third_Party/LwIP/src/apps/mqtt/mqtt.c ****  * @param arg User supplied argument to publish callback
1169:../../Middlewares/Third_Party/LwIP/src/apps/mqtt/mqtt.c ****  * @param sub 1 for subscribe, 0 for unsubscribe
1170:../../Middlewares/Third_Party/LwIP/src/apps/mqtt/mqtt.c ****  * @return ERR_OK if successful, @see err_t enum for other results
1171:../../Middlewares/Third_Party/LwIP/src/apps/mqtt/mqtt.c ****  */
1172:../../Middlewares/Third_Party/LwIP/src/apps/mqtt/mqtt.c **** err_t
1173:../../Middlewares/Third_Party/LwIP/src/apps/mqtt/mqtt.c **** mqtt_sub_unsub(mqtt_client_t *client, const char *topic, u8_t qos, mqtt_request_cb_t cb, void *arg,
1174:../../Middlewares/Third_Party/LwIP/src/apps/mqtt/mqtt.c **** {
 3820              		.loc 1 1174 1 is_stmt 1 view -0
 3821              		.cfi_startproc
 3822              		@ args = 8, pretend = 0, frame = 8
 3823              		@ frame_needed = 0, uses_anonymous_args = 0
 3824              		.loc 1 1174 1 is_stmt 0 view .LVU1092
 3825 0000 2DE9F04F 		push	{r4, r5, r6, r7, r8, r9, r10, fp, lr}
 3826              	.LCFI40:
 3827              		.cfi_def_cfa_offset 36
 3828              		.cfi_offset 4, -36
 3829              		.cfi_offset 5, -32
 3830              		.cfi_offset 6, -28
 3831              		.cfi_offset 7, -24
 3832              		.cfi_offset 8, -20
 3833              		.cfi_offset 9, -16
 3834              		.cfi_offset 10, -12
 3835              		.cfi_offset 11, -8
 3836              		.cfi_offset 14, -4
 3837 0004 85B0     		sub	sp, sp, #20
 3838              	.LCFI41:
 3839              		.cfi_def_cfa_offset 56
 3840 0006 8846     		mov	r8, r1
 3841 0008 9246     		mov	r10, r2
 3842 000a 1F46     		mov	r7, r3
 3843 000c 9DF83CB0 		ldrb	fp, [sp, #60]	@ zero_extendqisi2
1175:../../Middlewares/Third_Party/LwIP/src/apps/mqtt/mqtt.c ****   size_t topic_strlen;
ARM GAS  C:\Users\minis\AppData\Local\Temp\ccG6JyYg.s 			page 106


 3844              		.loc 1 1175 3 is_stmt 1 view .LVU1093
1176:../../Middlewares/Third_Party/LwIP/src/apps/mqtt/mqtt.c ****   size_t total_len;
 3845              		.loc 1 1176 3 view .LVU1094
1177:../../Middlewares/Third_Party/LwIP/src/apps/mqtt/mqtt.c ****   u16_t topic_len;
 3846              		.loc 1 1177 3 view .LVU1095
1178:../../Middlewares/Third_Party/LwIP/src/apps/mqtt/mqtt.c ****   u16_t remaining_length;
 3847              		.loc 1 1178 3 view .LVU1096
1179:../../Middlewares/Third_Party/LwIP/src/apps/mqtt/mqtt.c ****   u16_t pkt_id;
 3848              		.loc 1 1179 3 view .LVU1097
1180:../../Middlewares/Third_Party/LwIP/src/apps/mqtt/mqtt.c ****   struct mqtt_request_t *r;
 3849              		.loc 1 1180 3 view .LVU1098
1181:../../Middlewares/Third_Party/LwIP/src/apps/mqtt/mqtt.c **** 
1182:../../Middlewares/Third_Party/LwIP/src/apps/mqtt/mqtt.c ****   LWIP_ASSERT_CORE_LOCKED();
 3850              		.loc 1 1182 28 view .LVU1099
1183:../../Middlewares/Third_Party/LwIP/src/apps/mqtt/mqtt.c ****   LWIP_ASSERT("mqtt_sub_unsub: client != NULL", client);
 3851              		.loc 1 1183 3 view .LVU1100
 3852              		.loc 1 1183 3 view .LVU1101
 3853 0010 0646     		mov	r6, r0
 3854 0012 0028     		cmp	r0, #0
 3855 0014 55D0     		beq	.L305
 3856              	.LVL426:
 3857              	.L292:
 3858              		.loc 1 1183 3 view .LVU1102
 3859              		.loc 1 1183 3 view .LVU1103
1184:../../Middlewares/Third_Party/LwIP/src/apps/mqtt/mqtt.c ****   LWIP_ASSERT("mqtt_sub_unsub: topic != NULL", topic);
 3860              		.loc 1 1184 3 view .LVU1104
 3861              		.loc 1 1184 3 view .LVU1105
 3862 0016 B8F1000F 		cmp	r8, #0
 3863 001a 5AD0     		beq	.L306
 3864              	.L293:
 3865              		.loc 1 1184 3 view .LVU1106
 3866              		.loc 1 1184 3 view .LVU1107
1185:../../Middlewares/Third_Party/LwIP/src/apps/mqtt/mqtt.c **** 
1186:../../Middlewares/Third_Party/LwIP/src/apps/mqtt/mqtt.c ****   topic_strlen = strlen(topic);
 3867              		.loc 1 1186 3 view .LVU1108
 3868              		.loc 1 1186 18 is_stmt 0 view .LVU1109
 3869 001c 4046     		mov	r0, r8
 3870 001e FFF7FEFF 		bl	strlen
 3871              	.LVL427:
1187:../../Middlewares/Third_Party/LwIP/src/apps/mqtt/mqtt.c ****   LWIP_ERROR("mqtt_sub_unsub: topic length overflow", (topic_strlen <= (0xFFFF - 2)), return ERR_AR
 3872              		.loc 1 1187 3 is_stmt 1 view .LVU1110
 3873              		.loc 1 1187 3 view .LVU1111
 3874 0022 4FF6FD73 		movw	r3, #65533
 3875 0026 9842     		cmp	r0, r3
 3876 0028 5BD8     		bhi	.L307
 3877              		.loc 1 1187 3 view .LVU1112
1188:../../Middlewares/Third_Party/LwIP/src/apps/mqtt/mqtt.c ****   topic_len = (u16_t)topic_strlen;
 3878              		.loc 1 1188 3 view .LVU1113
 3879              		.loc 1 1188 13 is_stmt 0 view .LVU1114
 3880 002a 84B2     		uxth	r4, r0
 3881              	.LVL428:
1189:../../Middlewares/Third_Party/LwIP/src/apps/mqtt/mqtt.c ****   /* Topic string, pkt_id, qos for subscribe */
1190:../../Middlewares/Third_Party/LwIP/src/apps/mqtt/mqtt.c ****   total_len =  topic_len + 2 + 2 + (sub != 0);
 3882              		.loc 1 1190 3 is_stmt 1 view .LVU1115
 3883              		.loc 1 1190 30 is_stmt 0 view .LVU1116
 3884 002c 251D     		adds	r5, r4, #4
 3885              		.loc 1 1190 34 view .LVU1117
ARM GAS  C:\Users\minis\AppData\Local\Temp\ccG6JyYg.s 			page 107


 3886 002e BBF1000F 		cmp	fp, #0
 3887 0032 18BF     		it	ne
 3888 0034 0135     		addne	r5, r5, #1
 3889              	.LVL429:
1191:../../Middlewares/Third_Party/LwIP/src/apps/mqtt/mqtt.c ****   LWIP_ERROR("mqtt_sub_unsub: total length overflow", (total_len <= 0xFFFF), return ERR_ARG);
 3890              		.loc 1 1191 3 is_stmt 1 view .LVU1118
 3891              		.loc 1 1191 3 view .LVU1119
 3892 0036 B5F5803F 		cmp	r5, #65536
 3893 003a 5CD2     		bcs	.L308
 3894              		.loc 1 1191 3 view .LVU1120
1192:../../Middlewares/Third_Party/LwIP/src/apps/mqtt/mqtt.c ****   remaining_length = (u16_t)total_len;
 3895              		.loc 1 1192 3 view .LVU1121
 3896              		.loc 1 1192 20 is_stmt 0 view .LVU1122
 3897 003c ADB2     		uxth	r5, r5
 3898              	.LVL430:
1193:../../Middlewares/Third_Party/LwIP/src/apps/mqtt/mqtt.c **** 
1194:../../Middlewares/Third_Party/LwIP/src/apps/mqtt/mqtt.c ****   LWIP_ASSERT("mqtt_sub_unsub: qos < 3", qos < 3);
 3899              		.loc 1 1194 3 is_stmt 1 view .LVU1123
 3900              		.loc 1 1194 3 view .LVU1124
 3901 003e BAF1020F 		cmp	r10, #2
 3902 0042 62D8     		bhi	.L309
 3903              	.LVL431:
 3904              	.L297:
 3905              		.loc 1 1194 3 view .LVU1125
 3906              		.loc 1 1194 3 view .LVU1126
1195:../../Middlewares/Third_Party/LwIP/src/apps/mqtt/mqtt.c ****   if (client->conn_state == TCP_DISCONNECTED) {
 3907              		.loc 1 1195 3 view .LVU1127
 3908              		.loc 1 1195 13 is_stmt 0 view .LVU1128
 3909 0044 B37A     		ldrb	r3, [r6, #10]	@ zero_extendqisi2
 3910              		.loc 1 1195 6 view .LVU1129
 3911 0046 002B     		cmp	r3, #0
 3912 0048 77D0     		beq	.L301
1196:../../Middlewares/Third_Party/LwIP/src/apps/mqtt/mqtt.c ****     LWIP_DEBUGF(MQTT_DEBUG_WARN, ("mqtt_sub_unsub: Can not (un)subscribe in disconnected state\n"))
1197:../../Middlewares/Third_Party/LwIP/src/apps/mqtt/mqtt.c ****     return ERR_CONN;
1198:../../Middlewares/Third_Party/LwIP/src/apps/mqtt/mqtt.c ****   }
1199:../../Middlewares/Third_Party/LwIP/src/apps/mqtt/mqtt.c **** 
1200:../../Middlewares/Third_Party/LwIP/src/apps/mqtt/mqtt.c ****   pkt_id = msg_generate_packet_id(client);
 3913              		.loc 1 1200 3 is_stmt 1 view .LVU1130
 3914              		.loc 1 1200 12 is_stmt 0 view .LVU1131
 3915 004a 3046     		mov	r0, r6
 3916 004c FFF7FEFF 		bl	msg_generate_packet_id
 3917              	.LVL432:
 3918 0050 8146     		mov	r9, r0
 3919              	.LVL433:
1201:../../Middlewares/Third_Party/LwIP/src/apps/mqtt/mqtt.c ****   r = mqtt_create_request(client->req_list, LWIP_ARRAYSIZE(client->req_list), pkt_id, cb, arg);
 3920              		.loc 1 1201 3 is_stmt 1 view .LVU1132
 3921              		.loc 1 1201 7 is_stmt 0 view .LVU1133
 3922 0052 0E9B     		ldr	r3, [sp, #56]
 3923 0054 0093     		str	r3, [sp]
 3924 0056 3B46     		mov	r3, r7
 3925 0058 0246     		mov	r2, r0
 3926 005a 0421     		movs	r1, #4
 3927 005c 06F11C00 		add	r0, r6, #28
 3928              	.LVL434:
 3929              		.loc 1 1201 7 view .LVU1134
 3930 0060 FFF7FEFF 		bl	mqtt_create_request
 3931              	.LVL435:
ARM GAS  C:\Users\minis\AppData\Local\Temp\ccG6JyYg.s 			page 108


1202:../../Middlewares/Third_Party/LwIP/src/apps/mqtt/mqtt.c ****   if (r == NULL) {
 3932              		.loc 1 1202 3 is_stmt 1 view .LVU1135
 3933              		.loc 1 1202 6 is_stmt 0 view .LVU1136
 3934 0064 0390     		str	r0, [sp, #12]
 3935 0066 0028     		cmp	r0, #0
 3936 0068 6AD0     		beq	.L302
1203:../../Middlewares/Third_Party/LwIP/src/apps/mqtt/mqtt.c ****     return ERR_MEM;
1204:../../Middlewares/Third_Party/LwIP/src/apps/mqtt/mqtt.c ****   }
1205:../../Middlewares/Third_Party/LwIP/src/apps/mqtt/mqtt.c **** 
1206:../../Middlewares/Third_Party/LwIP/src/apps/mqtt/mqtt.c ****   if (mqtt_output_check_space(&client->output, remaining_length) == 0) {
 3937              		.loc 1 1206 3 is_stmt 1 view .LVU1137
 3938              		.loc 1 1206 7 is_stmt 0 view .LVU1138
 3939 006a 06F1EC07 		add	r7, r6, #236
 3940              	.LVL436:
 3941              		.loc 1 1206 7 view .LVU1139
 3942 006e 2946     		mov	r1, r5
 3943 0070 3846     		mov	r0, r7
 3944              	.LVL437:
 3945              		.loc 1 1206 7 view .LVU1140
 3946 0072 FFF7FEFF 		bl	mqtt_output_check_space
 3947              	.LVL438:
 3948              		.loc 1 1206 6 discriminator 1 view .LVU1141
 3949 0076 0028     		cmp	r0, #0
 3950 0078 4FD0     		beq	.L310
1207:../../Middlewares/Third_Party/LwIP/src/apps/mqtt/mqtt.c ****     mqtt_delete_request(r);
1208:../../Middlewares/Third_Party/LwIP/src/apps/mqtt/mqtt.c ****     return ERR_MEM;
1209:../../Middlewares/Third_Party/LwIP/src/apps/mqtt/mqtt.c ****   }
1210:../../Middlewares/Third_Party/LwIP/src/apps/mqtt/mqtt.c **** 
1211:../../Middlewares/Third_Party/LwIP/src/apps/mqtt/mqtt.c ****   LWIP_DEBUGF(MQTT_DEBUG_TRACE, ("mqtt_sub_unsub: Client (un)subscribe to topic \"%s\", id: %d\n", 
 3951              		.loc 1 1211 115 is_stmt 1 view .LVU1142
1212:../../Middlewares/Third_Party/LwIP/src/apps/mqtt/mqtt.c **** 
1213:../../Middlewares/Third_Party/LwIP/src/apps/mqtt/mqtt.c ****   mqtt_output_append_fixed_header(&client->output, sub ? MQTT_MSG_TYPE_SUBSCRIBE : MQTT_MSG_TYPE_UN
 3952              		.loc 1 1213 3 view .LVU1143
 3953 007a BBF1000F 		cmp	fp, #0
 3954 007e 52D0     		beq	.L303
 3955              		.loc 1 1213 3 is_stmt 0 discriminator 1 view .LVU1144
 3956 0080 0821     		movs	r1, #8
 3957              	.L299:
 3958              		.loc 1 1213 3 discriminator 4 view .LVU1145
 3959 0082 0195     		str	r5, [sp, #4]
 3960 0084 0022     		movs	r2, #0
 3961 0086 0092     		str	r2, [sp]
 3962 0088 0123     		movs	r3, #1
 3963 008a 3846     		mov	r0, r7
 3964 008c FFF7FEFF 		bl	mqtt_output_append_fixed_header
 3965              	.LVL439:
1214:../../Middlewares/Third_Party/LwIP/src/apps/mqtt/mqtt.c ****   /* Packet id */
1215:../../Middlewares/Third_Party/LwIP/src/apps/mqtt/mqtt.c ****   mqtt_output_append_u16(&client->output, pkt_id);
 3966              		.loc 1 1215 3 is_stmt 1 view .LVU1146
 3967 0090 4946     		mov	r1, r9
 3968 0092 3846     		mov	r0, r7
 3969 0094 FFF7FEFF 		bl	mqtt_output_append_u16
 3970              	.LVL440:
1216:../../Middlewares/Third_Party/LwIP/src/apps/mqtt/mqtt.c ****   /* Topic */
1217:../../Middlewares/Third_Party/LwIP/src/apps/mqtt/mqtt.c ****   mqtt_output_append_string(&client->output, topic, topic_len);
 3971              		.loc 1 1217 3 view .LVU1147
 3972 0098 2246     		mov	r2, r4
ARM GAS  C:\Users\minis\AppData\Local\Temp\ccG6JyYg.s 			page 109


 3973 009a 4146     		mov	r1, r8
 3974 009c 3846     		mov	r0, r7
 3975 009e FFF7FEFF 		bl	mqtt_output_append_string
 3976              	.LVL441:
1218:../../Middlewares/Third_Party/LwIP/src/apps/mqtt/mqtt.c ****   /* QoS */
1219:../../Middlewares/Third_Party/LwIP/src/apps/mqtt/mqtt.c ****   if (sub != 0) {
 3977              		.loc 1 1219 3 view .LVU1148
 3978              		.loc 1 1219 6 is_stmt 0 view .LVU1149
 3979 00a2 BBF1000F 		cmp	fp, #0
 3980 00a6 40D1     		bne	.L311
 3981              	.L300:
1220:../../Middlewares/Third_Party/LwIP/src/apps/mqtt/mqtt.c ****     mqtt_output_append_u8(&client->output, LWIP_MIN(qos, 2));
1221:../../Middlewares/Third_Party/LwIP/src/apps/mqtt/mqtt.c ****   }
1222:../../Middlewares/Third_Party/LwIP/src/apps/mqtt/mqtt.c **** 
1223:../../Middlewares/Third_Party/LwIP/src/apps/mqtt/mqtt.c ****   mqtt_append_request(&client->pend_req_queue, r);
 3982              		.loc 1 1223 3 is_stmt 1 view .LVU1150
 3983 00a8 0399     		ldr	r1, [sp, #12]
 3984 00aa 06F11800 		add	r0, r6, #24
 3985 00ae FFF7FEFF 		bl	mqtt_append_request
 3986              	.LVL442:
1224:../../Middlewares/Third_Party/LwIP/src/apps/mqtt/mqtt.c ****   mqtt_output_send(&client->output, client->conn);
 3987              		.loc 1 1224 3 view .LVU1151
 3988 00b2 F168     		ldr	r1, [r6, #12]
 3989 00b4 3846     		mov	r0, r7
 3990 00b6 FFF7FEFF 		bl	mqtt_output_send
 3991              	.LVL443:
1225:../../Middlewares/Third_Party/LwIP/src/apps/mqtt/mqtt.c ****   return ERR_OK;
 3992              		.loc 1 1225 3 view .LVU1152
 3993              		.loc 1 1225 10 is_stmt 0 view .LVU1153
 3994 00ba 0020     		movs	r0, #0
 3995              	.LVL444:
 3996              	.L295:
1226:../../Middlewares/Third_Party/LwIP/src/apps/mqtt/mqtt.c **** }
 3997              		.loc 1 1226 1 view .LVU1154
 3998 00bc 05B0     		add	sp, sp, #20
 3999              	.LCFI42:
 4000              		.cfi_remember_state
 4001              		.cfi_def_cfa_offset 36
 4002              		@ sp needed
 4003 00be BDE8F08F 		pop	{r4, r5, r6, r7, r8, r9, r10, fp, pc}
 4004              	.LVL445:
 4005              	.L305:
 4006              	.LCFI43:
 4007              		.cfi_restore_state
1183:../../Middlewares/Third_Party/LwIP/src/apps/mqtt/mqtt.c ****   LWIP_ASSERT("mqtt_sub_unsub: topic != NULL", topic);
 4008              		.loc 1 1183 3 is_stmt 1 discriminator 1 view .LVU1155
1183:../../Middlewares/Third_Party/LwIP/src/apps/mqtt/mqtt.c ****   LWIP_ASSERT("mqtt_sub_unsub: topic != NULL", topic);
 4009              		.loc 1 1183 3 discriminator 1 view .LVU1156
 4010 00c2 214B     		ldr	r3, .L312
 4011              	.LVL446:
1183:../../Middlewares/Third_Party/LwIP/src/apps/mqtt/mqtt.c ****   LWIP_ASSERT("mqtt_sub_unsub: topic != NULL", topic);
 4012              		.loc 1 1183 3 is_stmt 0 discriminator 1 view .LVU1157
 4013 00c4 40F29F42 		movw	r2, #1183
 4014              	.LVL447:
1183:../../Middlewares/Third_Party/LwIP/src/apps/mqtt/mqtt.c ****   LWIP_ASSERT("mqtt_sub_unsub: topic != NULL", topic);
 4015              		.loc 1 1183 3 discriminator 1 view .LVU1158
 4016 00c8 2049     		ldr	r1, .L312+4
ARM GAS  C:\Users\minis\AppData\Local\Temp\ccG6JyYg.s 			page 110


 4017              	.LVL448:
1183:../../Middlewares/Third_Party/LwIP/src/apps/mqtt/mqtt.c ****   LWIP_ASSERT("mqtt_sub_unsub: topic != NULL", topic);
 4018              		.loc 1 1183 3 discriminator 1 view .LVU1159
 4019 00ca 2148     		ldr	r0, .L312+8
 4020              	.LVL449:
1183:../../Middlewares/Third_Party/LwIP/src/apps/mqtt/mqtt.c ****   LWIP_ASSERT("mqtt_sub_unsub: topic != NULL", topic);
 4021              		.loc 1 1183 3 discriminator 1 view .LVU1160
 4022 00cc FFF7FEFF 		bl	printf
 4023              	.LVL450:
 4024 00d0 A1E7     		b	.L292
 4025              	.L306:
1184:../../Middlewares/Third_Party/LwIP/src/apps/mqtt/mqtt.c **** 
 4026              		.loc 1 1184 3 is_stmt 1 discriminator 1 view .LVU1161
1184:../../Middlewares/Third_Party/LwIP/src/apps/mqtt/mqtt.c **** 
 4027              		.loc 1 1184 3 discriminator 1 view .LVU1162
 4028 00d2 1D4B     		ldr	r3, .L312
 4029 00d4 4FF49462 		mov	r2, #1184
 4030 00d8 1E49     		ldr	r1, .L312+12
 4031 00da 1D48     		ldr	r0, .L312+8
 4032 00dc FFF7FEFF 		bl	printf
 4033              	.LVL451:
 4034 00e0 9CE7     		b	.L293
 4035              	.LVL452:
 4036              	.L307:
1187:../../Middlewares/Third_Party/LwIP/src/apps/mqtt/mqtt.c ****   topic_len = (u16_t)topic_strlen;
 4037              		.loc 1 1187 3 discriminator 1 view .LVU1163
1187:../../Middlewares/Third_Party/LwIP/src/apps/mqtt/mqtt.c ****   topic_len = (u16_t)topic_strlen;
 4038              		.loc 1 1187 3 discriminator 1 view .LVU1164
 4039 00e2 194B     		ldr	r3, .L312
 4040 00e4 40F2A342 		movw	r2, #1187
 4041 00e8 1B49     		ldr	r1, .L312+16
 4042 00ea 1948     		ldr	r0, .L312+8
 4043              	.LVL453:
1187:../../Middlewares/Third_Party/LwIP/src/apps/mqtt/mqtt.c ****   topic_len = (u16_t)topic_strlen;
 4044              		.loc 1 1187 3 is_stmt 0 discriminator 1 view .LVU1165
 4045 00ec FFF7FEFF 		bl	printf
 4046              	.LVL454:
1187:../../Middlewares/Third_Party/LwIP/src/apps/mqtt/mqtt.c ****   topic_len = (u16_t)topic_strlen;
 4047              		.loc 1 1187 3 is_stmt 1 discriminator 1 view .LVU1166
1187:../../Middlewares/Third_Party/LwIP/src/apps/mqtt/mqtt.c ****   topic_len = (u16_t)topic_strlen;
 4048              		.loc 1 1187 3 discriminator 1 view .LVU1167
 4049 00f0 6FF00F00 		mvn	r0, #15
1187:../../Middlewares/Third_Party/LwIP/src/apps/mqtt/mqtt.c ****   topic_len = (u16_t)topic_strlen;
 4050              		.loc 1 1187 3 is_stmt 0 view .LVU1168
 4051 00f4 E2E7     		b	.L295
 4052              	.LVL455:
 4053              	.L308:
1191:../../Middlewares/Third_Party/LwIP/src/apps/mqtt/mqtt.c ****   remaining_length = (u16_t)total_len;
 4054              		.loc 1 1191 3 is_stmt 1 discriminator 1 view .LVU1169
1191:../../Middlewares/Third_Party/LwIP/src/apps/mqtt/mqtt.c ****   remaining_length = (u16_t)total_len;
 4055              		.loc 1 1191 3 discriminator 1 view .LVU1170
 4056 00f6 144B     		ldr	r3, .L312
 4057 00f8 40F2A742 		movw	r2, #1191
 4058 00fc 1749     		ldr	r1, .L312+20
 4059 00fe 1448     		ldr	r0, .L312+8
 4060              	.LVL456:
1191:../../Middlewares/Third_Party/LwIP/src/apps/mqtt/mqtt.c ****   remaining_length = (u16_t)total_len;
ARM GAS  C:\Users\minis\AppData\Local\Temp\ccG6JyYg.s 			page 111


 4061              		.loc 1 1191 3 is_stmt 0 discriminator 1 view .LVU1171
 4062 0100 FFF7FEFF 		bl	printf
 4063              	.LVL457:
1191:../../Middlewares/Third_Party/LwIP/src/apps/mqtt/mqtt.c ****   remaining_length = (u16_t)total_len;
 4064              		.loc 1 1191 3 is_stmt 1 discriminator 1 view .LVU1172
1191:../../Middlewares/Third_Party/LwIP/src/apps/mqtt/mqtt.c ****   remaining_length = (u16_t)total_len;
 4065              		.loc 1 1191 3 discriminator 1 view .LVU1173
 4066 0104 6FF00F00 		mvn	r0, #15
1191:../../Middlewares/Third_Party/LwIP/src/apps/mqtt/mqtt.c ****   remaining_length = (u16_t)total_len;
 4067              		.loc 1 1191 3 is_stmt 0 view .LVU1174
 4068 0108 D8E7     		b	.L295
 4069              	.LVL458:
 4070              	.L309:
1194:../../Middlewares/Third_Party/LwIP/src/apps/mqtt/mqtt.c ****   if (client->conn_state == TCP_DISCONNECTED) {
 4071              		.loc 1 1194 3 is_stmt 1 discriminator 1 view .LVU1175
1194:../../Middlewares/Third_Party/LwIP/src/apps/mqtt/mqtt.c ****   if (client->conn_state == TCP_DISCONNECTED) {
 4072              		.loc 1 1194 3 discriminator 1 view .LVU1176
 4073 010a 0F4B     		ldr	r3, .L312
 4074 010c 40F2AA42 		movw	r2, #1194
 4075 0110 1349     		ldr	r1, .L312+24
 4076 0112 0F48     		ldr	r0, .L312+8
 4077              	.LVL459:
1194:../../Middlewares/Third_Party/LwIP/src/apps/mqtt/mqtt.c ****   if (client->conn_state == TCP_DISCONNECTED) {
 4078              		.loc 1 1194 3 is_stmt 0 discriminator 1 view .LVU1177
 4079 0114 FFF7FEFF 		bl	printf
 4080              	.LVL460:
 4081 0118 94E7     		b	.L297
 4082              	.LVL461:
 4083              	.L310:
1207:../../Middlewares/Third_Party/LwIP/src/apps/mqtt/mqtt.c ****     return ERR_MEM;
 4084              		.loc 1 1207 5 is_stmt 1 view .LVU1178
 4085 011a 0398     		ldr	r0, [sp, #12]
 4086 011c FFF7FEFF 		bl	mqtt_delete_request
 4087              	.LVL462:
1208:../../Middlewares/Third_Party/LwIP/src/apps/mqtt/mqtt.c ****   }
 4088              		.loc 1 1208 5 view .LVU1179
1208:../../Middlewares/Third_Party/LwIP/src/apps/mqtt/mqtt.c ****   }
 4089              		.loc 1 1208 12 is_stmt 0 view .LVU1180
 4090 0120 4FF0FF30 		mov	r0, #-1
 4091 0124 CAE7     		b	.L295
 4092              	.L303:
1213:../../Middlewares/Third_Party/LwIP/src/apps/mqtt/mqtt.c ****   /* Packet id */
 4093              		.loc 1 1213 3 discriminator 2 view .LVU1181
 4094 0126 0A21     		movs	r1, #10
 4095 0128 ABE7     		b	.L299
 4096              	.L311:
1220:../../Middlewares/Third_Party/LwIP/src/apps/mqtt/mqtt.c ****   }
 4097              		.loc 1 1220 5 is_stmt 1 view .LVU1182
 4098 012a 5146     		mov	r1, r10
 4099 012c 0229     		cmp	r1, #2
 4100 012e 28BF     		it	cs
 4101 0130 0221     		movcs	r1, #2
 4102 0132 3846     		mov	r0, r7
 4103 0134 FFF7FEFF 		bl	mqtt_output_append_u8
 4104              	.LVL463:
 4105 0138 B6E7     		b	.L300
 4106              	.LVL464:
ARM GAS  C:\Users\minis\AppData\Local\Temp\ccG6JyYg.s 			page 112


 4107              	.L301:
1197:../../Middlewares/Third_Party/LwIP/src/apps/mqtt/mqtt.c ****   }
 4108              		.loc 1 1197 12 is_stmt 0 view .LVU1183
 4109 013a 6FF00A00 		mvn	r0, #10
 4110 013e BDE7     		b	.L295
 4111              	.LVL465:
 4112              	.L302:
1203:../../Middlewares/Third_Party/LwIP/src/apps/mqtt/mqtt.c ****   }
 4113              		.loc 1 1203 12 view .LVU1184
 4114 0140 4FF0FF30 		mov	r0, #-1
 4115              	.LVL466:
1203:../../Middlewares/Third_Party/LwIP/src/apps/mqtt/mqtt.c ****   }
 4116              		.loc 1 1203 12 view .LVU1185
 4117 0144 BAE7     		b	.L295
 4118              	.L313:
 4119 0146 00BF     		.align	2
 4120              	.L312:
 4121 0148 00000000 		.word	.LC0
 4122 014c 00000000 		.word	.LC24
 4123 0150 5C000000 		.word	.LC2
 4124 0154 20000000 		.word	.LC25
 4125 0158 40000000 		.word	.LC26
 4126 015c 68000000 		.word	.LC27
 4127 0160 90000000 		.word	.LC28
 4128              		.cfi_endproc
 4129              	.LFE205:
 4131              		.section	.rodata.mqtt_set_inpub_callback.str1.4,"aMS",%progbits,1
 4132              		.align	2
 4133              	.LC29:
 4134 0000 6D717474 		.ascii	"mqtt_set_inpub_callback: client != NULL\000"
 4134      5F736574 
 4134      5F696E70 
 4134      75625F63 
 4134      616C6C62 
 4135              		.section	.text.mqtt_set_inpub_callback,"ax",%progbits
 4136              		.align	1
 4137              		.global	mqtt_set_inpub_callback
 4138              		.syntax unified
 4139              		.thumb
 4140              		.thumb_func
 4142              	mqtt_set_inpub_callback:
 4143              	.LVL467:
 4144              	.LFB206:
1227:../../Middlewares/Third_Party/LwIP/src/apps/mqtt/mqtt.c **** 
1228:../../Middlewares/Third_Party/LwIP/src/apps/mqtt/mqtt.c **** 
1229:../../Middlewares/Third_Party/LwIP/src/apps/mqtt/mqtt.c **** /**
1230:../../Middlewares/Third_Party/LwIP/src/apps/mqtt/mqtt.c ****  * @ingroup mqtt
1231:../../Middlewares/Third_Party/LwIP/src/apps/mqtt/mqtt.c ****  * Set callback to handle incoming publish requests from server
1232:../../Middlewares/Third_Party/LwIP/src/apps/mqtt/mqtt.c ****  * @param client MQTT client
1233:../../Middlewares/Third_Party/LwIP/src/apps/mqtt/mqtt.c ****  * @param pub_cb Callback invoked when publish starts, contain topic and total length of payload
1234:../../Middlewares/Third_Party/LwIP/src/apps/mqtt/mqtt.c ****  * @param data_cb Callback for each fragment of payload that arrives
1235:../../Middlewares/Third_Party/LwIP/src/apps/mqtt/mqtt.c ****  * @param arg User supplied argument to both callbacks
1236:../../Middlewares/Third_Party/LwIP/src/apps/mqtt/mqtt.c ****  */
1237:../../Middlewares/Third_Party/LwIP/src/apps/mqtt/mqtt.c **** void
1238:../../Middlewares/Third_Party/LwIP/src/apps/mqtt/mqtt.c **** mqtt_set_inpub_callback(mqtt_client_t *client, mqtt_incoming_publish_cb_t pub_cb,
1239:../../Middlewares/Third_Party/LwIP/src/apps/mqtt/mqtt.c ****                         mqtt_incoming_data_cb_t data_cb, void *arg)
1240:../../Middlewares/Third_Party/LwIP/src/apps/mqtt/mqtt.c **** {
ARM GAS  C:\Users\minis\AppData\Local\Temp\ccG6JyYg.s 			page 113


 4145              		.loc 1 1240 1 is_stmt 1 view -0
 4146              		.cfi_startproc
 4147              		@ args = 0, pretend = 0, frame = 0
 4148              		@ frame_needed = 0, uses_anonymous_args = 0
 4149              		.loc 1 1240 1 is_stmt 0 view .LVU1187
 4150 0000 F8B5     		push	{r3, r4, r5, r6, r7, lr}
 4151              	.LCFI44:
 4152              		.cfi_def_cfa_offset 24
 4153              		.cfi_offset 3, -24
 4154              		.cfi_offset 4, -20
 4155              		.cfi_offset 5, -16
 4156              		.cfi_offset 6, -12
 4157              		.cfi_offset 7, -8
 4158              		.cfi_offset 14, -4
 4159 0002 0E46     		mov	r6, r1
 4160 0004 1746     		mov	r7, r2
 4161 0006 1D46     		mov	r5, r3
1241:../../Middlewares/Third_Party/LwIP/src/apps/mqtt/mqtt.c ****   LWIP_ASSERT_CORE_LOCKED();
 4162              		.loc 1 1241 28 is_stmt 1 view .LVU1188
1242:../../Middlewares/Third_Party/LwIP/src/apps/mqtt/mqtt.c ****   LWIP_ASSERT("mqtt_set_inpub_callback: client != NULL", client != NULL);
 4163              		.loc 1 1242 3 view .LVU1189
 4164              		.loc 1 1242 3 view .LVU1190
 4165 0008 0446     		mov	r4, r0
 4166 000a 18B1     		cbz	r0, .L317
 4167              	.LVL468:
 4168              	.L315:
 4169              		.loc 1 1242 3 view .LVU1191
 4170              		.loc 1 1242 3 view .LVU1192
1243:../../Middlewares/Third_Party/LwIP/src/apps/mqtt/mqtt.c ****   client->data_cb = data_cb;
 4171              		.loc 1 1243 3 view .LVU1193
 4172              		.loc 1 1243 19 is_stmt 0 view .LVU1194
 4173 000c 2766     		str	r7, [r4, #96]
1244:../../Middlewares/Third_Party/LwIP/src/apps/mqtt/mqtt.c ****   client->pub_cb = pub_cb;
 4174              		.loc 1 1244 3 is_stmt 1 view .LVU1195
 4175              		.loc 1 1244 18 is_stmt 0 view .LVU1196
 4176 000e 6666     		str	r6, [r4, #100]
1245:../../Middlewares/Third_Party/LwIP/src/apps/mqtt/mqtt.c ****   client->inpub_arg = arg;
 4177              		.loc 1 1245 3 is_stmt 1 view .LVU1197
 4178              		.loc 1 1245 21 is_stmt 0 view .LVU1198
 4179 0010 E565     		str	r5, [r4, #92]
1246:../../Middlewares/Third_Party/LwIP/src/apps/mqtt/mqtt.c **** }
 4180              		.loc 1 1246 1 view .LVU1199
 4181 0012 F8BD     		pop	{r3, r4, r5, r6, r7, pc}
 4182              	.LVL469:
 4183              	.L317:
1242:../../Middlewares/Third_Party/LwIP/src/apps/mqtt/mqtt.c ****   client->data_cb = data_cb;
 4184              		.loc 1 1242 3 is_stmt 1 discriminator 1 view .LVU1200
1242:../../Middlewares/Third_Party/LwIP/src/apps/mqtt/mqtt.c ****   client->data_cb = data_cb;
 4185              		.loc 1 1242 3 discriminator 1 view .LVU1201
 4186 0014 034B     		ldr	r3, .L318
 4187              	.LVL470:
1242:../../Middlewares/Third_Party/LwIP/src/apps/mqtt/mqtt.c ****   client->data_cb = data_cb;
 4188              		.loc 1 1242 3 is_stmt 0 discriminator 1 view .LVU1202
 4189 0016 40F2DA42 		movw	r2, #1242
 4190              	.LVL471:
1242:../../Middlewares/Third_Party/LwIP/src/apps/mqtt/mqtt.c ****   client->data_cb = data_cb;
 4191              		.loc 1 1242 3 discriminator 1 view .LVU1203
ARM GAS  C:\Users\minis\AppData\Local\Temp\ccG6JyYg.s 			page 114


 4192 001a 0349     		ldr	r1, .L318+4
 4193              	.LVL472:
1242:../../Middlewares/Third_Party/LwIP/src/apps/mqtt/mqtt.c ****   client->data_cb = data_cb;
 4194              		.loc 1 1242 3 discriminator 1 view .LVU1204
 4195 001c 0348     		ldr	r0, .L318+8
 4196              	.LVL473:
1242:../../Middlewares/Third_Party/LwIP/src/apps/mqtt/mqtt.c ****   client->data_cb = data_cb;
 4197              		.loc 1 1242 3 discriminator 1 view .LVU1205
 4198 001e FFF7FEFF 		bl	printf
 4199              	.LVL474:
 4200 0022 F3E7     		b	.L315
 4201              	.L319:
 4202              		.align	2
 4203              	.L318:
 4204 0024 00000000 		.word	.LC0
 4205 0028 00000000 		.word	.LC29
 4206 002c 5C000000 		.word	.LC2
 4207              		.cfi_endproc
 4208              	.LFE206:
 4210              		.section	.text.mqtt_client_new,"ax",%progbits
 4211              		.align	1
 4212              		.global	mqtt_client_new
 4213              		.syntax unified
 4214              		.thumb
 4215              		.thumb_func
 4217              	mqtt_client_new:
 4218              	.LFB207:
1247:../../Middlewares/Third_Party/LwIP/src/apps/mqtt/mqtt.c **** 
1248:../../Middlewares/Third_Party/LwIP/src/apps/mqtt/mqtt.c **** /**
1249:../../Middlewares/Third_Party/LwIP/src/apps/mqtt/mqtt.c ****  * @ingroup mqtt
1250:../../Middlewares/Third_Party/LwIP/src/apps/mqtt/mqtt.c ****  * Create a new MQTT client instance
1251:../../Middlewares/Third_Party/LwIP/src/apps/mqtt/mqtt.c ****  * @return Pointer to instance on success, NULL otherwise
1252:../../Middlewares/Third_Party/LwIP/src/apps/mqtt/mqtt.c ****  */
1253:../../Middlewares/Third_Party/LwIP/src/apps/mqtt/mqtt.c **** mqtt_client_t *
1254:../../Middlewares/Third_Party/LwIP/src/apps/mqtt/mqtt.c **** mqtt_client_new(void)
1255:../../Middlewares/Third_Party/LwIP/src/apps/mqtt/mqtt.c **** {
 4219              		.loc 1 1255 1 is_stmt 1 view -0
 4220              		.cfi_startproc
 4221              		@ args = 0, pretend = 0, frame = 0
 4222              		@ frame_needed = 0, uses_anonymous_args = 0
 4223 0000 08B5     		push	{r3, lr}
 4224              	.LCFI45:
 4225              		.cfi_def_cfa_offset 8
 4226              		.cfi_offset 3, -8
 4227              		.cfi_offset 14, -4
1256:../../Middlewares/Third_Party/LwIP/src/apps/mqtt/mqtt.c ****   LWIP_ASSERT_CORE_LOCKED();
 4228              		.loc 1 1256 28 view .LVU1207
1257:../../Middlewares/Third_Party/LwIP/src/apps/mqtt/mqtt.c ****   return (mqtt_client_t *)mem_calloc(1, sizeof(mqtt_client_t));
 4229              		.loc 1 1257 3 view .LVU1208
 4230              		.loc 1 1257 27 is_stmt 0 view .LVU1209
 4231 0002 4FF4F871 		mov	r1, #496
 4232 0006 0120     		movs	r0, #1
 4233 0008 FFF7FEFF 		bl	mem_calloc
 4234              	.LVL475:
1258:../../Middlewares/Third_Party/LwIP/src/apps/mqtt/mqtt.c **** }
 4235              		.loc 1 1258 1 view .LVU1210
 4236 000c 08BD     		pop	{r3, pc}
ARM GAS  C:\Users\minis\AppData\Local\Temp\ccG6JyYg.s 			page 115


 4237              		.cfi_endproc
 4238              	.LFE207:
 4240              		.section	.text.mqtt_client_free,"ax",%progbits
 4241              		.align	1
 4242              		.global	mqtt_client_free
 4243              		.syntax unified
 4244              		.thumb
 4245              		.thumb_func
 4247              	mqtt_client_free:
 4248              	.LVL476:
 4249              	.LFB208:
1259:../../Middlewares/Third_Party/LwIP/src/apps/mqtt/mqtt.c **** 
1260:../../Middlewares/Third_Party/LwIP/src/apps/mqtt/mqtt.c **** /**
1261:../../Middlewares/Third_Party/LwIP/src/apps/mqtt/mqtt.c ****  * @ingroup mqtt
1262:../../Middlewares/Third_Party/LwIP/src/apps/mqtt/mqtt.c ****  * Free MQTT client instance
1263:../../Middlewares/Third_Party/LwIP/src/apps/mqtt/mqtt.c ****  * @param client Pointer to instance to be freed
1264:../../Middlewares/Third_Party/LwIP/src/apps/mqtt/mqtt.c ****  */
1265:../../Middlewares/Third_Party/LwIP/src/apps/mqtt/mqtt.c **** void
1266:../../Middlewares/Third_Party/LwIP/src/apps/mqtt/mqtt.c **** mqtt_client_free(mqtt_client_t *client)
1267:../../Middlewares/Third_Party/LwIP/src/apps/mqtt/mqtt.c **** {
 4250              		.loc 1 1267 1 is_stmt 1 view -0
 4251              		.cfi_startproc
 4252              		@ args = 0, pretend = 0, frame = 0
 4253              		@ frame_needed = 0, uses_anonymous_args = 0
 4254              		.loc 1 1267 1 is_stmt 0 view .LVU1212
 4255 0000 08B5     		push	{r3, lr}
 4256              	.LCFI46:
 4257              		.cfi_def_cfa_offset 8
 4258              		.cfi_offset 3, -8
 4259              		.cfi_offset 14, -4
1268:../../Middlewares/Third_Party/LwIP/src/apps/mqtt/mqtt.c ****   mem_free(client);
 4260              		.loc 1 1268 3 is_stmt 1 view .LVU1213
 4261 0002 FFF7FEFF 		bl	mem_free
 4262              	.LVL477:
1269:../../Middlewares/Third_Party/LwIP/src/apps/mqtt/mqtt.c **** }
 4263              		.loc 1 1269 1 is_stmt 0 view .LVU1214
 4264 0006 08BD     		pop	{r3, pc}
 4265              		.cfi_endproc
 4266              	.LFE208:
 4268              		.section	.rodata.mqtt_client_connect.str1.4,"aMS",%progbits,1
 4269              		.align	2
 4270              	.LC30:
 4271 0000 6D717474 		.ascii	"mqtt_client_connect: client != NULL\000"
 4271      5F636C69 
 4271      656E745F 
 4271      636F6E6E 
 4271      6563743A 
 4272              		.align	2
 4273              	.LC31:
 4274 0024 6D717474 		.ascii	"mqtt_client_connect: ip_addr != NULL\000"
 4274      5F636C69 
 4274      656E745F 
 4274      636F6E6E 
 4274      6563743A 
 4275 0049 000000   		.align	2
 4276              	.LC32:
 4277 004c 6D717474 		.ascii	"mqtt_client_connect: client_info != NULL\000"
ARM GAS  C:\Users\minis\AppData\Local\Temp\ccG6JyYg.s 			page 116


 4277      5F636C69 
 4277      656E745F 
 4277      636F6E6E 
 4277      6563743A 
 4278 0075 000000   		.align	2
 4279              	.LC33:
 4280 0078 6D717474 		.ascii	"mqtt_client_connect: client_info->client_id != NULL"
 4280      5F636C69 
 4280      656E745F 
 4280      636F6E6E 
 4280      6563743A 
 4281 00ab 00       		.ascii	"\000"
 4282              		.align	2
 4283              	.LC34:
 4284 00ac 6D717474 		.ascii	"mqtt_client_connect: client_info->will_topic length"
 4284      5F636C69 
 4284      656E745F 
 4284      636F6E6E 
 4284      6563743A 
 4285 00df 206F7665 		.ascii	" overflow\000"
 4285      72666C6F 
 4285      7700
 4286 00e9 000000   		.align	2
 4287              	.LC35:
 4288 00ec 6D717474 		.ascii	"mqtt_client_connect: client_info->will_topic length"
 4288      5F636C69 
 4288      656E745F 
 4288      636F6E6E 
 4288      6563743A 
 4289 011f 206D7573 		.ascii	" must be > 0\000"
 4289      74206265 
 4289      203E2030 
 4289      00
 4290              		.align	2
 4291              	.LC36:
 4292 012c 6D717474 		.ascii	"mqtt_client_connect: client_info->will_msg length o"
 4292      5F636C69 
 4292      656E745F 
 4292      636F6E6E 
 4292      6563743A 
 4293 015f 76657266 		.ascii	"verflow\000"
 4293      6C6F7700 
 4294 0167 00       		.align	2
 4295              	.LC37:
 4296 0168 6D717474 		.ascii	"mqtt_client_connect: remaining_length overflow\000"
 4296      5F636C69 
 4296      656E745F 
 4296      636F6E6E 
 4296      6563743A 
 4297 0197 00       		.align	2
 4298              	.LC38:
 4299 0198 6D717474 		.ascii	"mqtt_client_connect: client_info->client_user lengt"
 4299      5F636C69 
 4299      656E745F 
 4299      636F6E6E 
 4299      6563743A 
 4300 01cb 68206F76 		.ascii	"h overflow\000"
ARM GAS  C:\Users\minis\AppData\Local\Temp\ccG6JyYg.s 			page 117


 4300      6572666C 
 4300      6F7700
 4301 01d6 0000     		.align	2
 4302              	.LC39:
 4303 01d8 6D717474 		.ascii	"mqtt_client_connect: client_info->client_user lengt"
 4303      5F636C69 
 4303      656E745F 
 4303      636F6E6E 
 4303      6563743A 
 4304 020b 68206D75 		.ascii	"h must be > 0\000"
 4304      73742062 
 4304      65203E20 
 4304      3000
 4305 0219 000000   		.align	2
 4306              	.LC40:
 4307 021c 6D717474 		.ascii	"mqtt_client_connect: client_info->client_pass lengt"
 4307      5F636C69 
 4307      656E745F 
 4307      636F6E6E 
 4307      6563743A 
 4308 024f 68206F76 		.ascii	"h overflow\000"
 4308      6572666C 
 4308      6F7700
 4309 025a 0000     		.align	2
 4310              	.LC41:
 4311 025c 6D717474 		.ascii	"mqtt_client_connect: client_info->client_pass lengt"
 4311      5F636C69 
 4311      656E745F 
 4311      636F6E6E 
 4311      6563743A 
 4312 028f 68206D75 		.ascii	"h must be > 0\000"
 4312      73742062 
 4312      65203E20 
 4312      3000
 4313 029d 000000   		.align	2
 4314              	.LC42:
 4315 02a0 6D717474 		.ascii	"mqtt_client_connect: client_info->client_id length "
 4315      5F636C69 
 4315      656E745F 
 4315      636F6E6E 
 4315      6563743A 
 4316 02d3 6F766572 		.ascii	"overflow\000"
 4316      666C6F77 
 4316      00
 4317              		.align	2
 4318              	.LC43:
 4319 02dc 4D515454 		.ascii	"MQTT\000"
 4319      00
 4320              		.section	.text.mqtt_client_connect,"ax",%progbits
 4321              		.align	1
 4322              		.global	mqtt_client_connect
 4323              		.syntax unified
 4324              		.thumb
 4325              		.thumb_func
 4327              	mqtt_client_connect:
 4328              	.LVL478:
 4329              	.LFB209:
ARM GAS  C:\Users\minis\AppData\Local\Temp\ccG6JyYg.s 			page 118


1270:../../Middlewares/Third_Party/LwIP/src/apps/mqtt/mqtt.c **** 
1271:../../Middlewares/Third_Party/LwIP/src/apps/mqtt/mqtt.c **** /**
1272:../../Middlewares/Third_Party/LwIP/src/apps/mqtt/mqtt.c ****  * @ingroup mqtt
1273:../../Middlewares/Third_Party/LwIP/src/apps/mqtt/mqtt.c ****  * Connect to MQTT server
1274:../../Middlewares/Third_Party/LwIP/src/apps/mqtt/mqtt.c ****  * @param client MQTT client
1275:../../Middlewares/Third_Party/LwIP/src/apps/mqtt/mqtt.c ****  * @param ip_addr Server IP
1276:../../Middlewares/Third_Party/LwIP/src/apps/mqtt/mqtt.c ****  * @param port Server port
1277:../../Middlewares/Third_Party/LwIP/src/apps/mqtt/mqtt.c ****  * @param cb Connection state change callback
1278:../../Middlewares/Third_Party/LwIP/src/apps/mqtt/mqtt.c ****  * @param arg User supplied argument to connection callback
1279:../../Middlewares/Third_Party/LwIP/src/apps/mqtt/mqtt.c ****  * @param client_info Client identification and connection options
1280:../../Middlewares/Third_Party/LwIP/src/apps/mqtt/mqtt.c ****  * @return ERR_OK if successful, @see err_t enum for other results
1281:../../Middlewares/Third_Party/LwIP/src/apps/mqtt/mqtt.c ****  */
1282:../../Middlewares/Third_Party/LwIP/src/apps/mqtt/mqtt.c **** err_t
1283:../../Middlewares/Third_Party/LwIP/src/apps/mqtt/mqtt.c **** mqtt_client_connect(mqtt_client_t *client, const ip_addr_t *ip_addr, u16_t port, mqtt_connection_cb
1284:../../Middlewares/Third_Party/LwIP/src/apps/mqtt/mqtt.c ****                     const struct mqtt_connect_client_info_t *client_info)
1285:../../Middlewares/Third_Party/LwIP/src/apps/mqtt/mqtt.c **** {
 4330              		.loc 1 1285 1 is_stmt 1 view -0
 4331              		.cfi_startproc
 4332              		@ args = 8, pretend = 0, frame = 24
 4333              		@ frame_needed = 0, uses_anonymous_args = 0
 4334              		.loc 1 1285 1 is_stmt 0 view .LVU1216
 4335 0000 2DE9F04F 		push	{r4, r5, r6, r7, r8, r9, r10, fp, lr}
 4336              	.LCFI47:
 4337              		.cfi_def_cfa_offset 36
 4338              		.cfi_offset 4, -36
 4339              		.cfi_offset 5, -32
 4340              		.cfi_offset 6, -28
 4341              		.cfi_offset 7, -24
 4342              		.cfi_offset 8, -20
 4343              		.cfi_offset 9, -16
 4344              		.cfi_offset 10, -12
 4345              		.cfi_offset 11, -8
 4346              		.cfi_offset 14, -4
 4347 0004 89B0     		sub	sp, sp, #36
 4348              	.LCFI48:
 4349              		.cfi_def_cfa_offset 72
 4350 0006 0291     		str	r1, [sp, #8]
 4351 0008 0492     		str	r2, [sp, #16]
 4352 000a 1C46     		mov	r4, r3
 4353 000c 139E     		ldr	r6, [sp, #76]
1286:../../Middlewares/Third_Party/LwIP/src/apps/mqtt/mqtt.c ****   err_t err;
 4354              		.loc 1 1286 3 is_stmt 1 view .LVU1217
1287:../../Middlewares/Third_Party/LwIP/src/apps/mqtt/mqtt.c ****   size_t len;
 4355              		.loc 1 1287 3 view .LVU1218
1288:../../Middlewares/Third_Party/LwIP/src/apps/mqtt/mqtt.c ****   u16_t client_id_length;
 4356              		.loc 1 1288 3 view .LVU1219
1289:../../Middlewares/Third_Party/LwIP/src/apps/mqtt/mqtt.c ****   /* Length is the sum of 2+"MQTT", protocol level, flags and keep alive */
1290:../../Middlewares/Third_Party/LwIP/src/apps/mqtt/mqtt.c ****   u16_t remaining_length = 2 + 4 + 1 + 1 + 2;
 4357              		.loc 1 1290 3 view .LVU1220
 4358              	.LVL479:
1291:../../Middlewares/Third_Party/LwIP/src/apps/mqtt/mqtt.c ****   u8_t flags = 0, will_topic_len = 0, will_msg_len = 0;
 4359              		.loc 1 1291 3 view .LVU1221
1292:../../Middlewares/Third_Party/LwIP/src/apps/mqtt/mqtt.c ****   u16_t client_user_len = 0, client_pass_len = 0;
 4360              		.loc 1 1292 3 view .LVU1222
1293:../../Middlewares/Third_Party/LwIP/src/apps/mqtt/mqtt.c **** 
1294:../../Middlewares/Third_Party/LwIP/src/apps/mqtt/mqtt.c ****   LWIP_ASSERT_CORE_LOCKED();
 4361              		.loc 1 1294 28 view .LVU1223
ARM GAS  C:\Users\minis\AppData\Local\Temp\ccG6JyYg.s 			page 119


1295:../../Middlewares/Third_Party/LwIP/src/apps/mqtt/mqtt.c ****   LWIP_ASSERT("mqtt_client_connect: client != NULL", client != NULL);
 4362              		.loc 1 1295 3 view .LVU1224
 4363              		.loc 1 1295 3 view .LVU1225
 4364 000e 0546     		mov	r5, r0
 4365 0010 0028     		cmp	r0, #0
 4366 0012 00F0B280 		beq	.L357
 4367              	.LVL480:
 4368              	.L325:
 4369              		.loc 1 1295 3 view .LVU1226
 4370              		.loc 1 1295 3 view .LVU1227
1296:../../Middlewares/Third_Party/LwIP/src/apps/mqtt/mqtt.c ****   LWIP_ASSERT("mqtt_client_connect: ip_addr != NULL", ip_addr != NULL);
 4371              		.loc 1 1296 3 view .LVU1228
 4372              		.loc 1 1296 3 view .LVU1229
 4373 0016 029B     		ldr	r3, [sp, #8]
 4374 0018 002B     		cmp	r3, #0
 4375 001a 00F0B680 		beq	.L358
 4376              	.L326:
 4377              		.loc 1 1296 3 view .LVU1230
 4378              		.loc 1 1296 3 view .LVU1231
1297:../../Middlewares/Third_Party/LwIP/src/apps/mqtt/mqtt.c ****   LWIP_ASSERT("mqtt_client_connect: client_info != NULL", client_info != NULL);
 4379              		.loc 1 1297 3 view .LVU1232
 4380              		.loc 1 1297 3 view .LVU1233
 4381 001e 002E     		cmp	r6, #0
 4382 0020 00F0BB80 		beq	.L359
 4383              	.L327:
 4384              		.loc 1 1297 3 view .LVU1234
 4385              		.loc 1 1297 3 view .LVU1235
1298:../../Middlewares/Third_Party/LwIP/src/apps/mqtt/mqtt.c ****   LWIP_ASSERT("mqtt_client_connect: client_info->client_id != NULL", client_info->client_id != NULL
 4386              		.loc 1 1298 3 view .LVU1236
 4387              		.loc 1 1298 3 view .LVU1237
 4388 0024 3268     		ldr	r2, [r6]
 4389 0026 002A     		cmp	r2, #0
 4390 0028 00F0BF80 		beq	.L360
 4391              	.L328:
 4392              		.loc 1 1298 3 view .LVU1238
 4393              		.loc 1 1298 3 view .LVU1239
1299:../../Middlewares/Third_Party/LwIP/src/apps/mqtt/mqtt.c **** 
1300:../../Middlewares/Third_Party/LwIP/src/apps/mqtt/mqtt.c ****   if (client->conn_state != TCP_DISCONNECTED) {
 4394              		.loc 1 1300 3 view .LVU1240
 4395              		.loc 1 1300 13 is_stmt 0 view .LVU1241
 4396 002c AF7A     		ldrb	r7, [r5, #10]	@ zero_extendqisi2
 4397              		.loc 1 1300 6 view .LVU1242
 4398 002e 002F     		cmp	r7, #0
 4399 0030 40F09981 		bne	.L349
1301:../../Middlewares/Third_Party/LwIP/src/apps/mqtt/mqtt.c ****     LWIP_DEBUGF(MQTT_DEBUG_WARN, ("mqtt_client_connect: Already connected\n"));
1302:../../Middlewares/Third_Party/LwIP/src/apps/mqtt/mqtt.c ****     return ERR_ISCONN;
1303:../../Middlewares/Third_Party/LwIP/src/apps/mqtt/mqtt.c ****   }
1304:../../Middlewares/Third_Party/LwIP/src/apps/mqtt/mqtt.c **** 
1305:../../Middlewares/Third_Party/LwIP/src/apps/mqtt/mqtt.c ****   /* Wipe clean */
1306:../../Middlewares/Third_Party/LwIP/src/apps/mqtt/mqtt.c ****   memset(client, 0, sizeof(mqtt_client_t));
 4400              		.loc 1 1306 3 is_stmt 1 view .LVU1243
 4401 0034 4FF4F872 		mov	r2, #496
 4402 0038 0021     		movs	r1, #0
 4403 003a 2846     		mov	r0, r5
 4404 003c FFF7FEFF 		bl	memset
 4405              	.LVL481:
1307:../../Middlewares/Third_Party/LwIP/src/apps/mqtt/mqtt.c ****   client->connect_arg = arg;
ARM GAS  C:\Users\minis\AppData\Local\Temp\ccG6JyYg.s 			page 120


 4406              		.loc 1 1307 3 view .LVU1244
 4407              		.loc 1 1307 23 is_stmt 0 view .LVU1245
 4408 0040 129B     		ldr	r3, [sp, #72]
 4409 0042 2B61     		str	r3, [r5, #16]
1308:../../Middlewares/Third_Party/LwIP/src/apps/mqtt/mqtt.c ****   client->connect_cb = cb;
 4410              		.loc 1 1308 3 is_stmt 1 view .LVU1246
 4411              		.loc 1 1308 22 is_stmt 0 view .LVU1247
 4412 0044 6C61     		str	r4, [r5, #20]
1309:../../Middlewares/Third_Party/LwIP/src/apps/mqtt/mqtt.c ****   client->keep_alive = client_info->keep_alive;
 4413              		.loc 1 1309 3 is_stmt 1 view .LVU1248
 4414              		.loc 1 1309 35 is_stmt 0 view .LVU1249
 4415 0046 B389     		ldrh	r3, [r6, #12]
 4416              		.loc 1 1309 22 view .LVU1250
 4417 0048 6B80     		strh	r3, [r5, #2]	@ movhi
1310:../../Middlewares/Third_Party/LwIP/src/apps/mqtt/mqtt.c ****   mqtt_init_requests(client->req_list, LWIP_ARRAYSIZE(client->req_list));
 4418              		.loc 1 1310 3 is_stmt 1 view .LVU1251
 4419 004a 0421     		movs	r1, #4
 4420 004c 05F11C00 		add	r0, r5, #28
 4421 0050 FFF7FEFF 		bl	mqtt_init_requests
 4422              	.LVL482:
1311:../../Middlewares/Third_Party/LwIP/src/apps/mqtt/mqtt.c **** 
1312:../../Middlewares/Third_Party/LwIP/src/apps/mqtt/mqtt.c ****   /* Build connect message */
1313:../../Middlewares/Third_Party/LwIP/src/apps/mqtt/mqtt.c ****   if (client_info->will_topic != NULL && client_info->will_msg != NULL) {
 4423              		.loc 1 1313 3 view .LVU1252
 4424              		.loc 1 1313 18 is_stmt 0 view .LVU1253
 4425 0054 3069     		ldr	r0, [r6, #16]
 4426              		.loc 1 1313 6 view .LVU1254
 4427 0056 0028     		cmp	r0, #0
 4428 0058 00F0D080 		beq	.L350
 4429              		.loc 1 1313 53 discriminator 1 view .LVU1255
 4430 005c D6F81480 		ldr	r8, [r6, #20]
 4431              		.loc 1 1313 39 discriminator 1 view .LVU1256
 4432 0060 B8F1000F 		cmp	r8, #0
 4433 0064 00F0CE80 		beq	.L351
1314:../../Middlewares/Third_Party/LwIP/src/apps/mqtt/mqtt.c ****     flags |= MQTT_CONNECT_FLAG_WILL;
 4434              		.loc 1 1314 5 is_stmt 1 view .LVU1257
 4435              	.LVL483:
1315:../../Middlewares/Third_Party/LwIP/src/apps/mqtt/mqtt.c ****     flags |= (client_info->will_qos & 3) << 3;
 4436              		.loc 1 1315 5 view .LVU1258
 4437              		.loc 1 1315 26 is_stmt 0 view .LVU1259
 4438 0068 337E     		ldrb	r3, [r6, #24]	@ zero_extendqisi2
 4439              		.loc 1 1315 42 view .LVU1260
 4440 006a DB00     		lsls	r3, r3, #3
 4441 006c 03F01803 		and	r3, r3, #24
 4442              		.loc 1 1315 11 view .LVU1261
 4443 0070 43F00407 		orr	r7, r3, #4
 4444              	.LVL484:
1316:../../Middlewares/Third_Party/LwIP/src/apps/mqtt/mqtt.c ****     if (client_info->will_retain) {
 4445              		.loc 1 1316 5 is_stmt 1 view .LVU1262
 4446              		.loc 1 1316 20 is_stmt 0 view .LVU1263
 4447 0074 727E     		ldrb	r2, [r6, #25]	@ zero_extendqisi2
 4448              		.loc 1 1316 8 view .LVU1264
 4449 0076 0AB1     		cbz	r2, .L331
1317:../../Middlewares/Third_Party/LwIP/src/apps/mqtt/mqtt.c ****       flags |= MQTT_CONNECT_FLAG_WILL_RETAIN;
 4450              		.loc 1 1317 7 is_stmt 1 view .LVU1265
 4451              		.loc 1 1317 13 is_stmt 0 view .LVU1266
 4452 0078 43F02407 		orr	r7, r3, #36
ARM GAS  C:\Users\minis\AppData\Local\Temp\ccG6JyYg.s 			page 121


 4453              	.LVL485:
 4454              	.L331:
1318:../../Middlewares/Third_Party/LwIP/src/apps/mqtt/mqtt.c ****     }
1319:../../Middlewares/Third_Party/LwIP/src/apps/mqtt/mqtt.c ****     len = strlen(client_info->will_topic);
 4455              		.loc 1 1319 5 is_stmt 1 view .LVU1267
 4456              		.loc 1 1319 11 is_stmt 0 view .LVU1268
 4457 007c FFF7FEFF 		bl	strlen
 4458              	.LVL486:
 4459 0080 0446     		mov	r4, r0
 4460              	.LVL487:
1320:../../Middlewares/Third_Party/LwIP/src/apps/mqtt/mqtt.c ****     LWIP_ERROR("mqtt_client_connect: client_info->will_topic length overflow", len <= 0xFF, return 
 4461              		.loc 1 1320 5 is_stmt 1 view .LVU1269
 4462              		.loc 1 1320 5 view .LVU1270
 4463 0082 FF28     		cmp	r0, #255
 4464 0084 00F29980 		bhi	.L361
 4465              		.loc 1 1320 5 view .LVU1271
1321:../../Middlewares/Third_Party/LwIP/src/apps/mqtt/mqtt.c ****     LWIP_ERROR("mqtt_client_connect: client_info->will_topic length must be > 0", len > 0, return E
 4466              		.loc 1 1321 5 view .LVU1272
 4467              		.loc 1 1321 5 view .LVU1273
 4468 0088 0028     		cmp	r0, #0
 4469 008a 00F0A180 		beq	.L362
 4470              		.loc 1 1321 5 view .LVU1274
1322:../../Middlewares/Third_Party/LwIP/src/apps/mqtt/mqtt.c ****     will_topic_len = (u8_t)len;
 4471              		.loc 1 1322 5 view .LVU1275
 4472              		.loc 1 1322 20 is_stmt 0 view .LVU1276
 4473 008e C3B2     		uxtb	r3, r0
 4474 0090 0693     		str	r3, [sp, #24]
 4475              	.LVL488:
1323:../../Middlewares/Third_Party/LwIP/src/apps/mqtt/mqtt.c ****     len = strlen(client_info->will_msg);
 4476              		.loc 1 1323 5 is_stmt 1 view .LVU1277
 4477              		.loc 1 1323 11 is_stmt 0 view .LVU1278
 4478 0092 4046     		mov	r0, r8
 4479              	.LVL489:
 4480              		.loc 1 1323 11 view .LVU1279
 4481 0094 FFF7FEFF 		bl	strlen
 4482              	.LVL490:
1324:../../Middlewares/Third_Party/LwIP/src/apps/mqtt/mqtt.c ****     LWIP_ERROR("mqtt_client_connect: client_info->will_msg length overflow", len <= 0xFF, return ER
 4483              		.loc 1 1324 5 is_stmt 1 view .LVU1280
 4484              		.loc 1 1324 5 view .LVU1281
 4485 0098 FF28     		cmp	r0, #255
 4486 009a 00F2A480 		bhi	.L363
 4487              		.loc 1 1324 5 view .LVU1282
1325:../../Middlewares/Third_Party/LwIP/src/apps/mqtt/mqtt.c ****     will_msg_len = (u8_t)len;
 4488              		.loc 1 1325 5 view .LVU1283
 4489              		.loc 1 1325 18 is_stmt 0 view .LVU1284
 4490 009e C3B2     		uxtb	r3, r0
 4491 00a0 0793     		str	r3, [sp, #28]
 4492              	.LVL491:
1326:../../Middlewares/Third_Party/LwIP/src/apps/mqtt/mqtt.c ****     len = remaining_length + 2 + will_topic_len + 2 + will_msg_len;
 4493              		.loc 1 1326 5 is_stmt 1 view .LVU1285
 4494              		.loc 1 1326 32 is_stmt 0 view .LVU1286
 4495 00a2 E4B2     		uxtb	r4, r4
 4496              		.loc 1 1326 49 view .LVU1287
 4497 00a4 0E34     		adds	r4, r4, #14
 4498              		.loc 1 1326 53 view .LVU1288
 4499 00a6 1C44     		add	r4, r4, r3
 4500              	.LVL492:
ARM GAS  C:\Users\minis\AppData\Local\Temp\ccG6JyYg.s 			page 122


1327:../../Middlewares/Third_Party/LwIP/src/apps/mqtt/mqtt.c ****     LWIP_ERROR("mqtt_client_connect: remaining_length overflow", len <= 0xFFFF, return ERR_VAL);
 4501              		.loc 1 1327 5 is_stmt 1 view .LVU1289
 4502              		.loc 1 1327 5 view .LVU1290
 4503              		.loc 1 1327 5 view .LVU1291
1328:../../Middlewares/Third_Party/LwIP/src/apps/mqtt/mqtt.c ****     remaining_length = (u16_t)len;
 4504              		.loc 1 1328 5 view .LVU1292
 4505              		.loc 1 1328 22 is_stmt 0 view .LVU1293
 4506 00a8 A4B2     		uxth	r4, r4
 4507              	.LVL493:
 4508              	.L330:
1329:../../Middlewares/Third_Party/LwIP/src/apps/mqtt/mqtt.c ****   }
1330:../../Middlewares/Third_Party/LwIP/src/apps/mqtt/mqtt.c ****   if (client_info->client_user != NULL) {
 4509              		.loc 1 1330 3 is_stmt 1 view .LVU1294
 4510              		.loc 1 1330 18 is_stmt 0 view .LVU1295
 4511 00aa 7068     		ldr	r0, [r6, #4]
 4512              		.loc 1 1330 6 view .LVU1296
 4513 00ac 0028     		cmp	r0, #0
 4514 00ae 00F0CE80 		beq	.L352
1331:../../Middlewares/Third_Party/LwIP/src/apps/mqtt/mqtt.c ****     flags |= MQTT_CONNECT_FLAG_USERNAME;
 4515              		.loc 1 1331 5 is_stmt 1 view .LVU1297
 4516              		.loc 1 1331 11 is_stmt 0 view .LVU1298
 4517 00b2 47F08007 		orr	r7, r7, #128
 4518              	.LVL494:
1332:../../Middlewares/Third_Party/LwIP/src/apps/mqtt/mqtt.c ****     len = strlen(client_info->client_user);
 4519              		.loc 1 1332 5 is_stmt 1 view .LVU1299
 4520              		.loc 1 1332 11 is_stmt 0 view .LVU1300
 4521 00b6 FFF7FEFF 		bl	strlen
 4522              	.LVL495:
1333:../../Middlewares/Third_Party/LwIP/src/apps/mqtt/mqtt.c ****     LWIP_ERROR("mqtt_client_connect: client_info->client_user length overflow", len <= 0xFFFF, retu
 4523              		.loc 1 1333 5 is_stmt 1 view .LVU1301
 4524              		.loc 1 1333 5 view .LVU1302
 4525 00ba B0F5803F 		cmp	r0, #65536
 4526 00be 80F0A580 		bcs	.L364
 4527              		.loc 1 1333 5 view .LVU1303
1334:../../Middlewares/Third_Party/LwIP/src/apps/mqtt/mqtt.c ****     LWIP_ERROR("mqtt_client_connect: client_info->client_user length must be > 0", len > 0, return 
 4528              		.loc 1 1334 5 view .LVU1304
 4529              		.loc 1 1334 5 view .LVU1305
 4530 00c2 0028     		cmp	r0, #0
 4531 00c4 00F0AD80 		beq	.L365
 4532              		.loc 1 1334 5 view .LVU1306
1335:../../Middlewares/Third_Party/LwIP/src/apps/mqtt/mqtt.c ****     client_user_len = (u16_t)len;
 4533              		.loc 1 1335 5 view .LVU1307
 4534              		.loc 1 1335 21 is_stmt 0 view .LVU1308
 4535 00c8 1FFA80F9 		uxth	r9, r0
 4536              	.LVL496:
1336:../../Middlewares/Third_Party/LwIP/src/apps/mqtt/mqtt.c ****     len = remaining_length + 2 + client_user_len;
 4537              		.loc 1 1336 5 is_stmt 1 view .LVU1309
 4538              		.loc 1 1336 28 is_stmt 0 view .LVU1310
 4539 00cc 0234     		adds	r4, r4, #2
 4540              	.LVL497:
 4541              		.loc 1 1336 32 view .LVU1311
 4542 00ce 4C44     		add	r4, r4, r9
 4543              	.LVL498:
1337:../../Middlewares/Third_Party/LwIP/src/apps/mqtt/mqtt.c ****     LWIP_ERROR("mqtt_client_connect: remaining_length overflow", len <= 0xFFFF, return ERR_VAL);
 4544              		.loc 1 1337 5 is_stmt 1 view .LVU1312
 4545              		.loc 1 1337 5 view .LVU1313
 4546 00d0 B4F5803F 		cmp	r4, #65536
ARM GAS  C:\Users\minis\AppData\Local\Temp\ccG6JyYg.s 			page 123


 4547 00d4 80F0B080 		bcs	.L366
 4548              		.loc 1 1337 5 view .LVU1314
1338:../../Middlewares/Third_Party/LwIP/src/apps/mqtt/mqtt.c ****     remaining_length = (u16_t)len;
 4549              		.loc 1 1338 5 view .LVU1315
 4550              		.loc 1 1338 22 is_stmt 0 view .LVU1316
 4551 00d8 A4B2     		uxth	r4, r4
 4552              	.LVL499:
 4553              	.L336:
1339:../../Middlewares/Third_Party/LwIP/src/apps/mqtt/mqtt.c ****   }
1340:../../Middlewares/Third_Party/LwIP/src/apps/mqtt/mqtt.c ****   if (client_info->client_pass != NULL) {
 4554              		.loc 1 1340 3 is_stmt 1 view .LVU1317
 4555              		.loc 1 1340 18 is_stmt 0 view .LVU1318
 4556 00da B068     		ldr	r0, [r6, #8]
 4557              		.loc 1 1340 6 view .LVU1319
 4558 00dc 0028     		cmp	r0, #0
 4559 00de 00F0DA80 		beq	.L353
1341:../../Middlewares/Third_Party/LwIP/src/apps/mqtt/mqtt.c ****     flags |= MQTT_CONNECT_FLAG_PASSWORD;
 4560              		.loc 1 1341 5 is_stmt 1 view .LVU1320
 4561              		.loc 1 1341 11 is_stmt 0 view .LVU1321
 4562 00e2 47F04007 		orr	r7, r7, #64
 4563              	.LVL500:
1342:../../Middlewares/Third_Party/LwIP/src/apps/mqtt/mqtt.c ****     len = strlen(client_info->client_pass);
 4564              		.loc 1 1342 5 is_stmt 1 view .LVU1322
 4565              		.loc 1 1342 11 is_stmt 0 view .LVU1323
 4566 00e6 FFF7FEFF 		bl	strlen
 4567              	.LVL501:
1343:../../Middlewares/Third_Party/LwIP/src/apps/mqtt/mqtt.c ****     LWIP_ERROR("mqtt_client_connect: client_info->client_pass length overflow", len <= 0xFFFF, retu
 4568              		.loc 1 1343 5 is_stmt 1 view .LVU1324
 4569              		.loc 1 1343 5 view .LVU1325
 4570 00ea B0F5803F 		cmp	r0, #65536
 4571 00ee 80F0B180 		bcs	.L367
 4572              		.loc 1 1343 5 view .LVU1326
1344:../../Middlewares/Third_Party/LwIP/src/apps/mqtt/mqtt.c ****     LWIP_ERROR("mqtt_client_connect: client_info->client_pass length must be > 0", len > 0, return 
 4573              		.loc 1 1344 5 view .LVU1327
 4574              		.loc 1 1344 5 view .LVU1328
 4575 00f2 0028     		cmp	r0, #0
 4576 00f4 00F0B980 		beq	.L368
 4577              		.loc 1 1344 5 view .LVU1329
1345:../../Middlewares/Third_Party/LwIP/src/apps/mqtt/mqtt.c ****     client_pass_len = (u16_t)len;
 4578              		.loc 1 1345 5 view .LVU1330
 4579              		.loc 1 1345 21 is_stmt 0 view .LVU1331
 4580 00f8 1FFA80FB 		uxth	fp, r0
 4581              	.LVL502:
1346:../../Middlewares/Third_Party/LwIP/src/apps/mqtt/mqtt.c ****     len = remaining_length + 2 + client_pass_len;
 4582              		.loc 1 1346 5 is_stmt 1 view .LVU1332
 4583              		.loc 1 1346 28 is_stmt 0 view .LVU1333
 4584 00fc 0234     		adds	r4, r4, #2
 4585              	.LVL503:
 4586              		.loc 1 1346 32 view .LVU1334
 4587 00fe 5C44     		add	r4, r4, fp
 4588              	.LVL504:
1347:../../Middlewares/Third_Party/LwIP/src/apps/mqtt/mqtt.c ****     LWIP_ERROR("mqtt_client_connect: remaining_length overflow", len <= 0xFFFF, return ERR_VAL);
 4589              		.loc 1 1347 5 is_stmt 1 view .LVU1335
 4590              		.loc 1 1347 5 view .LVU1336
 4591 0100 B4F5803F 		cmp	r4, #65536
 4592 0104 80F0BC80 		bcs	.L369
 4593              		.loc 1 1347 5 view .LVU1337
ARM GAS  C:\Users\minis\AppData\Local\Temp\ccG6JyYg.s 			page 124


1348:../../Middlewares/Third_Party/LwIP/src/apps/mqtt/mqtt.c ****     remaining_length = (u16_t)len;
 4594              		.loc 1 1348 5 view .LVU1338
 4595              		.loc 1 1348 22 is_stmt 0 view .LVU1339
 4596 0108 A4B2     		uxth	r4, r4
 4597              	.LVL505:
 4598              	.L340:
1349:../../Middlewares/Third_Party/LwIP/src/apps/mqtt/mqtt.c ****   }
1350:../../Middlewares/Third_Party/LwIP/src/apps/mqtt/mqtt.c **** 
1351:../../Middlewares/Third_Party/LwIP/src/apps/mqtt/mqtt.c ****   /* Don't complicate things, always connect using clean session */
1352:../../Middlewares/Third_Party/LwIP/src/apps/mqtt/mqtt.c ****   flags |= MQTT_CONNECT_FLAG_CLEAN_SESSION;
 4599              		.loc 1 1352 3 is_stmt 1 view .LVU1340
 4600              		.loc 1 1352 9 is_stmt 0 view .LVU1341
 4601 010a 47F00203 		orr	r3, r7, #2
 4602 010e 0593     		str	r3, [sp, #20]
 4603              	.LVL506:
1353:../../Middlewares/Third_Party/LwIP/src/apps/mqtt/mqtt.c **** 
1354:../../Middlewares/Third_Party/LwIP/src/apps/mqtt/mqtt.c ****   len = strlen(client_info->client_id);
 4604              		.loc 1 1354 3 is_stmt 1 view .LVU1342
 4605              		.loc 1 1354 9 is_stmt 0 view .LVU1343
 4606 0110 3068     		ldr	r0, [r6]
 4607 0112 FFF7FEFF 		bl	strlen
 4608              	.LVL507:
1355:../../Middlewares/Third_Party/LwIP/src/apps/mqtt/mqtt.c ****   LWIP_ERROR("mqtt_client_connect: client_info->client_id length overflow", len <= 0xFFFF, return E
 4609              		.loc 1 1355 3 is_stmt 1 view .LVU1344
 4610              		.loc 1 1355 3 view .LVU1345
 4611 0116 B0F5803F 		cmp	r0, #65536
 4612 011a 80F0BF80 		bcs	.L370
 4613              		.loc 1 1355 3 view .LVU1346
1356:../../Middlewares/Third_Party/LwIP/src/apps/mqtt/mqtt.c ****   client_id_length = (u16_t)len;
 4614              		.loc 1 1356 3 view .LVU1347
 4615              		.loc 1 1356 20 is_stmt 0 view .LVU1348
 4616 011e 1FFA80F8 		uxth	r8, r0
 4617              	.LVL508:
1357:../../Middlewares/Third_Party/LwIP/src/apps/mqtt/mqtt.c ****   len = remaining_length + 2 + client_id_length;
 4618              		.loc 1 1357 3 is_stmt 1 view .LVU1349
 4619              		.loc 1 1357 26 is_stmt 0 view .LVU1350
 4620 0122 0234     		adds	r4, r4, #2
 4621              	.LVL509:
 4622              		.loc 1 1357 30 view .LVU1351
 4623 0124 4444     		add	r4, r4, r8
 4624              	.LVL510:
1358:../../Middlewares/Third_Party/LwIP/src/apps/mqtt/mqtt.c ****   LWIP_ERROR("mqtt_client_connect: remaining_length overflow", len <= 0xFFFF, return ERR_VAL);
 4625              		.loc 1 1358 3 is_stmt 1 view .LVU1352
 4626              		.loc 1 1358 3 view .LVU1353
 4627 0126 B4F5803F 		cmp	r4, #65536
 4628 012a 80F0C280 		bcs	.L371
 4629              		.loc 1 1358 3 view .LVU1354
1359:../../Middlewares/Third_Party/LwIP/src/apps/mqtt/mqtt.c ****   remaining_length = (u16_t)len;
 4630              		.loc 1 1359 3 view .LVU1355
 4631              		.loc 1 1359 20 is_stmt 0 view .LVU1356
 4632 012e A4B2     		uxth	r4, r4
 4633              	.LVL511:
1360:../../Middlewares/Third_Party/LwIP/src/apps/mqtt/mqtt.c **** 
1361:../../Middlewares/Third_Party/LwIP/src/apps/mqtt/mqtt.c ****   if (mqtt_output_check_space(&client->output, remaining_length) == 0) {
 4634              		.loc 1 1361 3 is_stmt 1 view .LVU1357
 4635              		.loc 1 1361 7 is_stmt 0 view .LVU1358
 4636 0130 05F1EC0A 		add	r10, r5, #236
ARM GAS  C:\Users\minis\AppData\Local\Temp\ccG6JyYg.s 			page 125


 4637 0134 2146     		mov	r1, r4
 4638 0136 5046     		mov	r0, r10
 4639 0138 FFF7FEFF 		bl	mqtt_output_check_space
 4640              	.LVL512:
 4641              		.loc 1 1361 6 discriminator 1 view .LVU1359
 4642 013c 0028     		cmp	r0, #0
 4643 013e 00F01681 		beq	.L354
1362:../../Middlewares/Third_Party/LwIP/src/apps/mqtt/mqtt.c ****     return ERR_MEM;
1363:../../Middlewares/Third_Party/LwIP/src/apps/mqtt/mqtt.c ****   }
1364:../../Middlewares/Third_Party/LwIP/src/apps/mqtt/mqtt.c **** 
1365:../../Middlewares/Third_Party/LwIP/src/apps/mqtt/mqtt.c **** #if LWIP_ALTCP && LWIP_ALTCP_TLS
1366:../../Middlewares/Third_Party/LwIP/src/apps/mqtt/mqtt.c ****   if (client_info->tls_config) {
1367:../../Middlewares/Third_Party/LwIP/src/apps/mqtt/mqtt.c ****     client->conn = altcp_tls_new(client_info->tls_config, IP_GET_TYPE(ip_addr));
1368:../../Middlewares/Third_Party/LwIP/src/apps/mqtt/mqtt.c ****   } else
1369:../../Middlewares/Third_Party/LwIP/src/apps/mqtt/mqtt.c **** #endif
1370:../../Middlewares/Third_Party/LwIP/src/apps/mqtt/mqtt.c ****   {
1371:../../Middlewares/Third_Party/LwIP/src/apps/mqtt/mqtt.c ****     client->conn = altcp_tcp_new_ip_type(IP_GET_TYPE(ip_addr));
 4644              		.loc 1 1371 5 is_stmt 1 view .LVU1360
 4645              		.loc 1 1371 20 is_stmt 0 view .LVU1361
 4646 0142 0020     		movs	r0, #0
 4647 0144 FFF7FEFF 		bl	tcp_new_ip_type
 4648              	.LVL513:
 4649              		.loc 1 1371 18 discriminator 1 view .LVU1362
 4650 0148 E860     		str	r0, [r5, #12]
1372:../../Middlewares/Third_Party/LwIP/src/apps/mqtt/mqtt.c ****   }
1373:../../Middlewares/Third_Party/LwIP/src/apps/mqtt/mqtt.c ****   if (client->conn == NULL) {
 4651              		.loc 1 1373 3 is_stmt 1 view .LVU1363
 4652              		.loc 1 1373 6 is_stmt 0 view .LVU1364
 4653 014a 0028     		cmp	r0, #0
 4654 014c 00F01381 		beq	.L355
1374:../../Middlewares/Third_Party/LwIP/src/apps/mqtt/mqtt.c ****     return ERR_MEM;
1375:../../Middlewares/Third_Party/LwIP/src/apps/mqtt/mqtt.c ****   }
1376:../../Middlewares/Third_Party/LwIP/src/apps/mqtt/mqtt.c **** 
1377:../../Middlewares/Third_Party/LwIP/src/apps/mqtt/mqtt.c ****   /* Set arg pointer for callbacks */
1378:../../Middlewares/Third_Party/LwIP/src/apps/mqtt/mqtt.c ****   altcp_arg(client->conn, client);
 4655              		.loc 1 1378 3 is_stmt 1 view .LVU1365
 4656 0150 2946     		mov	r1, r5
 4657 0152 FFF7FEFF 		bl	tcp_arg
 4658              	.LVL514:
1379:../../Middlewares/Third_Party/LwIP/src/apps/mqtt/mqtt.c ****   /* Any local address, pick random local port number */
1380:../../Middlewares/Third_Party/LwIP/src/apps/mqtt/mqtt.c ****   err = altcp_bind(client->conn, IP_ADDR_ANY, 0);
 4659              		.loc 1 1380 3 view .LVU1366
 4660              		.loc 1 1380 9 is_stmt 0 view .LVU1367
 4661 0156 0022     		movs	r2, #0
 4662 0158 8949     		ldr	r1, .L375
 4663 015a E868     		ldr	r0, [r5, #12]
 4664 015c FFF7FEFF 		bl	tcp_bind
 4665              	.LVL515:
1381:../../Middlewares/Third_Party/LwIP/src/apps/mqtt/mqtt.c ****   if (err != ERR_OK) {
 4666              		.loc 1 1381 3 is_stmt 1 view .LVU1368
 4667              		.loc 1 1381 6 is_stmt 0 view .LVU1369
 4668 0160 0390     		str	r0, [sp, #12]
 4669 0162 0028     		cmp	r0, #0
 4670 0164 00F0B080 		beq	.L372
 4671              	.L346:
 4672              	.LVL516:
1382:../../Middlewares/Third_Party/LwIP/src/apps/mqtt/mqtt.c ****     LWIP_DEBUGF(MQTT_DEBUG_WARN, ("mqtt_client_connect: Error binding to local ip/port, %d\n", err)
ARM GAS  C:\Users\minis\AppData\Local\Temp\ccG6JyYg.s 			page 126


1383:../../Middlewares/Third_Party/LwIP/src/apps/mqtt/mqtt.c ****     goto tcp_fail;
1384:../../Middlewares/Third_Party/LwIP/src/apps/mqtt/mqtt.c ****   }
1385:../../Middlewares/Third_Party/LwIP/src/apps/mqtt/mqtt.c ****   LWIP_DEBUGF(MQTT_DEBUG_TRACE, ("mqtt_client_connect: Connecting to host: %s at port:%"U16_F"\n", 
1386:../../Middlewares/Third_Party/LwIP/src/apps/mqtt/mqtt.c **** 
1387:../../Middlewares/Third_Party/LwIP/src/apps/mqtt/mqtt.c ****   /* Connect to server */
1388:../../Middlewares/Third_Party/LwIP/src/apps/mqtt/mqtt.c ****   err = altcp_connect(client->conn, ip_addr, port, mqtt_tcp_connect_cb);
1389:../../Middlewares/Third_Party/LwIP/src/apps/mqtt/mqtt.c ****   if (err != ERR_OK) {
1390:../../Middlewares/Third_Party/LwIP/src/apps/mqtt/mqtt.c ****     LWIP_DEBUGF(MQTT_DEBUG_TRACE, ("mqtt_client_connect: Error connecting to remote ip/port, %d\n",
1391:../../Middlewares/Third_Party/LwIP/src/apps/mqtt/mqtt.c ****     goto tcp_fail;
1392:../../Middlewares/Third_Party/LwIP/src/apps/mqtt/mqtt.c ****   }
1393:../../Middlewares/Third_Party/LwIP/src/apps/mqtt/mqtt.c ****   /* Set error callback */
1394:../../Middlewares/Third_Party/LwIP/src/apps/mqtt/mqtt.c ****   altcp_err(client->conn, mqtt_tcp_err_cb);
1395:../../Middlewares/Third_Party/LwIP/src/apps/mqtt/mqtt.c ****   client->conn_state = TCP_CONNECTING;
1396:../../Middlewares/Third_Party/LwIP/src/apps/mqtt/mqtt.c **** 
1397:../../Middlewares/Third_Party/LwIP/src/apps/mqtt/mqtt.c ****   /* Append fixed header */
1398:../../Middlewares/Third_Party/LwIP/src/apps/mqtt/mqtt.c ****   mqtt_output_append_fixed_header(&client->output, MQTT_MSG_TYPE_CONNECT, 0, 0, 0, remaining_length
1399:../../Middlewares/Third_Party/LwIP/src/apps/mqtt/mqtt.c ****   /* Append Protocol string */
1400:../../Middlewares/Third_Party/LwIP/src/apps/mqtt/mqtt.c ****   mqtt_output_append_string(&client->output, "MQTT", 4);
1401:../../Middlewares/Third_Party/LwIP/src/apps/mqtt/mqtt.c ****   /* Append Protocol level */
1402:../../Middlewares/Third_Party/LwIP/src/apps/mqtt/mqtt.c ****   mqtt_output_append_u8(&client->output, 4);
1403:../../Middlewares/Third_Party/LwIP/src/apps/mqtt/mqtt.c ****   /* Append connect flags */
1404:../../Middlewares/Third_Party/LwIP/src/apps/mqtt/mqtt.c ****   mqtt_output_append_u8(&client->output, flags);
1405:../../Middlewares/Third_Party/LwIP/src/apps/mqtt/mqtt.c ****   /* Append keep-alive */
1406:../../Middlewares/Third_Party/LwIP/src/apps/mqtt/mqtt.c ****   mqtt_output_append_u16(&client->output, client_info->keep_alive);
1407:../../Middlewares/Third_Party/LwIP/src/apps/mqtt/mqtt.c ****   /* Append client id */
1408:../../Middlewares/Third_Party/LwIP/src/apps/mqtt/mqtt.c ****   mqtt_output_append_string(&client->output, client_info->client_id, client_id_length);
1409:../../Middlewares/Third_Party/LwIP/src/apps/mqtt/mqtt.c ****   /* Append will message if used */
1410:../../Middlewares/Third_Party/LwIP/src/apps/mqtt/mqtt.c ****   if ((flags & MQTT_CONNECT_FLAG_WILL) != 0) {
1411:../../Middlewares/Third_Party/LwIP/src/apps/mqtt/mqtt.c ****     mqtt_output_append_string(&client->output, client_info->will_topic, will_topic_len);
1412:../../Middlewares/Third_Party/LwIP/src/apps/mqtt/mqtt.c ****     mqtt_output_append_string(&client->output, client_info->will_msg, will_msg_len);
1413:../../Middlewares/Third_Party/LwIP/src/apps/mqtt/mqtt.c ****   }
1414:../../Middlewares/Third_Party/LwIP/src/apps/mqtt/mqtt.c ****   /* Append user name if given */
1415:../../Middlewares/Third_Party/LwIP/src/apps/mqtt/mqtt.c ****   if ((flags & MQTT_CONNECT_FLAG_USERNAME) != 0) {
1416:../../Middlewares/Third_Party/LwIP/src/apps/mqtt/mqtt.c ****     mqtt_output_append_string(&client->output, client_info->client_user, client_user_len);
1417:../../Middlewares/Third_Party/LwIP/src/apps/mqtt/mqtt.c ****   }
1418:../../Middlewares/Third_Party/LwIP/src/apps/mqtt/mqtt.c ****   /* Append password if given */
1419:../../Middlewares/Third_Party/LwIP/src/apps/mqtt/mqtt.c ****   if ((flags & MQTT_CONNECT_FLAG_PASSWORD) != 0) {
1420:../../Middlewares/Third_Party/LwIP/src/apps/mqtt/mqtt.c ****     mqtt_output_append_string(&client->output, client_info->client_pass, client_pass_len);
1421:../../Middlewares/Third_Party/LwIP/src/apps/mqtt/mqtt.c ****   }
1422:../../Middlewares/Third_Party/LwIP/src/apps/mqtt/mqtt.c ****   return ERR_OK;
1423:../../Middlewares/Third_Party/LwIP/src/apps/mqtt/mqtt.c **** 
1424:../../Middlewares/Third_Party/LwIP/src/apps/mqtt/mqtt.c **** tcp_fail:
1425:../../Middlewares/Third_Party/LwIP/src/apps/mqtt/mqtt.c ****   altcp_abort(client->conn);
 4673              		.loc 1 1425 3 is_stmt 1 view .LVU1370
 4674 0168 E868     		ldr	r0, [r5, #12]
 4675 016a FFF7FEFF 		bl	tcp_abort
 4676              	.LVL517:
1426:../../Middlewares/Third_Party/LwIP/src/apps/mqtt/mqtt.c ****   client->conn = NULL;
 4677              		.loc 1 1426 3 view .LVU1371
 4678              		.loc 1 1426 16 is_stmt 0 view .LVU1372
 4679 016e 0023     		movs	r3, #0
 4680 0170 EB60     		str	r3, [r5, #12]
1427:../../Middlewares/Third_Party/LwIP/src/apps/mqtt/mqtt.c ****   return err;
 4681              		.loc 1 1427 3 is_stmt 1 view .LVU1373
 4682              	.LVL518:
 4683              	.L329:
1428:../../Middlewares/Third_Party/LwIP/src/apps/mqtt/mqtt.c **** }
ARM GAS  C:\Users\minis\AppData\Local\Temp\ccG6JyYg.s 			page 127


 4684              		.loc 1 1428 1 is_stmt 0 view .LVU1374
 4685 0172 0398     		ldr	r0, [sp, #12]
 4686 0174 09B0     		add	sp, sp, #36
 4687              	.LCFI49:
 4688              		.cfi_remember_state
 4689              		.cfi_def_cfa_offset 36
 4690              		@ sp needed
 4691 0176 BDE8F08F 		pop	{r4, r5, r6, r7, r8, r9, r10, fp, pc}
 4692              	.LVL519:
 4693              	.L357:
 4694              	.LCFI50:
 4695              		.cfi_restore_state
1295:../../Middlewares/Third_Party/LwIP/src/apps/mqtt/mqtt.c ****   LWIP_ASSERT("mqtt_client_connect: ip_addr != NULL", ip_addr != NULL);
 4696              		.loc 1 1295 3 is_stmt 1 discriminator 1 view .LVU1375
1295:../../Middlewares/Third_Party/LwIP/src/apps/mqtt/mqtt.c ****   LWIP_ASSERT("mqtt_client_connect: ip_addr != NULL", ip_addr != NULL);
 4697              		.loc 1 1295 3 discriminator 1 view .LVU1376
 4698 017a 824B     		ldr	r3, .L375+4
 4699              	.LVL520:
1295:../../Middlewares/Third_Party/LwIP/src/apps/mqtt/mqtt.c ****   LWIP_ASSERT("mqtt_client_connect: ip_addr != NULL", ip_addr != NULL);
 4700              		.loc 1 1295 3 is_stmt 0 discriminator 1 view .LVU1377
 4701 017c 40F20F52 		movw	r2, #1295
 4702              	.LVL521:
1295:../../Middlewares/Third_Party/LwIP/src/apps/mqtt/mqtt.c ****   LWIP_ASSERT("mqtt_client_connect: ip_addr != NULL", ip_addr != NULL);
 4703              		.loc 1 1295 3 discriminator 1 view .LVU1378
 4704 0180 8149     		ldr	r1, .L375+8
 4705              	.LVL522:
1295:../../Middlewares/Third_Party/LwIP/src/apps/mqtt/mqtt.c ****   LWIP_ASSERT("mqtt_client_connect: ip_addr != NULL", ip_addr != NULL);
 4706              		.loc 1 1295 3 discriminator 1 view .LVU1379
 4707 0182 8248     		ldr	r0, .L375+12
 4708              	.LVL523:
1295:../../Middlewares/Third_Party/LwIP/src/apps/mqtt/mqtt.c ****   LWIP_ASSERT("mqtt_client_connect: ip_addr != NULL", ip_addr != NULL);
 4709              		.loc 1 1295 3 discriminator 1 view .LVU1380
 4710 0184 FFF7FEFF 		bl	printf
 4711              	.LVL524:
 4712 0188 45E7     		b	.L325
 4713              	.L358:
1296:../../Middlewares/Third_Party/LwIP/src/apps/mqtt/mqtt.c ****   LWIP_ASSERT("mqtt_client_connect: client_info != NULL", client_info != NULL);
 4714              		.loc 1 1296 3 is_stmt 1 discriminator 1 view .LVU1381
1296:../../Middlewares/Third_Party/LwIP/src/apps/mqtt/mqtt.c ****   LWIP_ASSERT("mqtt_client_connect: client_info != NULL", client_info != NULL);
 4715              		.loc 1 1296 3 discriminator 1 view .LVU1382
 4716 018a 7E4B     		ldr	r3, .L375+4
 4717 018c 4FF4A262 		mov	r2, #1296
 4718 0190 7F49     		ldr	r1, .L375+16
 4719 0192 7E48     		ldr	r0, .L375+12
 4720 0194 FFF7FEFF 		bl	printf
 4721              	.LVL525:
 4722 0198 41E7     		b	.L326
 4723              	.L359:
1297:../../Middlewares/Third_Party/LwIP/src/apps/mqtt/mqtt.c ****   LWIP_ASSERT("mqtt_client_connect: client_info->client_id != NULL", client_info->client_id != NULL
 4724              		.loc 1 1297 3 discriminator 1 view .LVU1383
1297:../../Middlewares/Third_Party/LwIP/src/apps/mqtt/mqtt.c ****   LWIP_ASSERT("mqtt_client_connect: client_info->client_id != NULL", client_info->client_id != NULL
 4725              		.loc 1 1297 3 discriminator 1 view .LVU1384
 4726 019a 7A4B     		ldr	r3, .L375+4
 4727 019c 40F21152 		movw	r2, #1297
 4728 01a0 7C49     		ldr	r1, .L375+20
 4729 01a2 7A48     		ldr	r0, .L375+12
 4730 01a4 FFF7FEFF 		bl	printf
ARM GAS  C:\Users\minis\AppData\Local\Temp\ccG6JyYg.s 			page 128


 4731              	.LVL526:
 4732 01a8 3CE7     		b	.L327
 4733              	.L360:
1298:../../Middlewares/Third_Party/LwIP/src/apps/mqtt/mqtt.c **** 
 4734              		.loc 1 1298 3 discriminator 1 view .LVU1385
1298:../../Middlewares/Third_Party/LwIP/src/apps/mqtt/mqtt.c **** 
 4735              		.loc 1 1298 3 discriminator 1 view .LVU1386
 4736 01aa 764B     		ldr	r3, .L375+4
 4737 01ac 40F21252 		movw	r2, #1298
 4738 01b0 7949     		ldr	r1, .L375+24
 4739 01b2 7648     		ldr	r0, .L375+12
 4740 01b4 FFF7FEFF 		bl	printf
 4741              	.LVL527:
 4742 01b8 38E7     		b	.L328
 4743              	.LVL528:
 4744              	.L361:
1320:../../Middlewares/Third_Party/LwIP/src/apps/mqtt/mqtt.c ****     LWIP_ERROR("mqtt_client_connect: client_info->will_topic length must be > 0", len > 0, return E
 4745              		.loc 1 1320 5 discriminator 1 view .LVU1387
1320:../../Middlewares/Third_Party/LwIP/src/apps/mqtt/mqtt.c ****     LWIP_ERROR("mqtt_client_connect: client_info->will_topic length must be > 0", len > 0, return E
 4746              		.loc 1 1320 5 discriminator 1 view .LVU1388
 4747 01ba 724B     		ldr	r3, .L375+4
 4748 01bc 4FF4A562 		mov	r2, #1320
 4749 01c0 7649     		ldr	r1, .L375+28
 4750 01c2 7248     		ldr	r0, .L375+12
 4751              	.LVL529:
1320:../../Middlewares/Third_Party/LwIP/src/apps/mqtt/mqtt.c ****     LWIP_ERROR("mqtt_client_connect: client_info->will_topic length must be > 0", len > 0, return E
 4752              		.loc 1 1320 5 is_stmt 0 discriminator 1 view .LVU1389
 4753 01c4 FFF7FEFF 		bl	printf
 4754              	.LVL530:
1320:../../Middlewares/Third_Party/LwIP/src/apps/mqtt/mqtt.c ****     LWIP_ERROR("mqtt_client_connect: client_info->will_topic length must be > 0", len > 0, return E
 4755              		.loc 1 1320 5 is_stmt 1 discriminator 1 view .LVU1390
1320:../../Middlewares/Third_Party/LwIP/src/apps/mqtt/mqtt.c ****     LWIP_ERROR("mqtt_client_connect: client_info->will_topic length must be > 0", len > 0, return E
 4756              		.loc 1 1320 5 discriminator 1 view .LVU1391
 4757 01c8 6FF00503 		mvn	r3, #5
 4758 01cc 0393     		str	r3, [sp, #12]
1320:../../Middlewares/Third_Party/LwIP/src/apps/mqtt/mqtt.c ****     LWIP_ERROR("mqtt_client_connect: client_info->will_topic length must be > 0", len > 0, return E
 4759              		.loc 1 1320 5 is_stmt 0 view .LVU1392
 4760 01ce D0E7     		b	.L329
 4761              	.LVL531:
 4762              	.L362:
1321:../../Middlewares/Third_Party/LwIP/src/apps/mqtt/mqtt.c ****     will_topic_len = (u8_t)len;
 4763              		.loc 1 1321 5 is_stmt 1 discriminator 1 view .LVU1393
1321:../../Middlewares/Third_Party/LwIP/src/apps/mqtt/mqtt.c ****     will_topic_len = (u8_t)len;
 4764              		.loc 1 1321 5 discriminator 1 view .LVU1394
 4765 01d0 6C4B     		ldr	r3, .L375+4
 4766 01d2 40F22952 		movw	r2, #1321
 4767 01d6 7249     		ldr	r1, .L375+32
 4768 01d8 6C48     		ldr	r0, .L375+12
 4769              	.LVL532:
1321:../../Middlewares/Third_Party/LwIP/src/apps/mqtt/mqtt.c ****     will_topic_len = (u8_t)len;
 4770              		.loc 1 1321 5 is_stmt 0 discriminator 1 view .LVU1395
 4771 01da FFF7FEFF 		bl	printf
 4772              	.LVL533:
1321:../../Middlewares/Third_Party/LwIP/src/apps/mqtt/mqtt.c ****     will_topic_len = (u8_t)len;
 4773              		.loc 1 1321 5 is_stmt 1 discriminator 1 view .LVU1396
1321:../../Middlewares/Third_Party/LwIP/src/apps/mqtt/mqtt.c ****     will_topic_len = (u8_t)len;
 4774              		.loc 1 1321 5 discriminator 1 view .LVU1397
ARM GAS  C:\Users\minis\AppData\Local\Temp\ccG6JyYg.s 			page 129


 4775 01de 6FF00503 		mvn	r3, #5
 4776 01e2 0393     		str	r3, [sp, #12]
1321:../../Middlewares/Third_Party/LwIP/src/apps/mqtt/mqtt.c ****     will_topic_len = (u8_t)len;
 4777              		.loc 1 1321 5 is_stmt 0 view .LVU1398
 4778 01e4 C5E7     		b	.L329
 4779              	.LVL534:
 4780              	.L363:
1324:../../Middlewares/Third_Party/LwIP/src/apps/mqtt/mqtt.c ****     will_msg_len = (u8_t)len;
 4781              		.loc 1 1324 5 is_stmt 1 discriminator 1 view .LVU1399
1324:../../Middlewares/Third_Party/LwIP/src/apps/mqtt/mqtt.c ****     will_msg_len = (u8_t)len;
 4782              		.loc 1 1324 5 discriminator 1 view .LVU1400
 4783 01e6 674B     		ldr	r3, .L375+4
 4784 01e8 40F22C52 		movw	r2, #1324
 4785 01ec 6D49     		ldr	r1, .L375+36
 4786 01ee 6748     		ldr	r0, .L375+12
 4787              	.LVL535:
1324:../../Middlewares/Third_Party/LwIP/src/apps/mqtt/mqtt.c ****     will_msg_len = (u8_t)len;
 4788              		.loc 1 1324 5 is_stmt 0 discriminator 1 view .LVU1401
 4789 01f0 FFF7FEFF 		bl	printf
 4790              	.LVL536:
1324:../../Middlewares/Third_Party/LwIP/src/apps/mqtt/mqtt.c ****     will_msg_len = (u8_t)len;
 4791              		.loc 1 1324 5 is_stmt 1 discriminator 1 view .LVU1402
1324:../../Middlewares/Third_Party/LwIP/src/apps/mqtt/mqtt.c ****     will_msg_len = (u8_t)len;
 4792              		.loc 1 1324 5 discriminator 1 view .LVU1403
 4793 01f4 6FF00503 		mvn	r3, #5
 4794 01f8 0393     		str	r3, [sp, #12]
1324:../../Middlewares/Third_Party/LwIP/src/apps/mqtt/mqtt.c ****     will_msg_len = (u8_t)len;
 4795              		.loc 1 1324 5 is_stmt 0 view .LVU1404
 4796 01fa BAE7     		b	.L329
 4797              	.LVL537:
 4798              	.L350:
1291:../../Middlewares/Third_Party/LwIP/src/apps/mqtt/mqtt.c ****   u16_t client_user_len = 0, client_pass_len = 0;
 4799              		.loc 1 1291 39 view .LVU1405
 4800 01fc 0797     		str	r7, [sp, #28]
1291:../../Middlewares/Third_Party/LwIP/src/apps/mqtt/mqtt.c ****   u16_t client_user_len = 0, client_pass_len = 0;
 4801              		.loc 1 1291 19 view .LVU1406
 4802 01fe 0697     		str	r7, [sp, #24]
1290:../../Middlewares/Third_Party/LwIP/src/apps/mqtt/mqtt.c ****   u8_t flags = 0, will_topic_len = 0, will_msg_len = 0;
 4803              		.loc 1 1290 9 view .LVU1407
 4804 0200 0A24     		movs	r4, #10
 4805              	.LVL538:
1290:../../Middlewares/Third_Party/LwIP/src/apps/mqtt/mqtt.c ****   u8_t flags = 0, will_topic_len = 0, will_msg_len = 0;
 4806              		.loc 1 1290 9 view .LVU1408
 4807 0202 52E7     		b	.L330
 4808              	.LVL539:
 4809              	.L351:
1291:../../Middlewares/Third_Party/LwIP/src/apps/mqtt/mqtt.c ****   u16_t client_user_len = 0, client_pass_len = 0;
 4810              		.loc 1 1291 39 view .LVU1409
 4811 0204 0797     		str	r7, [sp, #28]
1291:../../Middlewares/Third_Party/LwIP/src/apps/mqtt/mqtt.c ****   u16_t client_user_len = 0, client_pass_len = 0;
 4812              		.loc 1 1291 19 view .LVU1410
 4813 0206 0697     		str	r7, [sp, #24]
1290:../../Middlewares/Third_Party/LwIP/src/apps/mqtt/mqtt.c ****   u8_t flags = 0, will_topic_len = 0, will_msg_len = 0;
 4814              		.loc 1 1290 9 view .LVU1411
 4815 0208 0A24     		movs	r4, #10
 4816              	.LVL540:
1290:../../Middlewares/Third_Party/LwIP/src/apps/mqtt/mqtt.c ****   u8_t flags = 0, will_topic_len = 0, will_msg_len = 0;
ARM GAS  C:\Users\minis\AppData\Local\Temp\ccG6JyYg.s 			page 130


 4817              		.loc 1 1290 9 view .LVU1412
 4818 020a 4EE7     		b	.L330
 4819              	.LVL541:
 4820              	.L364:
1333:../../Middlewares/Third_Party/LwIP/src/apps/mqtt/mqtt.c ****     LWIP_ERROR("mqtt_client_connect: client_info->client_user length must be > 0", len > 0, return 
 4821              		.loc 1 1333 5 is_stmt 1 discriminator 1 view .LVU1413
1333:../../Middlewares/Third_Party/LwIP/src/apps/mqtt/mqtt.c ****     LWIP_ERROR("mqtt_client_connect: client_info->client_user length must be > 0", len > 0, return 
 4822              		.loc 1 1333 5 discriminator 1 view .LVU1414
 4823 020c 5D4B     		ldr	r3, .L375+4
 4824 020e 40F23552 		movw	r2, #1333
 4825 0212 6549     		ldr	r1, .L375+40
 4826 0214 5D48     		ldr	r0, .L375+12
 4827              	.LVL542:
1333:../../Middlewares/Third_Party/LwIP/src/apps/mqtt/mqtt.c ****     LWIP_ERROR("mqtt_client_connect: client_info->client_user length must be > 0", len > 0, return 
 4828              		.loc 1 1333 5 is_stmt 0 discriminator 1 view .LVU1415
 4829 0216 FFF7FEFF 		bl	printf
 4830              	.LVL543:
1333:../../Middlewares/Third_Party/LwIP/src/apps/mqtt/mqtt.c ****     LWIP_ERROR("mqtt_client_connect: client_info->client_user length must be > 0", len > 0, return 
 4831              		.loc 1 1333 5 is_stmt 1 discriminator 1 view .LVU1416
1333:../../Middlewares/Third_Party/LwIP/src/apps/mqtt/mqtt.c ****     LWIP_ERROR("mqtt_client_connect: client_info->client_user length must be > 0", len > 0, return 
 4832              		.loc 1 1333 5 discriminator 1 view .LVU1417
 4833 021a 6FF00503 		mvn	r3, #5
 4834 021e 0393     		str	r3, [sp, #12]
1333:../../Middlewares/Third_Party/LwIP/src/apps/mqtt/mqtt.c ****     LWIP_ERROR("mqtt_client_connect: client_info->client_user length must be > 0", len > 0, return 
 4835              		.loc 1 1333 5 is_stmt 0 view .LVU1418
 4836 0220 A7E7     		b	.L329
 4837              	.LVL544:
 4838              	.L365:
1334:../../Middlewares/Third_Party/LwIP/src/apps/mqtt/mqtt.c ****     client_user_len = (u16_t)len;
 4839              		.loc 1 1334 5 is_stmt 1 discriminator 1 view .LVU1419
1334:../../Middlewares/Third_Party/LwIP/src/apps/mqtt/mqtt.c ****     client_user_len = (u16_t)len;
 4840              		.loc 1 1334 5 discriminator 1 view .LVU1420
 4841 0222 584B     		ldr	r3, .L375+4
 4842 0224 40F23652 		movw	r2, #1334
 4843 0228 6049     		ldr	r1, .L375+44
 4844 022a 5848     		ldr	r0, .L375+12
 4845              	.LVL545:
1334:../../Middlewares/Third_Party/LwIP/src/apps/mqtt/mqtt.c ****     client_user_len = (u16_t)len;
 4846              		.loc 1 1334 5 is_stmt 0 discriminator 1 view .LVU1421
 4847 022c FFF7FEFF 		bl	printf
 4848              	.LVL546:
1334:../../Middlewares/Third_Party/LwIP/src/apps/mqtt/mqtt.c ****     client_user_len = (u16_t)len;
 4849              		.loc 1 1334 5 is_stmt 1 discriminator 1 view .LVU1422
1334:../../Middlewares/Third_Party/LwIP/src/apps/mqtt/mqtt.c ****     client_user_len = (u16_t)len;
 4850              		.loc 1 1334 5 discriminator 1 view .LVU1423
 4851 0230 6FF00503 		mvn	r3, #5
 4852 0234 0393     		str	r3, [sp, #12]
1334:../../Middlewares/Third_Party/LwIP/src/apps/mqtt/mqtt.c ****     client_user_len = (u16_t)len;
 4853              		.loc 1 1334 5 is_stmt 0 view .LVU1424
 4854 0236 9CE7     		b	.L329
 4855              	.LVL547:
 4856              	.L366:
1337:../../Middlewares/Third_Party/LwIP/src/apps/mqtt/mqtt.c ****     remaining_length = (u16_t)len;
 4857              		.loc 1 1337 5 is_stmt 1 discriminator 1 view .LVU1425
1337:../../Middlewares/Third_Party/LwIP/src/apps/mqtt/mqtt.c ****     remaining_length = (u16_t)len;
 4858              		.loc 1 1337 5 discriminator 1 view .LVU1426
 4859 0238 524B     		ldr	r3, .L375+4
ARM GAS  C:\Users\minis\AppData\Local\Temp\ccG6JyYg.s 			page 131


 4860 023a 40F23952 		movw	r2, #1337
 4861 023e 5C49     		ldr	r1, .L375+48
 4862 0240 5248     		ldr	r0, .L375+12
 4863 0242 FFF7FEFF 		bl	printf
 4864              	.LVL548:
1337:../../Middlewares/Third_Party/LwIP/src/apps/mqtt/mqtt.c ****     remaining_length = (u16_t)len;
 4865              		.loc 1 1337 5 discriminator 1 view .LVU1427
1337:../../Middlewares/Third_Party/LwIP/src/apps/mqtt/mqtt.c ****     remaining_length = (u16_t)len;
 4866              		.loc 1 1337 5 discriminator 1 view .LVU1428
 4867 0246 6FF00503 		mvn	r3, #5
 4868 024a 0393     		str	r3, [sp, #12]
1337:../../Middlewares/Third_Party/LwIP/src/apps/mqtt/mqtt.c ****     remaining_length = (u16_t)len;
 4869              		.loc 1 1337 5 is_stmt 0 view .LVU1429
 4870 024c 91E7     		b	.L329
 4871              	.LVL549:
 4872              	.L352:
1292:../../Middlewares/Third_Party/LwIP/src/apps/mqtt/mqtt.c **** 
 4873              		.loc 1 1292 9 view .LVU1430
 4874 024e 4FF00009 		mov	r9, #0
 4875 0252 42E7     		b	.L336
 4876              	.LVL550:
 4877              	.L367:
1343:../../Middlewares/Third_Party/LwIP/src/apps/mqtt/mqtt.c ****     LWIP_ERROR("mqtt_client_connect: client_info->client_pass length must be > 0", len > 0, return 
 4878              		.loc 1 1343 5 is_stmt 1 discriminator 1 view .LVU1431
1343:../../Middlewares/Third_Party/LwIP/src/apps/mqtt/mqtt.c ****     LWIP_ERROR("mqtt_client_connect: client_info->client_pass length must be > 0", len > 0, return 
 4879              		.loc 1 1343 5 discriminator 1 view .LVU1432
 4880 0254 4B4B     		ldr	r3, .L375+4
 4881 0256 40F23F52 		movw	r2, #1343
 4882 025a 5649     		ldr	r1, .L375+52
 4883 025c 4B48     		ldr	r0, .L375+12
 4884              	.LVL551:
1343:../../Middlewares/Third_Party/LwIP/src/apps/mqtt/mqtt.c ****     LWIP_ERROR("mqtt_client_connect: client_info->client_pass length must be > 0", len > 0, return 
 4885              		.loc 1 1343 5 is_stmt 0 discriminator 1 view .LVU1433
 4886 025e FFF7FEFF 		bl	printf
 4887              	.LVL552:
1343:../../Middlewares/Third_Party/LwIP/src/apps/mqtt/mqtt.c ****     LWIP_ERROR("mqtt_client_connect: client_info->client_pass length must be > 0", len > 0, return 
 4888              		.loc 1 1343 5 is_stmt 1 discriminator 1 view .LVU1434
1343:../../Middlewares/Third_Party/LwIP/src/apps/mqtt/mqtt.c ****     LWIP_ERROR("mqtt_client_connect: client_info->client_pass length must be > 0", len > 0, return 
 4889              		.loc 1 1343 5 discriminator 1 view .LVU1435
 4890 0262 6FF00503 		mvn	r3, #5
 4891 0266 0393     		str	r3, [sp, #12]
1343:../../Middlewares/Third_Party/LwIP/src/apps/mqtt/mqtt.c ****     LWIP_ERROR("mqtt_client_connect: client_info->client_pass length must be > 0", len > 0, return 
 4892              		.loc 1 1343 5 is_stmt 0 view .LVU1436
 4893 0268 83E7     		b	.L329
 4894              	.LVL553:
 4895              	.L368:
1344:../../Middlewares/Third_Party/LwIP/src/apps/mqtt/mqtt.c ****     client_pass_len = (u16_t)len;
 4896              		.loc 1 1344 5 is_stmt 1 discriminator 1 view .LVU1437
1344:../../Middlewares/Third_Party/LwIP/src/apps/mqtt/mqtt.c ****     client_pass_len = (u16_t)len;
 4897              		.loc 1 1344 5 discriminator 1 view .LVU1438
 4898 026a 464B     		ldr	r3, .L375+4
 4899 026c 4FF4A862 		mov	r2, #1344
 4900 0270 5149     		ldr	r1, .L375+56
 4901 0272 4648     		ldr	r0, .L375+12
 4902              	.LVL554:
1344:../../Middlewares/Third_Party/LwIP/src/apps/mqtt/mqtt.c ****     client_pass_len = (u16_t)len;
 4903              		.loc 1 1344 5 is_stmt 0 discriminator 1 view .LVU1439
ARM GAS  C:\Users\minis\AppData\Local\Temp\ccG6JyYg.s 			page 132


 4904 0274 FFF7FEFF 		bl	printf
 4905              	.LVL555:
1344:../../Middlewares/Third_Party/LwIP/src/apps/mqtt/mqtt.c ****     client_pass_len = (u16_t)len;
 4906              		.loc 1 1344 5 is_stmt 1 discriminator 1 view .LVU1440
1344:../../Middlewares/Third_Party/LwIP/src/apps/mqtt/mqtt.c ****     client_pass_len = (u16_t)len;
 4907              		.loc 1 1344 5 discriminator 1 view .LVU1441
 4908 0278 6FF00503 		mvn	r3, #5
 4909 027c 0393     		str	r3, [sp, #12]
1344:../../Middlewares/Third_Party/LwIP/src/apps/mqtt/mqtt.c ****     client_pass_len = (u16_t)len;
 4910              		.loc 1 1344 5 is_stmt 0 view .LVU1442
 4911 027e 78E7     		b	.L329
 4912              	.LVL556:
 4913              	.L369:
1347:../../Middlewares/Third_Party/LwIP/src/apps/mqtt/mqtt.c ****     remaining_length = (u16_t)len;
 4914              		.loc 1 1347 5 is_stmt 1 discriminator 1 view .LVU1443
1347:../../Middlewares/Third_Party/LwIP/src/apps/mqtt/mqtt.c ****     remaining_length = (u16_t)len;
 4915              		.loc 1 1347 5 discriminator 1 view .LVU1444
 4916 0280 404B     		ldr	r3, .L375+4
 4917 0282 40F24352 		movw	r2, #1347
 4918 0286 4A49     		ldr	r1, .L375+48
 4919 0288 4048     		ldr	r0, .L375+12
 4920 028a FFF7FEFF 		bl	printf
 4921              	.LVL557:
1347:../../Middlewares/Third_Party/LwIP/src/apps/mqtt/mqtt.c ****     remaining_length = (u16_t)len;
 4922              		.loc 1 1347 5 discriminator 1 view .LVU1445
1347:../../Middlewares/Third_Party/LwIP/src/apps/mqtt/mqtt.c ****     remaining_length = (u16_t)len;
 4923              		.loc 1 1347 5 discriminator 1 view .LVU1446
 4924 028e 6FF00503 		mvn	r3, #5
 4925 0292 0393     		str	r3, [sp, #12]
1347:../../Middlewares/Third_Party/LwIP/src/apps/mqtt/mqtt.c ****     remaining_length = (u16_t)len;
 4926              		.loc 1 1347 5 is_stmt 0 view .LVU1447
 4927 0294 6DE7     		b	.L329
 4928              	.LVL558:
 4929              	.L353:
1292:../../Middlewares/Third_Party/LwIP/src/apps/mqtt/mqtt.c **** 
 4930              		.loc 1 1292 30 view .LVU1448
 4931 0296 4FF0000B 		mov	fp, #0
 4932 029a 36E7     		b	.L340
 4933              	.LVL559:
 4934              	.L370:
1355:../../Middlewares/Third_Party/LwIP/src/apps/mqtt/mqtt.c ****   client_id_length = (u16_t)len;
 4935              		.loc 1 1355 3 is_stmt 1 discriminator 1 view .LVU1449
1355:../../Middlewares/Third_Party/LwIP/src/apps/mqtt/mqtt.c ****   client_id_length = (u16_t)len;
 4936              		.loc 1 1355 3 discriminator 1 view .LVU1450
 4937 029c 394B     		ldr	r3, .L375+4
 4938 029e 40F24B52 		movw	r2, #1355
 4939 02a2 4649     		ldr	r1, .L375+60
 4940 02a4 3948     		ldr	r0, .L375+12
 4941              	.LVL560:
1355:../../Middlewares/Third_Party/LwIP/src/apps/mqtt/mqtt.c ****   client_id_length = (u16_t)len;
 4942              		.loc 1 1355 3 is_stmt 0 discriminator 1 view .LVU1451
 4943 02a6 FFF7FEFF 		bl	printf
 4944              	.LVL561:
1355:../../Middlewares/Third_Party/LwIP/src/apps/mqtt/mqtt.c ****   client_id_length = (u16_t)len;
 4945              		.loc 1 1355 3 is_stmt 1 discriminator 1 view .LVU1452
1355:../../Middlewares/Third_Party/LwIP/src/apps/mqtt/mqtt.c ****   client_id_length = (u16_t)len;
 4946              		.loc 1 1355 3 discriminator 1 view .LVU1453
ARM GAS  C:\Users\minis\AppData\Local\Temp\ccG6JyYg.s 			page 133


 4947 02aa 6FF00503 		mvn	r3, #5
 4948 02ae 0393     		str	r3, [sp, #12]
1355:../../Middlewares/Third_Party/LwIP/src/apps/mqtt/mqtt.c ****   client_id_length = (u16_t)len;
 4949              		.loc 1 1355 3 is_stmt 0 view .LVU1454
 4950 02b0 5FE7     		b	.L329
 4951              	.LVL562:
 4952              	.L371:
1358:../../Middlewares/Third_Party/LwIP/src/apps/mqtt/mqtt.c ****   remaining_length = (u16_t)len;
 4953              		.loc 1 1358 3 is_stmt 1 discriminator 1 view .LVU1455
1358:../../Middlewares/Third_Party/LwIP/src/apps/mqtt/mqtt.c ****   remaining_length = (u16_t)len;
 4954              		.loc 1 1358 3 discriminator 1 view .LVU1456
 4955 02b2 344B     		ldr	r3, .L375+4
 4956 02b4 40F24E52 		movw	r2, #1358
 4957 02b8 3D49     		ldr	r1, .L375+48
 4958 02ba 3448     		ldr	r0, .L375+12
 4959 02bc FFF7FEFF 		bl	printf
 4960              	.LVL563:
1358:../../Middlewares/Third_Party/LwIP/src/apps/mqtt/mqtt.c ****   remaining_length = (u16_t)len;
 4961              		.loc 1 1358 3 discriminator 1 view .LVU1457
1358:../../Middlewares/Third_Party/LwIP/src/apps/mqtt/mqtt.c ****   remaining_length = (u16_t)len;
 4962              		.loc 1 1358 3 discriminator 1 view .LVU1458
 4963 02c0 6FF00503 		mvn	r3, #5
 4964 02c4 0393     		str	r3, [sp, #12]
1358:../../Middlewares/Third_Party/LwIP/src/apps/mqtt/mqtt.c ****   remaining_length = (u16_t)len;
 4965              		.loc 1 1358 3 is_stmt 0 view .LVU1459
 4966 02c6 54E7     		b	.L329
 4967              	.LVL564:
 4968              	.L372:
1385:../../Middlewares/Third_Party/LwIP/src/apps/mqtt/mqtt.c **** 
 4969              		.loc 1 1385 128 is_stmt 1 view .LVU1460
1388:../../Middlewares/Third_Party/LwIP/src/apps/mqtt/mqtt.c ****   if (err != ERR_OK) {
 4970              		.loc 1 1388 3 view .LVU1461
1388:../../Middlewares/Third_Party/LwIP/src/apps/mqtt/mqtt.c ****   if (err != ERR_OK) {
 4971              		.loc 1 1388 9 is_stmt 0 view .LVU1462
 4972 02c8 3D4B     		ldr	r3, .L375+64
 4973 02ca 049A     		ldr	r2, [sp, #16]
 4974 02cc 0299     		ldr	r1, [sp, #8]
 4975 02ce E868     		ldr	r0, [r5, #12]
 4976              	.LVL565:
1388:../../Middlewares/Third_Party/LwIP/src/apps/mqtt/mqtt.c ****   if (err != ERR_OK) {
 4977              		.loc 1 1388 9 view .LVU1463
 4978 02d0 FFF7FEFF 		bl	tcp_connect
 4979              	.LVL566:
1389:../../Middlewares/Third_Party/LwIP/src/apps/mqtt/mqtt.c ****     LWIP_DEBUGF(MQTT_DEBUG_TRACE, ("mqtt_client_connect: Error connecting to remote ip/port, %d\n",
 4980              		.loc 1 1389 3 is_stmt 1 view .LVU1464
1389:../../Middlewares/Third_Party/LwIP/src/apps/mqtt/mqtt.c ****     LWIP_DEBUGF(MQTT_DEBUG_TRACE, ("mqtt_client_connect: Error connecting to remote ip/port, %d\n",
 4981              		.loc 1 1389 6 is_stmt 0 view .LVU1465
 4982 02d4 0390     		str	r0, [sp, #12]
 4983 02d6 0028     		cmp	r0, #0
 4984 02d8 7FF446AF 		bne	.L346
1394:../../Middlewares/Third_Party/LwIP/src/apps/mqtt/mqtt.c ****   client->conn_state = TCP_CONNECTING;
 4985              		.loc 1 1394 3 is_stmt 1 view .LVU1466
 4986 02dc 3949     		ldr	r1, .L375+68
 4987 02de E868     		ldr	r0, [r5, #12]
 4988              	.LVL567:
1394:../../Middlewares/Third_Party/LwIP/src/apps/mqtt/mqtt.c ****   client->conn_state = TCP_CONNECTING;
 4989              		.loc 1 1394 3 is_stmt 0 view .LVU1467
ARM GAS  C:\Users\minis\AppData\Local\Temp\ccG6JyYg.s 			page 134


 4990 02e0 FFF7FEFF 		bl	tcp_err
 4991              	.LVL568:
1395:../../Middlewares/Third_Party/LwIP/src/apps/mqtt/mqtt.c **** 
 4992              		.loc 1 1395 3 is_stmt 1 view .LVU1468
1395:../../Middlewares/Third_Party/LwIP/src/apps/mqtt/mqtt.c **** 
 4993              		.loc 1 1395 22 is_stmt 0 view .LVU1469
 4994 02e4 0121     		movs	r1, #1
 4995 02e6 A972     		strb	r1, [r5, #10]
1398:../../Middlewares/Third_Party/LwIP/src/apps/mqtt/mqtt.c ****   /* Append Protocol string */
 4996              		.loc 1 1398 3 is_stmt 1 view .LVU1470
 4997 02e8 0194     		str	r4, [sp, #4]
 4998 02ea 0022     		movs	r2, #0
 4999 02ec 0092     		str	r2, [sp]
 5000 02ee 1346     		mov	r3, r2
 5001 02f0 5046     		mov	r0, r10
 5002 02f2 FFF7FEFF 		bl	mqtt_output_append_fixed_header
 5003              	.LVL569:
1400:../../Middlewares/Third_Party/LwIP/src/apps/mqtt/mqtt.c ****   /* Append Protocol level */
 5004              		.loc 1 1400 3 view .LVU1471
 5005 02f6 0422     		movs	r2, #4
 5006 02f8 3349     		ldr	r1, .L375+72
 5007 02fa 5046     		mov	r0, r10
 5008 02fc FFF7FEFF 		bl	mqtt_output_append_string
 5009              	.LVL570:
1402:../../Middlewares/Third_Party/LwIP/src/apps/mqtt/mqtt.c ****   /* Append connect flags */
 5010              		.loc 1 1402 3 view .LVU1472
 5011 0300 0421     		movs	r1, #4
 5012 0302 5046     		mov	r0, r10
 5013 0304 FFF7FEFF 		bl	mqtt_output_append_u8
 5014              	.LVL571:
1404:../../Middlewares/Third_Party/LwIP/src/apps/mqtt/mqtt.c ****   /* Append keep-alive */
 5015              		.loc 1 1404 3 view .LVU1473
 5016 0308 0599     		ldr	r1, [sp, #20]
 5017 030a 5046     		mov	r0, r10
 5018 030c FFF7FEFF 		bl	mqtt_output_append_u8
 5019              	.LVL572:
1406:../../Middlewares/Third_Party/LwIP/src/apps/mqtt/mqtt.c ****   /* Append client id */
 5020              		.loc 1 1406 3 view .LVU1474
 5021 0310 B189     		ldrh	r1, [r6, #12]
 5022 0312 5046     		mov	r0, r10
 5023 0314 FFF7FEFF 		bl	mqtt_output_append_u16
 5024              	.LVL573:
1408:../../Middlewares/Third_Party/LwIP/src/apps/mqtt/mqtt.c ****   /* Append will message if used */
 5025              		.loc 1 1408 3 view .LVU1475
 5026 0318 4246     		mov	r2, r8
 5027 031a 3168     		ldr	r1, [r6]
 5028 031c 5046     		mov	r0, r10
 5029 031e FFF7FEFF 		bl	mqtt_output_append_string
 5030              	.LVL574:
1410:../../Middlewares/Third_Party/LwIP/src/apps/mqtt/mqtt.c ****     mqtt_output_append_string(&client->output, client_info->will_topic, will_topic_len);
 5031              		.loc 1 1410 3 view .LVU1476
1410:../../Middlewares/Third_Party/LwIP/src/apps/mqtt/mqtt.c ****     mqtt_output_append_string(&client->output, client_info->will_topic, will_topic_len);
 5032              		.loc 1 1410 6 is_stmt 0 view .LVU1477
 5033 0322 17F0040F 		tst	r7, #4
 5034 0326 0DD1     		bne	.L373
 5035              	.L347:
1415:../../Middlewares/Third_Party/LwIP/src/apps/mqtt/mqtt.c ****     mqtt_output_append_string(&client->output, client_info->client_user, client_user_len);
ARM GAS  C:\Users\minis\AppData\Local\Temp\ccG6JyYg.s 			page 135


 5036              		.loc 1 1415 3 is_stmt 1 view .LVU1478
1415:../../Middlewares/Third_Party/LwIP/src/apps/mqtt/mqtt.c ****     mqtt_output_append_string(&client->output, client_info->client_user, client_user_len);
 5037              		.loc 1 1415 6 is_stmt 0 view .LVU1479
 5038 0328 059B     		ldr	r3, [sp, #20]
 5039 032a 13F0800F 		tst	r3, #128
 5040 032e 14D1     		bne	.L374
 5041              	.L348:
1419:../../Middlewares/Third_Party/LwIP/src/apps/mqtt/mqtt.c ****     mqtt_output_append_string(&client->output, client_info->client_pass, client_pass_len);
 5042              		.loc 1 1419 3 is_stmt 1 view .LVU1480
1419:../../Middlewares/Third_Party/LwIP/src/apps/mqtt/mqtt.c ****     mqtt_output_append_string(&client->output, client_info->client_pass, client_pass_len);
 5043              		.loc 1 1419 6 is_stmt 0 view .LVU1481
 5044 0330 17F0400F 		tst	r7, #64
 5045 0334 3FF41DAF 		beq	.L329
1420:../../Middlewares/Third_Party/LwIP/src/apps/mqtt/mqtt.c ****   }
 5046              		.loc 1 1420 5 is_stmt 1 view .LVU1482
 5047 0338 5A46     		mov	r2, fp
 5048 033a B168     		ldr	r1, [r6, #8]
 5049 033c 5046     		mov	r0, r10
 5050 033e FFF7FEFF 		bl	mqtt_output_append_string
 5051              	.LVL575:
 5052 0342 16E7     		b	.L329
 5053              	.L373:
1411:../../Middlewares/Third_Party/LwIP/src/apps/mqtt/mqtt.c ****     mqtt_output_append_string(&client->output, client_info->will_msg, will_msg_len);
 5054              		.loc 1 1411 5 view .LVU1483
 5055 0344 069A     		ldr	r2, [sp, #24]
 5056 0346 3169     		ldr	r1, [r6, #16]
 5057 0348 5046     		mov	r0, r10
 5058 034a FFF7FEFF 		bl	mqtt_output_append_string
 5059              	.LVL576:
1412:../../Middlewares/Third_Party/LwIP/src/apps/mqtt/mqtt.c ****   }
 5060              		.loc 1 1412 5 view .LVU1484
 5061 034e 079A     		ldr	r2, [sp, #28]
 5062 0350 7169     		ldr	r1, [r6, #20]
 5063 0352 5046     		mov	r0, r10
 5064 0354 FFF7FEFF 		bl	mqtt_output_append_string
 5065              	.LVL577:
 5066 0358 E6E7     		b	.L347
 5067              	.L374:
1416:../../Middlewares/Third_Party/LwIP/src/apps/mqtt/mqtt.c ****   }
 5068              		.loc 1 1416 5 view .LVU1485
 5069 035a 4A46     		mov	r2, r9
 5070 035c 7168     		ldr	r1, [r6, #4]
 5071 035e 5046     		mov	r0, r10
 5072 0360 FFF7FEFF 		bl	mqtt_output_append_string
 5073              	.LVL578:
 5074 0364 E4E7     		b	.L348
 5075              	.LVL579:
 5076              	.L349:
1302:../../Middlewares/Third_Party/LwIP/src/apps/mqtt/mqtt.c ****   }
 5077              		.loc 1 1302 12 is_stmt 0 view .LVU1486
 5078 0366 6FF00903 		mvn	r3, #9
 5079 036a 0393     		str	r3, [sp, #12]
 5080 036c 01E7     		b	.L329
 5081              	.LVL580:
 5082              	.L354:
1362:../../Middlewares/Third_Party/LwIP/src/apps/mqtt/mqtt.c ****   }
 5083              		.loc 1 1362 12 view .LVU1487
ARM GAS  C:\Users\minis\AppData\Local\Temp\ccG6JyYg.s 			page 136


 5084 036e 4FF0FF33 		mov	r3, #-1
 5085 0372 0393     		str	r3, [sp, #12]
 5086 0374 FDE6     		b	.L329
 5087              	.L355:
1374:../../Middlewares/Third_Party/LwIP/src/apps/mqtt/mqtt.c ****   }
 5088              		.loc 1 1374 12 view .LVU1488
 5089 0376 4FF0FF33 		mov	r3, #-1
 5090 037a 0393     		str	r3, [sp, #12]
 5091 037c F9E6     		b	.L329
 5092              	.L376:
 5093 037e 00BF     		.align	2
 5094              	.L375:
 5095 0380 00000000 		.word	ip_addr_any
 5096 0384 00000000 		.word	.LC0
 5097 0388 00000000 		.word	.LC30
 5098 038c 5C000000 		.word	.LC2
 5099 0390 24000000 		.word	.LC31
 5100 0394 4C000000 		.word	.LC32
 5101 0398 78000000 		.word	.LC33
 5102 039c AC000000 		.word	.LC34
 5103 03a0 EC000000 		.word	.LC35
 5104 03a4 2C010000 		.word	.LC36
 5105 03a8 98010000 		.word	.LC38
 5106 03ac D8010000 		.word	.LC39
 5107 03b0 68010000 		.word	.LC37
 5108 03b4 1C020000 		.word	.LC40
 5109 03b8 5C020000 		.word	.LC41
 5110 03bc A0020000 		.word	.LC42
 5111 03c0 00000000 		.word	mqtt_tcp_connect_cb
 5112 03c4 00000000 		.word	mqtt_tcp_err_cb
 5113 03c8 DC020000 		.word	.LC43
 5114              		.cfi_endproc
 5115              	.LFE209:
 5117              		.section	.rodata.mqtt_disconnect.str1.4,"aMS",%progbits,1
 5118              		.align	2
 5119              	.LC44:
 5120 0000 6D717474 		.ascii	"mqtt_disconnect: client != NULL\000"
 5120      5F646973 
 5120      636F6E6E 
 5120      6563743A 
 5120      20636C69 
 5121              		.section	.text.mqtt_disconnect,"ax",%progbits
 5122              		.align	1
 5123              		.global	mqtt_disconnect
 5124              		.syntax unified
 5125              		.thumb
 5126              		.thumb_func
 5128              	mqtt_disconnect:
 5129              	.LVL581:
 5130              	.LFB210:
1429:../../Middlewares/Third_Party/LwIP/src/apps/mqtt/mqtt.c **** 
1430:../../Middlewares/Third_Party/LwIP/src/apps/mqtt/mqtt.c **** 
1431:../../Middlewares/Third_Party/LwIP/src/apps/mqtt/mqtt.c **** /**
1432:../../Middlewares/Third_Party/LwIP/src/apps/mqtt/mqtt.c ****  * @ingroup mqtt
1433:../../Middlewares/Third_Party/LwIP/src/apps/mqtt/mqtt.c ****  * Disconnect from MQTT server
1434:../../Middlewares/Third_Party/LwIP/src/apps/mqtt/mqtt.c ****  * @param client MQTT client
1435:../../Middlewares/Third_Party/LwIP/src/apps/mqtt/mqtt.c ****  */
ARM GAS  C:\Users\minis\AppData\Local\Temp\ccG6JyYg.s 			page 137


1436:../../Middlewares/Third_Party/LwIP/src/apps/mqtt/mqtt.c **** void
1437:../../Middlewares/Third_Party/LwIP/src/apps/mqtt/mqtt.c **** mqtt_disconnect(mqtt_client_t *client)
1438:../../Middlewares/Third_Party/LwIP/src/apps/mqtt/mqtt.c **** {
 5131              		.loc 1 1438 1 is_stmt 1 view -0
 5132              		.cfi_startproc
 5133              		@ args = 0, pretend = 0, frame = 0
 5134              		@ frame_needed = 0, uses_anonymous_args = 0
 5135              		.loc 1 1438 1 is_stmt 0 view .LVU1490
 5136 0000 10B5     		push	{r4, lr}
 5137              	.LCFI51:
 5138              		.cfi_def_cfa_offset 8
 5139              		.cfi_offset 4, -8
 5140              		.cfi_offset 14, -4
1439:../../Middlewares/Third_Party/LwIP/src/apps/mqtt/mqtt.c ****   LWIP_ASSERT_CORE_LOCKED();
 5141              		.loc 1 1439 28 is_stmt 1 view .LVU1491
1440:../../Middlewares/Third_Party/LwIP/src/apps/mqtt/mqtt.c ****   LWIP_ASSERT("mqtt_disconnect: client != NULL", client);
 5142              		.loc 1 1440 3 view .LVU1492
 5143              		.loc 1 1440 3 view .LVU1493
 5144 0002 0446     		mov	r4, r0
 5145 0004 10B1     		cbz	r0, .L381
 5146              	.LVL582:
 5147              	.L378:
 5148              		.loc 1 1440 3 view .LVU1494
 5149              		.loc 1 1440 3 view .LVU1495
1441:../../Middlewares/Third_Party/LwIP/src/apps/mqtt/mqtt.c ****   /* If connection in not already closed */
1442:../../Middlewares/Third_Party/LwIP/src/apps/mqtt/mqtt.c ****   if (client->conn_state != TCP_DISCONNECTED) {
 5150              		.loc 1 1442 3 view .LVU1496
 5151              		.loc 1 1442 13 is_stmt 0 view .LVU1497
 5152 0006 A37A     		ldrb	r3, [r4, #10]	@ zero_extendqisi2
 5153              		.loc 1 1442 6 view .LVU1498
 5154 0008 43B9     		cbnz	r3, .L382
 5155              	.L377:
1443:../../Middlewares/Third_Party/LwIP/src/apps/mqtt/mqtt.c ****     /* Set conn_state before calling mqtt_close to prevent callback from being called */
1444:../../Middlewares/Third_Party/LwIP/src/apps/mqtt/mqtt.c ****     client->conn_state = TCP_DISCONNECTED;
1445:../../Middlewares/Third_Party/LwIP/src/apps/mqtt/mqtt.c ****     mqtt_close(client, (mqtt_connection_status_t)0);
1446:../../Middlewares/Third_Party/LwIP/src/apps/mqtt/mqtt.c ****   }
1447:../../Middlewares/Third_Party/LwIP/src/apps/mqtt/mqtt.c **** }
 5156              		.loc 1 1447 1 view .LVU1499
 5157 000a 10BD     		pop	{r4, pc}
 5158              	.LVL583:
 5159              	.L381:
1440:../../Middlewares/Third_Party/LwIP/src/apps/mqtt/mqtt.c ****   /* If connection in not already closed */
 5160              		.loc 1 1440 3 is_stmt 1 discriminator 1 view .LVU1500
1440:../../Middlewares/Third_Party/LwIP/src/apps/mqtt/mqtt.c ****   /* If connection in not already closed */
 5161              		.loc 1 1440 3 discriminator 1 view .LVU1501
 5162 000c 064B     		ldr	r3, .L383
 5163 000e 4FF4B462 		mov	r2, #1440
 5164 0012 0649     		ldr	r1, .L383+4
 5165 0014 0648     		ldr	r0, .L383+8
 5166              	.LVL584:
1440:../../Middlewares/Third_Party/LwIP/src/apps/mqtt/mqtt.c ****   /* If connection in not already closed */
 5167              		.loc 1 1440 3 is_stmt 0 discriminator 1 view .LVU1502
 5168 0016 FFF7FEFF 		bl	printf
 5169              	.LVL585:
 5170 001a F4E7     		b	.L378
 5171              	.L382:
1444:../../Middlewares/Third_Party/LwIP/src/apps/mqtt/mqtt.c ****     mqtt_close(client, (mqtt_connection_status_t)0);
ARM GAS  C:\Users\minis\AppData\Local\Temp\ccG6JyYg.s 			page 138


 5172              		.loc 1 1444 5 is_stmt 1 view .LVU1503
1444:../../Middlewares/Third_Party/LwIP/src/apps/mqtt/mqtt.c ****     mqtt_close(client, (mqtt_connection_status_t)0);
 5173              		.loc 1 1444 24 is_stmt 0 view .LVU1504
 5174 001c 0021     		movs	r1, #0
 5175 001e A172     		strb	r1, [r4, #10]
1445:../../Middlewares/Third_Party/LwIP/src/apps/mqtt/mqtt.c ****   }
 5176              		.loc 1 1445 5 is_stmt 1 view .LVU1505
 5177 0020 2046     		mov	r0, r4
 5178 0022 FFF7FEFF 		bl	mqtt_close
 5179              	.LVL586:
 5180              		.loc 1 1447 1 is_stmt 0 view .LVU1506
 5181 0026 F0E7     		b	.L377
 5182              	.L384:
 5183              		.align	2
 5184              	.L383:
 5185 0028 00000000 		.word	.LC0
 5186 002c 00000000 		.word	.LC44
 5187 0030 5C000000 		.word	.LC2
 5188              		.cfi_endproc
 5189              	.LFE210:
 5191              		.section	.rodata.mqtt_client_is_connected.str1.4,"aMS",%progbits,1
 5192              		.align	2
 5193              	.LC45:
 5194 0000 6D717474 		.ascii	"mqtt_client_is_connected: client != NULL\000"
 5194      5F636C69 
 5194      656E745F 
 5194      69735F63 
 5194      6F6E6E65 
 5195              		.section	.text.mqtt_client_is_connected,"ax",%progbits
 5196              		.align	1
 5197              		.global	mqtt_client_is_connected
 5198              		.syntax unified
 5199              		.thumb
 5200              		.thumb_func
 5202              	mqtt_client_is_connected:
 5203              	.LVL587:
 5204              	.LFB211:
1448:../../Middlewares/Third_Party/LwIP/src/apps/mqtt/mqtt.c **** 
1449:../../Middlewares/Third_Party/LwIP/src/apps/mqtt/mqtt.c **** /**
1450:../../Middlewares/Third_Party/LwIP/src/apps/mqtt/mqtt.c ****  * @ingroup mqtt
1451:../../Middlewares/Third_Party/LwIP/src/apps/mqtt/mqtt.c ****  * Check connection with server
1452:../../Middlewares/Third_Party/LwIP/src/apps/mqtt/mqtt.c ****  * @param client MQTT client
1453:../../Middlewares/Third_Party/LwIP/src/apps/mqtt/mqtt.c ****  * @return 1 if connected to server, 0 otherwise
1454:../../Middlewares/Third_Party/LwIP/src/apps/mqtt/mqtt.c ****  */
1455:../../Middlewares/Third_Party/LwIP/src/apps/mqtt/mqtt.c **** u8_t
1456:../../Middlewares/Third_Party/LwIP/src/apps/mqtt/mqtt.c **** mqtt_client_is_connected(mqtt_client_t *client)
1457:../../Middlewares/Third_Party/LwIP/src/apps/mqtt/mqtt.c **** {
 5205              		.loc 1 1457 1 is_stmt 1 view -0
 5206              		.cfi_startproc
 5207              		@ args = 0, pretend = 0, frame = 0
 5208              		@ frame_needed = 0, uses_anonymous_args = 0
 5209              		.loc 1 1457 1 is_stmt 0 view .LVU1508
 5210 0000 10B5     		push	{r4, lr}
 5211              	.LCFI52:
 5212              		.cfi_def_cfa_offset 8
 5213              		.cfi_offset 4, -8
 5214              		.cfi_offset 14, -4
ARM GAS  C:\Users\minis\AppData\Local\Temp\ccG6JyYg.s 			page 139


1458:../../Middlewares/Third_Party/LwIP/src/apps/mqtt/mqtt.c ****   LWIP_ASSERT_CORE_LOCKED();
 5215              		.loc 1 1458 28 is_stmt 1 view .LVU1509
1459:../../Middlewares/Third_Party/LwIP/src/apps/mqtt/mqtt.c ****   LWIP_ASSERT("mqtt_client_is_connected: client != NULL", client);
 5216              		.loc 1 1459 3 view .LVU1510
 5217              		.loc 1 1459 3 view .LVU1511
 5218 0002 0446     		mov	r4, r0
 5219 0004 28B1     		cbz	r0, .L388
 5220              	.LVL588:
 5221              	.L386:
 5222              		.loc 1 1459 3 view .LVU1512
 5223              		.loc 1 1459 3 view .LVU1513
1460:../../Middlewares/Third_Party/LwIP/src/apps/mqtt/mqtt.c ****   return client->conn_state == MQTT_CONNECTED;
 5224              		.loc 1 1460 3 view .LVU1514
 5225              		.loc 1 1460 16 is_stmt 0 view .LVU1515
 5226 0006 A07A     		ldrb	r0, [r4, #10]	@ zero_extendqisi2
1461:../../Middlewares/Third_Party/LwIP/src/apps/mqtt/mqtt.c **** }
 5227              		.loc 1 1461 1 view .LVU1516
 5228 0008 0328     		cmp	r0, #3
 5229 000a 14BF     		ite	ne
 5230 000c 0020     		movne	r0, #0
 5231 000e 0120     		moveq	r0, #1
 5232 0010 10BD     		pop	{r4, pc}
 5233              	.LVL589:
 5234              	.L388:
1459:../../Middlewares/Third_Party/LwIP/src/apps/mqtt/mqtt.c ****   LWIP_ASSERT("mqtt_client_is_connected: client != NULL", client);
 5235              		.loc 1 1459 3 is_stmt 1 discriminator 1 view .LVU1517
1459:../../Middlewares/Third_Party/LwIP/src/apps/mqtt/mqtt.c ****   LWIP_ASSERT("mqtt_client_is_connected: client != NULL", client);
 5236              		.loc 1 1459 3 discriminator 1 view .LVU1518
 5237 0012 044B     		ldr	r3, .L389
 5238 0014 40F2B352 		movw	r2, #1459
 5239 0018 0349     		ldr	r1, .L389+4
 5240 001a 0448     		ldr	r0, .L389+8
 5241              	.LVL590:
1459:../../Middlewares/Third_Party/LwIP/src/apps/mqtt/mqtt.c ****   LWIP_ASSERT("mqtt_client_is_connected: client != NULL", client);
 5242              		.loc 1 1459 3 is_stmt 0 discriminator 1 view .LVU1519
 5243 001c FFF7FEFF 		bl	printf
 5244              	.LVL591:
 5245 0020 F1E7     		b	.L386
 5246              	.L390:
 5247 0022 00BF     		.align	2
 5248              	.L389:
 5249 0024 00000000 		.word	.LC0
 5250 0028 00000000 		.word	.LC45
 5251 002c 5C000000 		.word	.LC2
 5252              		.cfi_endproc
 5253              	.LFE211:
 5255              		.text
 5256              	.Letext0:
 5257              		.file 2 "C:/Program Files (x86)/Arm GNU Toolchain arm-none-eabi/14.3 rel1/arm-none-eabi/include/ma
 5258              		.file 3 "C:/Program Files (x86)/Arm GNU Toolchain arm-none-eabi/14.3 rel1/arm-none-eabi/include/sy
 5259              		.file 4 "C:/Program Files (x86)/Arm GNU Toolchain arm-none-eabi/14.3 rel1/lib/gcc/arm-none-eabi/14
 5260              		.file 5 "../../Middlewares/Third_Party/LwIP/src/include/lwip/arch.h"
 5261              		.file 6 "../../Middlewares/Third_Party/LwIP/src/include/lwip/err.h"
 5262              		.file 7 "../../Middlewares/Third_Party/LwIP/src/include/lwip/ip4_addr.h"
 5263              		.file 8 "../../Middlewares/Third_Party/LwIP/src/include/lwip/ip_addr.h"
 5264              		.file 9 "../../Middlewares/Third_Party/LwIP/src/include/lwip/apps/mqtt.h"
 5265              		.file 10 "../../Middlewares/Third_Party/LwIP/src/include/lwip/apps/mqtt_priv.h"
ARM GAS  C:\Users\minis\AppData\Local\Temp\ccG6JyYg.s 			page 140


 5266              		.file 11 "../../Middlewares/Third_Party/LwIP/src/include/lwip/tcpbase.h"
 5267              		.file 12 "../../Middlewares/Third_Party/LwIP/src/include/lwip/mem.h"
 5268              		.file 13 "../../Middlewares/Third_Party/LwIP/src/include/lwip/pbuf.h"
 5269              		.file 14 "../../Middlewares/Third_Party/LwIP/src/include/lwip/tcp.h"
 5270              		.file 15 "../../Middlewares/Third_Party/LwIP/src/include/lwip/timeouts.h"
 5271              		.file 16 "C:/Program Files (x86)/Arm GNU Toolchain arm-none-eabi/14.3 rel1/arm-none-eabi/include/s
 5272              		.file 17 "C:/Program Files (x86)/Arm GNU Toolchain arm-none-eabi/14.3 rel1/arm-none-eabi/include/s
 5273              		.file 18 "<built-in>"
ARM GAS  C:\Users\minis\AppData\Local\Temp\ccG6JyYg.s 			page 141


DEFINED SYMBOLS
                            *ABS*:00000000 mqtt.c
C:\Users\minis\AppData\Local\Temp\ccG6JyYg.s:19     .text.msg_generate_packet_id:00000000 $t
C:\Users\minis\AppData\Local\Temp\ccG6JyYg.s:24     .text.msg_generate_packet_id:00000000 msg_generate_packet_id
C:\Users\minis\AppData\Local\Temp\ccG6JyYg.s:57     .text.mqtt_ringbuf_put:00000000 $t
C:\Users\minis\AppData\Local\Temp\ccG6JyYg.s:62     .text.mqtt_ringbuf_put:00000000 mqtt_ringbuf_put
C:\Users\minis\AppData\Local\Temp\ccG6JyYg.s:96     .text.mqtt_ringbuf_get_ptr:00000000 $t
C:\Users\minis\AppData\Local\Temp\ccG6JyYg.s:101    .text.mqtt_ringbuf_get_ptr:00000000 mqtt_ringbuf_get_ptr
C:\Users\minis\AppData\Local\Temp\ccG6JyYg.s:122    .text.mqtt_ringbuf_len:00000000 $t
C:\Users\minis\AppData\Local\Temp\ccG6JyYg.s:127    .text.mqtt_ringbuf_len:00000000 mqtt_ringbuf_len
C:\Users\minis\AppData\Local\Temp\ccG6JyYg.s:162    .text.mqtt_delete_request:00000000 $t
C:\Users\minis\AppData\Local\Temp\ccG6JyYg.s:167    .text.mqtt_delete_request:00000000 mqtt_delete_request
C:\Users\minis\AppData\Local\Temp\ccG6JyYg.s:189    .text.mqtt_output_append_u8:00000000 $t
C:\Users\minis\AppData\Local\Temp\ccG6JyYg.s:194    .text.mqtt_output_append_u8:00000000 mqtt_output_append_u8
C:\Users\minis\AppData\Local\Temp\ccG6JyYg.s:216    .text.mqtt_output_append_u16:00000000 $t
C:\Users\minis\AppData\Local\Temp\ccG6JyYg.s:221    .text.mqtt_output_append_u16:00000000 mqtt_output_append_u16
C:\Users\minis\AppData\Local\Temp\ccG6JyYg.s:256    .text.mqtt_output_append_buf:00000000 $t
C:\Users\minis\AppData\Local\Temp\ccG6JyYg.s:261    .text.mqtt_output_append_buf:00000000 mqtt_output_append_buf
C:\Users\minis\AppData\Local\Temp\ccG6JyYg.s:312    .text.mqtt_output_append_string:00000000 $t
C:\Users\minis\AppData\Local\Temp\ccG6JyYg.s:317    .text.mqtt_output_append_string:00000000 mqtt_output_append_string
C:\Users\minis\AppData\Local\Temp\ccG6JyYg.s:378    .text.mqtt_output_append_fixed_header:00000000 $t
C:\Users\minis\AppData\Local\Temp\ccG6JyYg.s:383    .text.mqtt_output_append_fixed_header:00000000 mqtt_output_append_fixed_header
C:\Users\minis\AppData\Local\Temp\ccG6JyYg.s:466    .text.mqtt_incomming_suback:00000000 $t
C:\Users\minis\AppData\Local\Temp\ccG6JyYg.s:471    .text.mqtt_incomming_suback:00000000 mqtt_incomming_suback
C:\Users\minis\AppData\Local\Temp\ccG6JyYg.s:516    .rodata.mqtt_create_request.str1.4:00000000 $d
C:\Users\minis\AppData\Local\Temp\ccG6JyYg.s:527    .text.mqtt_create_request:00000000 $t
C:\Users\minis\AppData\Local\Temp\ccG6JyYg.s:532    .text.mqtt_create_request:00000000 mqtt_create_request
C:\Users\minis\AppData\Local\Temp\ccG6JyYg.s:640    .text.mqtt_create_request:00000054 $d
C:\Users\minis\AppData\Local\Temp\ccG6JyYg.s:647    .rodata.mqtt_output_check_space.str1.4:00000000 $d
C:\Users\minis\AppData\Local\Temp\ccG6JyYg.s:651    .text.mqtt_output_check_space:00000000 $t
C:\Users\minis\AppData\Local\Temp\ccG6JyYg.s:656    .text.mqtt_output_check_space:00000000 mqtt_output_check_space
C:\Users\minis\AppData\Local\Temp\ccG6JyYg.s:730    .text.mqtt_output_check_space:00000038 $d
C:\Users\minis\AppData\Local\Temp\ccG6JyYg.s:737    .rodata.mqtt_append_request.str1.4:00000000 $d
C:\Users\minis\AppData\Local\Temp\ccG6JyYg.s:745    .text.mqtt_append_request:00000000 $t
C:\Users\minis\AppData\Local\Temp\ccG6JyYg.s:750    .text.mqtt_append_request:00000000 mqtt_append_request
C:\Users\minis\AppData\Local\Temp\ccG6JyYg.s:872    .text.mqtt_append_request:00000054 $d
C:\Users\minis\AppData\Local\Temp\ccG6JyYg.s:880    .rodata.mqtt_ringbuf_advance_get_idx.str1.4:00000000 $d
C:\Users\minis\AppData\Local\Temp\ccG6JyYg.s:885    .text.mqtt_ringbuf_advance_get_idx:00000000 $t
C:\Users\minis\AppData\Local\Temp\ccG6JyYg.s:890    .text.mqtt_ringbuf_advance_get_idx:00000000 mqtt_ringbuf_advance_get_idx
C:\Users\minis\AppData\Local\Temp\ccG6JyYg.s:952    .text.mqtt_ringbuf_advance_get_idx:0000002c $d
C:\Users\minis\AppData\Local\Temp\ccG6JyYg.s:959    .rodata.mqtt_request_time_elapsed.str1.4:00000000 $d
C:\Users\minis\AppData\Local\Temp\ccG6JyYg.s:963    .text.mqtt_request_time_elapsed:00000000 $t
C:\Users\minis\AppData\Local\Temp\ccG6JyYg.s:968    .text.mqtt_request_time_elapsed:00000000 mqtt_request_time_elapsed
C:\Users\minis\AppData\Local\Temp\ccG6JyYg.s:1084   .text.mqtt_request_time_elapsed:00000058 $d
C:\Users\minis\AppData\Local\Temp\ccG6JyYg.s:1091   .rodata.mqtt_clear_requests.str1.4:00000000 $d
C:\Users\minis\AppData\Local\Temp\ccG6JyYg.s:1095   .text.mqtt_clear_requests:00000000 $t
C:\Users\minis\AppData\Local\Temp\ccG6JyYg.s:1100   .text.mqtt_clear_requests:00000000 mqtt_clear_requests
C:\Users\minis\AppData\Local\Temp\ccG6JyYg.s:1171   .text.mqtt_clear_requests:0000002c $d
C:\Users\minis\AppData\Local\Temp\ccG6JyYg.s:1178   .rodata.mqtt_take_request.str1.4:00000000 $d
C:\Users\minis\AppData\Local\Temp\ccG6JyYg.s:1182   .text.mqtt_take_request:00000000 $t
C:\Users\minis\AppData\Local\Temp\ccG6JyYg.s:1187   .text.mqtt_take_request:00000000 mqtt_take_request
C:\Users\minis\AppData\Local\Temp\ccG6JyYg.s:1301   .text.mqtt_take_request:0000004c $d
C:\Users\minis\AppData\Local\Temp\ccG6JyYg.s:1308   .rodata.mqtt_init_requests.str1.4:00000000 $d
C:\Users\minis\AppData\Local\Temp\ccG6JyYg.s:1312   .text.mqtt_init_requests:00000000 $t
C:\Users\minis\AppData\Local\Temp\ccG6JyYg.s:1317   .text.mqtt_init_requests:00000000 mqtt_init_requests
C:\Users\minis\AppData\Local\Temp\ccG6JyYg.s:1382   .text.mqtt_init_requests:0000002c $d
C:\Users\minis\AppData\Local\Temp\ccG6JyYg.s:1389   .text.mqtt_output_send:00000000 $t
ARM GAS  C:\Users\minis\AppData\Local\Temp\ccG6JyYg.s 			page 142


C:\Users\minis\AppData\Local\Temp\ccG6JyYg.s:1394   .text.mqtt_output_send:00000000 mqtt_output_send
C:\Users\minis\AppData\Local\Temp\ccG6JyYg.s:1598   .text.mqtt_tcp_poll_cb:00000000 $t
C:\Users\minis\AppData\Local\Temp\ccG6JyYg.s:1603   .text.mqtt_tcp_poll_cb:00000000 mqtt_tcp_poll_cb
C:\Users\minis\AppData\Local\Temp\ccG6JyYg.s:1644   .text.mqtt_tcp_sent_cb:00000000 $t
C:\Users\minis\AppData\Local\Temp\ccG6JyYg.s:1649   .text.mqtt_tcp_sent_cb:00000000 mqtt_tcp_sent_cb
C:\Users\minis\AppData\Local\Temp\ccG6JyYg.s:1742   .text.pub_ack_rec_rel_response:00000000 $t
C:\Users\minis\AppData\Local\Temp\ccG6JyYg.s:1747   .text.pub_ack_rec_rel_response:00000000 pub_ack_rec_rel_response
C:\Users\minis\AppData\Local\Temp\ccG6JyYg.s:1831   .rodata.mqtt_message_received.str1.4:00000000 $d
C:\Users\minis\AppData\Local\Temp\ccG6JyYg.s:1841   .text.mqtt_message_received:00000000 $t
C:\Users\minis\AppData\Local\Temp\ccG6JyYg.s:1846   .text.mqtt_message_received:00000000 mqtt_message_received
C:\Users\minis\AppData\Local\Temp\ccG6JyYg.s:2468   .text.mqtt_message_received:000002a4 $d
C:\Users\minis\AppData\Local\Temp\ccG6JyYg.s:2477   .rodata.mqtt_close.str1.4:00000000 $d
C:\Users\minis\AppData\Local\Temp\ccG6JyYg.s:2481   .text.mqtt_close:00000000 $t
C:\Users\minis\AppData\Local\Temp\ccG6JyYg.s:2486   .text.mqtt_close:00000000 mqtt_close
C:\Users\minis\AppData\Local\Temp\ccG6JyYg.s:2610   .text.mqtt_close:0000006c $d
C:\Users\minis\AppData\Local\Temp\ccG6JyYg.s:2698   .text.mqtt_cyclic_timer:00000000 mqtt_cyclic_timer
C:\Users\minis\AppData\Local\Temp\ccG6JyYg.s:2619   .rodata.mqtt_tcp_err_cb.str1.4:00000000 $d
C:\Users\minis\AppData\Local\Temp\ccG6JyYg.s:2623   .text.mqtt_tcp_err_cb:00000000 $t
C:\Users\minis\AppData\Local\Temp\ccG6JyYg.s:2628   .text.mqtt_tcp_err_cb:00000000 mqtt_tcp_err_cb
C:\Users\minis\AppData\Local\Temp\ccG6JyYg.s:2682   .text.mqtt_tcp_err_cb:00000028 $d
C:\Users\minis\AppData\Local\Temp\ccG6JyYg.s:2689   .rodata.mqtt_cyclic_timer.str1.4:00000000 $d
C:\Users\minis\AppData\Local\Temp\ccG6JyYg.s:2693   .text.mqtt_cyclic_timer:00000000 $t
C:\Users\minis\AppData\Local\Temp\ccG6JyYg.s:2891   .text.mqtt_cyclic_timer:000000c0 $d
C:\Users\minis\AppData\Local\Temp\ccG6JyYg.s:2899   .text.mqtt_tcp_connect_cb:00000000 $t
C:\Users\minis\AppData\Local\Temp\ccG6JyYg.s:2904   .text.mqtt_tcp_connect_cb:00000000 mqtt_tcp_connect_cb
C:\Users\minis\AppData\Local\Temp\ccG6JyYg.s:2986   .text.mqtt_tcp_connect_cb:0000004c $d
C:\Users\minis\AppData\Local\Temp\ccG6JyYg.s:3308   .text.mqtt_tcp_recv_cb:00000000 mqtt_tcp_recv_cb
C:\Users\minis\AppData\Local\Temp\ccG6JyYg.s:2994   .text.mqtt_parse_incoming:00000000 $t
C:\Users\minis\AppData\Local\Temp\ccG6JyYg.s:2999   .text.mqtt_parse_incoming:00000000 mqtt_parse_incoming
C:\Users\minis\AppData\Local\Temp\ccG6JyYg.s:3296   .rodata.mqtt_tcp_recv_cb.str1.4:00000000 $d
C:\Users\minis\AppData\Local\Temp\ccG6JyYg.s:3303   .text.mqtt_tcp_recv_cb:00000000 $t
C:\Users\minis\AppData\Local\Temp\ccG6JyYg.s:3452   .text.mqtt_tcp_recv_cb:0000007c $d
C:\Users\minis\AppData\Local\Temp\ccG6JyYg.s:3461   .rodata.mqtt_publish.str1.4:00000000 $d
C:\Users\minis\AppData\Local\Temp\ccG6JyYg.s:3477   .text.mqtt_publish:00000000 $t
C:\Users\minis\AppData\Local\Temp\ccG6JyYg.s:3483   .text.mqtt_publish:00000000 mqtt_publish
C:\Users\minis\AppData\Local\Temp\ccG6JyYg.s:3784   .text.mqtt_publish:00000148 $d
C:\Users\minis\AppData\Local\Temp\ccG6JyYg.s:3795   .rodata.mqtt_sub_unsub.str1.4:00000000 $d
C:\Users\minis\AppData\Local\Temp\ccG6JyYg.s:3811   .text.mqtt_sub_unsub:00000000 $t
C:\Users\minis\AppData\Local\Temp\ccG6JyYg.s:3817   .text.mqtt_sub_unsub:00000000 mqtt_sub_unsub
C:\Users\minis\AppData\Local\Temp\ccG6JyYg.s:4121   .text.mqtt_sub_unsub:00000148 $d
C:\Users\minis\AppData\Local\Temp\ccG6JyYg.s:4132   .rodata.mqtt_set_inpub_callback.str1.4:00000000 $d
C:\Users\minis\AppData\Local\Temp\ccG6JyYg.s:4136   .text.mqtt_set_inpub_callback:00000000 $t
C:\Users\minis\AppData\Local\Temp\ccG6JyYg.s:4142   .text.mqtt_set_inpub_callback:00000000 mqtt_set_inpub_callback
C:\Users\minis\AppData\Local\Temp\ccG6JyYg.s:4204   .text.mqtt_set_inpub_callback:00000024 $d
C:\Users\minis\AppData\Local\Temp\ccG6JyYg.s:4211   .text.mqtt_client_new:00000000 $t
C:\Users\minis\AppData\Local\Temp\ccG6JyYg.s:4217   .text.mqtt_client_new:00000000 mqtt_client_new
C:\Users\minis\AppData\Local\Temp\ccG6JyYg.s:4241   .text.mqtt_client_free:00000000 $t
C:\Users\minis\AppData\Local\Temp\ccG6JyYg.s:4247   .text.mqtt_client_free:00000000 mqtt_client_free
C:\Users\minis\AppData\Local\Temp\ccG6JyYg.s:4269   .rodata.mqtt_client_connect.str1.4:00000000 $d
C:\Users\minis\AppData\Local\Temp\ccG6JyYg.s:4321   .text.mqtt_client_connect:00000000 $t
C:\Users\minis\AppData\Local\Temp\ccG6JyYg.s:4327   .text.mqtt_client_connect:00000000 mqtt_client_connect
C:\Users\minis\AppData\Local\Temp\ccG6JyYg.s:5095   .text.mqtt_client_connect:00000380 $d
C:\Users\minis\AppData\Local\Temp\ccG6JyYg.s:5118   .rodata.mqtt_disconnect.str1.4:00000000 $d
C:\Users\minis\AppData\Local\Temp\ccG6JyYg.s:5122   .text.mqtt_disconnect:00000000 $t
C:\Users\minis\AppData\Local\Temp\ccG6JyYg.s:5128   .text.mqtt_disconnect:00000000 mqtt_disconnect
C:\Users\minis\AppData\Local\Temp\ccG6JyYg.s:5185   .text.mqtt_disconnect:00000028 $d
C:\Users\minis\AppData\Local\Temp\ccG6JyYg.s:5192   .rodata.mqtt_client_is_connected.str1.4:00000000 $d
ARM GAS  C:\Users\minis\AppData\Local\Temp\ccG6JyYg.s 			page 143


C:\Users\minis\AppData\Local\Temp\ccG6JyYg.s:5196   .text.mqtt_client_is_connected:00000000 $t
C:\Users\minis\AppData\Local\Temp\ccG6JyYg.s:5202   .text.mqtt_client_is_connected:00000000 mqtt_client_is_connected
C:\Users\minis\AppData\Local\Temp\ccG6JyYg.s:5249   .text.mqtt_client_is_connected:00000024 $d

UNDEFINED SYMBOLS
printf
tcp_write
tcp_output
tcp_recv
tcp_err
tcp_sent
tcp_close
sys_untimeout
tcp_abort
sys_timeout
tcp_poll
pbuf_get_at
pbuf_copy_partial
tcp_recved
pbuf_free
strlen
mem_calloc
mem_free
memset
tcp_new_ip_type
tcp_arg
tcp_bind
tcp_connect
ip_addr_any
