ARM GAS  C:\Users\minis\AppData\Local\Temp\ccPvto3C.s 			page 1


   1              		.cpu cortex-m7
   2              		.arch armv7e-m
   3              		.fpu fpv5-d16
   4              		.eabi_attribute 20, 1
   5              		.eabi_attribute 21, 1
   6              		.eabi_attribute 23, 3
   7              		.eabi_attribute 24, 1
   8              		.eabi_attribute 25, 1
   9              		.eabi_attribute 26, 1
  10              		.eabi_attribute 30, 1
  11              		.eabi_attribute 34, 1
  12              		.eabi_attribute 18, 4
  13              		.file	"stm32h7xx_hal.c"
  14              		.text
  15              	.Ltext0:
  16              		.cfi_sections	.debug_frame
  17              		.file 1 "../../Drivers/STM32H7xx_HAL_Driver/Src/stm32h7xx_hal.c"
  18              		.section	.text.HAL_MspInit,"ax",%progbits
  19              		.align	1
  20              		.weak	HAL_MspInit
  21              		.syntax unified
  22              		.thumb
  23              		.thumb_func
  25              	HAL_MspInit:
  26              	.LFB146:
   1:../../Drivers/STM32H7xx_HAL_Driver/Src/stm32h7xx_hal.c **** /**
   2:../../Drivers/STM32H7xx_HAL_Driver/Src/stm32h7xx_hal.c ****   ******************************************************************************
   3:../../Drivers/STM32H7xx_HAL_Driver/Src/stm32h7xx_hal.c ****   * @file    stm32h7xx_hal.c
   4:../../Drivers/STM32H7xx_HAL_Driver/Src/stm32h7xx_hal.c ****   * @author  MCD Application Team
   5:../../Drivers/STM32H7xx_HAL_Driver/Src/stm32h7xx_hal.c ****   * @brief   HAL module driver.
   6:../../Drivers/STM32H7xx_HAL_Driver/Src/stm32h7xx_hal.c ****   *          This is the common part of the HAL initialization
   7:../../Drivers/STM32H7xx_HAL_Driver/Src/stm32h7xx_hal.c ****   *
   8:../../Drivers/STM32H7xx_HAL_Driver/Src/stm32h7xx_hal.c ****   ******************************************************************************
   9:../../Drivers/STM32H7xx_HAL_Driver/Src/stm32h7xx_hal.c ****   * @attention
  10:../../Drivers/STM32H7xx_HAL_Driver/Src/stm32h7xx_hal.c ****   *
  11:../../Drivers/STM32H7xx_HAL_Driver/Src/stm32h7xx_hal.c ****   * Copyright (c) 2017 STMicroelectronics.
  12:../../Drivers/STM32H7xx_HAL_Driver/Src/stm32h7xx_hal.c ****   * All rights reserved.
  13:../../Drivers/STM32H7xx_HAL_Driver/Src/stm32h7xx_hal.c ****   *
  14:../../Drivers/STM32H7xx_HAL_Driver/Src/stm32h7xx_hal.c ****   * This software is licensed under terms that can be found in the LICENSE file
  15:../../Drivers/STM32H7xx_HAL_Driver/Src/stm32h7xx_hal.c ****   * in the root directory of this software component.
  16:../../Drivers/STM32H7xx_HAL_Driver/Src/stm32h7xx_hal.c ****   * If no LICENSE file comes with this software, it is provided AS-IS.
  17:../../Drivers/STM32H7xx_HAL_Driver/Src/stm32h7xx_hal.c ****   *
  18:../../Drivers/STM32H7xx_HAL_Driver/Src/stm32h7xx_hal.c ****   ******************************************************************************
  19:../../Drivers/STM32H7xx_HAL_Driver/Src/stm32h7xx_hal.c ****   @verbatim
  20:../../Drivers/STM32H7xx_HAL_Driver/Src/stm32h7xx_hal.c ****   ==============================================================================
  21:../../Drivers/STM32H7xx_HAL_Driver/Src/stm32h7xx_hal.c ****                      ##### How to use this driver #####
  22:../../Drivers/STM32H7xx_HAL_Driver/Src/stm32h7xx_hal.c ****   ==============================================================================
  23:../../Drivers/STM32H7xx_HAL_Driver/Src/stm32h7xx_hal.c ****     [..]
  24:../../Drivers/STM32H7xx_HAL_Driver/Src/stm32h7xx_hal.c ****     The common HAL driver contains a set of generic and common APIs that can be
  25:../../Drivers/STM32H7xx_HAL_Driver/Src/stm32h7xx_hal.c ****     used by the PPP peripheral drivers and the user to start using the HAL.
  26:../../Drivers/STM32H7xx_HAL_Driver/Src/stm32h7xx_hal.c ****     [..]
  27:../../Drivers/STM32H7xx_HAL_Driver/Src/stm32h7xx_hal.c ****     The HAL contains two APIs' categories:
  28:../../Drivers/STM32H7xx_HAL_Driver/Src/stm32h7xx_hal.c ****          (+) Common HAL APIs
  29:../../Drivers/STM32H7xx_HAL_Driver/Src/stm32h7xx_hal.c ****          (+) Services HAL APIs
  30:../../Drivers/STM32H7xx_HAL_Driver/Src/stm32h7xx_hal.c **** 
  31:../../Drivers/STM32H7xx_HAL_Driver/Src/stm32h7xx_hal.c ****   @endverbatim
  32:../../Drivers/STM32H7xx_HAL_Driver/Src/stm32h7xx_hal.c ****   ******************************************************************************
ARM GAS  C:\Users\minis\AppData\Local\Temp\ccPvto3C.s 			page 2


  33:../../Drivers/STM32H7xx_HAL_Driver/Src/stm32h7xx_hal.c ****   */
  34:../../Drivers/STM32H7xx_HAL_Driver/Src/stm32h7xx_hal.c **** 
  35:../../Drivers/STM32H7xx_HAL_Driver/Src/stm32h7xx_hal.c **** /* Includes ------------------------------------------------------------------*/
  36:../../Drivers/STM32H7xx_HAL_Driver/Src/stm32h7xx_hal.c **** #include "stm32h7xx_hal.h"
  37:../../Drivers/STM32H7xx_HAL_Driver/Src/stm32h7xx_hal.c **** 
  38:../../Drivers/STM32H7xx_HAL_Driver/Src/stm32h7xx_hal.c **** /** @addtogroup STM32H7xx_HAL_Driver
  39:../../Drivers/STM32H7xx_HAL_Driver/Src/stm32h7xx_hal.c ****   * @{
  40:../../Drivers/STM32H7xx_HAL_Driver/Src/stm32h7xx_hal.c ****   */
  41:../../Drivers/STM32H7xx_HAL_Driver/Src/stm32h7xx_hal.c **** 
  42:../../Drivers/STM32H7xx_HAL_Driver/Src/stm32h7xx_hal.c **** /** @defgroup HAL  HAL
  43:../../Drivers/STM32H7xx_HAL_Driver/Src/stm32h7xx_hal.c ****   * @brief HAL module driver.
  44:../../Drivers/STM32H7xx_HAL_Driver/Src/stm32h7xx_hal.c ****   * @{
  45:../../Drivers/STM32H7xx_HAL_Driver/Src/stm32h7xx_hal.c ****   */
  46:../../Drivers/STM32H7xx_HAL_Driver/Src/stm32h7xx_hal.c **** 
  47:../../Drivers/STM32H7xx_HAL_Driver/Src/stm32h7xx_hal.c **** /* Private typedef -----------------------------------------------------------*/
  48:../../Drivers/STM32H7xx_HAL_Driver/Src/stm32h7xx_hal.c **** /* Private define ------------------------------------------------------------*/
  49:../../Drivers/STM32H7xx_HAL_Driver/Src/stm32h7xx_hal.c **** /**
  50:../../Drivers/STM32H7xx_HAL_Driver/Src/stm32h7xx_hal.c ****  * @brief STM32H7xx HAL Driver version number
  51:../../Drivers/STM32H7xx_HAL_Driver/Src/stm32h7xx_hal.c ****    */
  52:../../Drivers/STM32H7xx_HAL_Driver/Src/stm32h7xx_hal.c **** #define __STM32H7xx_HAL_VERSION_MAIN   (0x01UL) /*!< [31:24] main version */
  53:../../Drivers/STM32H7xx_HAL_Driver/Src/stm32h7xx_hal.c **** #define __STM32H7xx_HAL_VERSION_SUB1   (0x0BUL) /*!< [23:16] sub1 version */
  54:../../Drivers/STM32H7xx_HAL_Driver/Src/stm32h7xx_hal.c **** #define __STM32H7xx_HAL_VERSION_SUB2   (0x05UL) /*!< [15:8]  sub2 version */
  55:../../Drivers/STM32H7xx_HAL_Driver/Src/stm32h7xx_hal.c **** #define __STM32H7xx_HAL_VERSION_RC     (0x00UL) /*!< [7:0]  release candidate */
  56:../../Drivers/STM32H7xx_HAL_Driver/Src/stm32h7xx_hal.c **** #define __STM32H7xx_HAL_VERSION         ((__STM32H7xx_HAL_VERSION_MAIN << 24)\
  57:../../Drivers/STM32H7xx_HAL_Driver/Src/stm32h7xx_hal.c ****                                         |(__STM32H7xx_HAL_VERSION_SUB1 << 16)\
  58:../../Drivers/STM32H7xx_HAL_Driver/Src/stm32h7xx_hal.c ****                                         |(__STM32H7xx_HAL_VERSION_SUB2 << 8 )\
  59:../../Drivers/STM32H7xx_HAL_Driver/Src/stm32h7xx_hal.c ****                                         |(__STM32H7xx_HAL_VERSION_RC))
  60:../../Drivers/STM32H7xx_HAL_Driver/Src/stm32h7xx_hal.c **** 
  61:../../Drivers/STM32H7xx_HAL_Driver/Src/stm32h7xx_hal.c **** #define IDCODE_DEVID_MASK    ((uint32_t)0x00000FFF)
  62:../../Drivers/STM32H7xx_HAL_Driver/Src/stm32h7xx_hal.c **** #define VREFBUF_TIMEOUT_VALUE     (uint32_t)10   /* 10 ms  */
  63:../../Drivers/STM32H7xx_HAL_Driver/Src/stm32h7xx_hal.c **** 
  64:../../Drivers/STM32H7xx_HAL_Driver/Src/stm32h7xx_hal.c **** /* Private macro -------------------------------------------------------------*/
  65:../../Drivers/STM32H7xx_HAL_Driver/Src/stm32h7xx_hal.c **** /* Private variables ---------------------------------------------------------*/
  66:../../Drivers/STM32H7xx_HAL_Driver/Src/stm32h7xx_hal.c **** /* Exported variables --------------------------------------------------------*/
  67:../../Drivers/STM32H7xx_HAL_Driver/Src/stm32h7xx_hal.c **** 
  68:../../Drivers/STM32H7xx_HAL_Driver/Src/stm32h7xx_hal.c **** /** @defgroup HAL_Exported_Variables HAL Exported Variables
  69:../../Drivers/STM32H7xx_HAL_Driver/Src/stm32h7xx_hal.c ****   * @{
  70:../../Drivers/STM32H7xx_HAL_Driver/Src/stm32h7xx_hal.c ****   */
  71:../../Drivers/STM32H7xx_HAL_Driver/Src/stm32h7xx_hal.c **** __IO uint32_t uwTick;
  72:../../Drivers/STM32H7xx_HAL_Driver/Src/stm32h7xx_hal.c **** uint32_t uwTickPrio   = (1UL << __NVIC_PRIO_BITS); /* Invalid PRIO */
  73:../../Drivers/STM32H7xx_HAL_Driver/Src/stm32h7xx_hal.c **** HAL_TickFreqTypeDef uwTickFreq = HAL_TICK_FREQ_DEFAULT;  /* 1KHz */
  74:../../Drivers/STM32H7xx_HAL_Driver/Src/stm32h7xx_hal.c **** /**
  75:../../Drivers/STM32H7xx_HAL_Driver/Src/stm32h7xx_hal.c ****   * @}
  76:../../Drivers/STM32H7xx_HAL_Driver/Src/stm32h7xx_hal.c ****   */
  77:../../Drivers/STM32H7xx_HAL_Driver/Src/stm32h7xx_hal.c **** 
  78:../../Drivers/STM32H7xx_HAL_Driver/Src/stm32h7xx_hal.c **** /* Private function prototypes -----------------------------------------------*/
  79:../../Drivers/STM32H7xx_HAL_Driver/Src/stm32h7xx_hal.c **** /* Private functions ---------------------------------------------------------*/
  80:../../Drivers/STM32H7xx_HAL_Driver/Src/stm32h7xx_hal.c **** 
  81:../../Drivers/STM32H7xx_HAL_Driver/Src/stm32h7xx_hal.c **** /** @addtogroup HAL_Exported_Functions
  82:../../Drivers/STM32H7xx_HAL_Driver/Src/stm32h7xx_hal.c ****   * @{
  83:../../Drivers/STM32H7xx_HAL_Driver/Src/stm32h7xx_hal.c ****   */
  84:../../Drivers/STM32H7xx_HAL_Driver/Src/stm32h7xx_hal.c **** 
  85:../../Drivers/STM32H7xx_HAL_Driver/Src/stm32h7xx_hal.c **** /** @addtogroup HAL_Group1
  86:../../Drivers/STM32H7xx_HAL_Driver/Src/stm32h7xx_hal.c ****  *  @brief    Initialization and de-initialization functions
  87:../../Drivers/STM32H7xx_HAL_Driver/Src/stm32h7xx_hal.c ****  *
  88:../../Drivers/STM32H7xx_HAL_Driver/Src/stm32h7xx_hal.c **** @verbatim
  89:../../Drivers/STM32H7xx_HAL_Driver/Src/stm32h7xx_hal.c ****  ===============================================================================
ARM GAS  C:\Users\minis\AppData\Local\Temp\ccPvto3C.s 			page 3


  90:../../Drivers/STM32H7xx_HAL_Driver/Src/stm32h7xx_hal.c ****               ##### Initialization and de-initialization functions #####
  91:../../Drivers/STM32H7xx_HAL_Driver/Src/stm32h7xx_hal.c ****  ===============================================================================
  92:../../Drivers/STM32H7xx_HAL_Driver/Src/stm32h7xx_hal.c ****     [..]  This section provides functions allowing to:
  93:../../Drivers/STM32H7xx_HAL_Driver/Src/stm32h7xx_hal.c ****       (+) Initializes the Flash interface the NVIC allocation and initial clock
  94:../../Drivers/STM32H7xx_HAL_Driver/Src/stm32h7xx_hal.c ****           configuration. It initializes the systick also when timeout is needed
  95:../../Drivers/STM32H7xx_HAL_Driver/Src/stm32h7xx_hal.c ****           and the backup domain when enabled.
  96:../../Drivers/STM32H7xx_HAL_Driver/Src/stm32h7xx_hal.c ****       (+) De-Initializes common part of the HAL.
  97:../../Drivers/STM32H7xx_HAL_Driver/Src/stm32h7xx_hal.c ****       (+) Configure The time base source to have 1ms time base with a dedicated
  98:../../Drivers/STM32H7xx_HAL_Driver/Src/stm32h7xx_hal.c ****           Tick interrupt priority.
  99:../../Drivers/STM32H7xx_HAL_Driver/Src/stm32h7xx_hal.c ****         (++) SysTick timer is used by default as source of time base, but user
 100:../../Drivers/STM32H7xx_HAL_Driver/Src/stm32h7xx_hal.c ****              can eventually implement his proper time base source (a general purpose
 101:../../Drivers/STM32H7xx_HAL_Driver/Src/stm32h7xx_hal.c ****              timer for example or other time source), keeping in mind that Time base
 102:../../Drivers/STM32H7xx_HAL_Driver/Src/stm32h7xx_hal.c ****              duration should be kept 1ms since PPP_TIMEOUT_VALUEs are defined and
 103:../../Drivers/STM32H7xx_HAL_Driver/Src/stm32h7xx_hal.c ****              handled in milliseconds basis.
 104:../../Drivers/STM32H7xx_HAL_Driver/Src/stm32h7xx_hal.c ****         (++) Time base configuration function (HAL_InitTick ()) is called automatically
 105:../../Drivers/STM32H7xx_HAL_Driver/Src/stm32h7xx_hal.c ****              at the beginning of the program after reset by HAL_Init() or at any time
 106:../../Drivers/STM32H7xx_HAL_Driver/Src/stm32h7xx_hal.c ****              when clock is configured, by HAL_RCC_ClockConfig().
 107:../../Drivers/STM32H7xx_HAL_Driver/Src/stm32h7xx_hal.c ****         (++) Source of time base is configured  to generate interrupts at regular
 108:../../Drivers/STM32H7xx_HAL_Driver/Src/stm32h7xx_hal.c ****              time intervals. Care must be taken if HAL_Delay() is called from a
 109:../../Drivers/STM32H7xx_HAL_Driver/Src/stm32h7xx_hal.c ****              peripheral ISR process, the Tick interrupt line must have higher priority
 110:../../Drivers/STM32H7xx_HAL_Driver/Src/stm32h7xx_hal.c ****             (numerically lower) than the peripheral interrupt. Otherwise the caller
 111:../../Drivers/STM32H7xx_HAL_Driver/Src/stm32h7xx_hal.c ****             ISR process will be blocked.
 112:../../Drivers/STM32H7xx_HAL_Driver/Src/stm32h7xx_hal.c ****        (++) functions affecting time base configurations are declared as __weak
 113:../../Drivers/STM32H7xx_HAL_Driver/Src/stm32h7xx_hal.c ****              to make  override possible  in case of other  implementations in user file.
 114:../../Drivers/STM32H7xx_HAL_Driver/Src/stm32h7xx_hal.c **** @endverbatim
 115:../../Drivers/STM32H7xx_HAL_Driver/Src/stm32h7xx_hal.c ****   * @{
 116:../../Drivers/STM32H7xx_HAL_Driver/Src/stm32h7xx_hal.c ****   */
 117:../../Drivers/STM32H7xx_HAL_Driver/Src/stm32h7xx_hal.c **** 
 118:../../Drivers/STM32H7xx_HAL_Driver/Src/stm32h7xx_hal.c **** /**
 119:../../Drivers/STM32H7xx_HAL_Driver/Src/stm32h7xx_hal.c ****   * @brief  This function is used to initialize the HAL Library; it must be the first
 120:../../Drivers/STM32H7xx_HAL_Driver/Src/stm32h7xx_hal.c ****   *         instruction to be executed in the main program (before to call any other
 121:../../Drivers/STM32H7xx_HAL_Driver/Src/stm32h7xx_hal.c ****   *         HAL function), it performs the following:
 122:../../Drivers/STM32H7xx_HAL_Driver/Src/stm32h7xx_hal.c ****   *           Configures the SysTick to generate an interrupt each 1 millisecond,
 123:../../Drivers/STM32H7xx_HAL_Driver/Src/stm32h7xx_hal.c ****   *           which is clocked by the HSI (at this stage, the clock is not yet
 124:../../Drivers/STM32H7xx_HAL_Driver/Src/stm32h7xx_hal.c ****   *           configured and thus the system is running from the internal HSI at 16 MHz).
 125:../../Drivers/STM32H7xx_HAL_Driver/Src/stm32h7xx_hal.c ****   *           Set NVIC Group Priority to 4.
 126:../../Drivers/STM32H7xx_HAL_Driver/Src/stm32h7xx_hal.c ****   *           Calls the HAL_MspInit() callback function defined in user file
 127:../../Drivers/STM32H7xx_HAL_Driver/Src/stm32h7xx_hal.c ****   *           "stm32h7xx_hal_msp.c" to do the global low level hardware initialization
 128:../../Drivers/STM32H7xx_HAL_Driver/Src/stm32h7xx_hal.c ****   *
 129:../../Drivers/STM32H7xx_HAL_Driver/Src/stm32h7xx_hal.c ****   * @note   SysTick is used as time base for the HAL_Delay() function, the application
 130:../../Drivers/STM32H7xx_HAL_Driver/Src/stm32h7xx_hal.c ****   *         need to ensure that the SysTick time base is always set to 1 millisecond
 131:../../Drivers/STM32H7xx_HAL_Driver/Src/stm32h7xx_hal.c ****   *         to have correct HAL operation.
 132:../../Drivers/STM32H7xx_HAL_Driver/Src/stm32h7xx_hal.c ****   * @retval HAL status
 133:../../Drivers/STM32H7xx_HAL_Driver/Src/stm32h7xx_hal.c ****   */
 134:../../Drivers/STM32H7xx_HAL_Driver/Src/stm32h7xx_hal.c **** HAL_StatusTypeDef HAL_Init(void)
 135:../../Drivers/STM32H7xx_HAL_Driver/Src/stm32h7xx_hal.c **** {
 136:../../Drivers/STM32H7xx_HAL_Driver/Src/stm32h7xx_hal.c **** 
 137:../../Drivers/STM32H7xx_HAL_Driver/Src/stm32h7xx_hal.c **** uint32_t common_system_clock;
 138:../../Drivers/STM32H7xx_HAL_Driver/Src/stm32h7xx_hal.c **** 
 139:../../Drivers/STM32H7xx_HAL_Driver/Src/stm32h7xx_hal.c **** #if defined(DUAL_CORE) && defined(CORE_CM4)
 140:../../Drivers/STM32H7xx_HAL_Driver/Src/stm32h7xx_hal.c ****    /* Configure Cortex-M4 Instruction cache through ART accelerator */
 141:../../Drivers/STM32H7xx_HAL_Driver/Src/stm32h7xx_hal.c ****    __HAL_RCC_ART_CLK_ENABLE();                   /* Enable the Cortex-M4 ART Clock */
 142:../../Drivers/STM32H7xx_HAL_Driver/Src/stm32h7xx_hal.c ****    __HAL_ART_CONFIG_BASE_ADDRESS(0x08100000UL);  /* Configure the Cortex-M4 ART Base address to the
 143:../../Drivers/STM32H7xx_HAL_Driver/Src/stm32h7xx_hal.c ****    __HAL_ART_ENABLE();                           /* Enable the Cortex-M4 ART */
 144:../../Drivers/STM32H7xx_HAL_Driver/Src/stm32h7xx_hal.c **** #endif /* DUAL_CORE &&  CORE_CM4 */
 145:../../Drivers/STM32H7xx_HAL_Driver/Src/stm32h7xx_hal.c **** 
 146:../../Drivers/STM32H7xx_HAL_Driver/Src/stm32h7xx_hal.c ****   /* Set Interrupt Group Priority */
ARM GAS  C:\Users\minis\AppData\Local\Temp\ccPvto3C.s 			page 4


 147:../../Drivers/STM32H7xx_HAL_Driver/Src/stm32h7xx_hal.c ****   HAL_NVIC_SetPriorityGrouping(NVIC_PRIORITYGROUP_4);
 148:../../Drivers/STM32H7xx_HAL_Driver/Src/stm32h7xx_hal.c **** 
 149:../../Drivers/STM32H7xx_HAL_Driver/Src/stm32h7xx_hal.c ****   /* Update the SystemCoreClock global variable */
 150:../../Drivers/STM32H7xx_HAL_Driver/Src/stm32h7xx_hal.c **** #if defined(RCC_D1CFGR_D1CPRE)
 151:../../Drivers/STM32H7xx_HAL_Driver/Src/stm32h7xx_hal.c ****   common_system_clock = HAL_RCC_GetSysClockFreq() >> ((D1CorePrescTable[(RCC->D1CFGR & RCC_D1CFGR_D
 152:../../Drivers/STM32H7xx_HAL_Driver/Src/stm32h7xx_hal.c **** #else
 153:../../Drivers/STM32H7xx_HAL_Driver/Src/stm32h7xx_hal.c ****   common_system_clock = HAL_RCC_GetSysClockFreq() >> ((D1CorePrescTable[(RCC->CDCFGR1 & RCC_CDCFGR1
 154:../../Drivers/STM32H7xx_HAL_Driver/Src/stm32h7xx_hal.c **** #endif
 155:../../Drivers/STM32H7xx_HAL_Driver/Src/stm32h7xx_hal.c **** 
 156:../../Drivers/STM32H7xx_HAL_Driver/Src/stm32h7xx_hal.c ****   /* Update the SystemD2Clock global variable */
 157:../../Drivers/STM32H7xx_HAL_Driver/Src/stm32h7xx_hal.c **** #if defined(RCC_D1CFGR_HPRE)
 158:../../Drivers/STM32H7xx_HAL_Driver/Src/stm32h7xx_hal.c ****   SystemD2Clock = (common_system_clock >> ((D1CorePrescTable[(RCC->D1CFGR & RCC_D1CFGR_HPRE)>> RCC_
 159:../../Drivers/STM32H7xx_HAL_Driver/Src/stm32h7xx_hal.c **** #else
 160:../../Drivers/STM32H7xx_HAL_Driver/Src/stm32h7xx_hal.c ****   SystemD2Clock = (common_system_clock >> ((D1CorePrescTable[(RCC->CDCFGR1 & RCC_CDCFGR1_HPRE)>> RC
 161:../../Drivers/STM32H7xx_HAL_Driver/Src/stm32h7xx_hal.c **** #endif
 162:../../Drivers/STM32H7xx_HAL_Driver/Src/stm32h7xx_hal.c **** 
 163:../../Drivers/STM32H7xx_HAL_Driver/Src/stm32h7xx_hal.c **** #if defined(DUAL_CORE) && defined(CORE_CM4)
 164:../../Drivers/STM32H7xx_HAL_Driver/Src/stm32h7xx_hal.c ****   SystemCoreClock = SystemD2Clock;
 165:../../Drivers/STM32H7xx_HAL_Driver/Src/stm32h7xx_hal.c **** #else
 166:../../Drivers/STM32H7xx_HAL_Driver/Src/stm32h7xx_hal.c ****   SystemCoreClock = common_system_clock;
 167:../../Drivers/STM32H7xx_HAL_Driver/Src/stm32h7xx_hal.c **** #endif /* DUAL_CORE && CORE_CM4 */
 168:../../Drivers/STM32H7xx_HAL_Driver/Src/stm32h7xx_hal.c **** 
 169:../../Drivers/STM32H7xx_HAL_Driver/Src/stm32h7xx_hal.c ****   /* Use systick as time base source and configure 1ms tick (default clock after Reset is HSI) */
 170:../../Drivers/STM32H7xx_HAL_Driver/Src/stm32h7xx_hal.c ****   if(HAL_InitTick(TICK_INT_PRIORITY) != HAL_OK)
 171:../../Drivers/STM32H7xx_HAL_Driver/Src/stm32h7xx_hal.c ****   {
 172:../../Drivers/STM32H7xx_HAL_Driver/Src/stm32h7xx_hal.c ****     return HAL_ERROR;
 173:../../Drivers/STM32H7xx_HAL_Driver/Src/stm32h7xx_hal.c ****   }
 174:../../Drivers/STM32H7xx_HAL_Driver/Src/stm32h7xx_hal.c **** 
 175:../../Drivers/STM32H7xx_HAL_Driver/Src/stm32h7xx_hal.c ****   /* Init the low level hardware */
 176:../../Drivers/STM32H7xx_HAL_Driver/Src/stm32h7xx_hal.c ****   HAL_MspInit();
 177:../../Drivers/STM32H7xx_HAL_Driver/Src/stm32h7xx_hal.c **** 
 178:../../Drivers/STM32H7xx_HAL_Driver/Src/stm32h7xx_hal.c ****   /* Return function status */
 179:../../Drivers/STM32H7xx_HAL_Driver/Src/stm32h7xx_hal.c ****   return HAL_OK;
 180:../../Drivers/STM32H7xx_HAL_Driver/Src/stm32h7xx_hal.c **** }
 181:../../Drivers/STM32H7xx_HAL_Driver/Src/stm32h7xx_hal.c **** 
 182:../../Drivers/STM32H7xx_HAL_Driver/Src/stm32h7xx_hal.c **** /**
 183:../../Drivers/STM32H7xx_HAL_Driver/Src/stm32h7xx_hal.c ****   * @brief  This function de-Initializes common part of the HAL and stops the systick.
 184:../../Drivers/STM32H7xx_HAL_Driver/Src/stm32h7xx_hal.c ****   *         This function is optional.
 185:../../Drivers/STM32H7xx_HAL_Driver/Src/stm32h7xx_hal.c ****   * @retval HAL status
 186:../../Drivers/STM32H7xx_HAL_Driver/Src/stm32h7xx_hal.c ****   */
 187:../../Drivers/STM32H7xx_HAL_Driver/Src/stm32h7xx_hal.c **** HAL_StatusTypeDef HAL_DeInit(void)
 188:../../Drivers/STM32H7xx_HAL_Driver/Src/stm32h7xx_hal.c **** {
 189:../../Drivers/STM32H7xx_HAL_Driver/Src/stm32h7xx_hal.c ****   /* Reset of all peripherals */
 190:../../Drivers/STM32H7xx_HAL_Driver/Src/stm32h7xx_hal.c ****   __HAL_RCC_AHB3_FORCE_RESET();
 191:../../Drivers/STM32H7xx_HAL_Driver/Src/stm32h7xx_hal.c ****   __HAL_RCC_AHB3_RELEASE_RESET();
 192:../../Drivers/STM32H7xx_HAL_Driver/Src/stm32h7xx_hal.c **** 
 193:../../Drivers/STM32H7xx_HAL_Driver/Src/stm32h7xx_hal.c ****   __HAL_RCC_AHB1_FORCE_RESET();
 194:../../Drivers/STM32H7xx_HAL_Driver/Src/stm32h7xx_hal.c ****   __HAL_RCC_AHB1_RELEASE_RESET();
 195:../../Drivers/STM32H7xx_HAL_Driver/Src/stm32h7xx_hal.c **** 
 196:../../Drivers/STM32H7xx_HAL_Driver/Src/stm32h7xx_hal.c ****   __HAL_RCC_AHB2_FORCE_RESET();
 197:../../Drivers/STM32H7xx_HAL_Driver/Src/stm32h7xx_hal.c ****   __HAL_RCC_AHB2_RELEASE_RESET();
 198:../../Drivers/STM32H7xx_HAL_Driver/Src/stm32h7xx_hal.c **** 
 199:../../Drivers/STM32H7xx_HAL_Driver/Src/stm32h7xx_hal.c ****   __HAL_RCC_AHB4_FORCE_RESET();
 200:../../Drivers/STM32H7xx_HAL_Driver/Src/stm32h7xx_hal.c ****  __HAL_RCC_AHB4_RELEASE_RESET();
 201:../../Drivers/STM32H7xx_HAL_Driver/Src/stm32h7xx_hal.c **** 
 202:../../Drivers/STM32H7xx_HAL_Driver/Src/stm32h7xx_hal.c ****   __HAL_RCC_APB3_FORCE_RESET();
 203:../../Drivers/STM32H7xx_HAL_Driver/Src/stm32h7xx_hal.c ****   __HAL_RCC_APB3_RELEASE_RESET();
ARM GAS  C:\Users\minis\AppData\Local\Temp\ccPvto3C.s 			page 5


 204:../../Drivers/STM32H7xx_HAL_Driver/Src/stm32h7xx_hal.c **** 
 205:../../Drivers/STM32H7xx_HAL_Driver/Src/stm32h7xx_hal.c ****   __HAL_RCC_APB1L_FORCE_RESET();
 206:../../Drivers/STM32H7xx_HAL_Driver/Src/stm32h7xx_hal.c ****   __HAL_RCC_APB1L_RELEASE_RESET();
 207:../../Drivers/STM32H7xx_HAL_Driver/Src/stm32h7xx_hal.c **** 
 208:../../Drivers/STM32H7xx_HAL_Driver/Src/stm32h7xx_hal.c ****   __HAL_RCC_APB1H_FORCE_RESET();
 209:../../Drivers/STM32H7xx_HAL_Driver/Src/stm32h7xx_hal.c ****   __HAL_RCC_APB1H_RELEASE_RESET();
 210:../../Drivers/STM32H7xx_HAL_Driver/Src/stm32h7xx_hal.c **** 
 211:../../Drivers/STM32H7xx_HAL_Driver/Src/stm32h7xx_hal.c ****    __HAL_RCC_APB2_FORCE_RESET();
 212:../../Drivers/STM32H7xx_HAL_Driver/Src/stm32h7xx_hal.c ****    __HAL_RCC_APB2_RELEASE_RESET();
 213:../../Drivers/STM32H7xx_HAL_Driver/Src/stm32h7xx_hal.c **** 
 214:../../Drivers/STM32H7xx_HAL_Driver/Src/stm32h7xx_hal.c ****   __HAL_RCC_APB4_FORCE_RESET();
 215:../../Drivers/STM32H7xx_HAL_Driver/Src/stm32h7xx_hal.c ****   __HAL_RCC_APB4_RELEASE_RESET();
 216:../../Drivers/STM32H7xx_HAL_Driver/Src/stm32h7xx_hal.c **** 
 217:../../Drivers/STM32H7xx_HAL_Driver/Src/stm32h7xx_hal.c ****   /* De-Init the low level hardware */
 218:../../Drivers/STM32H7xx_HAL_Driver/Src/stm32h7xx_hal.c ****   HAL_MspDeInit();
 219:../../Drivers/STM32H7xx_HAL_Driver/Src/stm32h7xx_hal.c **** 
 220:../../Drivers/STM32H7xx_HAL_Driver/Src/stm32h7xx_hal.c ****   /* Return function status */
 221:../../Drivers/STM32H7xx_HAL_Driver/Src/stm32h7xx_hal.c ****   return HAL_OK;
 222:../../Drivers/STM32H7xx_HAL_Driver/Src/stm32h7xx_hal.c **** }
 223:../../Drivers/STM32H7xx_HAL_Driver/Src/stm32h7xx_hal.c **** 
 224:../../Drivers/STM32H7xx_HAL_Driver/Src/stm32h7xx_hal.c **** /**
 225:../../Drivers/STM32H7xx_HAL_Driver/Src/stm32h7xx_hal.c ****   * @brief  Initializes the MSP.
 226:../../Drivers/STM32H7xx_HAL_Driver/Src/stm32h7xx_hal.c ****   * @retval None
 227:../../Drivers/STM32H7xx_HAL_Driver/Src/stm32h7xx_hal.c ****   */
 228:../../Drivers/STM32H7xx_HAL_Driver/Src/stm32h7xx_hal.c **** __weak void HAL_MspInit(void)
 229:../../Drivers/STM32H7xx_HAL_Driver/Src/stm32h7xx_hal.c **** {
  27              		.loc 1 229 1 view -0
  28              		.cfi_startproc
  29              		@ args = 0, pretend = 0, frame = 0
  30              		@ frame_needed = 0, uses_anonymous_args = 0
  31              		@ link register save eliminated.
 230:../../Drivers/STM32H7xx_HAL_Driver/Src/stm32h7xx_hal.c ****   /* NOTE : This function Should not be modified, when the callback is needed,
 231:../../Drivers/STM32H7xx_HAL_Driver/Src/stm32h7xx_hal.c ****             the HAL_MspInit could be implemented in the user file
 232:../../Drivers/STM32H7xx_HAL_Driver/Src/stm32h7xx_hal.c ****    */
 233:../../Drivers/STM32H7xx_HAL_Driver/Src/stm32h7xx_hal.c **** }
  32              		.loc 1 233 1 view .LVU1
  33 0000 7047     		bx	lr
  34              		.cfi_endproc
  35              	.LFE146:
  37              		.section	.text.HAL_MspDeInit,"ax",%progbits
  38              		.align	1
  39              		.weak	HAL_MspDeInit
  40              		.syntax unified
  41              		.thumb
  42              		.thumb_func
  44              	HAL_MspDeInit:
  45              	.LFB147:
 234:../../Drivers/STM32H7xx_HAL_Driver/Src/stm32h7xx_hal.c **** 
 235:../../Drivers/STM32H7xx_HAL_Driver/Src/stm32h7xx_hal.c **** /**
 236:../../Drivers/STM32H7xx_HAL_Driver/Src/stm32h7xx_hal.c ****   * @brief  DeInitializes the MSP.
 237:../../Drivers/STM32H7xx_HAL_Driver/Src/stm32h7xx_hal.c ****   * @retval None
 238:../../Drivers/STM32H7xx_HAL_Driver/Src/stm32h7xx_hal.c ****   */
 239:../../Drivers/STM32H7xx_HAL_Driver/Src/stm32h7xx_hal.c **** __weak void HAL_MspDeInit(void)
 240:../../Drivers/STM32H7xx_HAL_Driver/Src/stm32h7xx_hal.c **** {
  46              		.loc 1 240 1 view -0
  47              		.cfi_startproc
  48              		@ args = 0, pretend = 0, frame = 0
ARM GAS  C:\Users\minis\AppData\Local\Temp\ccPvto3C.s 			page 6


  49              		@ frame_needed = 0, uses_anonymous_args = 0
  50              		@ link register save eliminated.
 241:../../Drivers/STM32H7xx_HAL_Driver/Src/stm32h7xx_hal.c ****   /* NOTE : This function Should not be modified, when the callback is needed,
 242:../../Drivers/STM32H7xx_HAL_Driver/Src/stm32h7xx_hal.c ****             the HAL_MspDeInit could be implemented in the user file
 243:../../Drivers/STM32H7xx_HAL_Driver/Src/stm32h7xx_hal.c ****    */
 244:../../Drivers/STM32H7xx_HAL_Driver/Src/stm32h7xx_hal.c **** }
  51              		.loc 1 244 1 view .LVU3
  52 0000 7047     		bx	lr
  53              		.cfi_endproc
  54              	.LFE147:
  56              		.section	.text.HAL_DeInit,"ax",%progbits
  57              		.align	1
  58              		.global	HAL_DeInit
  59              		.syntax unified
  60              		.thumb
  61              		.thumb_func
  63              	HAL_DeInit:
  64              	.LFB145:
 188:../../Drivers/STM32H7xx_HAL_Driver/Src/stm32h7xx_hal.c ****   /* Reset of all peripherals */
  65              		.loc 1 188 1 view -0
  66              		.cfi_startproc
  67              		@ args = 0, pretend = 0, frame = 0
  68              		@ frame_needed = 0, uses_anonymous_args = 0
  69 0000 10B5     		push	{r4, lr}
  70              	.LCFI0:
  71              		.cfi_def_cfa_offset 8
  72              		.cfi_offset 4, -8
  73              		.cfi_offset 14, -4
 190:../../Drivers/STM32H7xx_HAL_Driver/Src/stm32h7xx_hal.c ****   __HAL_RCC_AHB3_RELEASE_RESET();
  74              		.loc 1 190 3 view .LVU5
  75 0002 194B     		ldr	r3, .L5
  76 0004 194A     		ldr	r2, .L5+4
  77 0006 DA67     		str	r2, [r3, #124]
 191:../../Drivers/STM32H7xx_HAL_Driver/Src/stm32h7xx_hal.c **** 
  78              		.loc 1 191 3 view .LVU6
  79 0008 0024     		movs	r4, #0
  80 000a DC67     		str	r4, [r3, #124]
 193:../../Drivers/STM32H7xx_HAL_Driver/Src/stm32h7xx_hal.c ****   __HAL_RCC_AHB1_RELEASE_RESET();
  81              		.loc 1 193 3 view .LVU7
  82 000c 184A     		ldr	r2, .L5+8
  83 000e C3F88020 		str	r2, [r3, #128]
 194:../../Drivers/STM32H7xx_HAL_Driver/Src/stm32h7xx_hal.c **** 
  84              		.loc 1 194 3 view .LVU8
  85 0012 C3F88040 		str	r4, [r3, #128]
 196:../../Drivers/STM32H7xx_HAL_Driver/Src/stm32h7xx_hal.c ****   __HAL_RCC_AHB2_RELEASE_RESET();
  86              		.loc 1 196 3 view .LVU9
  87 0016 40F27122 		movw	r2, #625
  88 001a C3F88420 		str	r2, [r3, #132]
 197:../../Drivers/STM32H7xx_HAL_Driver/Src/stm32h7xx_hal.c **** 
  89              		.loc 1 197 3 view .LVU10
  90 001e C3F88440 		str	r4, [r3, #132]
 199:../../Drivers/STM32H7xx_HAL_Driver/Src/stm32h7xx_hal.c ****  __HAL_RCC_AHB4_RELEASE_RESET();
  91              		.loc 1 199 3 view .LVU11
  92 0022 144A     		ldr	r2, .L5+12
  93 0024 C3F88820 		str	r2, [r3, #136]
 200:../../Drivers/STM32H7xx_HAL_Driver/Src/stm32h7xx_hal.c **** 
  94              		.loc 1 200 2 view .LVU12
ARM GAS  C:\Users\minis\AppData\Local\Temp\ccPvto3C.s 			page 7


  95 0028 C3F88840 		str	r4, [r3, #136]
 202:../../Drivers/STM32H7xx_HAL_Driver/Src/stm32h7xx_hal.c ****   __HAL_RCC_APB3_RELEASE_RESET();
  96              		.loc 1 202 3 view .LVU13
  97 002c 1822     		movs	r2, #24
  98 002e C3F88C20 		str	r2, [r3, #140]
 203:../../Drivers/STM32H7xx_HAL_Driver/Src/stm32h7xx_hal.c **** 
  99              		.loc 1 203 3 view .LVU14
 100 0032 C3F88C40 		str	r4, [r3, #140]
 205:../../Drivers/STM32H7xx_HAL_Driver/Src/stm32h7xx_hal.c ****   __HAL_RCC_APB1L_RELEASE_RESET();
 101              		.loc 1 205 3 view .LVU15
 102 0036 104A     		ldr	r2, .L5+16
 103 0038 C3F89020 		str	r2, [r3, #144]
 206:../../Drivers/STM32H7xx_HAL_Driver/Src/stm32h7xx_hal.c **** 
 104              		.loc 1 206 3 view .LVU16
 105 003c C3F89040 		str	r4, [r3, #144]
 208:../../Drivers/STM32H7xx_HAL_Driver/Src/stm32h7xx_hal.c ****   __HAL_RCC_APB1H_RELEASE_RESET();
 106              		.loc 1 208 3 view .LVU17
 107 0040 4FF49B72 		mov	r2, #310
 108 0044 C3F89420 		str	r2, [r3, #148]
 209:../../Drivers/STM32H7xx_HAL_Driver/Src/stm32h7xx_hal.c **** 
 109              		.loc 1 209 3 view .LVU18
 110 0048 C3F89440 		str	r4, [r3, #148]
 211:../../Drivers/STM32H7xx_HAL_Driver/Src/stm32h7xx_hal.c ****    __HAL_RCC_APB2_RELEASE_RESET();
 111              		.loc 1 211 4 view .LVU19
 112 004c 0B4A     		ldr	r2, .L5+20
 113 004e C3F89820 		str	r2, [r3, #152]
 212:../../Drivers/STM32H7xx_HAL_Driver/Src/stm32h7xx_hal.c **** 
 114              		.loc 1 212 4 view .LVU20
 115 0052 C3F89840 		str	r4, [r3, #152]
 214:../../Drivers/STM32H7xx_HAL_Driver/Src/stm32h7xx_hal.c ****   __HAL_RCC_APB4_RELEASE_RESET();
 116              		.loc 1 214 3 view .LVU21
 117 0056 0A4A     		ldr	r2, .L5+24
 118 0058 C3F89C20 		str	r2, [r3, #156]
 215:../../Drivers/STM32H7xx_HAL_Driver/Src/stm32h7xx_hal.c **** 
 119              		.loc 1 215 3 view .LVU22
 120 005c C3F89C40 		str	r4, [r3, #156]
 218:../../Drivers/STM32H7xx_HAL_Driver/Src/stm32h7xx_hal.c **** 
 121              		.loc 1 218 3 view .LVU23
 122 0060 FFF7FEFF 		bl	HAL_MspDeInit
 123              	.LVL0:
 221:../../Drivers/STM32H7xx_HAL_Driver/Src/stm32h7xx_hal.c **** }
 124              		.loc 1 221 3 view .LVU24
 222:../../Drivers/STM32H7xx_HAL_Driver/Src/stm32h7xx_hal.c **** 
 125              		.loc 1 222 1 is_stmt 0 view .LVU25
 126 0064 2046     		mov	r0, r4
 127 0066 10BD     		pop	{r4, pc}
 128              	.L6:
 129              		.align	2
 130              	.L5:
 131 0068 00440258 		.word	1476543488
 132 006c 31500100 		.word	86065
 133 0070 23C0000A 		.word	167821347
 134 0074 FF072803 		.word	52955135
 135 0078 FFC3FFE8 		.word	-385891329
 136 007c 3330D731 		.word	836186163
 137 0080 AADE2000 		.word	2154154
 138              		.cfi_endproc
ARM GAS  C:\Users\minis\AppData\Local\Temp\ccPvto3C.s 			page 8


 139              	.LFE145:
 141              		.section	.text.HAL_InitTick,"ax",%progbits
 142              		.align	1
 143              		.weak	HAL_InitTick
 144              		.syntax unified
 145              		.thumb
 146              		.thumb_func
 148              	HAL_InitTick:
 149              	.LVL1:
 150              	.LFB148:
 245:../../Drivers/STM32H7xx_HAL_Driver/Src/stm32h7xx_hal.c **** 
 246:../../Drivers/STM32H7xx_HAL_Driver/Src/stm32h7xx_hal.c **** /**
 247:../../Drivers/STM32H7xx_HAL_Driver/Src/stm32h7xx_hal.c ****   * @brief This function configures the source of the time base.
 248:../../Drivers/STM32H7xx_HAL_Driver/Src/stm32h7xx_hal.c ****   *        The time source is configured  to have 1ms time base with a dedicated
 249:../../Drivers/STM32H7xx_HAL_Driver/Src/stm32h7xx_hal.c ****   *        Tick interrupt priority.
 250:../../Drivers/STM32H7xx_HAL_Driver/Src/stm32h7xx_hal.c ****   * @note This function is called  automatically at the beginning of program after
 251:../../Drivers/STM32H7xx_HAL_Driver/Src/stm32h7xx_hal.c ****   *       reset by HAL_Init() or at any time when clock is reconfigured  by HAL_RCC_ClockConfig().
 252:../../Drivers/STM32H7xx_HAL_Driver/Src/stm32h7xx_hal.c ****   * @note In the default implementation, SysTick timer is the source of time base.
 253:../../Drivers/STM32H7xx_HAL_Driver/Src/stm32h7xx_hal.c ****   *       It is used to generate interrupts at regular time intervals.
 254:../../Drivers/STM32H7xx_HAL_Driver/Src/stm32h7xx_hal.c ****   *       Care must be taken if HAL_Delay() is called from a peripheral ISR process,
 255:../../Drivers/STM32H7xx_HAL_Driver/Src/stm32h7xx_hal.c ****   *       the SysTick interrupt must have higher priority (numerically lower)
 256:../../Drivers/STM32H7xx_HAL_Driver/Src/stm32h7xx_hal.c ****   *       than the peripheral interrupt. Otherwise the caller ISR process will be blocked.
 257:../../Drivers/STM32H7xx_HAL_Driver/Src/stm32h7xx_hal.c ****   *       The function is declared as __weak  to be overwritten  in case of other
 258:../../Drivers/STM32H7xx_HAL_Driver/Src/stm32h7xx_hal.c ****   *       implementation  in user file.
 259:../../Drivers/STM32H7xx_HAL_Driver/Src/stm32h7xx_hal.c ****   * @param TickPriority: Tick interrupt priority.
 260:../../Drivers/STM32H7xx_HAL_Driver/Src/stm32h7xx_hal.c ****   * @retval HAL status
 261:../../Drivers/STM32H7xx_HAL_Driver/Src/stm32h7xx_hal.c ****   */
 262:../../Drivers/STM32H7xx_HAL_Driver/Src/stm32h7xx_hal.c **** __weak HAL_StatusTypeDef HAL_InitTick(uint32_t TickPriority)
 263:../../Drivers/STM32H7xx_HAL_Driver/Src/stm32h7xx_hal.c **** {
 151              		.loc 1 263 1 is_stmt 1 view -0
 152              		.cfi_startproc
 153              		@ args = 0, pretend = 0, frame = 0
 154              		@ frame_needed = 0, uses_anonymous_args = 0
 264:../../Drivers/STM32H7xx_HAL_Driver/Src/stm32h7xx_hal.c ****   /* Check uwTickFreq for MisraC 2012 (even if uwTickFreq is a enum type that don't take the value 
 265:../../Drivers/STM32H7xx_HAL_Driver/Src/stm32h7xx_hal.c ****   if((uint32_t)uwTickFreq == 0UL)
 155              		.loc 1 265 3 view .LVU27
 156              		.loc 1 265 27 is_stmt 0 view .LVU28
 157 0000 104B     		ldr	r3, .L18
 158 0002 1B78     		ldrb	r3, [r3]	@ zero_extendqisi2
 159              		.loc 1 265 5 view .LVU29
 160 0004 0BB9     		cbnz	r3, .L16
 266:../../Drivers/STM32H7xx_HAL_Driver/Src/stm32h7xx_hal.c ****   {
 267:../../Drivers/STM32H7xx_HAL_Driver/Src/stm32h7xx_hal.c ****     return HAL_ERROR;
 161              		.loc 1 267 12 view .LVU30
 162 0006 0120     		movs	r0, #1
 163              	.LVL2:
 268:../../Drivers/STM32H7xx_HAL_Driver/Src/stm32h7xx_hal.c ****   }
 269:../../Drivers/STM32H7xx_HAL_Driver/Src/stm32h7xx_hal.c **** 
 270:../../Drivers/STM32H7xx_HAL_Driver/Src/stm32h7xx_hal.c ****     /* Configure the SysTick to have interrupt in 1ms time basis*/
 271:../../Drivers/STM32H7xx_HAL_Driver/Src/stm32h7xx_hal.c ****     if (HAL_SYSTICK_Config(SystemCoreClock / (1000UL / (uint32_t)uwTickFreq)) > 0U)
 272:../../Drivers/STM32H7xx_HAL_Driver/Src/stm32h7xx_hal.c ****     {
 273:../../Drivers/STM32H7xx_HAL_Driver/Src/stm32h7xx_hal.c ****       return HAL_ERROR;
 274:../../Drivers/STM32H7xx_HAL_Driver/Src/stm32h7xx_hal.c ****     }
 275:../../Drivers/STM32H7xx_HAL_Driver/Src/stm32h7xx_hal.c **** 
 276:../../Drivers/STM32H7xx_HAL_Driver/Src/stm32h7xx_hal.c ****   /* Configure the SysTick IRQ priority */
 277:../../Drivers/STM32H7xx_HAL_Driver/Src/stm32h7xx_hal.c ****   if (TickPriority < (1UL << __NVIC_PRIO_BITS))
 278:../../Drivers/STM32H7xx_HAL_Driver/Src/stm32h7xx_hal.c ****   {
ARM GAS  C:\Users\minis\AppData\Local\Temp\ccPvto3C.s 			page 9


 279:../../Drivers/STM32H7xx_HAL_Driver/Src/stm32h7xx_hal.c ****     HAL_NVIC_SetPriority(SysTick_IRQn, TickPriority, 0U);
 280:../../Drivers/STM32H7xx_HAL_Driver/Src/stm32h7xx_hal.c ****     uwTickPrio = TickPriority;
 281:../../Drivers/STM32H7xx_HAL_Driver/Src/stm32h7xx_hal.c ****   }
 282:../../Drivers/STM32H7xx_HAL_Driver/Src/stm32h7xx_hal.c ****   else
 283:../../Drivers/STM32H7xx_HAL_Driver/Src/stm32h7xx_hal.c ****   {
 284:../../Drivers/STM32H7xx_HAL_Driver/Src/stm32h7xx_hal.c ****     return HAL_ERROR;
 285:../../Drivers/STM32H7xx_HAL_Driver/Src/stm32h7xx_hal.c ****   }
 286:../../Drivers/STM32H7xx_HAL_Driver/Src/stm32h7xx_hal.c **** 
 287:../../Drivers/STM32H7xx_HAL_Driver/Src/stm32h7xx_hal.c ****   /* Return function status */
 288:../../Drivers/STM32H7xx_HAL_Driver/Src/stm32h7xx_hal.c ****   return HAL_OK;
 289:../../Drivers/STM32H7xx_HAL_Driver/Src/stm32h7xx_hal.c **** }
 164              		.loc 1 289 1 view .LVU31
 165 0008 7047     		bx	lr
 166              	.LVL3:
 167              	.L16:
 263:../../Drivers/STM32H7xx_HAL_Driver/Src/stm32h7xx_hal.c ****   /* Check uwTickFreq for MisraC 2012 (even if uwTickFreq is a enum type that don't take the value 
 168              		.loc 1 263 1 view .LVU32
 169 000a 10B5     		push	{r4, lr}
 170              	.LCFI1:
 171              		.cfi_def_cfa_offset 8
 172              		.cfi_offset 4, -8
 173              		.cfi_offset 14, -4
 174 000c 0446     		mov	r4, r0
 271:../../Drivers/STM32H7xx_HAL_Driver/Src/stm32h7xx_hal.c ****     {
 175              		.loc 1 271 5 is_stmt 1 view .LVU33
 271:../../Drivers/STM32H7xx_HAL_Driver/Src/stm32h7xx_hal.c ****     {
 176              		.loc 1 271 54 is_stmt 0 view .LVU34
 177 000e 4FF47A70 		mov	r0, #1000
 178              	.LVL4:
 271:../../Drivers/STM32H7xx_HAL_Driver/Src/stm32h7xx_hal.c ****     {
 179              		.loc 1 271 54 view .LVU35
 180 0012 B0FBF3F3 		udiv	r3, r0, r3
 271:../../Drivers/STM32H7xx_HAL_Driver/Src/stm32h7xx_hal.c ****     {
 181              		.loc 1 271 9 view .LVU36
 182 0016 0C4A     		ldr	r2, .L18+4
 183 0018 1068     		ldr	r0, [r2]
 184 001a B0FBF3F0 		udiv	r0, r0, r3
 185 001e FFF7FEFF 		bl	HAL_SYSTICK_Config
 186              	.LVL5:
 271:../../Drivers/STM32H7xx_HAL_Driver/Src/stm32h7xx_hal.c ****     {
 187              		.loc 1 271 8 discriminator 1 view .LVU37
 188 0022 68B9     		cbnz	r0, .L10
 277:../../Drivers/STM32H7xx_HAL_Driver/Src/stm32h7xx_hal.c ****   {
 189              		.loc 1 277 3 is_stmt 1 view .LVU38
 277:../../Drivers/STM32H7xx_HAL_Driver/Src/stm32h7xx_hal.c ****   {
 190              		.loc 1 277 6 is_stmt 0 view .LVU39
 191 0024 0F2C     		cmp	r4, #15
 192 0026 01D9     		bls	.L17
 284:../../Drivers/STM32H7xx_HAL_Driver/Src/stm32h7xx_hal.c ****   }
 193              		.loc 1 284 12 view .LVU40
 194 0028 0120     		movs	r0, #1
 195 002a 0AE0     		b	.L8
 196              	.L17:
 279:../../Drivers/STM32H7xx_HAL_Driver/Src/stm32h7xx_hal.c ****     uwTickPrio = TickPriority;
 197              		.loc 1 279 5 is_stmt 1 view .LVU41
 198 002c 0022     		movs	r2, #0
 199 002e 2146     		mov	r1, r4
ARM GAS  C:\Users\minis\AppData\Local\Temp\ccPvto3C.s 			page 10


 200 0030 4FF0FF30 		mov	r0, #-1
 201 0034 FFF7FEFF 		bl	HAL_NVIC_SetPriority
 202              	.LVL6:
 280:../../Drivers/STM32H7xx_HAL_Driver/Src/stm32h7xx_hal.c ****   }
 203              		.loc 1 280 5 view .LVU42
 280:../../Drivers/STM32H7xx_HAL_Driver/Src/stm32h7xx_hal.c ****   }
 204              		.loc 1 280 16 is_stmt 0 view .LVU43
 205 0038 044B     		ldr	r3, .L18+8
 206 003a 1C60     		str	r4, [r3]
 288:../../Drivers/STM32H7xx_HAL_Driver/Src/stm32h7xx_hal.c **** }
 207              		.loc 1 288 3 is_stmt 1 view .LVU44
 288:../../Drivers/STM32H7xx_HAL_Driver/Src/stm32h7xx_hal.c **** }
 208              		.loc 1 288 10 is_stmt 0 view .LVU45
 209 003c 0020     		movs	r0, #0
 210 003e 00E0     		b	.L8
 211              	.L10:
 273:../../Drivers/STM32H7xx_HAL_Driver/Src/stm32h7xx_hal.c ****     }
 212              		.loc 1 273 14 view .LVU46
 213 0040 0120     		movs	r0, #1
 214              	.L8:
 215              		.loc 1 289 1 view .LVU47
 216 0042 10BD     		pop	{r4, pc}
 217              	.LVL7:
 218              	.L19:
 219              		.loc 1 289 1 view .LVU48
 220              		.align	2
 221              	.L18:
 222 0044 00000000 		.word	uwTickFreq
 223 0048 00000000 		.word	SystemCoreClock
 224 004c 00000000 		.word	uwTickPrio
 225              		.cfi_endproc
 226              	.LFE148:
 228              		.section	.text.HAL_Init,"ax",%progbits
 229              		.align	1
 230              		.global	HAL_Init
 231              		.syntax unified
 232              		.thumb
 233              		.thumb_func
 235              	HAL_Init:
 236              	.LFB144:
 135:../../Drivers/STM32H7xx_HAL_Driver/Src/stm32h7xx_hal.c **** 
 237              		.loc 1 135 1 is_stmt 1 view -0
 238              		.cfi_startproc
 239              		@ args = 0, pretend = 0, frame = 0
 240              		@ frame_needed = 0, uses_anonymous_args = 0
 241 0000 10B5     		push	{r4, lr}
 242              	.LCFI2:
 243              		.cfi_def_cfa_offset 8
 244              		.cfi_offset 4, -8
 245              		.cfi_offset 14, -4
 137:../../Drivers/STM32H7xx_HAL_Driver/Src/stm32h7xx_hal.c **** 
 246              		.loc 1 137 1 view .LVU50
 147:../../Drivers/STM32H7xx_HAL_Driver/Src/stm32h7xx_hal.c **** 
 247              		.loc 1 147 3 view .LVU51
 248 0002 0320     		movs	r0, #3
 249 0004 FFF7FEFF 		bl	HAL_NVIC_SetPriorityGrouping
 250              	.LVL8:
ARM GAS  C:\Users\minis\AppData\Local\Temp\ccPvto3C.s 			page 11


 151:../../Drivers/STM32H7xx_HAL_Driver/Src/stm32h7xx_hal.c **** #else
 251              		.loc 1 151 3 view .LVU52
 151:../../Drivers/STM32H7xx_HAL_Driver/Src/stm32h7xx_hal.c **** #else
 252              		.loc 1 151 25 is_stmt 0 view .LVU53
 253 0008 FFF7FEFF 		bl	HAL_RCC_GetSysClockFreq
 254              	.LVL9:
 151:../../Drivers/STM32H7xx_HAL_Driver/Src/stm32h7xx_hal.c **** #else
 255              		.loc 1 151 77 discriminator 1 view .LVU54
 256 000c 0F49     		ldr	r1, .L25
 257 000e 8B69     		ldr	r3, [r1, #24]
 151:../../Drivers/STM32H7xx_HAL_Driver/Src/stm32h7xx_hal.c **** #else
 258              		.loc 1 151 106 discriminator 1 view .LVU55
 259 0010 C3F30323 		ubfx	r3, r3, #8, #4
 151:../../Drivers/STM32H7xx_HAL_Driver/Src/stm32h7xx_hal.c **** #else
 260              		.loc 1 151 72 discriminator 1 view .LVU56
 261 0014 0E4A     		ldr	r2, .L25+4
 262 0016 D35C     		ldrb	r3, [r2, r3]	@ zero_extendqisi2
 151:../../Drivers/STM32H7xx_HAL_Driver/Src/stm32h7xx_hal.c **** #else
 263              		.loc 1 151 133 discriminator 1 view .LVU57
 264 0018 03F01F03 		and	r3, r3, #31
 151:../../Drivers/STM32H7xx_HAL_Driver/Src/stm32h7xx_hal.c **** #else
 265              		.loc 1 151 23 discriminator 1 view .LVU58
 266 001c D840     		lsrs	r0, r0, r3
 267              	.LVL10:
 158:../../Drivers/STM32H7xx_HAL_Driver/Src/stm32h7xx_hal.c **** #else
 268              		.loc 1 158 3 is_stmt 1 view .LVU59
 158:../../Drivers/STM32H7xx_HAL_Driver/Src/stm32h7xx_hal.c **** #else
 269              		.loc 1 158 66 is_stmt 0 view .LVU60
 270 001e 8B69     		ldr	r3, [r1, #24]
 158:../../Drivers/STM32H7xx_HAL_Driver/Src/stm32h7xx_hal.c **** #else
 271              		.loc 1 158 93 view .LVU61
 272 0020 03F00F03 		and	r3, r3, #15
 158:../../Drivers/STM32H7xx_HAL_Driver/Src/stm32h7xx_hal.c **** #else
 273              		.loc 1 158 61 view .LVU62
 274 0024 D35C     		ldrb	r3, [r2, r3]	@ zero_extendqisi2
 158:../../Drivers/STM32H7xx_HAL_Driver/Src/stm32h7xx_hal.c **** #else
 275              		.loc 1 158 118 view .LVU63
 276 0026 03F01F03 		and	r3, r3, #31
 158:../../Drivers/STM32H7xx_HAL_Driver/Src/stm32h7xx_hal.c **** #else
 277              		.loc 1 158 40 view .LVU64
 278 002a 20FA03F3 		lsr	r3, r0, r3
 158:../../Drivers/STM32H7xx_HAL_Driver/Src/stm32h7xx_hal.c **** #else
 279              		.loc 1 158 17 view .LVU65
 280 002e 094A     		ldr	r2, .L25+8
 281 0030 1360     		str	r3, [r2]
 166:../../Drivers/STM32H7xx_HAL_Driver/Src/stm32h7xx_hal.c **** #endif /* DUAL_CORE && CORE_CM4 */
 282              		.loc 1 166 3 is_stmt 1 view .LVU66
 166:../../Drivers/STM32H7xx_HAL_Driver/Src/stm32h7xx_hal.c **** #endif /* DUAL_CORE && CORE_CM4 */
 283              		.loc 1 166 19 is_stmt 0 view .LVU67
 284 0032 094B     		ldr	r3, .L25+12
 285 0034 1860     		str	r0, [r3]
 170:../../Drivers/STM32H7xx_HAL_Driver/Src/stm32h7xx_hal.c ****   {
 286              		.loc 1 170 3 is_stmt 1 view .LVU68
 170:../../Drivers/STM32H7xx_HAL_Driver/Src/stm32h7xx_hal.c ****   {
 287              		.loc 1 170 6 is_stmt 0 view .LVU69
 288 0036 0F20     		movs	r0, #15
 289              	.LVL11:
ARM GAS  C:\Users\minis\AppData\Local\Temp\ccPvto3C.s 			page 12


 170:../../Drivers/STM32H7xx_HAL_Driver/Src/stm32h7xx_hal.c ****   {
 290              		.loc 1 170 6 view .LVU70
 291 0038 FFF7FEFF 		bl	HAL_InitTick
 292              	.LVL12:
 170:../../Drivers/STM32H7xx_HAL_Driver/Src/stm32h7xx_hal.c ****   {
 293              		.loc 1 170 5 discriminator 1 view .LVU71
 294 003c 10B1     		cbz	r0, .L24
 172:../../Drivers/STM32H7xx_HAL_Driver/Src/stm32h7xx_hal.c ****   }
 295              		.loc 1 172 12 view .LVU72
 296 003e 0124     		movs	r4, #1
 297              	.L21:
 180:../../Drivers/STM32H7xx_HAL_Driver/Src/stm32h7xx_hal.c **** 
 298              		.loc 1 180 1 view .LVU73
 299 0040 2046     		mov	r0, r4
 300 0042 10BD     		pop	{r4, pc}
 301              	.L24:
 302 0044 0446     		mov	r4, r0
 176:../../Drivers/STM32H7xx_HAL_Driver/Src/stm32h7xx_hal.c **** 
 303              		.loc 1 176 3 is_stmt 1 view .LVU74
 304 0046 FFF7FEFF 		bl	HAL_MspInit
 305              	.LVL13:
 179:../../Drivers/STM32H7xx_HAL_Driver/Src/stm32h7xx_hal.c **** }
 306              		.loc 1 179 3 view .LVU75
 179:../../Drivers/STM32H7xx_HAL_Driver/Src/stm32h7xx_hal.c **** }
 307              		.loc 1 179 10 is_stmt 0 view .LVU76
 308 004a F9E7     		b	.L21
 309              	.L26:
 310              		.align	2
 311              	.L25:
 312 004c 00440258 		.word	1476543488
 313 0050 00000000 		.word	D1CorePrescTable
 314 0054 00000000 		.word	SystemD2Clock
 315 0058 00000000 		.word	SystemCoreClock
 316              		.cfi_endproc
 317              	.LFE144:
 319              		.section	.text.HAL_IncTick,"ax",%progbits
 320              		.align	1
 321              		.weak	HAL_IncTick
 322              		.syntax unified
 323              		.thumb
 324              		.thumb_func
 326              	HAL_IncTick:
 327              	.LFB149:
 290:../../Drivers/STM32H7xx_HAL_Driver/Src/stm32h7xx_hal.c **** 
 291:../../Drivers/STM32H7xx_HAL_Driver/Src/stm32h7xx_hal.c **** /**
 292:../../Drivers/STM32H7xx_HAL_Driver/Src/stm32h7xx_hal.c ****   * @}
 293:../../Drivers/STM32H7xx_HAL_Driver/Src/stm32h7xx_hal.c ****   */
 294:../../Drivers/STM32H7xx_HAL_Driver/Src/stm32h7xx_hal.c **** 
 295:../../Drivers/STM32H7xx_HAL_Driver/Src/stm32h7xx_hal.c **** /** @addtogroup HAL_Group2
 296:../../Drivers/STM32H7xx_HAL_Driver/Src/stm32h7xx_hal.c ****  *  @brief    HAL Control functions
 297:../../Drivers/STM32H7xx_HAL_Driver/Src/stm32h7xx_hal.c ****  *
 298:../../Drivers/STM32H7xx_HAL_Driver/Src/stm32h7xx_hal.c **** @verbatim
 299:../../Drivers/STM32H7xx_HAL_Driver/Src/stm32h7xx_hal.c ****  ===============================================================================
 300:../../Drivers/STM32H7xx_HAL_Driver/Src/stm32h7xx_hal.c ****                       ##### HAL Control functions #####
 301:../../Drivers/STM32H7xx_HAL_Driver/Src/stm32h7xx_hal.c ****  ===============================================================================
 302:../../Drivers/STM32H7xx_HAL_Driver/Src/stm32h7xx_hal.c ****     [..]  This section provides functions allowing to:
 303:../../Drivers/STM32H7xx_HAL_Driver/Src/stm32h7xx_hal.c ****       (+) Provide a tick value in millisecond
ARM GAS  C:\Users\minis\AppData\Local\Temp\ccPvto3C.s 			page 13


 304:../../Drivers/STM32H7xx_HAL_Driver/Src/stm32h7xx_hal.c ****       (+) Provide a blocking delay in millisecond
 305:../../Drivers/STM32H7xx_HAL_Driver/Src/stm32h7xx_hal.c ****       (+) Suspend the time base source interrupt
 306:../../Drivers/STM32H7xx_HAL_Driver/Src/stm32h7xx_hal.c ****       (+) Resume the time base source interrupt
 307:../../Drivers/STM32H7xx_HAL_Driver/Src/stm32h7xx_hal.c ****       (+) Get the HAL API driver version
 308:../../Drivers/STM32H7xx_HAL_Driver/Src/stm32h7xx_hal.c ****       (+) Get the device identifier
 309:../../Drivers/STM32H7xx_HAL_Driver/Src/stm32h7xx_hal.c ****       (+) Get the device revision identifier
 310:../../Drivers/STM32H7xx_HAL_Driver/Src/stm32h7xx_hal.c ****       (+) Enable/Disable Debug module during SLEEP mode
 311:../../Drivers/STM32H7xx_HAL_Driver/Src/stm32h7xx_hal.c ****       (+) Enable/Disable Debug module during STOP mode
 312:../../Drivers/STM32H7xx_HAL_Driver/Src/stm32h7xx_hal.c ****       (+) Enable/Disable Debug module during STANDBY mode
 313:../../Drivers/STM32H7xx_HAL_Driver/Src/stm32h7xx_hal.c **** 
 314:../../Drivers/STM32H7xx_HAL_Driver/Src/stm32h7xx_hal.c **** @endverbatim
 315:../../Drivers/STM32H7xx_HAL_Driver/Src/stm32h7xx_hal.c ****   * @{
 316:../../Drivers/STM32H7xx_HAL_Driver/Src/stm32h7xx_hal.c ****   */
 317:../../Drivers/STM32H7xx_HAL_Driver/Src/stm32h7xx_hal.c **** 
 318:../../Drivers/STM32H7xx_HAL_Driver/Src/stm32h7xx_hal.c **** /**
 319:../../Drivers/STM32H7xx_HAL_Driver/Src/stm32h7xx_hal.c ****   * @brief This function is called to increment  a global variable "uwTick"
 320:../../Drivers/STM32H7xx_HAL_Driver/Src/stm32h7xx_hal.c ****   *        used as application time base.
 321:../../Drivers/STM32H7xx_HAL_Driver/Src/stm32h7xx_hal.c ****   * @note In the default implementation, this variable is incremented each 1ms
 322:../../Drivers/STM32H7xx_HAL_Driver/Src/stm32h7xx_hal.c ****   *       in Systick ISR.
 323:../../Drivers/STM32H7xx_HAL_Driver/Src/stm32h7xx_hal.c ****  * @note This function is declared as __weak to be overwritten in case of other
 324:../../Drivers/STM32H7xx_HAL_Driver/Src/stm32h7xx_hal.c ****   *      implementations in user file.
 325:../../Drivers/STM32H7xx_HAL_Driver/Src/stm32h7xx_hal.c ****   * @retval None
 326:../../Drivers/STM32H7xx_HAL_Driver/Src/stm32h7xx_hal.c ****   */
 327:../../Drivers/STM32H7xx_HAL_Driver/Src/stm32h7xx_hal.c **** __weak void HAL_IncTick(void)
 328:../../Drivers/STM32H7xx_HAL_Driver/Src/stm32h7xx_hal.c **** {
 328              		.loc 1 328 1 is_stmt 1 view -0
 329              		.cfi_startproc
 330              		@ args = 0, pretend = 0, frame = 0
 331              		@ frame_needed = 0, uses_anonymous_args = 0
 332              		@ link register save eliminated.
 329:../../Drivers/STM32H7xx_HAL_Driver/Src/stm32h7xx_hal.c ****   uwTick += (uint32_t)uwTickFreq;
 333              		.loc 1 329 3 view .LVU78
 334              		.loc 1 329 13 is_stmt 0 view .LVU79
 335 0000 034B     		ldr	r3, .L28
 336 0002 1B78     		ldrb	r3, [r3]	@ zero_extendqisi2
 337              		.loc 1 329 10 view .LVU80
 338 0004 034A     		ldr	r2, .L28+4
 339 0006 1168     		ldr	r1, [r2]
 340 0008 0B44     		add	r3, r3, r1
 341 000a 1360     		str	r3, [r2]
 330:../../Drivers/STM32H7xx_HAL_Driver/Src/stm32h7xx_hal.c **** }
 342              		.loc 1 330 1 view .LVU81
 343 000c 7047     		bx	lr
 344              	.L29:
 345 000e 00BF     		.align	2
 346              	.L28:
 347 0010 00000000 		.word	uwTickFreq
 348 0014 00000000 		.word	uwTick
 349              		.cfi_endproc
 350              	.LFE149:
 352              		.section	.text.HAL_GetTick,"ax",%progbits
 353              		.align	1
 354              		.weak	HAL_GetTick
 355              		.syntax unified
 356              		.thumb
 357              		.thumb_func
 359              	HAL_GetTick:
ARM GAS  C:\Users\minis\AppData\Local\Temp\ccPvto3C.s 			page 14


 360              	.LFB150:
 331:../../Drivers/STM32H7xx_HAL_Driver/Src/stm32h7xx_hal.c **** 
 332:../../Drivers/STM32H7xx_HAL_Driver/Src/stm32h7xx_hal.c **** /**
 333:../../Drivers/STM32H7xx_HAL_Driver/Src/stm32h7xx_hal.c ****   * @brief Provides a tick value in millisecond.
 334:../../Drivers/STM32H7xx_HAL_Driver/Src/stm32h7xx_hal.c ****   * @note This function is declared as __weak to be overwritten in case of other
 335:../../Drivers/STM32H7xx_HAL_Driver/Src/stm32h7xx_hal.c ****   *       implementations in user file.
 336:../../Drivers/STM32H7xx_HAL_Driver/Src/stm32h7xx_hal.c ****   * @retval tick value
 337:../../Drivers/STM32H7xx_HAL_Driver/Src/stm32h7xx_hal.c ****   */
 338:../../Drivers/STM32H7xx_HAL_Driver/Src/stm32h7xx_hal.c **** __weak uint32_t HAL_GetTick(void)
 339:../../Drivers/STM32H7xx_HAL_Driver/Src/stm32h7xx_hal.c **** {
 361              		.loc 1 339 1 is_stmt 1 view -0
 362              		.cfi_startproc
 363              		@ args = 0, pretend = 0, frame = 0
 364              		@ frame_needed = 0, uses_anonymous_args = 0
 365              		@ link register save eliminated.
 340:../../Drivers/STM32H7xx_HAL_Driver/Src/stm32h7xx_hal.c ****   return uwTick;
 366              		.loc 1 340 3 view .LVU83
 367              		.loc 1 340 10 is_stmt 0 view .LVU84
 368 0000 014B     		ldr	r3, .L31
 369 0002 1868     		ldr	r0, [r3]
 341:../../Drivers/STM32H7xx_HAL_Driver/Src/stm32h7xx_hal.c **** }
 370              		.loc 1 341 1 view .LVU85
 371 0004 7047     		bx	lr
 372              	.L32:
 373 0006 00BF     		.align	2
 374              	.L31:
 375 0008 00000000 		.word	uwTick
 376              		.cfi_endproc
 377              	.LFE150:
 379              		.section	.text.HAL_GetTickPrio,"ax",%progbits
 380              		.align	1
 381              		.global	HAL_GetTickPrio
 382              		.syntax unified
 383              		.thumb
 384              		.thumb_func
 386              	HAL_GetTickPrio:
 387              	.LFB151:
 342:../../Drivers/STM32H7xx_HAL_Driver/Src/stm32h7xx_hal.c **** 
 343:../../Drivers/STM32H7xx_HAL_Driver/Src/stm32h7xx_hal.c **** /**
 344:../../Drivers/STM32H7xx_HAL_Driver/Src/stm32h7xx_hal.c ****   * @brief This function returns a tick priority.
 345:../../Drivers/STM32H7xx_HAL_Driver/Src/stm32h7xx_hal.c ****   * @retval tick priority
 346:../../Drivers/STM32H7xx_HAL_Driver/Src/stm32h7xx_hal.c ****   */
 347:../../Drivers/STM32H7xx_HAL_Driver/Src/stm32h7xx_hal.c **** uint32_t HAL_GetTickPrio(void)
 348:../../Drivers/STM32H7xx_HAL_Driver/Src/stm32h7xx_hal.c **** {
 388              		.loc 1 348 1 is_stmt 1 view -0
 389              		.cfi_startproc
 390              		@ args = 0, pretend = 0, frame = 0
 391              		@ frame_needed = 0, uses_anonymous_args = 0
 392              		@ link register save eliminated.
 349:../../Drivers/STM32H7xx_HAL_Driver/Src/stm32h7xx_hal.c ****   return uwTickPrio;
 393              		.loc 1 349 3 view .LVU87
 350:../../Drivers/STM32H7xx_HAL_Driver/Src/stm32h7xx_hal.c **** }
 394              		.loc 1 350 1 is_stmt 0 view .LVU88
 395 0000 014B     		ldr	r3, .L34
 396 0002 1868     		ldr	r0, [r3]
 397 0004 7047     		bx	lr
 398              	.L35:
ARM GAS  C:\Users\minis\AppData\Local\Temp\ccPvto3C.s 			page 15


 399 0006 00BF     		.align	2
 400              	.L34:
 401 0008 00000000 		.word	uwTickPrio
 402              		.cfi_endproc
 403              	.LFE151:
 405              		.section	.text.HAL_SetTickFreq,"ax",%progbits
 406              		.align	1
 407              		.global	HAL_SetTickFreq
 408              		.syntax unified
 409              		.thumb
 410              		.thumb_func
 412              	HAL_SetTickFreq:
 413              	.LVL14:
 414              	.LFB152:
 351:../../Drivers/STM32H7xx_HAL_Driver/Src/stm32h7xx_hal.c **** 
 352:../../Drivers/STM32H7xx_HAL_Driver/Src/stm32h7xx_hal.c **** /**
 353:../../Drivers/STM32H7xx_HAL_Driver/Src/stm32h7xx_hal.c ****   * @brief Set new tick Freq.
 354:../../Drivers/STM32H7xx_HAL_Driver/Src/stm32h7xx_hal.c ****   * @retval Status
 355:../../Drivers/STM32H7xx_HAL_Driver/Src/stm32h7xx_hal.c ****   */
 356:../../Drivers/STM32H7xx_HAL_Driver/Src/stm32h7xx_hal.c **** HAL_StatusTypeDef HAL_SetTickFreq(HAL_TickFreqTypeDef Freq)
 357:../../Drivers/STM32H7xx_HAL_Driver/Src/stm32h7xx_hal.c **** {
 415              		.loc 1 357 1 is_stmt 1 view -0
 416              		.cfi_startproc
 417              		@ args = 0, pretend = 0, frame = 0
 418              		@ frame_needed = 0, uses_anonymous_args = 0
 419              		.loc 1 357 1 is_stmt 0 view .LVU90
 420 0000 10B5     		push	{r4, lr}
 421              	.LCFI3:
 422              		.cfi_def_cfa_offset 8
 423              		.cfi_offset 4, -8
 424              		.cfi_offset 14, -4
 358:../../Drivers/STM32H7xx_HAL_Driver/Src/stm32h7xx_hal.c ****   HAL_StatusTypeDef status  = HAL_OK;
 425              		.loc 1 358 3 is_stmt 1 view .LVU91
 426              	.LVL15:
 359:../../Drivers/STM32H7xx_HAL_Driver/Src/stm32h7xx_hal.c ****   HAL_TickFreqTypeDef prevTickFreq;
 427              		.loc 1 359 3 view .LVU92
 360:../../Drivers/STM32H7xx_HAL_Driver/Src/stm32h7xx_hal.c **** 
 361:../../Drivers/STM32H7xx_HAL_Driver/Src/stm32h7xx_hal.c ****   assert_param(IS_TICKFREQ(Freq));
 428              		.loc 1 361 3 view .LVU93
 362:../../Drivers/STM32H7xx_HAL_Driver/Src/stm32h7xx_hal.c **** 
 363:../../Drivers/STM32H7xx_HAL_Driver/Src/stm32h7xx_hal.c ****   if (uwTickFreq != Freq)
 429              		.loc 1 363 3 view .LVU94
 430              		.loc 1 363 18 is_stmt 0 view .LVU95
 431 0002 084B     		ldr	r3, .L41
 432 0004 1C78     		ldrb	r4, [r3]	@ zero_extendqisi2
 433              		.loc 1 363 6 view .LVU96
 434 0006 8442     		cmp	r4, r0
 435 0008 01D1     		bne	.L40
 358:../../Drivers/STM32H7xx_HAL_Driver/Src/stm32h7xx_hal.c ****   HAL_TickFreqTypeDef prevTickFreq;
 436              		.loc 1 358 21 view .LVU97
 437 000a 0020     		movs	r0, #0
 438              	.LVL16:
 439              	.L37:
 364:../../Drivers/STM32H7xx_HAL_Driver/Src/stm32h7xx_hal.c ****   {
 365:../../Drivers/STM32H7xx_HAL_Driver/Src/stm32h7xx_hal.c **** 
 366:../../Drivers/STM32H7xx_HAL_Driver/Src/stm32h7xx_hal.c ****     /* Back up uwTickFreq frequency */
 367:../../Drivers/STM32H7xx_HAL_Driver/Src/stm32h7xx_hal.c ****     prevTickFreq = uwTickFreq;
ARM GAS  C:\Users\minis\AppData\Local\Temp\ccPvto3C.s 			page 16


 368:../../Drivers/STM32H7xx_HAL_Driver/Src/stm32h7xx_hal.c **** 
 369:../../Drivers/STM32H7xx_HAL_Driver/Src/stm32h7xx_hal.c ****     /* Update uwTickFreq global variable used by HAL_InitTick() */
 370:../../Drivers/STM32H7xx_HAL_Driver/Src/stm32h7xx_hal.c ****     uwTickFreq = Freq;
 371:../../Drivers/STM32H7xx_HAL_Driver/Src/stm32h7xx_hal.c **** 
 372:../../Drivers/STM32H7xx_HAL_Driver/Src/stm32h7xx_hal.c ****     /* Apply the new tick Freq  */
 373:../../Drivers/STM32H7xx_HAL_Driver/Src/stm32h7xx_hal.c ****     status = HAL_InitTick(uwTickPrio);
 374:../../Drivers/STM32H7xx_HAL_Driver/Src/stm32h7xx_hal.c ****     if (status != HAL_OK)
 375:../../Drivers/STM32H7xx_HAL_Driver/Src/stm32h7xx_hal.c ****     {
 376:../../Drivers/STM32H7xx_HAL_Driver/Src/stm32h7xx_hal.c ****       /* Restore previous tick frequency */
 377:../../Drivers/STM32H7xx_HAL_Driver/Src/stm32h7xx_hal.c ****       uwTickFreq = prevTickFreq;
 378:../../Drivers/STM32H7xx_HAL_Driver/Src/stm32h7xx_hal.c ****     }
 379:../../Drivers/STM32H7xx_HAL_Driver/Src/stm32h7xx_hal.c ****   }
 380:../../Drivers/STM32H7xx_HAL_Driver/Src/stm32h7xx_hal.c **** 
 381:../../Drivers/STM32H7xx_HAL_Driver/Src/stm32h7xx_hal.c ****   return status;
 440              		.loc 1 381 3 is_stmt 1 view .LVU98
 382:../../Drivers/STM32H7xx_HAL_Driver/Src/stm32h7xx_hal.c **** }
 441              		.loc 1 382 1 is_stmt 0 view .LVU99
 442 000c 10BD     		pop	{r4, pc}
 443              	.LVL17:
 444              	.L40:
 367:../../Drivers/STM32H7xx_HAL_Driver/Src/stm32h7xx_hal.c **** 
 445              		.loc 1 367 5 is_stmt 1 view .LVU100
 370:../../Drivers/STM32H7xx_HAL_Driver/Src/stm32h7xx_hal.c **** 
 446              		.loc 1 370 5 view .LVU101
 370:../../Drivers/STM32H7xx_HAL_Driver/Src/stm32h7xx_hal.c **** 
 447              		.loc 1 370 16 is_stmt 0 view .LVU102
 448 000e 1870     		strb	r0, [r3]
 373:../../Drivers/STM32H7xx_HAL_Driver/Src/stm32h7xx_hal.c ****     if (status != HAL_OK)
 449              		.loc 1 373 5 is_stmt 1 view .LVU103
 373:../../Drivers/STM32H7xx_HAL_Driver/Src/stm32h7xx_hal.c ****     if (status != HAL_OK)
 450              		.loc 1 373 14 is_stmt 0 view .LVU104
 451 0010 054B     		ldr	r3, .L41+4
 452 0012 1868     		ldr	r0, [r3]
 453              	.LVL18:
 373:../../Drivers/STM32H7xx_HAL_Driver/Src/stm32h7xx_hal.c ****     if (status != HAL_OK)
 454              		.loc 1 373 14 view .LVU105
 455 0014 FFF7FEFF 		bl	HAL_InitTick
 456              	.LVL19:
 374:../../Drivers/STM32H7xx_HAL_Driver/Src/stm32h7xx_hal.c ****     {
 457              		.loc 1 374 5 is_stmt 1 view .LVU106
 374:../../Drivers/STM32H7xx_HAL_Driver/Src/stm32h7xx_hal.c ****     {
 458              		.loc 1 374 8 is_stmt 0 view .LVU107
 459 0018 0028     		cmp	r0, #0
 460 001a F7D0     		beq	.L37
 377:../../Drivers/STM32H7xx_HAL_Driver/Src/stm32h7xx_hal.c ****     }
 461              		.loc 1 377 7 is_stmt 1 view .LVU108
 377:../../Drivers/STM32H7xx_HAL_Driver/Src/stm32h7xx_hal.c ****     }
 462              		.loc 1 377 18 is_stmt 0 view .LVU109
 463 001c 014B     		ldr	r3, .L41
 464 001e 1C70     		strb	r4, [r3]
 465 0020 F4E7     		b	.L37
 466              	.L42:
 467 0022 00BF     		.align	2
 468              	.L41:
 469 0024 00000000 		.word	uwTickFreq
 470 0028 00000000 		.word	uwTickPrio
 471              		.cfi_endproc
ARM GAS  C:\Users\minis\AppData\Local\Temp\ccPvto3C.s 			page 17


 472              	.LFE152:
 474              		.section	.text.HAL_GetTickFreq,"ax",%progbits
 475              		.align	1
 476              		.global	HAL_GetTickFreq
 477              		.syntax unified
 478              		.thumb
 479              		.thumb_func
 481              	HAL_GetTickFreq:
 482              	.LFB153:
 383:../../Drivers/STM32H7xx_HAL_Driver/Src/stm32h7xx_hal.c **** 
 384:../../Drivers/STM32H7xx_HAL_Driver/Src/stm32h7xx_hal.c **** /**
 385:../../Drivers/STM32H7xx_HAL_Driver/Src/stm32h7xx_hal.c ****   * @brief Return tick frequency.
 386:../../Drivers/STM32H7xx_HAL_Driver/Src/stm32h7xx_hal.c ****   * @retval Tick frequency.
 387:../../Drivers/STM32H7xx_HAL_Driver/Src/stm32h7xx_hal.c ****   *         Value of @ref HAL_TickFreqTypeDef.
 388:../../Drivers/STM32H7xx_HAL_Driver/Src/stm32h7xx_hal.c ****   */
 389:../../Drivers/STM32H7xx_HAL_Driver/Src/stm32h7xx_hal.c **** HAL_TickFreqTypeDef HAL_GetTickFreq(void)
 390:../../Drivers/STM32H7xx_HAL_Driver/Src/stm32h7xx_hal.c **** {
 483              		.loc 1 390 1 is_stmt 1 view -0
 484              		.cfi_startproc
 485              		@ args = 0, pretend = 0, frame = 0
 486              		@ frame_needed = 0, uses_anonymous_args = 0
 487              		@ link register save eliminated.
 391:../../Drivers/STM32H7xx_HAL_Driver/Src/stm32h7xx_hal.c ****   return uwTickFreq;
 488              		.loc 1 391 3 view .LVU111
 392:../../Drivers/STM32H7xx_HAL_Driver/Src/stm32h7xx_hal.c **** }
 489              		.loc 1 392 1 is_stmt 0 view .LVU112
 490 0000 014B     		ldr	r3, .L44
 491 0002 1878     		ldrb	r0, [r3]	@ zero_extendqisi2
 492 0004 7047     		bx	lr
 493              	.L45:
 494 0006 00BF     		.align	2
 495              	.L44:
 496 0008 00000000 		.word	uwTickFreq
 497              		.cfi_endproc
 498              	.LFE153:
 500              		.section	.text.HAL_Delay,"ax",%progbits
 501              		.align	1
 502              		.weak	HAL_Delay
 503              		.syntax unified
 504              		.thumb
 505              		.thumb_func
 507              	HAL_Delay:
 508              	.LVL20:
 509              	.LFB154:
 393:../../Drivers/STM32H7xx_HAL_Driver/Src/stm32h7xx_hal.c **** 
 394:../../Drivers/STM32H7xx_HAL_Driver/Src/stm32h7xx_hal.c **** /**
 395:../../Drivers/STM32H7xx_HAL_Driver/Src/stm32h7xx_hal.c ****   * @brief This function provides minimum delay (in milliseconds) based
 396:../../Drivers/STM32H7xx_HAL_Driver/Src/stm32h7xx_hal.c ****   *        on variable incremented.
 397:../../Drivers/STM32H7xx_HAL_Driver/Src/stm32h7xx_hal.c ****   * @note In the default implementation , SysTick timer is the source of time base.
 398:../../Drivers/STM32H7xx_HAL_Driver/Src/stm32h7xx_hal.c ****   *       It is used to generate interrupts at regular time intervals where uwTick
 399:../../Drivers/STM32H7xx_HAL_Driver/Src/stm32h7xx_hal.c ****   *       is incremented.
 400:../../Drivers/STM32H7xx_HAL_Driver/Src/stm32h7xx_hal.c ****   * @note This function is declared as __weak to be overwritten in case of other
 401:../../Drivers/STM32H7xx_HAL_Driver/Src/stm32h7xx_hal.c ****   *       implementations in user file.
 402:../../Drivers/STM32H7xx_HAL_Driver/Src/stm32h7xx_hal.c ****   * @param Delay  specifies the delay time length, in milliseconds.
 403:../../Drivers/STM32H7xx_HAL_Driver/Src/stm32h7xx_hal.c ****   * @retval None
 404:../../Drivers/STM32H7xx_HAL_Driver/Src/stm32h7xx_hal.c ****   */
 405:../../Drivers/STM32H7xx_HAL_Driver/Src/stm32h7xx_hal.c **** __weak void HAL_Delay(uint32_t Delay)
ARM GAS  C:\Users\minis\AppData\Local\Temp\ccPvto3C.s 			page 18


 406:../../Drivers/STM32H7xx_HAL_Driver/Src/stm32h7xx_hal.c **** {
 510              		.loc 1 406 1 is_stmt 1 view -0
 511              		.cfi_startproc
 512              		@ args = 0, pretend = 0, frame = 0
 513              		@ frame_needed = 0, uses_anonymous_args = 0
 514              		.loc 1 406 1 is_stmt 0 view .LVU114
 515 0000 38B5     		push	{r3, r4, r5, lr}
 516              	.LCFI4:
 517              		.cfi_def_cfa_offset 16
 518              		.cfi_offset 3, -16
 519              		.cfi_offset 4, -12
 520              		.cfi_offset 5, -8
 521              		.cfi_offset 14, -4
 522 0002 0446     		mov	r4, r0
 407:../../Drivers/STM32H7xx_HAL_Driver/Src/stm32h7xx_hal.c ****   uint32_t tickstart = HAL_GetTick();
 523              		.loc 1 407 3 is_stmt 1 view .LVU115
 524              		.loc 1 407 24 is_stmt 0 view .LVU116
 525 0004 FFF7FEFF 		bl	HAL_GetTick
 526              	.LVL21:
 527              		.loc 1 407 24 view .LVU117
 528 0008 0546     		mov	r5, r0
 529              	.LVL22:
 408:../../Drivers/STM32H7xx_HAL_Driver/Src/stm32h7xx_hal.c ****   uint32_t wait = Delay;
 530              		.loc 1 408 3 is_stmt 1 view .LVU118
 409:../../Drivers/STM32H7xx_HAL_Driver/Src/stm32h7xx_hal.c **** 
 410:../../Drivers/STM32H7xx_HAL_Driver/Src/stm32h7xx_hal.c ****   /* Add a freq to guarantee minimum wait */
 411:../../Drivers/STM32H7xx_HAL_Driver/Src/stm32h7xx_hal.c ****   if (wait < HAL_MAX_DELAY)
 531              		.loc 1 411 3 view .LVU119
 532              		.loc 1 411 6 is_stmt 0 view .LVU120
 533 000a B4F1FF3F 		cmp	r4, #-1
 534 000e 02D0     		beq	.L48
 412:../../Drivers/STM32H7xx_HAL_Driver/Src/stm32h7xx_hal.c ****   {
 413:../../Drivers/STM32H7xx_HAL_Driver/Src/stm32h7xx_hal.c ****     wait += (uint32_t)(uwTickFreq);
 535              		.loc 1 413 5 is_stmt 1 view .LVU121
 536              		.loc 1 413 13 is_stmt 0 view .LVU122
 537 0010 044B     		ldr	r3, .L50
 538 0012 1B78     		ldrb	r3, [r3]	@ zero_extendqisi2
 539              		.loc 1 413 10 view .LVU123
 540 0014 1C44     		add	r4, r4, r3
 541              	.LVL23:
 542              	.L48:
 414:../../Drivers/STM32H7xx_HAL_Driver/Src/stm32h7xx_hal.c ****   }
 415:../../Drivers/STM32H7xx_HAL_Driver/Src/stm32h7xx_hal.c **** 
 416:../../Drivers/STM32H7xx_HAL_Driver/Src/stm32h7xx_hal.c ****   while ((HAL_GetTick() - tickstart) < wait)
 417:../../Drivers/STM32H7xx_HAL_Driver/Src/stm32h7xx_hal.c ****   {
 418:../../Drivers/STM32H7xx_HAL_Driver/Src/stm32h7xx_hal.c ****   }
 543              		.loc 1 418 3 is_stmt 1 view .LVU124
 416:../../Drivers/STM32H7xx_HAL_Driver/Src/stm32h7xx_hal.c ****   {
 544              		.loc 1 416 38 discriminator 1 view .LVU125
 416:../../Drivers/STM32H7xx_HAL_Driver/Src/stm32h7xx_hal.c ****   {
 545              		.loc 1 416 11 is_stmt 0 discriminator 1 view .LVU126
 546 0016 FFF7FEFF 		bl	HAL_GetTick
 547              	.LVL24:
 416:../../Drivers/STM32H7xx_HAL_Driver/Src/stm32h7xx_hal.c ****   {
 548              		.loc 1 416 25 discriminator 1 view .LVU127
 549 001a 401B     		subs	r0, r0, r5
 416:../../Drivers/STM32H7xx_HAL_Driver/Src/stm32h7xx_hal.c ****   {
ARM GAS  C:\Users\minis\AppData\Local\Temp\ccPvto3C.s 			page 19


 550              		.loc 1 416 38 discriminator 1 view .LVU128
 551 001c A042     		cmp	r0, r4
 552 001e FAD3     		bcc	.L48
 419:../../Drivers/STM32H7xx_HAL_Driver/Src/stm32h7xx_hal.c **** }
 553              		.loc 1 419 1 view .LVU129
 554 0020 38BD     		pop	{r3, r4, r5, pc}
 555              	.LVL25:
 556              	.L51:
 557              		.loc 1 419 1 view .LVU130
 558 0022 00BF     		.align	2
 559              	.L50:
 560 0024 00000000 		.word	uwTickFreq
 561              		.cfi_endproc
 562              	.LFE154:
 564              		.section	.text.HAL_SuspendTick,"ax",%progbits
 565              		.align	1
 566              		.weak	HAL_SuspendTick
 567              		.syntax unified
 568              		.thumb
 569              		.thumb_func
 571              	HAL_SuspendTick:
 572              	.LFB155:
 420:../../Drivers/STM32H7xx_HAL_Driver/Src/stm32h7xx_hal.c **** 
 421:../../Drivers/STM32H7xx_HAL_Driver/Src/stm32h7xx_hal.c **** /**
 422:../../Drivers/STM32H7xx_HAL_Driver/Src/stm32h7xx_hal.c ****   * @brief Suspend Tick increment.
 423:../../Drivers/STM32H7xx_HAL_Driver/Src/stm32h7xx_hal.c ****   * @note In the default implementation , SysTick timer is the source of time base. It is
 424:../../Drivers/STM32H7xx_HAL_Driver/Src/stm32h7xx_hal.c ****   *       used to generate interrupts at regular time intervals. Once HAL_SuspendTick()
 425:../../Drivers/STM32H7xx_HAL_Driver/Src/stm32h7xx_hal.c ****   *       is called, the SysTick interrupt will be disabled and so Tick increment
 426:../../Drivers/STM32H7xx_HAL_Driver/Src/stm32h7xx_hal.c ****   *       is suspended.
 427:../../Drivers/STM32H7xx_HAL_Driver/Src/stm32h7xx_hal.c ****   * @note This function is declared as __weak to be overwritten in case of other
 428:../../Drivers/STM32H7xx_HAL_Driver/Src/stm32h7xx_hal.c ****   *       implementations in user file.
 429:../../Drivers/STM32H7xx_HAL_Driver/Src/stm32h7xx_hal.c ****   * @retval None
 430:../../Drivers/STM32H7xx_HAL_Driver/Src/stm32h7xx_hal.c ****   */
 431:../../Drivers/STM32H7xx_HAL_Driver/Src/stm32h7xx_hal.c **** __weak void HAL_SuspendTick(void)
 432:../../Drivers/STM32H7xx_HAL_Driver/Src/stm32h7xx_hal.c **** {
 573              		.loc 1 432 1 is_stmt 1 view -0
 574              		.cfi_startproc
 575              		@ args = 0, pretend = 0, frame = 0
 576              		@ frame_needed = 0, uses_anonymous_args = 0
 577              		@ link register save eliminated.
 433:../../Drivers/STM32H7xx_HAL_Driver/Src/stm32h7xx_hal.c ****   /* Disable SysTick Interrupt */
 434:../../Drivers/STM32H7xx_HAL_Driver/Src/stm32h7xx_hal.c ****   SysTick->CTRL &= ~SysTick_CTRL_TICKINT_Msk;
 578              		.loc 1 434 3 view .LVU132
 579              		.loc 1 434 10 is_stmt 0 view .LVU133
 580 0000 4FF0E022 		mov	r2, #-536813568
 581 0004 1369     		ldr	r3, [r2, #16]
 582              		.loc 1 434 17 view .LVU134
 583 0006 23F00203 		bic	r3, r3, #2
 584 000a 1361     		str	r3, [r2, #16]
 435:../../Drivers/STM32H7xx_HAL_Driver/Src/stm32h7xx_hal.c **** }
 585              		.loc 1 435 1 view .LVU135
 586 000c 7047     		bx	lr
 587              		.cfi_endproc
 588              	.LFE155:
 590              		.section	.text.HAL_ResumeTick,"ax",%progbits
 591              		.align	1
 592              		.weak	HAL_ResumeTick
ARM GAS  C:\Users\minis\AppData\Local\Temp\ccPvto3C.s 			page 20


 593              		.syntax unified
 594              		.thumb
 595              		.thumb_func
 597              	HAL_ResumeTick:
 598              	.LFB156:
 436:../../Drivers/STM32H7xx_HAL_Driver/Src/stm32h7xx_hal.c **** 
 437:../../Drivers/STM32H7xx_HAL_Driver/Src/stm32h7xx_hal.c **** /**
 438:../../Drivers/STM32H7xx_HAL_Driver/Src/stm32h7xx_hal.c ****   * @brief Resume Tick increment.
 439:../../Drivers/STM32H7xx_HAL_Driver/Src/stm32h7xx_hal.c ****   * @note In the default implementation , SysTick timer is the source of time base. It is
 440:../../Drivers/STM32H7xx_HAL_Driver/Src/stm32h7xx_hal.c ****   *       used to generate interrupts at regular time intervals. Once HAL_ResumeTick()
 441:../../Drivers/STM32H7xx_HAL_Driver/Src/stm32h7xx_hal.c ****   *       is called, the SysTick interrupt will be enabled and so Tick increment
 442:../../Drivers/STM32H7xx_HAL_Driver/Src/stm32h7xx_hal.c ****   *       is resumed.
 443:../../Drivers/STM32H7xx_HAL_Driver/Src/stm32h7xx_hal.c ****   * @note This function is declared as __weak to be overwritten in case of other
 444:../../Drivers/STM32H7xx_HAL_Driver/Src/stm32h7xx_hal.c ****   *       implementations in user file.
 445:../../Drivers/STM32H7xx_HAL_Driver/Src/stm32h7xx_hal.c ****   * @retval None
 446:../../Drivers/STM32H7xx_HAL_Driver/Src/stm32h7xx_hal.c ****   */
 447:../../Drivers/STM32H7xx_HAL_Driver/Src/stm32h7xx_hal.c **** __weak void HAL_ResumeTick(void)
 448:../../Drivers/STM32H7xx_HAL_Driver/Src/stm32h7xx_hal.c **** {
 599              		.loc 1 448 1 is_stmt 1 view -0
 600              		.cfi_startproc
 601              		@ args = 0, pretend = 0, frame = 0
 602              		@ frame_needed = 0, uses_anonymous_args = 0
 603              		@ link register save eliminated.
 449:../../Drivers/STM32H7xx_HAL_Driver/Src/stm32h7xx_hal.c ****   /* Enable SysTick Interrupt */
 450:../../Drivers/STM32H7xx_HAL_Driver/Src/stm32h7xx_hal.c ****   SysTick->CTRL  |= SysTick_CTRL_TICKINT_Msk;
 604              		.loc 1 450 3 view .LVU137
 605              		.loc 1 450 10 is_stmt 0 view .LVU138
 606 0000 4FF0E022 		mov	r2, #-536813568
 607 0004 1369     		ldr	r3, [r2, #16]
 608              		.loc 1 450 18 view .LVU139
 609 0006 43F00203 		orr	r3, r3, #2
 610 000a 1361     		str	r3, [r2, #16]
 451:../../Drivers/STM32H7xx_HAL_Driver/Src/stm32h7xx_hal.c **** }
 611              		.loc 1 451 1 view .LVU140
 612 000c 7047     		bx	lr
 613              		.cfi_endproc
 614              	.LFE156:
 616              		.section	.text.HAL_GetHalVersion,"ax",%progbits
 617              		.align	1
 618              		.global	HAL_GetHalVersion
 619              		.syntax unified
 620              		.thumb
 621              		.thumb_func
 623              	HAL_GetHalVersion:
 624              	.LFB157:
 452:../../Drivers/STM32H7xx_HAL_Driver/Src/stm32h7xx_hal.c **** 
 453:../../Drivers/STM32H7xx_HAL_Driver/Src/stm32h7xx_hal.c **** /**
 454:../../Drivers/STM32H7xx_HAL_Driver/Src/stm32h7xx_hal.c ****   * @brief  Returns the HAL revision
 455:../../Drivers/STM32H7xx_HAL_Driver/Src/stm32h7xx_hal.c ****   * @retval version : 0xXYZR (8bits for each decimal, R for RC)
 456:../../Drivers/STM32H7xx_HAL_Driver/Src/stm32h7xx_hal.c ****   */
 457:../../Drivers/STM32H7xx_HAL_Driver/Src/stm32h7xx_hal.c **** uint32_t HAL_GetHalVersion(void)
 458:../../Drivers/STM32H7xx_HAL_Driver/Src/stm32h7xx_hal.c **** {
 625              		.loc 1 458 1 is_stmt 1 view -0
 626              		.cfi_startproc
 627              		@ args = 0, pretend = 0, frame = 0
 628              		@ frame_needed = 0, uses_anonymous_args = 0
 629              		@ link register save eliminated.
ARM GAS  C:\Users\minis\AppData\Local\Temp\ccPvto3C.s 			page 21


 459:../../Drivers/STM32H7xx_HAL_Driver/Src/stm32h7xx_hal.c ****  return __STM32H7xx_HAL_VERSION;
 630              		.loc 1 459 2 view .LVU142
 460:../../Drivers/STM32H7xx_HAL_Driver/Src/stm32h7xx_hal.c **** }
 631              		.loc 1 460 1 is_stmt 0 view .LVU143
 632 0000 0048     		ldr	r0, .L55
 633 0002 7047     		bx	lr
 634              	.L56:
 635              		.align	2
 636              	.L55:
 637 0004 00050B01 		.word	17499392
 638              		.cfi_endproc
 639              	.LFE157:
 641              		.section	.text.HAL_GetREVID,"ax",%progbits
 642              		.align	1
 643              		.global	HAL_GetREVID
 644              		.syntax unified
 645              		.thumb
 646              		.thumb_func
 648              	HAL_GetREVID:
 649              	.LFB158:
 461:../../Drivers/STM32H7xx_HAL_Driver/Src/stm32h7xx_hal.c **** 
 462:../../Drivers/STM32H7xx_HAL_Driver/Src/stm32h7xx_hal.c **** /**
 463:../../Drivers/STM32H7xx_HAL_Driver/Src/stm32h7xx_hal.c ****   * @brief  Returns the device revision identifier.
 464:../../Drivers/STM32H7xx_HAL_Driver/Src/stm32h7xx_hal.c ****   * @retval Device revision identifier
 465:../../Drivers/STM32H7xx_HAL_Driver/Src/stm32h7xx_hal.c ****   */
 466:../../Drivers/STM32H7xx_HAL_Driver/Src/stm32h7xx_hal.c **** uint32_t HAL_GetREVID(void)
 467:../../Drivers/STM32H7xx_HAL_Driver/Src/stm32h7xx_hal.c **** {
 650              		.loc 1 467 1 is_stmt 1 view -0
 651              		.cfi_startproc
 652              		@ args = 0, pretend = 0, frame = 0
 653              		@ frame_needed = 0, uses_anonymous_args = 0
 654              		@ link register save eliminated.
 468:../../Drivers/STM32H7xx_HAL_Driver/Src/stm32h7xx_hal.c ****    return((DBGMCU->IDCODE) >> 16);
 655              		.loc 1 468 4 view .LVU145
 656              		.loc 1 468 18 is_stmt 0 view .LVU146
 657 0000 014B     		ldr	r3, .L58
 658 0002 1868     		ldr	r0, [r3]
 469:../../Drivers/STM32H7xx_HAL_Driver/Src/stm32h7xx_hal.c **** }
 659              		.loc 1 469 1 view .LVU147
 660 0004 000C     		lsrs	r0, r0, #16
 661 0006 7047     		bx	lr
 662              	.L59:
 663              		.align	2
 664              	.L58:
 665 0008 0010005C 		.word	1543507968
 666              		.cfi_endproc
 667              	.LFE158:
 669              		.section	.text.HAL_GetDEVID,"ax",%progbits
 670              		.align	1
 671              		.global	HAL_GetDEVID
 672              		.syntax unified
 673              		.thumb
 674              		.thumb_func
 676              	HAL_GetDEVID:
 677              	.LFB159:
 470:../../Drivers/STM32H7xx_HAL_Driver/Src/stm32h7xx_hal.c **** 
 471:../../Drivers/STM32H7xx_HAL_Driver/Src/stm32h7xx_hal.c **** /**
ARM GAS  C:\Users\minis\AppData\Local\Temp\ccPvto3C.s 			page 22


 472:../../Drivers/STM32H7xx_HAL_Driver/Src/stm32h7xx_hal.c ****   * @brief  Returns the device identifier.
 473:../../Drivers/STM32H7xx_HAL_Driver/Src/stm32h7xx_hal.c ****   * @retval Device identifier
 474:../../Drivers/STM32H7xx_HAL_Driver/Src/stm32h7xx_hal.c ****   */
 475:../../Drivers/STM32H7xx_HAL_Driver/Src/stm32h7xx_hal.c **** uint32_t HAL_GetDEVID(void)
 476:../../Drivers/STM32H7xx_HAL_Driver/Src/stm32h7xx_hal.c **** {
 678              		.loc 1 476 1 is_stmt 1 view -0
 679              		.cfi_startproc
 680              		@ args = 0, pretend = 0, frame = 0
 681              		@ frame_needed = 0, uses_anonymous_args = 0
 682              		@ link register save eliminated.
 477:../../Drivers/STM32H7xx_HAL_Driver/Src/stm32h7xx_hal.c ****    return((DBGMCU->IDCODE) & IDCODE_DEVID_MASK);
 683              		.loc 1 477 4 view .LVU149
 684              		.loc 1 477 18 is_stmt 0 view .LVU150
 685 0000 024B     		ldr	r3, .L61
 686 0002 1868     		ldr	r0, [r3]
 478:../../Drivers/STM32H7xx_HAL_Driver/Src/stm32h7xx_hal.c **** }
 687              		.loc 1 478 1 view .LVU151
 688 0004 C0F30B00 		ubfx	r0, r0, #0, #12
 689 0008 7047     		bx	lr
 690              	.L62:
 691 000a 00BF     		.align	2
 692              	.L61:
 693 000c 0010005C 		.word	1543507968
 694              		.cfi_endproc
 695              	.LFE159:
 697              		.section	.text.HAL_GetUIDw0,"ax",%progbits
 698              		.align	1
 699              		.global	HAL_GetUIDw0
 700              		.syntax unified
 701              		.thumb
 702              		.thumb_func
 704              	HAL_GetUIDw0:
 705              	.LFB160:
 479:../../Drivers/STM32H7xx_HAL_Driver/Src/stm32h7xx_hal.c **** 
 480:../../Drivers/STM32H7xx_HAL_Driver/Src/stm32h7xx_hal.c **** /**
 481:../../Drivers/STM32H7xx_HAL_Driver/Src/stm32h7xx_hal.c ****   * @brief  Return the first word of the unique device identifier (UID based on 96 bits)
 482:../../Drivers/STM32H7xx_HAL_Driver/Src/stm32h7xx_hal.c ****   * @retval Device identifier
 483:../../Drivers/STM32H7xx_HAL_Driver/Src/stm32h7xx_hal.c ****   */
 484:../../Drivers/STM32H7xx_HAL_Driver/Src/stm32h7xx_hal.c **** uint32_t HAL_GetUIDw0(void)
 485:../../Drivers/STM32H7xx_HAL_Driver/Src/stm32h7xx_hal.c **** {
 706              		.loc 1 485 1 is_stmt 1 view -0
 707              		.cfi_startproc
 708              		@ args = 0, pretend = 0, frame = 0
 709              		@ frame_needed = 0, uses_anonymous_args = 0
 710              		@ link register save eliminated.
 486:../../Drivers/STM32H7xx_HAL_Driver/Src/stm32h7xx_hal.c ****   return(READ_REG(*((uint32_t *)UID_BASE)));
 711              		.loc 1 486 3 view .LVU153
 487:../../Drivers/STM32H7xx_HAL_Driver/Src/stm32h7xx_hal.c **** }
 712              		.loc 1 487 1 is_stmt 0 view .LVU154
 713 0000 014B     		ldr	r3, .L64
 714 0002 D3F80008 		ldr	r0, [r3, #2048]
 715 0006 7047     		bx	lr
 716              	.L65:
 717              		.align	2
 718              	.L64:
 719 0008 00E0F11F 		.word	535945216
 720              		.cfi_endproc
ARM GAS  C:\Users\minis\AppData\Local\Temp\ccPvto3C.s 			page 23


 721              	.LFE160:
 723              		.section	.text.HAL_GetUIDw1,"ax",%progbits
 724              		.align	1
 725              		.global	HAL_GetUIDw1
 726              		.syntax unified
 727              		.thumb
 728              		.thumb_func
 730              	HAL_GetUIDw1:
 731              	.LFB161:
 488:../../Drivers/STM32H7xx_HAL_Driver/Src/stm32h7xx_hal.c **** 
 489:../../Drivers/STM32H7xx_HAL_Driver/Src/stm32h7xx_hal.c **** /**
 490:../../Drivers/STM32H7xx_HAL_Driver/Src/stm32h7xx_hal.c ****   * @brief  Return the second word of the unique device identifier (UID based on 96 bits)
 491:../../Drivers/STM32H7xx_HAL_Driver/Src/stm32h7xx_hal.c ****   * @retval Device identifier
 492:../../Drivers/STM32H7xx_HAL_Driver/Src/stm32h7xx_hal.c ****   */
 493:../../Drivers/STM32H7xx_HAL_Driver/Src/stm32h7xx_hal.c **** uint32_t HAL_GetUIDw1(void)
 494:../../Drivers/STM32H7xx_HAL_Driver/Src/stm32h7xx_hal.c **** {
 732              		.loc 1 494 1 is_stmt 1 view -0
 733              		.cfi_startproc
 734              		@ args = 0, pretend = 0, frame = 0
 735              		@ frame_needed = 0, uses_anonymous_args = 0
 736              		@ link register save eliminated.
 495:../../Drivers/STM32H7xx_HAL_Driver/Src/stm32h7xx_hal.c ****   return(READ_REG(*((uint32_t *)(UID_BASE + 4U))));
 737              		.loc 1 495 3 view .LVU156
 496:../../Drivers/STM32H7xx_HAL_Driver/Src/stm32h7xx_hal.c **** }
 738              		.loc 1 496 1 is_stmt 0 view .LVU157
 739 0000 014B     		ldr	r3, .L67
 740 0002 D3F80408 		ldr	r0, [r3, #2052]
 741 0006 7047     		bx	lr
 742              	.L68:
 743              		.align	2
 744              	.L67:
 745 0008 00E0F11F 		.word	535945216
 746              		.cfi_endproc
 747              	.LFE161:
 749              		.section	.text.HAL_GetUIDw2,"ax",%progbits
 750              		.align	1
 751              		.global	HAL_GetUIDw2
 752              		.syntax unified
 753              		.thumb
 754              		.thumb_func
 756              	HAL_GetUIDw2:
 757              	.LFB162:
 497:../../Drivers/STM32H7xx_HAL_Driver/Src/stm32h7xx_hal.c **** 
 498:../../Drivers/STM32H7xx_HAL_Driver/Src/stm32h7xx_hal.c **** /**
 499:../../Drivers/STM32H7xx_HAL_Driver/Src/stm32h7xx_hal.c ****   * @brief  Return the third word of the unique device identifier (UID based on 96 bits)
 500:../../Drivers/STM32H7xx_HAL_Driver/Src/stm32h7xx_hal.c ****   * @retval Device identifier
 501:../../Drivers/STM32H7xx_HAL_Driver/Src/stm32h7xx_hal.c ****   */
 502:../../Drivers/STM32H7xx_HAL_Driver/Src/stm32h7xx_hal.c **** uint32_t HAL_GetUIDw2(void)
 503:../../Drivers/STM32H7xx_HAL_Driver/Src/stm32h7xx_hal.c **** {
 758              		.loc 1 503 1 is_stmt 1 view -0
 759              		.cfi_startproc
 760              		@ args = 0, pretend = 0, frame = 0
 761              		@ frame_needed = 0, uses_anonymous_args = 0
 762              		@ link register save eliminated.
 504:../../Drivers/STM32H7xx_HAL_Driver/Src/stm32h7xx_hal.c ****   return(READ_REG(*((uint32_t *)(UID_BASE + 8U))));
 763              		.loc 1 504 3 view .LVU159
 505:../../Drivers/STM32H7xx_HAL_Driver/Src/stm32h7xx_hal.c **** }
ARM GAS  C:\Users\minis\AppData\Local\Temp\ccPvto3C.s 			page 24


 764              		.loc 1 505 1 is_stmt 0 view .LVU160
 765 0000 014B     		ldr	r3, .L70
 766 0002 D3F80808 		ldr	r0, [r3, #2056]
 767 0006 7047     		bx	lr
 768              	.L71:
 769              		.align	2
 770              	.L70:
 771 0008 00E0F11F 		.word	535945216
 772              		.cfi_endproc
 773              	.LFE162:
 775              		.section	.text.HAL_SYSCFG_VREFBUF_VoltageScalingConfig,"ax",%progbits
 776              		.align	1
 777              		.global	HAL_SYSCFG_VREFBUF_VoltageScalingConfig
 778              		.syntax unified
 779              		.thumb
 780              		.thumb_func
 782              	HAL_SYSCFG_VREFBUF_VoltageScalingConfig:
 783              	.LVL26:
 784              	.LFB163:
 506:../../Drivers/STM32H7xx_HAL_Driver/Src/stm32h7xx_hal.c **** 
 507:../../Drivers/STM32H7xx_HAL_Driver/Src/stm32h7xx_hal.c **** /**
 508:../../Drivers/STM32H7xx_HAL_Driver/Src/stm32h7xx_hal.c ****   * @brief Configure the internal voltage reference buffer voltage scale.
 509:../../Drivers/STM32H7xx_HAL_Driver/Src/stm32h7xx_hal.c ****   * @param VoltageScaling  specifies the output voltage to achieve
 510:../../Drivers/STM32H7xx_HAL_Driver/Src/stm32h7xx_hal.c ****   *          This parameter can be one of the following values:
 511:../../Drivers/STM32H7xx_HAL_Driver/Src/stm32h7xx_hal.c ****   *            @arg SYSCFG_VREFBUF_VOLTAGE_SCALE0: VREF_OUT1 around 2.5 V.
 512:../../Drivers/STM32H7xx_HAL_Driver/Src/stm32h7xx_hal.c ****   *                                                This requires VDDA equal to or higher than 2.8 V
 513:../../Drivers/STM32H7xx_HAL_Driver/Src/stm32h7xx_hal.c ****   *            @arg SYSCFG_VREFBUF_VOLTAGE_SCALE1: VREF_OUT2 around 2.048 V.
 514:../../Drivers/STM32H7xx_HAL_Driver/Src/stm32h7xx_hal.c ****   *                                                This requires VDDA equal to or higher than 2.4 V
 515:../../Drivers/STM32H7xx_HAL_Driver/Src/stm32h7xx_hal.c ****   *            @arg SYSCFG_VREFBUF_VOLTAGE_SCALE2: VREF_OUT3 around 1.8 V.
 516:../../Drivers/STM32H7xx_HAL_Driver/Src/stm32h7xx_hal.c ****   *                                                This requires VDDA equal to or higher than 2.1 V
 517:../../Drivers/STM32H7xx_HAL_Driver/Src/stm32h7xx_hal.c ****   *            @arg SYSCFG_VREFBUF_VOLTAGE_SCALE3: VREF_OUT4 around 1.5 V.
 518:../../Drivers/STM32H7xx_HAL_Driver/Src/stm32h7xx_hal.c ****   *                                                This requires VDDA equal to or higher than 1.8 V
 519:../../Drivers/STM32H7xx_HAL_Driver/Src/stm32h7xx_hal.c ****   * @retval None
 520:../../Drivers/STM32H7xx_HAL_Driver/Src/stm32h7xx_hal.c ****   */
 521:../../Drivers/STM32H7xx_HAL_Driver/Src/stm32h7xx_hal.c **** void HAL_SYSCFG_VREFBUF_VoltageScalingConfig(uint32_t VoltageScaling)
 522:../../Drivers/STM32H7xx_HAL_Driver/Src/stm32h7xx_hal.c **** {
 785              		.loc 1 522 1 is_stmt 1 view -0
 786              		.cfi_startproc
 787              		@ args = 0, pretend = 0, frame = 0
 788              		@ frame_needed = 0, uses_anonymous_args = 0
 789              		@ link register save eliminated.
 523:../../Drivers/STM32H7xx_HAL_Driver/Src/stm32h7xx_hal.c ****   /* Check the parameters */
 524:../../Drivers/STM32H7xx_HAL_Driver/Src/stm32h7xx_hal.c ****   assert_param(IS_SYSCFG_VREFBUF_VOLTAGE_SCALE(VoltageScaling));
 790              		.loc 1 524 3 view .LVU162
 525:../../Drivers/STM32H7xx_HAL_Driver/Src/stm32h7xx_hal.c **** 
 526:../../Drivers/STM32H7xx_HAL_Driver/Src/stm32h7xx_hal.c ****   MODIFY_REG(VREFBUF->CSR, VREFBUF_CSR_VRS, VoltageScaling);
 791              		.loc 1 526 3 view .LVU163
 792 0000 034A     		ldr	r2, .L73
 793 0002 1368     		ldr	r3, [r2]
 794 0004 23F07003 		bic	r3, r3, #112
 795 0008 0343     		orrs	r3, r3, r0
 796 000a 1360     		str	r3, [r2]
 527:../../Drivers/STM32H7xx_HAL_Driver/Src/stm32h7xx_hal.c **** }
 797              		.loc 1 527 1 is_stmt 0 view .LVU164
 798 000c 7047     		bx	lr
 799              	.L74:
 800 000e 00BF     		.align	2
ARM GAS  C:\Users\minis\AppData\Local\Temp\ccPvto3C.s 			page 25


 801              	.L73:
 802 0010 003C0058 		.word	1476410368
 803              		.cfi_endproc
 804              	.LFE163:
 806              		.section	.text.HAL_SYSCFG_VREFBUF_HighImpedanceConfig,"ax",%progbits
 807              		.align	1
 808              		.global	HAL_SYSCFG_VREFBUF_HighImpedanceConfig
 809              		.syntax unified
 810              		.thumb
 811              		.thumb_func
 813              	HAL_SYSCFG_VREFBUF_HighImpedanceConfig:
 814              	.LVL27:
 815              	.LFB164:
 528:../../Drivers/STM32H7xx_HAL_Driver/Src/stm32h7xx_hal.c **** 
 529:../../Drivers/STM32H7xx_HAL_Driver/Src/stm32h7xx_hal.c **** /**
 530:../../Drivers/STM32H7xx_HAL_Driver/Src/stm32h7xx_hal.c ****   * @brief Configure the internal voltage reference buffer high impedance mode.
 531:../../Drivers/STM32H7xx_HAL_Driver/Src/stm32h7xx_hal.c ****   * @param Mode  specifies the high impedance mode
 532:../../Drivers/STM32H7xx_HAL_Driver/Src/stm32h7xx_hal.c ****   *          This parameter can be one of the following values:
 533:../../Drivers/STM32H7xx_HAL_Driver/Src/stm32h7xx_hal.c ****   *            @arg SYSCFG_VREFBUF_HIGH_IMPEDANCE_DISABLE: VREF+ pin is internally connect to VREFI
 534:../../Drivers/STM32H7xx_HAL_Driver/Src/stm32h7xx_hal.c ****   *            @arg SYSCFG_VREFBUF_HIGH_IMPEDANCE_ENABLE: VREF+ pin is high impedance.
 535:../../Drivers/STM32H7xx_HAL_Driver/Src/stm32h7xx_hal.c ****   * @retval None
 536:../../Drivers/STM32H7xx_HAL_Driver/Src/stm32h7xx_hal.c ****   */
 537:../../Drivers/STM32H7xx_HAL_Driver/Src/stm32h7xx_hal.c **** void HAL_SYSCFG_VREFBUF_HighImpedanceConfig(uint32_t Mode)
 538:../../Drivers/STM32H7xx_HAL_Driver/Src/stm32h7xx_hal.c **** {
 816              		.loc 1 538 1 is_stmt 1 view -0
 817              		.cfi_startproc
 818              		@ args = 0, pretend = 0, frame = 0
 819              		@ frame_needed = 0, uses_anonymous_args = 0
 820              		@ link register save eliminated.
 539:../../Drivers/STM32H7xx_HAL_Driver/Src/stm32h7xx_hal.c ****   /* Check the parameters */
 540:../../Drivers/STM32H7xx_HAL_Driver/Src/stm32h7xx_hal.c ****   assert_param(IS_SYSCFG_VREFBUF_HIGH_IMPEDANCE(Mode));
 821              		.loc 1 540 3 view .LVU166
 541:../../Drivers/STM32H7xx_HAL_Driver/Src/stm32h7xx_hal.c **** 
 542:../../Drivers/STM32H7xx_HAL_Driver/Src/stm32h7xx_hal.c ****   MODIFY_REG(VREFBUF->CSR, VREFBUF_CSR_HIZ, Mode);
 822              		.loc 1 542 3 view .LVU167
 823 0000 034A     		ldr	r2, .L76
 824 0002 1368     		ldr	r3, [r2]
 825 0004 23F00203 		bic	r3, r3, #2
 826 0008 0343     		orrs	r3, r3, r0
 827 000a 1360     		str	r3, [r2]
 543:../../Drivers/STM32H7xx_HAL_Driver/Src/stm32h7xx_hal.c **** }
 828              		.loc 1 543 1 is_stmt 0 view .LVU168
 829 000c 7047     		bx	lr
 830              	.L77:
 831 000e 00BF     		.align	2
 832              	.L76:
 833 0010 003C0058 		.word	1476410368
 834              		.cfi_endproc
 835              	.LFE164:
 837              		.section	.text.HAL_SYSCFG_VREFBUF_TrimmingConfig,"ax",%progbits
 838              		.align	1
 839              		.global	HAL_SYSCFG_VREFBUF_TrimmingConfig
 840              		.syntax unified
 841              		.thumb
 842              		.thumb_func
 844              	HAL_SYSCFG_VREFBUF_TrimmingConfig:
 845              	.LVL28:
ARM GAS  C:\Users\minis\AppData\Local\Temp\ccPvto3C.s 			page 26


 846              	.LFB165:
 544:../../Drivers/STM32H7xx_HAL_Driver/Src/stm32h7xx_hal.c **** 
 545:../../Drivers/STM32H7xx_HAL_Driver/Src/stm32h7xx_hal.c **** /**
 546:../../Drivers/STM32H7xx_HAL_Driver/Src/stm32h7xx_hal.c ****   * @brief  Tune the Internal Voltage Reference buffer (VREFBUF).
 547:../../Drivers/STM32H7xx_HAL_Driver/Src/stm32h7xx_hal.c ****   * @retval None
 548:../../Drivers/STM32H7xx_HAL_Driver/Src/stm32h7xx_hal.c ****   */
 549:../../Drivers/STM32H7xx_HAL_Driver/Src/stm32h7xx_hal.c **** void HAL_SYSCFG_VREFBUF_TrimmingConfig(uint32_t TrimmingValue)
 550:../../Drivers/STM32H7xx_HAL_Driver/Src/stm32h7xx_hal.c **** {
 847              		.loc 1 550 1 is_stmt 1 view -0
 848              		.cfi_startproc
 849              		@ args = 0, pretend = 0, frame = 0
 850              		@ frame_needed = 0, uses_anonymous_args = 0
 851              		@ link register save eliminated.
 551:../../Drivers/STM32H7xx_HAL_Driver/Src/stm32h7xx_hal.c ****   /* Check the parameters */
 552:../../Drivers/STM32H7xx_HAL_Driver/Src/stm32h7xx_hal.c ****   assert_param(IS_SYSCFG_VREFBUF_TRIMMING(TrimmingValue));
 852              		.loc 1 552 3 view .LVU170
 553:../../Drivers/STM32H7xx_HAL_Driver/Src/stm32h7xx_hal.c **** 
 554:../../Drivers/STM32H7xx_HAL_Driver/Src/stm32h7xx_hal.c ****   MODIFY_REG(VREFBUF->CCR, VREFBUF_CCR_TRIM, TrimmingValue);
 853              		.loc 1 554 3 view .LVU171
 854 0000 034A     		ldr	r2, .L79
 855 0002 5368     		ldr	r3, [r2, #4]
 856 0004 23F03F03 		bic	r3, r3, #63
 857 0008 0343     		orrs	r3, r3, r0
 858 000a 5360     		str	r3, [r2, #4]
 555:../../Drivers/STM32H7xx_HAL_Driver/Src/stm32h7xx_hal.c **** }
 859              		.loc 1 555 1 is_stmt 0 view .LVU172
 860 000c 7047     		bx	lr
 861              	.L80:
 862 000e 00BF     		.align	2
 863              	.L79:
 864 0010 003C0058 		.word	1476410368
 865              		.cfi_endproc
 866              	.LFE165:
 868              		.section	.text.HAL_SYSCFG_EnableVREFBUF,"ax",%progbits
 869              		.align	1
 870              		.global	HAL_SYSCFG_EnableVREFBUF
 871              		.syntax unified
 872              		.thumb
 873              		.thumb_func
 875              	HAL_SYSCFG_EnableVREFBUF:
 876              	.LFB166:
 556:../../Drivers/STM32H7xx_HAL_Driver/Src/stm32h7xx_hal.c **** 
 557:../../Drivers/STM32H7xx_HAL_Driver/Src/stm32h7xx_hal.c **** /**
 558:../../Drivers/STM32H7xx_HAL_Driver/Src/stm32h7xx_hal.c ****   * @brief  Enable the Internal Voltage Reference buffer (VREFBUF).
 559:../../Drivers/STM32H7xx_HAL_Driver/Src/stm32h7xx_hal.c ****   * @retval HAL_OK/HAL_TIMEOUT
 560:../../Drivers/STM32H7xx_HAL_Driver/Src/stm32h7xx_hal.c ****   */
 561:../../Drivers/STM32H7xx_HAL_Driver/Src/stm32h7xx_hal.c **** HAL_StatusTypeDef HAL_SYSCFG_EnableVREFBUF(void)
 562:../../Drivers/STM32H7xx_HAL_Driver/Src/stm32h7xx_hal.c **** {
 877              		.loc 1 562 1 is_stmt 1 view -0
 878              		.cfi_startproc
 879              		@ args = 0, pretend = 0, frame = 0
 880              		@ frame_needed = 0, uses_anonymous_args = 0
 881 0000 10B5     		push	{r4, lr}
 882              	.LCFI5:
 883              		.cfi_def_cfa_offset 8
 884              		.cfi_offset 4, -8
 885              		.cfi_offset 14, -4
ARM GAS  C:\Users\minis\AppData\Local\Temp\ccPvto3C.s 			page 27


 563:../../Drivers/STM32H7xx_HAL_Driver/Src/stm32h7xx_hal.c ****   uint32_t  tickstart;
 886              		.loc 1 563 3 view .LVU174
 564:../../Drivers/STM32H7xx_HAL_Driver/Src/stm32h7xx_hal.c **** 
 565:../../Drivers/STM32H7xx_HAL_Driver/Src/stm32h7xx_hal.c ****   SET_BIT(VREFBUF->CSR, VREFBUF_CSR_ENVR);
 887              		.loc 1 565 3 view .LVU175
 888 0002 0B4A     		ldr	r2, .L88
 889 0004 1368     		ldr	r3, [r2]
 890 0006 43F00103 		orr	r3, r3, #1
 891 000a 1360     		str	r3, [r2]
 566:../../Drivers/STM32H7xx_HAL_Driver/Src/stm32h7xx_hal.c **** 
 567:../../Drivers/STM32H7xx_HAL_Driver/Src/stm32h7xx_hal.c ****   /* Get Start Tick*/
 568:../../Drivers/STM32H7xx_HAL_Driver/Src/stm32h7xx_hal.c ****   tickstart = HAL_GetTick();
 892              		.loc 1 568 3 view .LVU176
 893              		.loc 1 568 15 is_stmt 0 view .LVU177
 894 000c FFF7FEFF 		bl	HAL_GetTick
 895              	.LVL29:
 896 0010 0446     		mov	r4, r0
 897              	.LVL30:
 569:../../Drivers/STM32H7xx_HAL_Driver/Src/stm32h7xx_hal.c **** 
 570:../../Drivers/STM32H7xx_HAL_Driver/Src/stm32h7xx_hal.c ****   /* Wait for VRR bit  */
 571:../../Drivers/STM32H7xx_HAL_Driver/Src/stm32h7xx_hal.c ****   while(READ_BIT(VREFBUF->CSR, VREFBUF_CSR_VRR) == 0UL)
 898              		.loc 1 571 3 is_stmt 1 view .LVU178
 899              	.L82:
 900              		.loc 1 571 49 view .LVU179
 901              		.loc 1 571 9 is_stmt 0 view .LVU180
 902 0012 074B     		ldr	r3, .L88
 903 0014 1B68     		ldr	r3, [r3]
 904              		.loc 1 571 49 view .LVU181
 905 0016 13F0080F 		tst	r3, #8
 906 001a 06D1     		bne	.L87
 572:../../Drivers/STM32H7xx_HAL_Driver/Src/stm32h7xx_hal.c ****   {
 573:../../Drivers/STM32H7xx_HAL_Driver/Src/stm32h7xx_hal.c ****     if((HAL_GetTick() - tickstart) > VREFBUF_TIMEOUT_VALUE)
 907              		.loc 1 573 5 is_stmt 1 view .LVU182
 908              		.loc 1 573 9 is_stmt 0 view .LVU183
 909 001c FFF7FEFF 		bl	HAL_GetTick
 910              	.LVL31:
 911              		.loc 1 573 23 discriminator 1 view .LVU184
 912 0020 001B     		subs	r0, r0, r4
 913              		.loc 1 573 7 discriminator 1 view .LVU185
 914 0022 0A28     		cmp	r0, #10
 915 0024 F5D9     		bls	.L82
 574:../../Drivers/STM32H7xx_HAL_Driver/Src/stm32h7xx_hal.c ****     {
 575:../../Drivers/STM32H7xx_HAL_Driver/Src/stm32h7xx_hal.c ****       return HAL_TIMEOUT;
 916              		.loc 1 575 14 view .LVU186
 917 0026 0320     		movs	r0, #3
 918 0028 00E0     		b	.L83
 919              	.L87:
 576:../../Drivers/STM32H7xx_HAL_Driver/Src/stm32h7xx_hal.c ****     }
 577:../../Drivers/STM32H7xx_HAL_Driver/Src/stm32h7xx_hal.c ****   }
 578:../../Drivers/STM32H7xx_HAL_Driver/Src/stm32h7xx_hal.c **** 
 579:../../Drivers/STM32H7xx_HAL_Driver/Src/stm32h7xx_hal.c ****   return HAL_OK;
 920              		.loc 1 579 10 view .LVU187
 921 002a 0020     		movs	r0, #0
 922              	.L83:
 580:../../Drivers/STM32H7xx_HAL_Driver/Src/stm32h7xx_hal.c **** }
 923              		.loc 1 580 1 view .LVU188
 924 002c 10BD     		pop	{r4, pc}
ARM GAS  C:\Users\minis\AppData\Local\Temp\ccPvto3C.s 			page 28


 925              	.LVL32:
 926              	.L89:
 927              		.loc 1 580 1 view .LVU189
 928 002e 00BF     		.align	2
 929              	.L88:
 930 0030 003C0058 		.word	1476410368
 931              		.cfi_endproc
 932              	.LFE166:
 934              		.section	.text.HAL_SYSCFG_DisableVREFBUF,"ax",%progbits
 935              		.align	1
 936              		.global	HAL_SYSCFG_DisableVREFBUF
 937              		.syntax unified
 938              		.thumb
 939              		.thumb_func
 941              	HAL_SYSCFG_DisableVREFBUF:
 942              	.LFB167:
 581:../../Drivers/STM32H7xx_HAL_Driver/Src/stm32h7xx_hal.c **** 
 582:../../Drivers/STM32H7xx_HAL_Driver/Src/stm32h7xx_hal.c **** /**
 583:../../Drivers/STM32H7xx_HAL_Driver/Src/stm32h7xx_hal.c ****   * @brief  Disable the Internal Voltage Reference buffer (VREFBUF).
 584:../../Drivers/STM32H7xx_HAL_Driver/Src/stm32h7xx_hal.c ****   *
 585:../../Drivers/STM32H7xx_HAL_Driver/Src/stm32h7xx_hal.c ****   * @retval None
 586:../../Drivers/STM32H7xx_HAL_Driver/Src/stm32h7xx_hal.c ****   */
 587:../../Drivers/STM32H7xx_HAL_Driver/Src/stm32h7xx_hal.c **** void HAL_SYSCFG_DisableVREFBUF(void)
 588:../../Drivers/STM32H7xx_HAL_Driver/Src/stm32h7xx_hal.c **** {
 943              		.loc 1 588 1 is_stmt 1 view -0
 944              		.cfi_startproc
 945              		@ args = 0, pretend = 0, frame = 0
 946              		@ frame_needed = 0, uses_anonymous_args = 0
 947              		@ link register save eliminated.
 589:../../Drivers/STM32H7xx_HAL_Driver/Src/stm32h7xx_hal.c ****   CLEAR_BIT(VREFBUF->CSR, VREFBUF_CSR_ENVR);
 948              		.loc 1 589 3 view .LVU191
 949 0000 024A     		ldr	r2, .L91
 950 0002 1368     		ldr	r3, [r2]
 951 0004 23F00103 		bic	r3, r3, #1
 952 0008 1360     		str	r3, [r2]
 590:../../Drivers/STM32H7xx_HAL_Driver/Src/stm32h7xx_hal.c **** }
 953              		.loc 1 590 1 is_stmt 0 view .LVU192
 954 000a 7047     		bx	lr
 955              	.L92:
 956              		.align	2
 957              	.L91:
 958 000c 003C0058 		.word	1476410368
 959              		.cfi_endproc
 960              	.LFE167:
 962              		.section	.text.HAL_SYSCFG_ETHInterfaceSelect,"ax",%progbits
 963              		.align	1
 964              		.global	HAL_SYSCFG_ETHInterfaceSelect
 965              		.syntax unified
 966              		.thumb
 967              		.thumb_func
 969              	HAL_SYSCFG_ETHInterfaceSelect:
 970              	.LVL33:
 971              	.LFB168:
 591:../../Drivers/STM32H7xx_HAL_Driver/Src/stm32h7xx_hal.c **** 
 592:../../Drivers/STM32H7xx_HAL_Driver/Src/stm32h7xx_hal.c **** #if defined(SYSCFG_PMCR_EPIS_SEL)
 593:../../Drivers/STM32H7xx_HAL_Driver/Src/stm32h7xx_hal.c **** /**
 594:../../Drivers/STM32H7xx_HAL_Driver/Src/stm32h7xx_hal.c ****   * @brief  Ethernet PHY Interface Selection either MII or RMII
ARM GAS  C:\Users\minis\AppData\Local\Temp\ccPvto3C.s 			page 29


 595:../../Drivers/STM32H7xx_HAL_Driver/Src/stm32h7xx_hal.c ****   * @param  SYSCFG_ETHInterface: Selects the Ethernet PHY interface
 596:../../Drivers/STM32H7xx_HAL_Driver/Src/stm32h7xx_hal.c ****   *   This parameter can be one of the following values:
 597:../../Drivers/STM32H7xx_HAL_Driver/Src/stm32h7xx_hal.c ****   *   @arg SYSCFG_ETH_MII : Select the Media Independent Interface
 598:../../Drivers/STM32H7xx_HAL_Driver/Src/stm32h7xx_hal.c ****   *   @arg SYSCFG_ETH_RMII: Select the Reduced Media Independent Interface
 599:../../Drivers/STM32H7xx_HAL_Driver/Src/stm32h7xx_hal.c ****   * @retval None
 600:../../Drivers/STM32H7xx_HAL_Driver/Src/stm32h7xx_hal.c ****   */
 601:../../Drivers/STM32H7xx_HAL_Driver/Src/stm32h7xx_hal.c **** void HAL_SYSCFG_ETHInterfaceSelect(uint32_t SYSCFG_ETHInterface)
 602:../../Drivers/STM32H7xx_HAL_Driver/Src/stm32h7xx_hal.c **** {
 972              		.loc 1 602 1 is_stmt 1 view -0
 973              		.cfi_startproc
 974              		@ args = 0, pretend = 0, frame = 0
 975              		@ frame_needed = 0, uses_anonymous_args = 0
 976              		@ link register save eliminated.
 603:../../Drivers/STM32H7xx_HAL_Driver/Src/stm32h7xx_hal.c ****   /* Check the parameter */
 604:../../Drivers/STM32H7xx_HAL_Driver/Src/stm32h7xx_hal.c ****   assert_param(IS_SYSCFG_ETHERNET_CONFIG(SYSCFG_ETHInterface));
 977              		.loc 1 604 3 view .LVU194
 605:../../Drivers/STM32H7xx_HAL_Driver/Src/stm32h7xx_hal.c **** 
 606:../../Drivers/STM32H7xx_HAL_Driver/Src/stm32h7xx_hal.c ****   MODIFY_REG(SYSCFG->PMCR, SYSCFG_PMCR_EPIS_SEL, (uint32_t)(SYSCFG_ETHInterface));
 978              		.loc 1 606 3 view .LVU195
 979 0000 034A     		ldr	r2, .L94
 980 0002 5368     		ldr	r3, [r2, #4]
 981 0004 23F46003 		bic	r3, r3, #14680064
 982 0008 0343     		orrs	r3, r3, r0
 983 000a 5360     		str	r3, [r2, #4]
 607:../../Drivers/STM32H7xx_HAL_Driver/Src/stm32h7xx_hal.c **** }
 984              		.loc 1 607 1 is_stmt 0 view .LVU196
 985 000c 7047     		bx	lr
 986              	.L95:
 987 000e 00BF     		.align	2
 988              	.L94:
 989 0010 00040058 		.word	1476396032
 990              		.cfi_endproc
 991              	.LFE168:
 993              		.section	.text.HAL_SYSCFG_AnalogSwitchConfig,"ax",%progbits
 994              		.align	1
 995              		.global	HAL_SYSCFG_AnalogSwitchConfig
 996              		.syntax unified
 997              		.thumb
 998              		.thumb_func
 1000              	HAL_SYSCFG_AnalogSwitchConfig:
 1001              	.LVL34:
 1002              	.LFB169:
 608:../../Drivers/STM32H7xx_HAL_Driver/Src/stm32h7xx_hal.c **** #endif /* SYSCFG_PMCR_EPIS_SEL */
 609:../../Drivers/STM32H7xx_HAL_Driver/Src/stm32h7xx_hal.c **** 
 610:../../Drivers/STM32H7xx_HAL_Driver/Src/stm32h7xx_hal.c **** /**
 611:../../Drivers/STM32H7xx_HAL_Driver/Src/stm32h7xx_hal.c ****   * @brief  Analog Switch control for dual analog pads.
 612:../../Drivers/STM32H7xx_HAL_Driver/Src/stm32h7xx_hal.c ****   * @param  SYSCFG_AnalogSwitch: Selects the analog pad
 613:../../Drivers/STM32H7xx_HAL_Driver/Src/stm32h7xx_hal.c ****   *   This parameter can be one or a combination of the following values:
 614:../../Drivers/STM32H7xx_HAL_Driver/Src/stm32h7xx_hal.c ****   *   @arg SYSCFG_SWITCH_PA0 : Select PA0 analog switch
 615:../../Drivers/STM32H7xx_HAL_Driver/Src/stm32h7xx_hal.c ****   *   @arg SYSCFG_SWITCH_PA1:  Select PA1 analog switch
 616:../../Drivers/STM32H7xx_HAL_Driver/Src/stm32h7xx_hal.c ****   *   @arg SYSCFG_SWITCH_PC2 : Select PC2 analog switch
 617:../../Drivers/STM32H7xx_HAL_Driver/Src/stm32h7xx_hal.c ****   *   @arg SYSCFG_SWITCH_PC3:  Select PC3 analog switch
 618:../../Drivers/STM32H7xx_HAL_Driver/Src/stm32h7xx_hal.c ****   * @param  SYSCFG_SwitchState: Open or Close the analog switch between dual pads (PXn and PXn_C)
 619:../../Drivers/STM32H7xx_HAL_Driver/Src/stm32h7xx_hal.c ****   *   This parameter can be one or a combination of the following values:
 620:../../Drivers/STM32H7xx_HAL_Driver/Src/stm32h7xx_hal.c ****   *   @arg SYSCFG_SWITCH_PA0_OPEN
 621:../../Drivers/STM32H7xx_HAL_Driver/Src/stm32h7xx_hal.c ****   *   @arg SYSCFG_SWITCH_PA0_CLOSE
 622:../../Drivers/STM32H7xx_HAL_Driver/Src/stm32h7xx_hal.c ****   *   @arg SYSCFG_SWITCH_PA1_OPEN
ARM GAS  C:\Users\minis\AppData\Local\Temp\ccPvto3C.s 			page 30


 623:../../Drivers/STM32H7xx_HAL_Driver/Src/stm32h7xx_hal.c ****   *   @arg SYSCFG_SWITCH_PA1_CLOSE
 624:../../Drivers/STM32H7xx_HAL_Driver/Src/stm32h7xx_hal.c ****   *   @arg SYSCFG_SWITCH_PC2_OPEN
 625:../../Drivers/STM32H7xx_HAL_Driver/Src/stm32h7xx_hal.c ****   *   @arg SYSCFG_SWITCH_PC2_CLOSE
 626:../../Drivers/STM32H7xx_HAL_Driver/Src/stm32h7xx_hal.c ****   *   @arg SYSCFG_SWITCH_PC3_OPEN
 627:../../Drivers/STM32H7xx_HAL_Driver/Src/stm32h7xx_hal.c ****   *   @arg SYSCFG_SWITCH_PC3_CLOSE
 628:../../Drivers/STM32H7xx_HAL_Driver/Src/stm32h7xx_hal.c ****   * @retval None
 629:../../Drivers/STM32H7xx_HAL_Driver/Src/stm32h7xx_hal.c ****   */
 630:../../Drivers/STM32H7xx_HAL_Driver/Src/stm32h7xx_hal.c **** 
 631:../../Drivers/STM32H7xx_HAL_Driver/Src/stm32h7xx_hal.c **** void HAL_SYSCFG_AnalogSwitchConfig(uint32_t SYSCFG_AnalogSwitch , uint32_t SYSCFG_SwitchState )
 632:../../Drivers/STM32H7xx_HAL_Driver/Src/stm32h7xx_hal.c **** {
 1003              		.loc 1 632 1 is_stmt 1 view -0
 1004              		.cfi_startproc
 1005              		@ args = 0, pretend = 0, frame = 0
 1006              		@ frame_needed = 0, uses_anonymous_args = 0
 1007              		@ link register save eliminated.
 633:../../Drivers/STM32H7xx_HAL_Driver/Src/stm32h7xx_hal.c ****   /* Check the parameter */
 634:../../Drivers/STM32H7xx_HAL_Driver/Src/stm32h7xx_hal.c ****   assert_param(IS_SYSCFG_ANALOG_SWITCH(SYSCFG_AnalogSwitch));
 1008              		.loc 1 634 3 view .LVU198
 635:../../Drivers/STM32H7xx_HAL_Driver/Src/stm32h7xx_hal.c ****   assert_param(IS_SYSCFG_SWITCH_STATE(SYSCFG_SwitchState));
 1009              		.loc 1 635 3 view .LVU199
 636:../../Drivers/STM32H7xx_HAL_Driver/Src/stm32h7xx_hal.c **** 
 637:../../Drivers/STM32H7xx_HAL_Driver/Src/stm32h7xx_hal.c ****   MODIFY_REG(SYSCFG->PMCR, (uint32_t) SYSCFG_AnalogSwitch, (uint32_t)(SYSCFG_SwitchState));
 1010              		.loc 1 637 3 view .LVU200
 1011 0000 034A     		ldr	r2, .L97
 1012 0002 5368     		ldr	r3, [r2, #4]
 1013 0004 23EA0003 		bic	r3, r3, r0
 1014 0008 0B43     		orrs	r3, r3, r1
 1015 000a 5360     		str	r3, [r2, #4]
 638:../../Drivers/STM32H7xx_HAL_Driver/Src/stm32h7xx_hal.c **** }
 1016              		.loc 1 638 1 is_stmt 0 view .LVU201
 1017 000c 7047     		bx	lr
 1018              	.L98:
 1019 000e 00BF     		.align	2
 1020              	.L97:
 1021 0010 00040058 		.word	1476396032
 1022              		.cfi_endproc
 1023              	.LFE169:
 1025              		.section	.text.HAL_SYSCFG_EnableBOOST,"ax",%progbits
 1026              		.align	1
 1027              		.global	HAL_SYSCFG_EnableBOOST
 1028              		.syntax unified
 1029              		.thumb
 1030              		.thumb_func
 1032              	HAL_SYSCFG_EnableBOOST:
 1033              	.LFB170:
 639:../../Drivers/STM32H7xx_HAL_Driver/Src/stm32h7xx_hal.c **** 
 640:../../Drivers/STM32H7xx_HAL_Driver/Src/stm32h7xx_hal.c **** #if defined(SYSCFG_PMCR_BOOSTEN)
 641:../../Drivers/STM32H7xx_HAL_Driver/Src/stm32h7xx_hal.c **** /**
 642:../../Drivers/STM32H7xx_HAL_Driver/Src/stm32h7xx_hal.c ****   * @brief  Enables the booster to reduce the total harmonic distortion of the analog
 643:../../Drivers/STM32H7xx_HAL_Driver/Src/stm32h7xx_hal.c ****   *         switch when the supply voltage is lower than 2.7 V.
 644:../../Drivers/STM32H7xx_HAL_Driver/Src/stm32h7xx_hal.c ****   * @note   Activating the booster allows to guaranty the analog switch AC performance
 645:../../Drivers/STM32H7xx_HAL_Driver/Src/stm32h7xx_hal.c ****   *         when the supply voltage is below 2.7 V: in this case, the analog switch
 646:../../Drivers/STM32H7xx_HAL_Driver/Src/stm32h7xx_hal.c ****   *         performance is the same on the full voltage range
 647:../../Drivers/STM32H7xx_HAL_Driver/Src/stm32h7xx_hal.c ****   * @retval None
 648:../../Drivers/STM32H7xx_HAL_Driver/Src/stm32h7xx_hal.c ****   */
 649:../../Drivers/STM32H7xx_HAL_Driver/Src/stm32h7xx_hal.c **** void HAL_SYSCFG_EnableBOOST(void)
 650:../../Drivers/STM32H7xx_HAL_Driver/Src/stm32h7xx_hal.c **** {
ARM GAS  C:\Users\minis\AppData\Local\Temp\ccPvto3C.s 			page 31


 1034              		.loc 1 650 1 is_stmt 1 view -0
 1035              		.cfi_startproc
 1036              		@ args = 0, pretend = 0, frame = 0
 1037              		@ frame_needed = 0, uses_anonymous_args = 0
 1038              		@ link register save eliminated.
 651:../../Drivers/STM32H7xx_HAL_Driver/Src/stm32h7xx_hal.c ****  SET_BIT(SYSCFG->PMCR, SYSCFG_PMCR_BOOSTEN) ;
 1039              		.loc 1 651 2 view .LVU203
 1040 0000 024A     		ldr	r2, .L100
 1041 0002 5368     		ldr	r3, [r2, #4]
 1042 0004 43F48073 		orr	r3, r3, #256
 1043 0008 5360     		str	r3, [r2, #4]
 652:../../Drivers/STM32H7xx_HAL_Driver/Src/stm32h7xx_hal.c **** }
 1044              		.loc 1 652 1 is_stmt 0 view .LVU204
 1045 000a 7047     		bx	lr
 1046              	.L101:
 1047              		.align	2
 1048              	.L100:
 1049 000c 00040058 		.word	1476396032
 1050              		.cfi_endproc
 1051              	.LFE170:
 1053              		.section	.text.HAL_SYSCFG_DisableBOOST,"ax",%progbits
 1054              		.align	1
 1055              		.global	HAL_SYSCFG_DisableBOOST
 1056              		.syntax unified
 1057              		.thumb
 1058              		.thumb_func
 1060              	HAL_SYSCFG_DisableBOOST:
 1061              	.LFB171:
 653:../../Drivers/STM32H7xx_HAL_Driver/Src/stm32h7xx_hal.c **** 
 654:../../Drivers/STM32H7xx_HAL_Driver/Src/stm32h7xx_hal.c **** /**
 655:../../Drivers/STM32H7xx_HAL_Driver/Src/stm32h7xx_hal.c ****   * @brief  Disables the booster
 656:../../Drivers/STM32H7xx_HAL_Driver/Src/stm32h7xx_hal.c ****   * @note   Activating the booster allows to guaranty the analog switch AC performance
 657:../../Drivers/STM32H7xx_HAL_Driver/Src/stm32h7xx_hal.c ****   *         when the supply voltage is below 2.7 V: in this case, the analog switch
 658:../../Drivers/STM32H7xx_HAL_Driver/Src/stm32h7xx_hal.c ****   *         performance is the same on the full voltage range
 659:../../Drivers/STM32H7xx_HAL_Driver/Src/stm32h7xx_hal.c ****   * @retval None
 660:../../Drivers/STM32H7xx_HAL_Driver/Src/stm32h7xx_hal.c ****   */
 661:../../Drivers/STM32H7xx_HAL_Driver/Src/stm32h7xx_hal.c **** void HAL_SYSCFG_DisableBOOST(void)
 662:../../Drivers/STM32H7xx_HAL_Driver/Src/stm32h7xx_hal.c **** {
 1062              		.loc 1 662 1 is_stmt 1 view -0
 1063              		.cfi_startproc
 1064              		@ args = 0, pretend = 0, frame = 0
 1065              		@ frame_needed = 0, uses_anonymous_args = 0
 1066              		@ link register save eliminated.
 663:../../Drivers/STM32H7xx_HAL_Driver/Src/stm32h7xx_hal.c ****  CLEAR_BIT(SYSCFG->PMCR, SYSCFG_PMCR_BOOSTEN) ;
 1067              		.loc 1 663 2 view .LVU206
 1068 0000 024A     		ldr	r2, .L103
 1069 0002 5368     		ldr	r3, [r2, #4]
 1070 0004 23F48073 		bic	r3, r3, #256
 1071 0008 5360     		str	r3, [r2, #4]
 664:../../Drivers/STM32H7xx_HAL_Driver/Src/stm32h7xx_hal.c **** }
 1072              		.loc 1 664 1 is_stmt 0 view .LVU207
 1073 000a 7047     		bx	lr
 1074              	.L104:
 1075              		.align	2
 1076              	.L103:
 1077 000c 00040058 		.word	1476396032
 1078              		.cfi_endproc
ARM GAS  C:\Users\minis\AppData\Local\Temp\ccPvto3C.s 			page 32


 1079              	.LFE171:
 1081              		.section	.text.HAL_SYSCFG_CM7BootAddConfig,"ax",%progbits
 1082              		.align	1
 1083              		.global	HAL_SYSCFG_CM7BootAddConfig
 1084              		.syntax unified
 1085              		.thumb
 1086              		.thumb_func
 1088              	HAL_SYSCFG_CM7BootAddConfig:
 1089              	.LVL35:
 1090              	.LFB172:
 665:../../Drivers/STM32H7xx_HAL_Driver/Src/stm32h7xx_hal.c **** #endif /* SYSCFG_PMCR_BOOSTEN */
 666:../../Drivers/STM32H7xx_HAL_Driver/Src/stm32h7xx_hal.c **** 
 667:../../Drivers/STM32H7xx_HAL_Driver/Src/stm32h7xx_hal.c **** #if defined (SYSCFG_UR2_BOOT_ADD0) ||  defined (SYSCFG_UR2_BCM7_ADD0)
 668:../../Drivers/STM32H7xx_HAL_Driver/Src/stm32h7xx_hal.c **** /**
 669:../../Drivers/STM32H7xx_HAL_Driver/Src/stm32h7xx_hal.c ****   * @brief  BootCM7 address 0 configuration
 670:../../Drivers/STM32H7xx_HAL_Driver/Src/stm32h7xx_hal.c ****   * @param  BootRegister :Specifies the Boot Address register (Address0 or Address1)
 671:../../Drivers/STM32H7xx_HAL_Driver/Src/stm32h7xx_hal.c ****   *   This parameter can be one of the following values:
 672:../../Drivers/STM32H7xx_HAL_Driver/Src/stm32h7xx_hal.c ****   *   @arg SYSCFG_BOOT_ADDR0 : Select the boot address0
 673:../../Drivers/STM32H7xx_HAL_Driver/Src/stm32h7xx_hal.c ****   *   @arg SYSCFG_BOOT_ADDR1:  Select the boot address1
 674:../../Drivers/STM32H7xx_HAL_Driver/Src/stm32h7xx_hal.c ****   * @param  BootAddress :Specifies the CM7 Boot Address to be loaded in Address0 or Address1
 675:../../Drivers/STM32H7xx_HAL_Driver/Src/stm32h7xx_hal.c ****   * @retval None
 676:../../Drivers/STM32H7xx_HAL_Driver/Src/stm32h7xx_hal.c ****   */
 677:../../Drivers/STM32H7xx_HAL_Driver/Src/stm32h7xx_hal.c **** void HAL_SYSCFG_CM7BootAddConfig(uint32_t BootRegister, uint32_t BootAddress)
 678:../../Drivers/STM32H7xx_HAL_Driver/Src/stm32h7xx_hal.c **** {
 1091              		.loc 1 678 1 is_stmt 1 view -0
 1092              		.cfi_startproc
 1093              		@ args = 0, pretend = 0, frame = 0
 1094              		@ frame_needed = 0, uses_anonymous_args = 0
 1095              		@ link register save eliminated.
 679:../../Drivers/STM32H7xx_HAL_Driver/Src/stm32h7xx_hal.c ****   /* Check the parameters */
 680:../../Drivers/STM32H7xx_HAL_Driver/Src/stm32h7xx_hal.c ****   assert_param(IS_SYSCFG_BOOT_REGISTER(BootRegister));
 1096              		.loc 1 680 3 view .LVU209
 681:../../Drivers/STM32H7xx_HAL_Driver/Src/stm32h7xx_hal.c ****   assert_param(IS_SYSCFG_BOOT_ADDRESS(BootAddress));
 1097              		.loc 1 681 3 view .LVU210
 682:../../Drivers/STM32H7xx_HAL_Driver/Src/stm32h7xx_hal.c ****   if ( BootRegister == SYSCFG_BOOT_ADDR0 )
 1098              		.loc 1 682 3 view .LVU211
 1099              		.loc 1 682 6 is_stmt 0 view .LVU212
 1100 0000 48B9     		cbnz	r0, .L106
 683:../../Drivers/STM32H7xx_HAL_Driver/Src/stm32h7xx_hal.c ****   {
 684:../../Drivers/STM32H7xx_HAL_Driver/Src/stm32h7xx_hal.c ****     /* Configure CM7 BOOT ADD0 */
 685:../../Drivers/STM32H7xx_HAL_Driver/Src/stm32h7xx_hal.c **** #if defined(DUAL_CORE)
 686:../../Drivers/STM32H7xx_HAL_Driver/Src/stm32h7xx_hal.c ****     MODIFY_REG(SYSCFG->UR2, SYSCFG_UR2_BCM7_ADD0, ((BootAddress >> 16) << SYSCFG_UR2_BCM7_ADD0_Pos)
 1101              		.loc 1 686 5 is_stmt 1 view .LVU213
 1102 0002 0A4A     		ldr	r2, .L108
 1103 0004 D2F80833 		ldr	r3, [r2, #776]
 1104 0008 9BB2     		uxth	r3, r3
 1105 000a 6FF30F01 		bfc	r1, #0, #16
 1106              	.LVL36:
 1107              		.loc 1 686 5 is_stmt 0 view .LVU214
 1108 000e 0B43     		orrs	r3, r3, r1
 1109 0010 C2F80833 		str	r3, [r2, #776]
 1110 0014 7047     		bx	lr
 1111              	.LVL37:
 1112              	.L106:
 687:../../Drivers/STM32H7xx_HAL_Driver/Src/stm32h7xx_hal.c **** #else
 688:../../Drivers/STM32H7xx_HAL_Driver/Src/stm32h7xx_hal.c ****     MODIFY_REG(SYSCFG->UR2, SYSCFG_UR2_BOOT_ADD0, ((BootAddress >> 16) << SYSCFG_UR2_BOOT_ADD0_Pos)
 689:../../Drivers/STM32H7xx_HAL_Driver/Src/stm32h7xx_hal.c **** #endif /*DUAL_CORE*/
ARM GAS  C:\Users\minis\AppData\Local\Temp\ccPvto3C.s 			page 33


 690:../../Drivers/STM32H7xx_HAL_Driver/Src/stm32h7xx_hal.c ****   }
 691:../../Drivers/STM32H7xx_HAL_Driver/Src/stm32h7xx_hal.c ****   else
 692:../../Drivers/STM32H7xx_HAL_Driver/Src/stm32h7xx_hal.c ****   {
 693:../../Drivers/STM32H7xx_HAL_Driver/Src/stm32h7xx_hal.c ****     /* Configure CM7 BOOT ADD1 */
 694:../../Drivers/STM32H7xx_HAL_Driver/Src/stm32h7xx_hal.c **** #if defined(DUAL_CORE)
 695:../../Drivers/STM32H7xx_HAL_Driver/Src/stm32h7xx_hal.c ****     MODIFY_REG(SYSCFG->UR3, SYSCFG_UR3_BCM7_ADD1, (BootAddress >> 16));
 1113              		.loc 1 695 5 is_stmt 1 view .LVU215
 1114 0016 054A     		ldr	r2, .L108
 1115 0018 D2F80C33 		ldr	r3, [r2, #780]
 1116 001c 6FF30F03 		bfc	r3, #0, #16
 1117 0020 43EA1143 		orr	r3, r3, r1, lsr #16
 1118 0024 C2F80C33 		str	r3, [r2, #780]
 696:../../Drivers/STM32H7xx_HAL_Driver/Src/stm32h7xx_hal.c **** #else
 697:../../Drivers/STM32H7xx_HAL_Driver/Src/stm32h7xx_hal.c ****     MODIFY_REG(SYSCFG->UR3, SYSCFG_UR3_BOOT_ADD1, (BootAddress >> 16));
 698:../../Drivers/STM32H7xx_HAL_Driver/Src/stm32h7xx_hal.c **** #endif /*DUAL_CORE*/
 699:../../Drivers/STM32H7xx_HAL_Driver/Src/stm32h7xx_hal.c ****   }
 700:../../Drivers/STM32H7xx_HAL_Driver/Src/stm32h7xx_hal.c **** }
 1119              		.loc 1 700 1 is_stmt 0 view .LVU216
 1120 0028 7047     		bx	lr
 1121              	.L109:
 1122 002a 00BF     		.align	2
 1123              	.L108:
 1124 002c 00040058 		.word	1476396032
 1125              		.cfi_endproc
 1126              	.LFE172:
 1128              		.section	.text.HAL_SYSCFG_CM4BootAddConfig,"ax",%progbits
 1129              		.align	1
 1130              		.global	HAL_SYSCFG_CM4BootAddConfig
 1131              		.syntax unified
 1132              		.thumb
 1133              		.thumb_func
 1135              	HAL_SYSCFG_CM4BootAddConfig:
 1136              	.LVL38:
 1137              	.LFB173:
 701:../../Drivers/STM32H7xx_HAL_Driver/Src/stm32h7xx_hal.c **** #endif /* SYSCFG_UR2_BOOT_ADD0 || SYSCFG_UR2_BCM7_ADD0 */
 702:../../Drivers/STM32H7xx_HAL_Driver/Src/stm32h7xx_hal.c **** 
 703:../../Drivers/STM32H7xx_HAL_Driver/Src/stm32h7xx_hal.c **** #if defined(DUAL_CORE)
 704:../../Drivers/STM32H7xx_HAL_Driver/Src/stm32h7xx_hal.c **** /**
 705:../../Drivers/STM32H7xx_HAL_Driver/Src/stm32h7xx_hal.c ****   * @brief  BootCM4 address 0 configuration
 706:../../Drivers/STM32H7xx_HAL_Driver/Src/stm32h7xx_hal.c ****   * @param  BootRegister :Specifies the Boot Address register (Address0 or Address1)
 707:../../Drivers/STM32H7xx_HAL_Driver/Src/stm32h7xx_hal.c ****   *   This parameter can be one of the following values:
 708:../../Drivers/STM32H7xx_HAL_Driver/Src/stm32h7xx_hal.c ****   *   @arg SYSCFG_BOOT_ADDR0 : Select the boot address0
 709:../../Drivers/STM32H7xx_HAL_Driver/Src/stm32h7xx_hal.c ****   *   @arg SYSCFG_BOOT_ADDR1:  Select the boot address1
 710:../../Drivers/STM32H7xx_HAL_Driver/Src/stm32h7xx_hal.c ****   * @param  BootAddress :Specifies the CM4 Boot Address to be loaded in Address0 or Address1
 711:../../Drivers/STM32H7xx_HAL_Driver/Src/stm32h7xx_hal.c ****   * @retval None
 712:../../Drivers/STM32H7xx_HAL_Driver/Src/stm32h7xx_hal.c ****   */
 713:../../Drivers/STM32H7xx_HAL_Driver/Src/stm32h7xx_hal.c **** void HAL_SYSCFG_CM4BootAddConfig(uint32_t BootRegister, uint32_t BootAddress)
 714:../../Drivers/STM32H7xx_HAL_Driver/Src/stm32h7xx_hal.c **** {
 1138              		.loc 1 714 1 is_stmt 1 view -0
 1139              		.cfi_startproc
 1140              		@ args = 0, pretend = 0, frame = 0
 1141              		@ frame_needed = 0, uses_anonymous_args = 0
 1142              		@ link register save eliminated.
 715:../../Drivers/STM32H7xx_HAL_Driver/Src/stm32h7xx_hal.c ****   /* Check the parameters */
 716:../../Drivers/STM32H7xx_HAL_Driver/Src/stm32h7xx_hal.c ****   assert_param(IS_SYSCFG_BOOT_REGISTER(BootRegister));
 1143              		.loc 1 716 3 view .LVU218
 717:../../Drivers/STM32H7xx_HAL_Driver/Src/stm32h7xx_hal.c ****   assert_param(IS_SYSCFG_BOOT_ADDRESS(BootAddress));
ARM GAS  C:\Users\minis\AppData\Local\Temp\ccPvto3C.s 			page 34


 1144              		.loc 1 717 3 view .LVU219
 718:../../Drivers/STM32H7xx_HAL_Driver/Src/stm32h7xx_hal.c **** 
 719:../../Drivers/STM32H7xx_HAL_Driver/Src/stm32h7xx_hal.c ****   if ( BootRegister == SYSCFG_BOOT_ADDR0 )
 1145              		.loc 1 719 3 view .LVU220
 1146              		.loc 1 719 6 is_stmt 0 view .LVU221
 1147 0000 48B9     		cbnz	r0, .L111
 720:../../Drivers/STM32H7xx_HAL_Driver/Src/stm32h7xx_hal.c ****   {
 721:../../Drivers/STM32H7xx_HAL_Driver/Src/stm32h7xx_hal.c ****     /* Configure CM4 BOOT ADD0 */
 722:../../Drivers/STM32H7xx_HAL_Driver/Src/stm32h7xx_hal.c ****     MODIFY_REG(SYSCFG->UR3, SYSCFG_UR3_BCM4_ADD0, ((BootAddress >> 16)<< SYSCFG_UR3_BCM4_ADD0_Pos))
 1148              		.loc 1 722 5 is_stmt 1 view .LVU222
 1149 0002 0A4A     		ldr	r2, .L113
 1150 0004 D2F80C33 		ldr	r3, [r2, #780]
 1151 0008 9BB2     		uxth	r3, r3
 1152 000a 6FF30F01 		bfc	r1, #0, #16
 1153              	.LVL39:
 1154              		.loc 1 722 5 is_stmt 0 view .LVU223
 1155 000e 0B43     		orrs	r3, r3, r1
 1156 0010 C2F80C33 		str	r3, [r2, #780]
 1157 0014 7047     		bx	lr
 1158              	.LVL40:
 1159              	.L111:
 723:../../Drivers/STM32H7xx_HAL_Driver/Src/stm32h7xx_hal.c ****   }
 724:../../Drivers/STM32H7xx_HAL_Driver/Src/stm32h7xx_hal.c **** 
 725:../../Drivers/STM32H7xx_HAL_Driver/Src/stm32h7xx_hal.c ****   else
 726:../../Drivers/STM32H7xx_HAL_Driver/Src/stm32h7xx_hal.c ****   {
 727:../../Drivers/STM32H7xx_HAL_Driver/Src/stm32h7xx_hal.c ****     /* Configure CM4 BOOT ADD1 */
 728:../../Drivers/STM32H7xx_HAL_Driver/Src/stm32h7xx_hal.c ****     MODIFY_REG(SYSCFG->UR4, SYSCFG_UR4_BCM4_ADD1, (BootAddress >> 16));
 1160              		.loc 1 728 5 is_stmt 1 view .LVU224
 1161 0016 054A     		ldr	r2, .L113
 1162 0018 D2F81033 		ldr	r3, [r2, #784]
 1163 001c 6FF30F03 		bfc	r3, #0, #16
 1164 0020 43EA1143 		orr	r3, r3, r1, lsr #16
 1165 0024 C2F81033 		str	r3, [r2, #784]
 729:../../Drivers/STM32H7xx_HAL_Driver/Src/stm32h7xx_hal.c ****   }
 730:../../Drivers/STM32H7xx_HAL_Driver/Src/stm32h7xx_hal.c **** }
 1166              		.loc 1 730 1 is_stmt 0 view .LVU225
 1167 0028 7047     		bx	lr
 1168              	.L114:
 1169 002a 00BF     		.align	2
 1170              	.L113:
 1171 002c 00040058 		.word	1476396032
 1172              		.cfi_endproc
 1173              	.LFE173:
 1175              		.section	.text.HAL_SYSCFG_EnableCM7BOOT,"ax",%progbits
 1176              		.align	1
 1177              		.global	HAL_SYSCFG_EnableCM7BOOT
 1178              		.syntax unified
 1179              		.thumb
 1180              		.thumb_func
 1182              	HAL_SYSCFG_EnableCM7BOOT:
 1183              	.LFB174:
 731:../../Drivers/STM32H7xx_HAL_Driver/Src/stm32h7xx_hal.c **** 
 732:../../Drivers/STM32H7xx_HAL_Driver/Src/stm32h7xx_hal.c **** /**
 733:../../Drivers/STM32H7xx_HAL_Driver/Src/stm32h7xx_hal.c ****   * @brief  Enables the Cortex-M7 boot
 734:../../Drivers/STM32H7xx_HAL_Driver/Src/stm32h7xx_hal.c ****   * @retval None
 735:../../Drivers/STM32H7xx_HAL_Driver/Src/stm32h7xx_hal.c ****   */
 736:../../Drivers/STM32H7xx_HAL_Driver/Src/stm32h7xx_hal.c **** void HAL_SYSCFG_EnableCM7BOOT(void)
ARM GAS  C:\Users\minis\AppData\Local\Temp\ccPvto3C.s 			page 35


 737:../../Drivers/STM32H7xx_HAL_Driver/Src/stm32h7xx_hal.c **** {
 1184              		.loc 1 737 1 is_stmt 1 view -0
 1185              		.cfi_startproc
 1186              		@ args = 0, pretend = 0, frame = 0
 1187              		@ frame_needed = 0, uses_anonymous_args = 0
 1188              		@ link register save eliminated.
 738:../../Drivers/STM32H7xx_HAL_Driver/Src/stm32h7xx_hal.c ****  SET_BIT(SYSCFG->UR1, SYSCFG_UR1_BCM7);
 1189              		.loc 1 738 2 view .LVU227
 1190 0000 034A     		ldr	r2, .L116
 1191 0002 D2F80433 		ldr	r3, [r2, #772]
 1192 0006 43F48033 		orr	r3, r3, #65536
 1193 000a C2F80433 		str	r3, [r2, #772]
 739:../../Drivers/STM32H7xx_HAL_Driver/Src/stm32h7xx_hal.c **** }
 1194              		.loc 1 739 1 is_stmt 0 view .LVU228
 1195 000e 7047     		bx	lr
 1196              	.L117:
 1197              		.align	2
 1198              	.L116:
 1199 0010 00040058 		.word	1476396032
 1200              		.cfi_endproc
 1201              	.LFE174:
 1203              		.section	.text.HAL_SYSCFG_DisableCM7BOOT,"ax",%progbits
 1204              		.align	1
 1205              		.global	HAL_SYSCFG_DisableCM7BOOT
 1206              		.syntax unified
 1207              		.thumb
 1208              		.thumb_func
 1210              	HAL_SYSCFG_DisableCM7BOOT:
 1211              	.LFB175:
 740:../../Drivers/STM32H7xx_HAL_Driver/Src/stm32h7xx_hal.c **** 
 741:../../Drivers/STM32H7xx_HAL_Driver/Src/stm32h7xx_hal.c **** /**
 742:../../Drivers/STM32H7xx_HAL_Driver/Src/stm32h7xx_hal.c ****   * @brief  Disables the Cortex-M7 boot
 743:../../Drivers/STM32H7xx_HAL_Driver/Src/stm32h7xx_hal.c ****   * @note   Disabling the boot will gate the CPU clock
 744:../../Drivers/STM32H7xx_HAL_Driver/Src/stm32h7xx_hal.c ****   * @retval None
 745:../../Drivers/STM32H7xx_HAL_Driver/Src/stm32h7xx_hal.c ****   */
 746:../../Drivers/STM32H7xx_HAL_Driver/Src/stm32h7xx_hal.c **** void HAL_SYSCFG_DisableCM7BOOT(void)
 747:../../Drivers/STM32H7xx_HAL_Driver/Src/stm32h7xx_hal.c **** {
 1212              		.loc 1 747 1 is_stmt 1 view -0
 1213              		.cfi_startproc
 1214              		@ args = 0, pretend = 0, frame = 0
 1215              		@ frame_needed = 0, uses_anonymous_args = 0
 1216              		@ link register save eliminated.
 748:../../Drivers/STM32H7xx_HAL_Driver/Src/stm32h7xx_hal.c ****  CLEAR_BIT(SYSCFG->UR1, SYSCFG_UR1_BCM7) ;
 1217              		.loc 1 748 2 view .LVU230
 1218 0000 034A     		ldr	r2, .L119
 1219 0002 D2F80433 		ldr	r3, [r2, #772]
 1220 0006 23F48033 		bic	r3, r3, #65536
 1221 000a C2F80433 		str	r3, [r2, #772]
 749:../../Drivers/STM32H7xx_HAL_Driver/Src/stm32h7xx_hal.c **** }
 1222              		.loc 1 749 1 is_stmt 0 view .LVU231
 1223 000e 7047     		bx	lr
 1224              	.L120:
 1225              		.align	2
 1226              	.L119:
 1227 0010 00040058 		.word	1476396032
 1228              		.cfi_endproc
 1229              	.LFE175:
ARM GAS  C:\Users\minis\AppData\Local\Temp\ccPvto3C.s 			page 36


 1231              		.section	.text.HAL_SYSCFG_EnableCM4BOOT,"ax",%progbits
 1232              		.align	1
 1233              		.global	HAL_SYSCFG_EnableCM4BOOT
 1234              		.syntax unified
 1235              		.thumb
 1236              		.thumb_func
 1238              	HAL_SYSCFG_EnableCM4BOOT:
 1239              	.LFB176:
 750:../../Drivers/STM32H7xx_HAL_Driver/Src/stm32h7xx_hal.c **** 
 751:../../Drivers/STM32H7xx_HAL_Driver/Src/stm32h7xx_hal.c **** /**
 752:../../Drivers/STM32H7xx_HAL_Driver/Src/stm32h7xx_hal.c ****   * @brief  Enables the Cortex-M4 boot
 753:../../Drivers/STM32H7xx_HAL_Driver/Src/stm32h7xx_hal.c ****   * @retval None
 754:../../Drivers/STM32H7xx_HAL_Driver/Src/stm32h7xx_hal.c ****   */
 755:../../Drivers/STM32H7xx_HAL_Driver/Src/stm32h7xx_hal.c **** void HAL_SYSCFG_EnableCM4BOOT(void)
 756:../../Drivers/STM32H7xx_HAL_Driver/Src/stm32h7xx_hal.c **** {
 1240              		.loc 1 756 1 is_stmt 1 view -0
 1241              		.cfi_startproc
 1242              		@ args = 0, pretend = 0, frame = 0
 1243              		@ frame_needed = 0, uses_anonymous_args = 0
 1244              		@ link register save eliminated.
 757:../../Drivers/STM32H7xx_HAL_Driver/Src/stm32h7xx_hal.c ****  SET_BIT(SYSCFG->UR1, SYSCFG_UR1_BCM4);
 1245              		.loc 1 757 2 view .LVU233
 1246 0000 034A     		ldr	r2, .L122
 1247 0002 D2F80433 		ldr	r3, [r2, #772]
 1248 0006 43F00103 		orr	r3, r3, #1
 1249 000a C2F80433 		str	r3, [r2, #772]
 758:../../Drivers/STM32H7xx_HAL_Driver/Src/stm32h7xx_hal.c **** }
 1250              		.loc 1 758 1 is_stmt 0 view .LVU234
 1251 000e 7047     		bx	lr
 1252              	.L123:
 1253              		.align	2
 1254              	.L122:
 1255 0010 00040058 		.word	1476396032
 1256              		.cfi_endproc
 1257              	.LFE176:
 1259              		.section	.text.HAL_SYSCFG_DisableCM4BOOT,"ax",%progbits
 1260              		.align	1
 1261              		.global	HAL_SYSCFG_DisableCM4BOOT
 1262              		.syntax unified
 1263              		.thumb
 1264              		.thumb_func
 1266              	HAL_SYSCFG_DisableCM4BOOT:
 1267              	.LFB177:
 759:../../Drivers/STM32H7xx_HAL_Driver/Src/stm32h7xx_hal.c **** 
 760:../../Drivers/STM32H7xx_HAL_Driver/Src/stm32h7xx_hal.c **** /**
 761:../../Drivers/STM32H7xx_HAL_Driver/Src/stm32h7xx_hal.c ****   * @brief  Disables the Cortex-M4 boot
 762:../../Drivers/STM32H7xx_HAL_Driver/Src/stm32h7xx_hal.c ****   * @note   Disabling the boot will gate the CPU clock
 763:../../Drivers/STM32H7xx_HAL_Driver/Src/stm32h7xx_hal.c ****   * @retval None
 764:../../Drivers/STM32H7xx_HAL_Driver/Src/stm32h7xx_hal.c ****   */
 765:../../Drivers/STM32H7xx_HAL_Driver/Src/stm32h7xx_hal.c **** void HAL_SYSCFG_DisableCM4BOOT(void)
 766:../../Drivers/STM32H7xx_HAL_Driver/Src/stm32h7xx_hal.c **** {
 1268              		.loc 1 766 1 is_stmt 1 view -0
 1269              		.cfi_startproc
 1270              		@ args = 0, pretend = 0, frame = 0
 1271              		@ frame_needed = 0, uses_anonymous_args = 0
 1272              		@ link register save eliminated.
 767:../../Drivers/STM32H7xx_HAL_Driver/Src/stm32h7xx_hal.c ****   CLEAR_BIT(SYSCFG->UR1, SYSCFG_UR1_BCM4);
ARM GAS  C:\Users\minis\AppData\Local\Temp\ccPvto3C.s 			page 37


 1273              		.loc 1 767 3 view .LVU236
 1274 0000 034A     		ldr	r2, .L125
 1275 0002 D2F80433 		ldr	r3, [r2, #772]
 1276 0006 23F00103 		bic	r3, r3, #1
 1277 000a C2F80433 		str	r3, [r2, #772]
 768:../../Drivers/STM32H7xx_HAL_Driver/Src/stm32h7xx_hal.c **** }
 1278              		.loc 1 768 1 is_stmt 0 view .LVU237
 1279 000e 7047     		bx	lr
 1280              	.L126:
 1281              		.align	2
 1282              	.L125:
 1283 0010 00040058 		.word	1476396032
 1284              		.cfi_endproc
 1285              	.LFE177:
 1287              		.section	.text.HAL_EnableCompensationCell,"ax",%progbits
 1288              		.align	1
 1289              		.global	HAL_EnableCompensationCell
 1290              		.syntax unified
 1291              		.thumb
 1292              		.thumb_func
 1294              	HAL_EnableCompensationCell:
 1295              	.LFB178:
 769:../../Drivers/STM32H7xx_HAL_Driver/Src/stm32h7xx_hal.c **** #endif /*DUAL_CORE*/
 770:../../Drivers/STM32H7xx_HAL_Driver/Src/stm32h7xx_hal.c **** /**
 771:../../Drivers/STM32H7xx_HAL_Driver/Src/stm32h7xx_hal.c ****   * @brief  Enables the I/O Compensation Cell.
 772:../../Drivers/STM32H7xx_HAL_Driver/Src/stm32h7xx_hal.c ****   * @note   The I/O compensation cell can be used only when the device supply
 773:../../Drivers/STM32H7xx_HAL_Driver/Src/stm32h7xx_hal.c ****   *         voltage ranges from 1.62 to 2.0 V and from 2.7 to 3.6 V.
 774:../../Drivers/STM32H7xx_HAL_Driver/Src/stm32h7xx_hal.c ****   * @retval None
 775:../../Drivers/STM32H7xx_HAL_Driver/Src/stm32h7xx_hal.c ****   */
 776:../../Drivers/STM32H7xx_HAL_Driver/Src/stm32h7xx_hal.c **** void HAL_EnableCompensationCell(void)
 777:../../Drivers/STM32H7xx_HAL_Driver/Src/stm32h7xx_hal.c **** {
 1296              		.loc 1 777 1 is_stmt 1 view -0
 1297              		.cfi_startproc
 1298              		@ args = 0, pretend = 0, frame = 0
 1299              		@ frame_needed = 0, uses_anonymous_args = 0
 1300              		@ link register save eliminated.
 778:../../Drivers/STM32H7xx_HAL_Driver/Src/stm32h7xx_hal.c ****   SET_BIT(SYSCFG->CCCSR, SYSCFG_CCCSR_EN) ;
 1301              		.loc 1 778 3 view .LVU239
 1302 0000 024A     		ldr	r2, .L128
 1303 0002 136A     		ldr	r3, [r2, #32]
 1304 0004 43F00103 		orr	r3, r3, #1
 1305 0008 1362     		str	r3, [r2, #32]
 779:../../Drivers/STM32H7xx_HAL_Driver/Src/stm32h7xx_hal.c **** }
 1306              		.loc 1 779 1 is_stmt 0 view .LVU240
 1307 000a 7047     		bx	lr
 1308              	.L129:
 1309              		.align	2
 1310              	.L128:
 1311 000c 00040058 		.word	1476396032
 1312              		.cfi_endproc
 1313              	.LFE178:
 1315              		.section	.text.HAL_DisableCompensationCell,"ax",%progbits
 1316              		.align	1
 1317              		.global	HAL_DisableCompensationCell
 1318              		.syntax unified
 1319              		.thumb
 1320              		.thumb_func
ARM GAS  C:\Users\minis\AppData\Local\Temp\ccPvto3C.s 			page 38


 1322              	HAL_DisableCompensationCell:
 1323              	.LFB179:
 780:../../Drivers/STM32H7xx_HAL_Driver/Src/stm32h7xx_hal.c **** 
 781:../../Drivers/STM32H7xx_HAL_Driver/Src/stm32h7xx_hal.c **** /**
 782:../../Drivers/STM32H7xx_HAL_Driver/Src/stm32h7xx_hal.c ****   * @brief  Power-down the I/O Compensation Cell.
 783:../../Drivers/STM32H7xx_HAL_Driver/Src/stm32h7xx_hal.c ****   * @note   The I/O compensation cell can be used only when the device supply
 784:../../Drivers/STM32H7xx_HAL_Driver/Src/stm32h7xx_hal.c ****   *         voltage ranges from 1.62 to 2.0 V and from 2.7 to 3.6 V.
 785:../../Drivers/STM32H7xx_HAL_Driver/Src/stm32h7xx_hal.c ****   * @retval None
 786:../../Drivers/STM32H7xx_HAL_Driver/Src/stm32h7xx_hal.c ****   */
 787:../../Drivers/STM32H7xx_HAL_Driver/Src/stm32h7xx_hal.c **** void HAL_DisableCompensationCell(void)
 788:../../Drivers/STM32H7xx_HAL_Driver/Src/stm32h7xx_hal.c **** {
 1324              		.loc 1 788 1 is_stmt 1 view -0
 1325              		.cfi_startproc
 1326              		@ args = 0, pretend = 0, frame = 0
 1327              		@ frame_needed = 0, uses_anonymous_args = 0
 1328              		@ link register save eliminated.
 789:../../Drivers/STM32H7xx_HAL_Driver/Src/stm32h7xx_hal.c ****   CLEAR_BIT(SYSCFG->CCCSR, SYSCFG_CCCSR_EN);
 1329              		.loc 1 789 3 view .LVU242
 1330 0000 024A     		ldr	r2, .L131
 1331 0002 136A     		ldr	r3, [r2, #32]
 1332 0004 23F00103 		bic	r3, r3, #1
 1333 0008 1362     		str	r3, [r2, #32]
 790:../../Drivers/STM32H7xx_HAL_Driver/Src/stm32h7xx_hal.c **** }
 1334              		.loc 1 790 1 is_stmt 0 view .LVU243
 1335 000a 7047     		bx	lr
 1336              	.L132:
 1337              		.align	2
 1338              	.L131:
 1339 000c 00040058 		.word	1476396032
 1340              		.cfi_endproc
 1341              	.LFE179:
 1343              		.section	.text.HAL_SYSCFG_EnableIOSpeedOptimize,"ax",%progbits
 1344              		.align	1
 1345              		.global	HAL_SYSCFG_EnableIOSpeedOptimize
 1346              		.syntax unified
 1347              		.thumb
 1348              		.thumb_func
 1350              	HAL_SYSCFG_EnableIOSpeedOptimize:
 1351              	.LFB180:
 791:../../Drivers/STM32H7xx_HAL_Driver/Src/stm32h7xx_hal.c **** 
 792:../../Drivers/STM32H7xx_HAL_Driver/Src/stm32h7xx_hal.c **** 
 793:../../Drivers/STM32H7xx_HAL_Driver/Src/stm32h7xx_hal.c **** /**
 794:../../Drivers/STM32H7xx_HAL_Driver/Src/stm32h7xx_hal.c ****   * @brief  To Enable optimize the I/O speed when the product voltage is low.
 795:../../Drivers/STM32H7xx_HAL_Driver/Src/stm32h7xx_hal.c ****   * @note   This bit is active only if PRODUCT_BELOW_25V user option bit is set. It must be
 796:../../Drivers/STM32H7xx_HAL_Driver/Src/stm32h7xx_hal.c ****   *         used only if the product supply voltage is below 2.5 V. Setting this bit when VDD is
 797:../../Drivers/STM32H7xx_HAL_Driver/Src/stm32h7xx_hal.c ****   *         higher than 2.5 V might be destructive.
 798:../../Drivers/STM32H7xx_HAL_Driver/Src/stm32h7xx_hal.c ****   * @retval None
 799:../../Drivers/STM32H7xx_HAL_Driver/Src/stm32h7xx_hal.c ****   */
 800:../../Drivers/STM32H7xx_HAL_Driver/Src/stm32h7xx_hal.c **** void HAL_SYSCFG_EnableIOSpeedOptimize(void)
 801:../../Drivers/STM32H7xx_HAL_Driver/Src/stm32h7xx_hal.c **** {
 1352              		.loc 1 801 1 is_stmt 1 view -0
 1353              		.cfi_startproc
 1354              		@ args = 0, pretend = 0, frame = 0
 1355              		@ frame_needed = 0, uses_anonymous_args = 0
 1356              		@ link register save eliminated.
 802:../../Drivers/STM32H7xx_HAL_Driver/Src/stm32h7xx_hal.c **** #if defined(SYSCFG_CCCSR_HSLV)
 803:../../Drivers/STM32H7xx_HAL_Driver/Src/stm32h7xx_hal.c ****   SET_BIT(SYSCFG->CCCSR, SYSCFG_CCCSR_HSLV);
ARM GAS  C:\Users\minis\AppData\Local\Temp\ccPvto3C.s 			page 39


 1357              		.loc 1 803 3 view .LVU245
 1358 0000 024A     		ldr	r2, .L134
 1359 0002 136A     		ldr	r3, [r2, #32]
 1360 0004 43F48033 		orr	r3, r3, #65536
 1361 0008 1362     		str	r3, [r2, #32]
 804:../../Drivers/STM32H7xx_HAL_Driver/Src/stm32h7xx_hal.c **** #else
 805:../../Drivers/STM32H7xx_HAL_Driver/Src/stm32h7xx_hal.c ****   SET_BIT(SYSCFG->CCCSR, (SYSCFG_CCCSR_HSLV0| SYSCFG_CCCSR_HSLV1 | SYSCFG_CCCSR_HSLV2  | SYSCFG_CCC
 806:../../Drivers/STM32H7xx_HAL_Driver/Src/stm32h7xx_hal.c **** #endif   /* SYSCFG_CCCSR_HSLV */
 807:../../Drivers/STM32H7xx_HAL_Driver/Src/stm32h7xx_hal.c **** }
 1362              		.loc 1 807 1 is_stmt 0 view .LVU246
 1363 000a 7047     		bx	lr
 1364              	.L135:
 1365              		.align	2
 1366              	.L134:
 1367 000c 00040058 		.word	1476396032
 1368              		.cfi_endproc
 1369              	.LFE180:
 1371              		.section	.text.HAL_SYSCFG_DisableIOSpeedOptimize,"ax",%progbits
 1372              		.align	1
 1373              		.global	HAL_SYSCFG_DisableIOSpeedOptimize
 1374              		.syntax unified
 1375              		.thumb
 1376              		.thumb_func
 1378              	HAL_SYSCFG_DisableIOSpeedOptimize:
 1379              	.LFB181:
 808:../../Drivers/STM32H7xx_HAL_Driver/Src/stm32h7xx_hal.c **** 
 809:../../Drivers/STM32H7xx_HAL_Driver/Src/stm32h7xx_hal.c **** /**
 810:../../Drivers/STM32H7xx_HAL_Driver/Src/stm32h7xx_hal.c ****   * @brief  To Disable optimize the I/O speed when the product voltage is low.
 811:../../Drivers/STM32H7xx_HAL_Driver/Src/stm32h7xx_hal.c ****   * @note   This bit is active only if PRODUCT_BELOW_25V user option bit is set. It must be
 812:../../Drivers/STM32H7xx_HAL_Driver/Src/stm32h7xx_hal.c ****   *         used only if the product supply voltage is below 2.5 V. Setting this bit when VDD is
 813:../../Drivers/STM32H7xx_HAL_Driver/Src/stm32h7xx_hal.c ****   *         higher than 2.5 V might be destructive.
 814:../../Drivers/STM32H7xx_HAL_Driver/Src/stm32h7xx_hal.c ****   * @retval None
 815:../../Drivers/STM32H7xx_HAL_Driver/Src/stm32h7xx_hal.c ****   */
 816:../../Drivers/STM32H7xx_HAL_Driver/Src/stm32h7xx_hal.c **** void HAL_SYSCFG_DisableIOSpeedOptimize(void)
 817:../../Drivers/STM32H7xx_HAL_Driver/Src/stm32h7xx_hal.c **** {
 1380              		.loc 1 817 1 is_stmt 1 view -0
 1381              		.cfi_startproc
 1382              		@ args = 0, pretend = 0, frame = 0
 1383              		@ frame_needed = 0, uses_anonymous_args = 0
 1384              		@ link register save eliminated.
 818:../../Drivers/STM32H7xx_HAL_Driver/Src/stm32h7xx_hal.c **** #if defined(SYSCFG_CCCSR_HSLV)
 819:../../Drivers/STM32H7xx_HAL_Driver/Src/stm32h7xx_hal.c ****   CLEAR_BIT(SYSCFG->CCCSR, SYSCFG_CCCSR_HSLV);
 1385              		.loc 1 819 3 view .LVU248
 1386 0000 024A     		ldr	r2, .L137
 1387 0002 136A     		ldr	r3, [r2, #32]
 1388 0004 23F48033 		bic	r3, r3, #65536
 1389 0008 1362     		str	r3, [r2, #32]
 820:../../Drivers/STM32H7xx_HAL_Driver/Src/stm32h7xx_hal.c **** #else
 821:../../Drivers/STM32H7xx_HAL_Driver/Src/stm32h7xx_hal.c ****   CLEAR_BIT(SYSCFG->CCCSR, (SYSCFG_CCCSR_HSLV0| SYSCFG_CCCSR_HSLV1 | SYSCFG_CCCSR_HSLV2  | SYSCFG_C
 822:../../Drivers/STM32H7xx_HAL_Driver/Src/stm32h7xx_hal.c **** #endif   /* SYSCFG_CCCSR_HSLV */
 823:../../Drivers/STM32H7xx_HAL_Driver/Src/stm32h7xx_hal.c **** }
 1390              		.loc 1 823 1 is_stmt 0 view .LVU249
 1391 000a 7047     		bx	lr
 1392              	.L138:
 1393              		.align	2
 1394              	.L137:
 1395 000c 00040058 		.word	1476396032
ARM GAS  C:\Users\minis\AppData\Local\Temp\ccPvto3C.s 			page 40


 1396              		.cfi_endproc
 1397              	.LFE181:
 1399              		.section	.text.HAL_SYSCFG_CompensationCodeSelect,"ax",%progbits
 1400              		.align	1
 1401              		.global	HAL_SYSCFG_CompensationCodeSelect
 1402              		.syntax unified
 1403              		.thumb
 1404              		.thumb_func
 1406              	HAL_SYSCFG_CompensationCodeSelect:
 1407              	.LVL41:
 1408              	.LFB182:
 824:../../Drivers/STM32H7xx_HAL_Driver/Src/stm32h7xx_hal.c **** 
 825:../../Drivers/STM32H7xx_HAL_Driver/Src/stm32h7xx_hal.c **** /**
 826:../../Drivers/STM32H7xx_HAL_Driver/Src/stm32h7xx_hal.c ****   * @brief  Code selection for the I/O Compensation cell
 827:../../Drivers/STM32H7xx_HAL_Driver/Src/stm32h7xx_hal.c ****   * @param  SYSCFG_CompCode: Selects the code to be applied for the I/O compensation cell
 828:../../Drivers/STM32H7xx_HAL_Driver/Src/stm32h7xx_hal.c ****   *   This parameter can be one of the following values:
 829:../../Drivers/STM32H7xx_HAL_Driver/Src/stm32h7xx_hal.c ****   *   @arg SYSCFG_CELL_CODE : Select Code from the cell (available in the SYSCFG_CCVR)
 830:../../Drivers/STM32H7xx_HAL_Driver/Src/stm32h7xx_hal.c ****   *   @arg SYSCFG_REGISTER_CODE: Select Code from the SYSCFG compensation cell code register (SYSCF
 831:../../Drivers/STM32H7xx_HAL_Driver/Src/stm32h7xx_hal.c ****   * @retval None
 832:../../Drivers/STM32H7xx_HAL_Driver/Src/stm32h7xx_hal.c ****   */
 833:../../Drivers/STM32H7xx_HAL_Driver/Src/stm32h7xx_hal.c **** void HAL_SYSCFG_CompensationCodeSelect(uint32_t SYSCFG_CompCode)
 834:../../Drivers/STM32H7xx_HAL_Driver/Src/stm32h7xx_hal.c **** {
 1409              		.loc 1 834 1 is_stmt 1 view -0
 1410              		.cfi_startproc
 1411              		@ args = 0, pretend = 0, frame = 0
 1412              		@ frame_needed = 0, uses_anonymous_args = 0
 1413              		@ link register save eliminated.
 835:../../Drivers/STM32H7xx_HAL_Driver/Src/stm32h7xx_hal.c ****   /* Check the parameter */
 836:../../Drivers/STM32H7xx_HAL_Driver/Src/stm32h7xx_hal.c ****   assert_param(IS_SYSCFG_CODE_SELECT(SYSCFG_CompCode));
 1414              		.loc 1 836 3 view .LVU251
 837:../../Drivers/STM32H7xx_HAL_Driver/Src/stm32h7xx_hal.c ****   MODIFY_REG(SYSCFG->CCCSR, SYSCFG_CCCSR_CS, (uint32_t)(SYSCFG_CompCode));
 1415              		.loc 1 837 3 view .LVU252
 1416 0000 034A     		ldr	r2, .L140
 1417 0002 136A     		ldr	r3, [r2, #32]
 1418 0004 23F00203 		bic	r3, r3, #2
 1419 0008 0343     		orrs	r3, r3, r0
 1420 000a 1362     		str	r3, [r2, #32]
 838:../../Drivers/STM32H7xx_HAL_Driver/Src/stm32h7xx_hal.c **** }
 1421              		.loc 1 838 1 is_stmt 0 view .LVU253
 1422 000c 7047     		bx	lr
 1423              	.L141:
 1424 000e 00BF     		.align	2
 1425              	.L140:
 1426 0010 00040058 		.word	1476396032
 1427              		.cfi_endproc
 1428              	.LFE182:
 1430              		.section	.text.HAL_SYSCFG_CompensationCodeConfig,"ax",%progbits
 1431              		.align	1
 1432              		.global	HAL_SYSCFG_CompensationCodeConfig
 1433              		.syntax unified
 1434              		.thumb
 1435              		.thumb_func
 1437              	HAL_SYSCFG_CompensationCodeConfig:
 1438              	.LVL42:
 1439              	.LFB183:
 839:../../Drivers/STM32H7xx_HAL_Driver/Src/stm32h7xx_hal.c **** 
 840:../../Drivers/STM32H7xx_HAL_Driver/Src/stm32h7xx_hal.c **** /**
ARM GAS  C:\Users\minis\AppData\Local\Temp\ccPvto3C.s 			page 41


 841:../../Drivers/STM32H7xx_HAL_Driver/Src/stm32h7xx_hal.c ****   * @brief  Code selection for the I/O Compensation cell
 842:../../Drivers/STM32H7xx_HAL_Driver/Src/stm32h7xx_hal.c ****   * @param  SYSCFG_PMOSCode: PMOS compensation code
 843:../../Drivers/STM32H7xx_HAL_Driver/Src/stm32h7xx_hal.c ****   *         This code is applied to the I/O compensation cell when the CS bit of the
 844:../../Drivers/STM32H7xx_HAL_Driver/Src/stm32h7xx_hal.c ****   *          SYSCFG_CMPCR is set
 845:../../Drivers/STM32H7xx_HAL_Driver/Src/stm32h7xx_hal.c ****   * @param  SYSCFG_NMOSCode: NMOS compensation code
 846:../../Drivers/STM32H7xx_HAL_Driver/Src/stm32h7xx_hal.c ****   *         This code is applied to the I/O compensation cell when the CS bit of the
 847:../../Drivers/STM32H7xx_HAL_Driver/Src/stm32h7xx_hal.c ****   *          SYSCFG_CMPCR is set
 848:../../Drivers/STM32H7xx_HAL_Driver/Src/stm32h7xx_hal.c ****   * @retval None
 849:../../Drivers/STM32H7xx_HAL_Driver/Src/stm32h7xx_hal.c ****   */
 850:../../Drivers/STM32H7xx_HAL_Driver/Src/stm32h7xx_hal.c **** void HAL_SYSCFG_CompensationCodeConfig(uint32_t SYSCFG_PMOSCode, uint32_t SYSCFG_NMOSCode )
 851:../../Drivers/STM32H7xx_HAL_Driver/Src/stm32h7xx_hal.c **** {
 1440              		.loc 1 851 1 is_stmt 1 view -0
 1441              		.cfi_startproc
 1442              		@ args = 0, pretend = 0, frame = 0
 1443              		@ frame_needed = 0, uses_anonymous_args = 0
 1444              		@ link register save eliminated.
 852:../../Drivers/STM32H7xx_HAL_Driver/Src/stm32h7xx_hal.c ****   /* Check the parameter */
 853:../../Drivers/STM32H7xx_HAL_Driver/Src/stm32h7xx_hal.c ****   assert_param(IS_SYSCFG_CODE_CONFIG(SYSCFG_PMOSCode));
 1445              		.loc 1 853 3 view .LVU255
 854:../../Drivers/STM32H7xx_HAL_Driver/Src/stm32h7xx_hal.c ****   assert_param(IS_SYSCFG_CODE_CONFIG(SYSCFG_NMOSCode));
 1446              		.loc 1 854 3 view .LVU256
 855:../../Drivers/STM32H7xx_HAL_Driver/Src/stm32h7xx_hal.c ****   MODIFY_REG(SYSCFG->CCCR, SYSCFG_CCCR_NCC|SYSCFG_CCCR_PCC, (((uint32_t)(SYSCFG_PMOSCode)<< 4)|(uin
 1447              		.loc 1 855 3 view .LVU257
 1448 0000 044A     		ldr	r2, .L143
 1449 0002 936A     		ldr	r3, [r2, #40]
 1450 0004 23F0FF03 		bic	r3, r3, #255
 1451 0008 41EA0011 		orr	r1, r1, r0, lsl #4
 1452              	.LVL43:
 1453              		.loc 1 855 3 is_stmt 0 view .LVU258
 1454 000c 0B43     		orrs	r3, r3, r1
 1455 000e 9362     		str	r3, [r2, #40]
 856:../../Drivers/STM32H7xx_HAL_Driver/Src/stm32h7xx_hal.c **** }
 1456              		.loc 1 856 1 view .LVU259
 1457 0010 7047     		bx	lr
 1458              	.L144:
 1459 0012 00BF     		.align	2
 1460              	.L143:
 1461 0014 00040058 		.word	1476396032
 1462              		.cfi_endproc
 1463              	.LFE183:
 1465              		.section	.text.HAL_DBGMCU_EnableDBGSleepMode,"ax",%progbits
 1466              		.align	1
 1467              		.global	HAL_DBGMCU_EnableDBGSleepMode
 1468              		.syntax unified
 1469              		.thumb
 1470              		.thumb_func
 1472              	HAL_DBGMCU_EnableDBGSleepMode:
 1473              	.LFB184:
 857:../../Drivers/STM32H7xx_HAL_Driver/Src/stm32h7xx_hal.c **** 
 858:../../Drivers/STM32H7xx_HAL_Driver/Src/stm32h7xx_hal.c **** #if defined(SYSCFG_CCCR_NCC_MMC)
 859:../../Drivers/STM32H7xx_HAL_Driver/Src/stm32h7xx_hal.c **** /**
 860:../../Drivers/STM32H7xx_HAL_Driver/Src/stm32h7xx_hal.c ****   * @brief  Code selection for the I/O Compensation cell
 861:../../Drivers/STM32H7xx_HAL_Driver/Src/stm32h7xx_hal.c ****   * @param  SYSCFG_PMOSCode: VDDMMC PMOS compensation code
 862:../../Drivers/STM32H7xx_HAL_Driver/Src/stm32h7xx_hal.c ****   *         This code is applied to the I/O compensation cell when the CS bit of the
 863:../../Drivers/STM32H7xx_HAL_Driver/Src/stm32h7xx_hal.c ****   *          SYSCFG_CMPCR is set
 864:../../Drivers/STM32H7xx_HAL_Driver/Src/stm32h7xx_hal.c ****   * @param  SYSCFG_NMOSCode: VDDMMC NMOS compensation code
 865:../../Drivers/STM32H7xx_HAL_Driver/Src/stm32h7xx_hal.c ****   *         This code is applied to the I/O compensation cell when the CS bit of the
ARM GAS  C:\Users\minis\AppData\Local\Temp\ccPvto3C.s 			page 42


 866:../../Drivers/STM32H7xx_HAL_Driver/Src/stm32h7xx_hal.c ****   *          SYSCFG_CMPCR is set
 867:../../Drivers/STM32H7xx_HAL_Driver/Src/stm32h7xx_hal.c ****   * @retval None
 868:../../Drivers/STM32H7xx_HAL_Driver/Src/stm32h7xx_hal.c ****   */
 869:../../Drivers/STM32H7xx_HAL_Driver/Src/stm32h7xx_hal.c **** void HAL_SYSCFG_VDDMMC_CompensationCodeConfig(uint32_t SYSCFG_PMOSCode, uint32_t SYSCFG_NMOSCode )
 870:../../Drivers/STM32H7xx_HAL_Driver/Src/stm32h7xx_hal.c **** {
 871:../../Drivers/STM32H7xx_HAL_Driver/Src/stm32h7xx_hal.c ****   /* Check the parameter */
 872:../../Drivers/STM32H7xx_HAL_Driver/Src/stm32h7xx_hal.c ****   assert_param(IS_SYSCFG_CODE_CONFIG(SYSCFG_PMOSCode));
 873:../../Drivers/STM32H7xx_HAL_Driver/Src/stm32h7xx_hal.c ****   assert_param(IS_SYSCFG_CODE_CONFIG(SYSCFG_NMOSCode));
 874:../../Drivers/STM32H7xx_HAL_Driver/Src/stm32h7xx_hal.c ****   MODIFY_REG(SYSCFG->CCCR, (SYSCFG_CCCR_NCC_MMC | SYSCFG_CCCR_PCC_MMC), (((uint32_t)(SYSCFG_PMOSCod
 875:../../Drivers/STM32H7xx_HAL_Driver/Src/stm32h7xx_hal.c **** }
 876:../../Drivers/STM32H7xx_HAL_Driver/Src/stm32h7xx_hal.c **** #endif /* SYSCFG_CCCR_NCC_MMC */
 877:../../Drivers/STM32H7xx_HAL_Driver/Src/stm32h7xx_hal.c **** 
 878:../../Drivers/STM32H7xx_HAL_Driver/Src/stm32h7xx_hal.c **** #if defined(SYSCFG_ADC2ALT_ADC2_ROUT0)
 879:../../Drivers/STM32H7xx_HAL_Driver/Src/stm32h7xx_hal.c **** /** @brief  SYSCFG ADC2 internal input alternate connection macros
 880:../../Drivers/STM32H7xx_HAL_Driver/Src/stm32h7xx_hal.c ****   * @param Adc2AltRout0 This parameter can be a value of :
 881:../../Drivers/STM32H7xx_HAL_Driver/Src/stm32h7xx_hal.c ****   *     @arg @ref SYSCFG_ADC2_ROUT0_DAC1_1   DAC1_out1 connected to ADC2 VINP[16]
 882:../../Drivers/STM32H7xx_HAL_Driver/Src/stm32h7xx_hal.c ****   *     @arg @ref SYSCFG_ADC2_ROUT0_VBAT4    VBAT/4 connected to ADC2 VINP[16]
 883:../../Drivers/STM32H7xx_HAL_Driver/Src/stm32h7xx_hal.c ****   */
 884:../../Drivers/STM32H7xx_HAL_Driver/Src/stm32h7xx_hal.c **** void HAL_SYSCFG_ADC2ALT_Rout0Config(uint32_t Adc2AltRout0)
 885:../../Drivers/STM32H7xx_HAL_Driver/Src/stm32h7xx_hal.c **** {
 886:../../Drivers/STM32H7xx_HAL_Driver/Src/stm32h7xx_hal.c ****   /* Check the parameters */
 887:../../Drivers/STM32H7xx_HAL_Driver/Src/stm32h7xx_hal.c ****   assert_param(IS_SYSCFG_ADC2ALT_ROUT0(Adc2AltRout0));
 888:../../Drivers/STM32H7xx_HAL_Driver/Src/stm32h7xx_hal.c **** 
 889:../../Drivers/STM32H7xx_HAL_Driver/Src/stm32h7xx_hal.c ****   MODIFY_REG(SYSCFG->ADC2ALT, SYSCFG_ADC2ALT_ADC2_ROUT0, Adc2AltRout0);
 890:../../Drivers/STM32H7xx_HAL_Driver/Src/stm32h7xx_hal.c **** }
 891:../../Drivers/STM32H7xx_HAL_Driver/Src/stm32h7xx_hal.c **** #endif /*SYSCFG_ADC2ALT_ADC2_ROUT0*/
 892:../../Drivers/STM32H7xx_HAL_Driver/Src/stm32h7xx_hal.c **** 
 893:../../Drivers/STM32H7xx_HAL_Driver/Src/stm32h7xx_hal.c **** #if defined(SYSCFG_ADC2ALT_ADC2_ROUT1)
 894:../../Drivers/STM32H7xx_HAL_Driver/Src/stm32h7xx_hal.c **** /** @brief  SYSCFG ADC2 internal input alternate connection macros
 895:../../Drivers/STM32H7xx_HAL_Driver/Src/stm32h7xx_hal.c ****   * @param Adc2AltRout1  This parameter can be a value of :
 896:../../Drivers/STM32H7xx_HAL_Driver/Src/stm32h7xx_hal.c ****   *     @arg @ref SYSCFG_ADC2_ROUT1_DAC1_2   DAC1_out2 connected to ADC2 VINP[17]
 897:../../Drivers/STM32H7xx_HAL_Driver/Src/stm32h7xx_hal.c ****   *     @arg @ref SYSCFG_ADC2_ROUT1_VREFINT  VREFINT connected to ADC2 VINP[17]
 898:../../Drivers/STM32H7xx_HAL_Driver/Src/stm32h7xx_hal.c ****   */
 899:../../Drivers/STM32H7xx_HAL_Driver/Src/stm32h7xx_hal.c **** void HAL_SYSCFG_ADC2ALT_Rout1Config(uint32_t Adc2AltRout1)
 900:../../Drivers/STM32H7xx_HAL_Driver/Src/stm32h7xx_hal.c **** {
 901:../../Drivers/STM32H7xx_HAL_Driver/Src/stm32h7xx_hal.c ****   /* Check the parameters */
 902:../../Drivers/STM32H7xx_HAL_Driver/Src/stm32h7xx_hal.c ****   assert_param(IS_SYSCFG_ADC2ALT_ROUT1(Adc2AltRout1));
 903:../../Drivers/STM32H7xx_HAL_Driver/Src/stm32h7xx_hal.c **** 
 904:../../Drivers/STM32H7xx_HAL_Driver/Src/stm32h7xx_hal.c ****   MODIFY_REG(SYSCFG->ADC2ALT, SYSCFG_ADC2ALT_ADC2_ROUT1, Adc2AltRout1);
 905:../../Drivers/STM32H7xx_HAL_Driver/Src/stm32h7xx_hal.c **** }
 906:../../Drivers/STM32H7xx_HAL_Driver/Src/stm32h7xx_hal.c **** #endif /*SYSCFG_ADC2ALT_ADC2_ROUT1*/
 907:../../Drivers/STM32H7xx_HAL_Driver/Src/stm32h7xx_hal.c **** 
 908:../../Drivers/STM32H7xx_HAL_Driver/Src/stm32h7xx_hal.c **** /**
 909:../../Drivers/STM32H7xx_HAL_Driver/Src/stm32h7xx_hal.c ****   * @brief  Enable the Debug Module during Domain1/CDomain SLEEP mode
 910:../../Drivers/STM32H7xx_HAL_Driver/Src/stm32h7xx_hal.c ****   * @retval None
 911:../../Drivers/STM32H7xx_HAL_Driver/Src/stm32h7xx_hal.c ****   */
 912:../../Drivers/STM32H7xx_HAL_Driver/Src/stm32h7xx_hal.c **** void HAL_DBGMCU_EnableDBGSleepMode(void)
 913:../../Drivers/STM32H7xx_HAL_Driver/Src/stm32h7xx_hal.c **** {
 1474              		.loc 1 913 1 is_stmt 1 view -0
 1475              		.cfi_startproc
 1476              		@ args = 0, pretend = 0, frame = 0
 1477              		@ frame_needed = 0, uses_anonymous_args = 0
 1478              		@ link register save eliminated.
 914:../../Drivers/STM32H7xx_HAL_Driver/Src/stm32h7xx_hal.c ****   SET_BIT(DBGMCU->CR, DBGMCU_CR_DBG_SLEEPD1);
 1479              		.loc 1 914 3 view .LVU261
 1480 0000 024A     		ldr	r2, .L146
 1481 0002 5368     		ldr	r3, [r2, #4]
ARM GAS  C:\Users\minis\AppData\Local\Temp\ccPvto3C.s 			page 43


 1482 0004 43F00103 		orr	r3, r3, #1
 1483 0008 5360     		str	r3, [r2, #4]
 915:../../Drivers/STM32H7xx_HAL_Driver/Src/stm32h7xx_hal.c **** }
 1484              		.loc 1 915 1 is_stmt 0 view .LVU262
 1485 000a 7047     		bx	lr
 1486              	.L147:
 1487              		.align	2
 1488              	.L146:
 1489 000c 0010005C 		.word	1543507968
 1490              		.cfi_endproc
 1491              	.LFE184:
 1493              		.section	.text.HAL_DBGMCU_DisableDBGSleepMode,"ax",%progbits
 1494              		.align	1
 1495              		.global	HAL_DBGMCU_DisableDBGSleepMode
 1496              		.syntax unified
 1497              		.thumb
 1498              		.thumb_func
 1500              	HAL_DBGMCU_DisableDBGSleepMode:
 1501              	.LFB185:
 916:../../Drivers/STM32H7xx_HAL_Driver/Src/stm32h7xx_hal.c **** 
 917:../../Drivers/STM32H7xx_HAL_Driver/Src/stm32h7xx_hal.c **** /**
 918:../../Drivers/STM32H7xx_HAL_Driver/Src/stm32h7xx_hal.c ****   * @brief  Disable the Debug Module during Domain1/CDomain SLEEP mode
 919:../../Drivers/STM32H7xx_HAL_Driver/Src/stm32h7xx_hal.c ****   * @retval None
 920:../../Drivers/STM32H7xx_HAL_Driver/Src/stm32h7xx_hal.c ****   */
 921:../../Drivers/STM32H7xx_HAL_Driver/Src/stm32h7xx_hal.c **** void HAL_DBGMCU_DisableDBGSleepMode(void)
 922:../../Drivers/STM32H7xx_HAL_Driver/Src/stm32h7xx_hal.c **** {
 1502              		.loc 1 922 1 is_stmt 1 view -0
 1503              		.cfi_startproc
 1504              		@ args = 0, pretend = 0, frame = 0
 1505              		@ frame_needed = 0, uses_anonymous_args = 0
 1506              		@ link register save eliminated.
 923:../../Drivers/STM32H7xx_HAL_Driver/Src/stm32h7xx_hal.c ****   CLEAR_BIT(DBGMCU->CR, DBGMCU_CR_DBG_SLEEPD1);
 1507              		.loc 1 923 3 view .LVU264
 1508 0000 024A     		ldr	r2, .L149
 1509 0002 5368     		ldr	r3, [r2, #4]
 1510 0004 23F00103 		bic	r3, r3, #1
 1511 0008 5360     		str	r3, [r2, #4]
 924:../../Drivers/STM32H7xx_HAL_Driver/Src/stm32h7xx_hal.c **** }
 1512              		.loc 1 924 1 is_stmt 0 view .LVU265
 1513 000a 7047     		bx	lr
 1514              	.L150:
 1515              		.align	2
 1516              	.L149:
 1517 000c 0010005C 		.word	1543507968
 1518              		.cfi_endproc
 1519              	.LFE185:
 1521              		.section	.text.HAL_DBGMCU_EnableDBGStopMode,"ax",%progbits
 1522              		.align	1
 1523              		.global	HAL_DBGMCU_EnableDBGStopMode
 1524              		.syntax unified
 1525              		.thumb
 1526              		.thumb_func
 1528              	HAL_DBGMCU_EnableDBGStopMode:
 1529              	.LFB186:
 925:../../Drivers/STM32H7xx_HAL_Driver/Src/stm32h7xx_hal.c **** 
 926:../../Drivers/STM32H7xx_HAL_Driver/Src/stm32h7xx_hal.c **** 
 927:../../Drivers/STM32H7xx_HAL_Driver/Src/stm32h7xx_hal.c **** /**
ARM GAS  C:\Users\minis\AppData\Local\Temp\ccPvto3C.s 			page 44


 928:../../Drivers/STM32H7xx_HAL_Driver/Src/stm32h7xx_hal.c ****   * @brief  Enable the Debug Module during Domain1/CDomain STOP mode
 929:../../Drivers/STM32H7xx_HAL_Driver/Src/stm32h7xx_hal.c ****   * @retval None
 930:../../Drivers/STM32H7xx_HAL_Driver/Src/stm32h7xx_hal.c ****   */
 931:../../Drivers/STM32H7xx_HAL_Driver/Src/stm32h7xx_hal.c **** void HAL_DBGMCU_EnableDBGStopMode(void)
 932:../../Drivers/STM32H7xx_HAL_Driver/Src/stm32h7xx_hal.c **** {
 1530              		.loc 1 932 1 is_stmt 1 view -0
 1531              		.cfi_startproc
 1532              		@ args = 0, pretend = 0, frame = 0
 1533              		@ frame_needed = 0, uses_anonymous_args = 0
 1534              		@ link register save eliminated.
 933:../../Drivers/STM32H7xx_HAL_Driver/Src/stm32h7xx_hal.c ****   SET_BIT(DBGMCU->CR, DBGMCU_CR_DBG_STOPD1);
 1535              		.loc 1 933 3 view .LVU267
 1536 0000 024A     		ldr	r2, .L152
 1537 0002 5368     		ldr	r3, [r2, #4]
 1538 0004 43F00203 		orr	r3, r3, #2
 1539 0008 5360     		str	r3, [r2, #4]
 934:../../Drivers/STM32H7xx_HAL_Driver/Src/stm32h7xx_hal.c **** }
 1540              		.loc 1 934 1 is_stmt 0 view .LVU268
 1541 000a 7047     		bx	lr
 1542              	.L153:
 1543              		.align	2
 1544              	.L152:
 1545 000c 0010005C 		.word	1543507968
 1546              		.cfi_endproc
 1547              	.LFE186:
 1549              		.section	.text.HAL_DBGMCU_DisableDBGStopMode,"ax",%progbits
 1550              		.align	1
 1551              		.global	HAL_DBGMCU_DisableDBGStopMode
 1552              		.syntax unified
 1553              		.thumb
 1554              		.thumb_func
 1556              	HAL_DBGMCU_DisableDBGStopMode:
 1557              	.LFB187:
 935:../../Drivers/STM32H7xx_HAL_Driver/Src/stm32h7xx_hal.c **** 
 936:../../Drivers/STM32H7xx_HAL_Driver/Src/stm32h7xx_hal.c **** /**
 937:../../Drivers/STM32H7xx_HAL_Driver/Src/stm32h7xx_hal.c ****   * @brief  Disable the Debug Module during Domain1/CDomain STOP mode
 938:../../Drivers/STM32H7xx_HAL_Driver/Src/stm32h7xx_hal.c ****   * @retval None
 939:../../Drivers/STM32H7xx_HAL_Driver/Src/stm32h7xx_hal.c ****   */
 940:../../Drivers/STM32H7xx_HAL_Driver/Src/stm32h7xx_hal.c **** void HAL_DBGMCU_DisableDBGStopMode(void)
 941:../../Drivers/STM32H7xx_HAL_Driver/Src/stm32h7xx_hal.c **** {
 1558              		.loc 1 941 1 is_stmt 1 view -0
 1559              		.cfi_startproc
 1560              		@ args = 0, pretend = 0, frame = 0
 1561              		@ frame_needed = 0, uses_anonymous_args = 0
 1562              		@ link register save eliminated.
 942:../../Drivers/STM32H7xx_HAL_Driver/Src/stm32h7xx_hal.c ****   CLEAR_BIT(DBGMCU->CR, DBGMCU_CR_DBG_STOPD1);
 1563              		.loc 1 942 3 view .LVU270
 1564 0000 024A     		ldr	r2, .L155
 1565 0002 5368     		ldr	r3, [r2, #4]
 1566 0004 23F00203 		bic	r3, r3, #2
 1567 0008 5360     		str	r3, [r2, #4]
 943:../../Drivers/STM32H7xx_HAL_Driver/Src/stm32h7xx_hal.c **** }
 1568              		.loc 1 943 1 is_stmt 0 view .LVU271
 1569 000a 7047     		bx	lr
 1570              	.L156:
 1571              		.align	2
 1572              	.L155:
ARM GAS  C:\Users\minis\AppData\Local\Temp\ccPvto3C.s 			page 45


 1573 000c 0010005C 		.word	1543507968
 1574              		.cfi_endproc
 1575              	.LFE187:
 1577              		.section	.text.HAL_DBGMCU_EnableDBGStandbyMode,"ax",%progbits
 1578              		.align	1
 1579              		.global	HAL_DBGMCU_EnableDBGStandbyMode
 1580              		.syntax unified
 1581              		.thumb
 1582              		.thumb_func
 1584              	HAL_DBGMCU_EnableDBGStandbyMode:
 1585              	.LFB188:
 944:../../Drivers/STM32H7xx_HAL_Driver/Src/stm32h7xx_hal.c **** 
 945:../../Drivers/STM32H7xx_HAL_Driver/Src/stm32h7xx_hal.c **** /**
 946:../../Drivers/STM32H7xx_HAL_Driver/Src/stm32h7xx_hal.c ****   * @brief  Enable the Debug Module during Domain1/CDomain STANDBY mode
 947:../../Drivers/STM32H7xx_HAL_Driver/Src/stm32h7xx_hal.c ****   * @retval None
 948:../../Drivers/STM32H7xx_HAL_Driver/Src/stm32h7xx_hal.c ****   */
 949:../../Drivers/STM32H7xx_HAL_Driver/Src/stm32h7xx_hal.c **** void HAL_DBGMCU_EnableDBGStandbyMode(void)
 950:../../Drivers/STM32H7xx_HAL_Driver/Src/stm32h7xx_hal.c **** {
 1586              		.loc 1 950 1 is_stmt 1 view -0
 1587              		.cfi_startproc
 1588              		@ args = 0, pretend = 0, frame = 0
 1589              		@ frame_needed = 0, uses_anonymous_args = 0
 1590              		@ link register save eliminated.
 951:../../Drivers/STM32H7xx_HAL_Driver/Src/stm32h7xx_hal.c ****   SET_BIT(DBGMCU->CR, DBGMCU_CR_DBG_STANDBYD1);
 1591              		.loc 1 951 3 view .LVU273
 1592 0000 024A     		ldr	r2, .L158
 1593 0002 5368     		ldr	r3, [r2, #4]
 1594 0004 43F00403 		orr	r3, r3, #4
 1595 0008 5360     		str	r3, [r2, #4]
 952:../../Drivers/STM32H7xx_HAL_Driver/Src/stm32h7xx_hal.c **** }
 1596              		.loc 1 952 1 is_stmt 0 view .LVU274
 1597 000a 7047     		bx	lr
 1598              	.L159:
 1599              		.align	2
 1600              	.L158:
 1601 000c 0010005C 		.word	1543507968
 1602              		.cfi_endproc
 1603              	.LFE188:
 1605              		.section	.text.HAL_DBGMCU_DisableDBGStandbyMode,"ax",%progbits
 1606              		.align	1
 1607              		.global	HAL_DBGMCU_DisableDBGStandbyMode
 1608              		.syntax unified
 1609              		.thumb
 1610              		.thumb_func
 1612              	HAL_DBGMCU_DisableDBGStandbyMode:
 1613              	.LFB189:
 953:../../Drivers/STM32H7xx_HAL_Driver/Src/stm32h7xx_hal.c **** 
 954:../../Drivers/STM32H7xx_HAL_Driver/Src/stm32h7xx_hal.c **** /**
 955:../../Drivers/STM32H7xx_HAL_Driver/Src/stm32h7xx_hal.c ****   * @brief  Disable the Debug Module during Domain1/CDomain STANDBY mode
 956:../../Drivers/STM32H7xx_HAL_Driver/Src/stm32h7xx_hal.c ****   * @retval None
 957:../../Drivers/STM32H7xx_HAL_Driver/Src/stm32h7xx_hal.c ****   */
 958:../../Drivers/STM32H7xx_HAL_Driver/Src/stm32h7xx_hal.c **** void HAL_DBGMCU_DisableDBGStandbyMode(void)
 959:../../Drivers/STM32H7xx_HAL_Driver/Src/stm32h7xx_hal.c **** {
 1614              		.loc 1 959 1 is_stmt 1 view -0
 1615              		.cfi_startproc
 1616              		@ args = 0, pretend = 0, frame = 0
 1617              		@ frame_needed = 0, uses_anonymous_args = 0
ARM GAS  C:\Users\minis\AppData\Local\Temp\ccPvto3C.s 			page 46


 1618              		@ link register save eliminated.
 960:../../Drivers/STM32H7xx_HAL_Driver/Src/stm32h7xx_hal.c ****   CLEAR_BIT(DBGMCU->CR, DBGMCU_CR_DBG_STANDBYD1);
 1619              		.loc 1 960 3 view .LVU276
 1620 0000 024A     		ldr	r2, .L161
 1621 0002 5368     		ldr	r3, [r2, #4]
 1622 0004 23F00403 		bic	r3, r3, #4
 1623 0008 5360     		str	r3, [r2, #4]
 961:../../Drivers/STM32H7xx_HAL_Driver/Src/stm32h7xx_hal.c **** }
 1624              		.loc 1 961 1 is_stmt 0 view .LVU277
 1625 000a 7047     		bx	lr
 1626              	.L162:
 1627              		.align	2
 1628              	.L161:
 1629 000c 0010005C 		.word	1543507968
 1630              		.cfi_endproc
 1631              	.LFE189:
 1633              		.section	.text.HAL_EnableDomain2DBGSleepMode,"ax",%progbits
 1634              		.align	1
 1635              		.global	HAL_EnableDomain2DBGSleepMode
 1636              		.syntax unified
 1637              		.thumb
 1638              		.thumb_func
 1640              	HAL_EnableDomain2DBGSleepMode:
 1641              	.LFB190:
 962:../../Drivers/STM32H7xx_HAL_Driver/Src/stm32h7xx_hal.c **** 
 963:../../Drivers/STM32H7xx_HAL_Driver/Src/stm32h7xx_hal.c **** #if defined(DUAL_CORE)
 964:../../Drivers/STM32H7xx_HAL_Driver/Src/stm32h7xx_hal.c **** /**
 965:../../Drivers/STM32H7xx_HAL_Driver/Src/stm32h7xx_hal.c ****   * @brief  Enable the Debug Module during Domain1 SLEEP mode
 966:../../Drivers/STM32H7xx_HAL_Driver/Src/stm32h7xx_hal.c ****   * @retval None
 967:../../Drivers/STM32H7xx_HAL_Driver/Src/stm32h7xx_hal.c ****   */
 968:../../Drivers/STM32H7xx_HAL_Driver/Src/stm32h7xx_hal.c **** void HAL_EnableDomain2DBGSleepMode(void)
 969:../../Drivers/STM32H7xx_HAL_Driver/Src/stm32h7xx_hal.c **** {
 1642              		.loc 1 969 1 is_stmt 1 view -0
 1643              		.cfi_startproc
 1644              		@ args = 0, pretend = 0, frame = 0
 1645              		@ frame_needed = 0, uses_anonymous_args = 0
 1646              		@ link register save eliminated.
 970:../../Drivers/STM32H7xx_HAL_Driver/Src/stm32h7xx_hal.c ****   SET_BIT(DBGMCU->CR, DBGMCU_CR_DBG_SLEEPD2);
 1647              		.loc 1 970 3 view .LVU279
 1648 0000 024A     		ldr	r2, .L164
 1649 0002 5368     		ldr	r3, [r2, #4]
 1650 0004 43F00803 		orr	r3, r3, #8
 1651 0008 5360     		str	r3, [r2, #4]
 971:../../Drivers/STM32H7xx_HAL_Driver/Src/stm32h7xx_hal.c **** }
 1652              		.loc 1 971 1 is_stmt 0 view .LVU280
 1653 000a 7047     		bx	lr
 1654              	.L165:
 1655              		.align	2
 1656              	.L164:
 1657 000c 0010005C 		.word	1543507968
 1658              		.cfi_endproc
 1659              	.LFE190:
 1661              		.section	.text.HAL_DisableDomain2DBGSleepMode,"ax",%progbits
 1662              		.align	1
 1663              		.global	HAL_DisableDomain2DBGSleepMode
 1664              		.syntax unified
 1665              		.thumb
ARM GAS  C:\Users\minis\AppData\Local\Temp\ccPvto3C.s 			page 47


 1666              		.thumb_func
 1668              	HAL_DisableDomain2DBGSleepMode:
 1669              	.LFB191:
 972:../../Drivers/STM32H7xx_HAL_Driver/Src/stm32h7xx_hal.c **** 
 973:../../Drivers/STM32H7xx_HAL_Driver/Src/stm32h7xx_hal.c **** /**
 974:../../Drivers/STM32H7xx_HAL_Driver/Src/stm32h7xx_hal.c ****   * @brief  Disable the Debug Module during Domain2 SLEEP mode
 975:../../Drivers/STM32H7xx_HAL_Driver/Src/stm32h7xx_hal.c ****   * @retval None
 976:../../Drivers/STM32H7xx_HAL_Driver/Src/stm32h7xx_hal.c ****   */
 977:../../Drivers/STM32H7xx_HAL_Driver/Src/stm32h7xx_hal.c **** void HAL_DisableDomain2DBGSleepMode(void)
 978:../../Drivers/STM32H7xx_HAL_Driver/Src/stm32h7xx_hal.c **** {
 1670              		.loc 1 978 1 is_stmt 1 view -0
 1671              		.cfi_startproc
 1672              		@ args = 0, pretend = 0, frame = 0
 1673              		@ frame_needed = 0, uses_anonymous_args = 0
 1674              		@ link register save eliminated.
 979:../../Drivers/STM32H7xx_HAL_Driver/Src/stm32h7xx_hal.c ****   CLEAR_BIT(DBGMCU->CR, DBGMCU_CR_DBG_SLEEPD2);
 1675              		.loc 1 979 3 view .LVU282
 1676 0000 024A     		ldr	r2, .L167
 1677 0002 5368     		ldr	r3, [r2, #4]
 1678 0004 23F00803 		bic	r3, r3, #8
 1679 0008 5360     		str	r3, [r2, #4]
 980:../../Drivers/STM32H7xx_HAL_Driver/Src/stm32h7xx_hal.c **** }
 1680              		.loc 1 980 1 is_stmt 0 view .LVU283
 1681 000a 7047     		bx	lr
 1682              	.L168:
 1683              		.align	2
 1684              	.L167:
 1685 000c 0010005C 		.word	1543507968
 1686              		.cfi_endproc
 1687              	.LFE191:
 1689              		.section	.text.HAL_EnableDomain2DBGStopMode,"ax",%progbits
 1690              		.align	1
 1691              		.global	HAL_EnableDomain2DBGStopMode
 1692              		.syntax unified
 1693              		.thumb
 1694              		.thumb_func
 1696              	HAL_EnableDomain2DBGStopMode:
 1697              	.LFB192:
 981:../../Drivers/STM32H7xx_HAL_Driver/Src/stm32h7xx_hal.c **** 
 982:../../Drivers/STM32H7xx_HAL_Driver/Src/stm32h7xx_hal.c **** /**
 983:../../Drivers/STM32H7xx_HAL_Driver/Src/stm32h7xx_hal.c ****   * @brief  Enable the Debug Module during Domain2 STOP mode
 984:../../Drivers/STM32H7xx_HAL_Driver/Src/stm32h7xx_hal.c ****   * @retval None
 985:../../Drivers/STM32H7xx_HAL_Driver/Src/stm32h7xx_hal.c ****   */
 986:../../Drivers/STM32H7xx_HAL_Driver/Src/stm32h7xx_hal.c **** void HAL_EnableDomain2DBGStopMode(void)
 987:../../Drivers/STM32H7xx_HAL_Driver/Src/stm32h7xx_hal.c **** {
 1698              		.loc 1 987 1 is_stmt 1 view -0
 1699              		.cfi_startproc
 1700              		@ args = 0, pretend = 0, frame = 0
 1701              		@ frame_needed = 0, uses_anonymous_args = 0
 1702              		@ link register save eliminated.
 988:../../Drivers/STM32H7xx_HAL_Driver/Src/stm32h7xx_hal.c ****   SET_BIT(DBGMCU->CR, DBGMCU_CR_DBG_STOPD2);
 1703              		.loc 1 988 3 view .LVU285
 1704 0000 024A     		ldr	r2, .L170
 1705 0002 5368     		ldr	r3, [r2, #4]
 1706 0004 43F01003 		orr	r3, r3, #16
 1707 0008 5360     		str	r3, [r2, #4]
 989:../../Drivers/STM32H7xx_HAL_Driver/Src/stm32h7xx_hal.c **** }
ARM GAS  C:\Users\minis\AppData\Local\Temp\ccPvto3C.s 			page 48


 1708              		.loc 1 989 1 is_stmt 0 view .LVU286
 1709 000a 7047     		bx	lr
 1710              	.L171:
 1711              		.align	2
 1712              	.L170:
 1713 000c 0010005C 		.word	1543507968
 1714              		.cfi_endproc
 1715              	.LFE192:
 1717              		.section	.text.HAL_DisableDomain2DBGStopMode,"ax",%progbits
 1718              		.align	1
 1719              		.global	HAL_DisableDomain2DBGStopMode
 1720              		.syntax unified
 1721              		.thumb
 1722              		.thumb_func
 1724              	HAL_DisableDomain2DBGStopMode:
 1725              	.LFB193:
 990:../../Drivers/STM32H7xx_HAL_Driver/Src/stm32h7xx_hal.c **** 
 991:../../Drivers/STM32H7xx_HAL_Driver/Src/stm32h7xx_hal.c **** /**
 992:../../Drivers/STM32H7xx_HAL_Driver/Src/stm32h7xx_hal.c ****   * @brief  Disable the Debug Module during Domain2 STOP mode
 993:../../Drivers/STM32H7xx_HAL_Driver/Src/stm32h7xx_hal.c ****   * @retval None
 994:../../Drivers/STM32H7xx_HAL_Driver/Src/stm32h7xx_hal.c ****   */
 995:../../Drivers/STM32H7xx_HAL_Driver/Src/stm32h7xx_hal.c **** void HAL_DisableDomain2DBGStopMode(void)
 996:../../Drivers/STM32H7xx_HAL_Driver/Src/stm32h7xx_hal.c **** {
 1726              		.loc 1 996 1 is_stmt 1 view -0
 1727              		.cfi_startproc
 1728              		@ args = 0, pretend = 0, frame = 0
 1729              		@ frame_needed = 0, uses_anonymous_args = 0
 1730              		@ link register save eliminated.
 997:../../Drivers/STM32H7xx_HAL_Driver/Src/stm32h7xx_hal.c ****   CLEAR_BIT(DBGMCU->CR, DBGMCU_CR_DBG_STOPD2);
 1731              		.loc 1 997 3 view .LVU288
 1732 0000 024A     		ldr	r2, .L173
 1733 0002 5368     		ldr	r3, [r2, #4]
 1734 0004 23F01003 		bic	r3, r3, #16
 1735 0008 5360     		str	r3, [r2, #4]
 998:../../Drivers/STM32H7xx_HAL_Driver/Src/stm32h7xx_hal.c **** }
 1736              		.loc 1 998 1 is_stmt 0 view .LVU289
 1737 000a 7047     		bx	lr
 1738              	.L174:
 1739              		.align	2
 1740              	.L173:
 1741 000c 0010005C 		.word	1543507968
 1742              		.cfi_endproc
 1743              	.LFE193:
 1745              		.section	.text.HAL_EnableDomain2DBGStandbyMode,"ax",%progbits
 1746              		.align	1
 1747              		.global	HAL_EnableDomain2DBGStandbyMode
 1748              		.syntax unified
 1749              		.thumb
 1750              		.thumb_func
 1752              	HAL_EnableDomain2DBGStandbyMode:
 1753              	.LFB194:
 999:../../Drivers/STM32H7xx_HAL_Driver/Src/stm32h7xx_hal.c **** 
1000:../../Drivers/STM32H7xx_HAL_Driver/Src/stm32h7xx_hal.c **** /**
1001:../../Drivers/STM32H7xx_HAL_Driver/Src/stm32h7xx_hal.c ****   * @brief  Enable the Debug Module during Domain2 STANDBY mode
1002:../../Drivers/STM32H7xx_HAL_Driver/Src/stm32h7xx_hal.c ****   * @retval None
1003:../../Drivers/STM32H7xx_HAL_Driver/Src/stm32h7xx_hal.c ****   */
1004:../../Drivers/STM32H7xx_HAL_Driver/Src/stm32h7xx_hal.c **** void HAL_EnableDomain2DBGStandbyMode(void)
ARM GAS  C:\Users\minis\AppData\Local\Temp\ccPvto3C.s 			page 49


1005:../../Drivers/STM32H7xx_HAL_Driver/Src/stm32h7xx_hal.c **** {
 1754              		.loc 1 1005 1 is_stmt 1 view -0
 1755              		.cfi_startproc
 1756              		@ args = 0, pretend = 0, frame = 0
 1757              		@ frame_needed = 0, uses_anonymous_args = 0
 1758              		@ link register save eliminated.
1006:../../Drivers/STM32H7xx_HAL_Driver/Src/stm32h7xx_hal.c ****   SET_BIT(DBGMCU->CR, DBGMCU_CR_DBG_STANDBYD2);
 1759              		.loc 1 1006 3 view .LVU291
 1760 0000 024A     		ldr	r2, .L176
 1761 0002 5368     		ldr	r3, [r2, #4]
 1762 0004 43F02003 		orr	r3, r3, #32
 1763 0008 5360     		str	r3, [r2, #4]
1007:../../Drivers/STM32H7xx_HAL_Driver/Src/stm32h7xx_hal.c **** }
 1764              		.loc 1 1007 1 is_stmt 0 view .LVU292
 1765 000a 7047     		bx	lr
 1766              	.L177:
 1767              		.align	2
 1768              	.L176:
 1769 000c 0010005C 		.word	1543507968
 1770              		.cfi_endproc
 1771              	.LFE194:
 1773              		.section	.text.HAL_DisableDomain2DBGStandbyMode,"ax",%progbits
 1774              		.align	1
 1775              		.global	HAL_DisableDomain2DBGStandbyMode
 1776              		.syntax unified
 1777              		.thumb
 1778              		.thumb_func
 1780              	HAL_DisableDomain2DBGStandbyMode:
 1781              	.LFB195:
1008:../../Drivers/STM32H7xx_HAL_Driver/Src/stm32h7xx_hal.c **** 
1009:../../Drivers/STM32H7xx_HAL_Driver/Src/stm32h7xx_hal.c **** /**
1010:../../Drivers/STM32H7xx_HAL_Driver/Src/stm32h7xx_hal.c ****   * @brief  Disable the Debug Module during Domain2 STANDBY mode
1011:../../Drivers/STM32H7xx_HAL_Driver/Src/stm32h7xx_hal.c ****   * @retval None
1012:../../Drivers/STM32H7xx_HAL_Driver/Src/stm32h7xx_hal.c ****   */
1013:../../Drivers/STM32H7xx_HAL_Driver/Src/stm32h7xx_hal.c **** void HAL_DisableDomain2DBGStandbyMode(void)
1014:../../Drivers/STM32H7xx_HAL_Driver/Src/stm32h7xx_hal.c **** {
 1782              		.loc 1 1014 1 is_stmt 1 view -0
 1783              		.cfi_startproc
 1784              		@ args = 0, pretend = 0, frame = 0
 1785              		@ frame_needed = 0, uses_anonymous_args = 0
 1786              		@ link register save eliminated.
1015:../../Drivers/STM32H7xx_HAL_Driver/Src/stm32h7xx_hal.c ****   CLEAR_BIT(DBGMCU->CR, DBGMCU_CR_DBG_STANDBYD2);
 1787              		.loc 1 1015 3 view .LVU294
 1788 0000 024A     		ldr	r2, .L179
 1789 0002 5368     		ldr	r3, [r2, #4]
 1790 0004 23F02003 		bic	r3, r3, #32
 1791 0008 5360     		str	r3, [r2, #4]
1016:../../Drivers/STM32H7xx_HAL_Driver/Src/stm32h7xx_hal.c **** }
 1792              		.loc 1 1016 1 is_stmt 0 view .LVU295
 1793 000a 7047     		bx	lr
 1794              	.L180:
 1795              		.align	2
 1796              	.L179:
 1797 000c 0010005C 		.word	1543507968
 1798              		.cfi_endproc
 1799              	.LFE195:
 1801              		.section	.text.HAL_SetFMCMemorySwappingConfig,"ax",%progbits
ARM GAS  C:\Users\minis\AppData\Local\Temp\ccPvto3C.s 			page 50


 1802              		.align	1
 1803              		.global	HAL_SetFMCMemorySwappingConfig
 1804              		.syntax unified
 1805              		.thumb
 1806              		.thumb_func
 1808              	HAL_SetFMCMemorySwappingConfig:
 1809              	.LVL44:
 1810              	.LFB196:
1017:../../Drivers/STM32H7xx_HAL_Driver/Src/stm32h7xx_hal.c **** #endif /*DUAL_CORE*/
1018:../../Drivers/STM32H7xx_HAL_Driver/Src/stm32h7xx_hal.c **** 
1019:../../Drivers/STM32H7xx_HAL_Driver/Src/stm32h7xx_hal.c **** #if defined(DBGMCU_CR_DBG_STOPD3)
1020:../../Drivers/STM32H7xx_HAL_Driver/Src/stm32h7xx_hal.c **** /**
1021:../../Drivers/STM32H7xx_HAL_Driver/Src/stm32h7xx_hal.c ****   * @brief  Enable the Debug Module during Domain3/SRDomain STOP mode
1022:../../Drivers/STM32H7xx_HAL_Driver/Src/stm32h7xx_hal.c ****   * @retval None
1023:../../Drivers/STM32H7xx_HAL_Driver/Src/stm32h7xx_hal.c ****   */
1024:../../Drivers/STM32H7xx_HAL_Driver/Src/stm32h7xx_hal.c **** void HAL_EnableDomain3DBGStopMode(void)
1025:../../Drivers/STM32H7xx_HAL_Driver/Src/stm32h7xx_hal.c **** {
1026:../../Drivers/STM32H7xx_HAL_Driver/Src/stm32h7xx_hal.c ****   SET_BIT(DBGMCU->CR, DBGMCU_CR_DBG_STOPD3);
1027:../../Drivers/STM32H7xx_HAL_Driver/Src/stm32h7xx_hal.c **** }
1028:../../Drivers/STM32H7xx_HAL_Driver/Src/stm32h7xx_hal.c **** 
1029:../../Drivers/STM32H7xx_HAL_Driver/Src/stm32h7xx_hal.c **** /**
1030:../../Drivers/STM32H7xx_HAL_Driver/Src/stm32h7xx_hal.c ****   * @brief  Disable the Debug Module during Domain3/SRDomain STOP mode
1031:../../Drivers/STM32H7xx_HAL_Driver/Src/stm32h7xx_hal.c ****   * @retval None
1032:../../Drivers/STM32H7xx_HAL_Driver/Src/stm32h7xx_hal.c ****   */
1033:../../Drivers/STM32H7xx_HAL_Driver/Src/stm32h7xx_hal.c **** void HAL_DisableDomain3DBGStopMode(void)
1034:../../Drivers/STM32H7xx_HAL_Driver/Src/stm32h7xx_hal.c **** {
1035:../../Drivers/STM32H7xx_HAL_Driver/Src/stm32h7xx_hal.c ****   CLEAR_BIT(DBGMCU->CR, DBGMCU_CR_DBG_STOPD3);
1036:../../Drivers/STM32H7xx_HAL_Driver/Src/stm32h7xx_hal.c **** }
1037:../../Drivers/STM32H7xx_HAL_Driver/Src/stm32h7xx_hal.c **** #endif /*DBGMCU_CR_DBG_STOPD3*/
1038:../../Drivers/STM32H7xx_HAL_Driver/Src/stm32h7xx_hal.c **** 
1039:../../Drivers/STM32H7xx_HAL_Driver/Src/stm32h7xx_hal.c **** #if defined(DBGMCU_CR_DBG_STANDBYD3)
1040:../../Drivers/STM32H7xx_HAL_Driver/Src/stm32h7xx_hal.c **** /**
1041:../../Drivers/STM32H7xx_HAL_Driver/Src/stm32h7xx_hal.c ****   * @brief  Enable the Debug Module during Domain3/SRDomain STANDBY mode
1042:../../Drivers/STM32H7xx_HAL_Driver/Src/stm32h7xx_hal.c ****   * @retval None
1043:../../Drivers/STM32H7xx_HAL_Driver/Src/stm32h7xx_hal.c ****   */
1044:../../Drivers/STM32H7xx_HAL_Driver/Src/stm32h7xx_hal.c **** void HAL_EnableDomain3DBGStandbyMode(void)
1045:../../Drivers/STM32H7xx_HAL_Driver/Src/stm32h7xx_hal.c **** {
1046:../../Drivers/STM32H7xx_HAL_Driver/Src/stm32h7xx_hal.c ****   SET_BIT(DBGMCU->CR, DBGMCU_CR_DBG_STANDBYD3);
1047:../../Drivers/STM32H7xx_HAL_Driver/Src/stm32h7xx_hal.c **** }
1048:../../Drivers/STM32H7xx_HAL_Driver/Src/stm32h7xx_hal.c **** 
1049:../../Drivers/STM32H7xx_HAL_Driver/Src/stm32h7xx_hal.c **** /**
1050:../../Drivers/STM32H7xx_HAL_Driver/Src/stm32h7xx_hal.c ****   * @brief  Disable the Debug Module during Domain3/SRDomain STANDBY mode
1051:../../Drivers/STM32H7xx_HAL_Driver/Src/stm32h7xx_hal.c ****   * @retval None
1052:../../Drivers/STM32H7xx_HAL_Driver/Src/stm32h7xx_hal.c ****   */
1053:../../Drivers/STM32H7xx_HAL_Driver/Src/stm32h7xx_hal.c **** void HAL_DisableDomain3DBGStandbyMode(void)
1054:../../Drivers/STM32H7xx_HAL_Driver/Src/stm32h7xx_hal.c **** {
1055:../../Drivers/STM32H7xx_HAL_Driver/Src/stm32h7xx_hal.c ****   CLEAR_BIT(DBGMCU->CR, DBGMCU_CR_DBG_STANDBYD3);
1056:../../Drivers/STM32H7xx_HAL_Driver/Src/stm32h7xx_hal.c **** }
1057:../../Drivers/STM32H7xx_HAL_Driver/Src/stm32h7xx_hal.c **** #endif /*DBGMCU_CR_DBG_STANDBYD3*/
1058:../../Drivers/STM32H7xx_HAL_Driver/Src/stm32h7xx_hal.c **** 
1059:../../Drivers/STM32H7xx_HAL_Driver/Src/stm32h7xx_hal.c **** /**
1060:../../Drivers/STM32H7xx_HAL_Driver/Src/stm32h7xx_hal.c ****   * @brief  Set the FMC Memory Mapping Swapping config.
1061:../../Drivers/STM32H7xx_HAL_Driver/Src/stm32h7xx_hal.c ****   * @param  BankMapConfig: Defines the FMC Bank mapping configuration. This parameter can be
1062:../../Drivers/STM32H7xx_HAL_Driver/Src/stm32h7xx_hal.c ****             FMC_SWAPBMAP_DISABLE, FMC_SWAPBMAP_SDRAM_SRAM, FMC_SWAPBMAP_SDRAMB2
1063:../../Drivers/STM32H7xx_HAL_Driver/Src/stm32h7xx_hal.c ****   * @retval HAL state
1064:../../Drivers/STM32H7xx_HAL_Driver/Src/stm32h7xx_hal.c ****   */
1065:../../Drivers/STM32H7xx_HAL_Driver/Src/stm32h7xx_hal.c **** void HAL_SetFMCMemorySwappingConfig(uint32_t BankMapConfig)
ARM GAS  C:\Users\minis\AppData\Local\Temp\ccPvto3C.s 			page 51


1066:../../Drivers/STM32H7xx_HAL_Driver/Src/stm32h7xx_hal.c **** {
 1811              		.loc 1 1066 1 is_stmt 1 view -0
 1812              		.cfi_startproc
 1813              		@ args = 0, pretend = 0, frame = 0
 1814              		@ frame_needed = 0, uses_anonymous_args = 0
 1815              		@ link register save eliminated.
1067:../../Drivers/STM32H7xx_HAL_Driver/Src/stm32h7xx_hal.c ****   /* Check the parameter */
1068:../../Drivers/STM32H7xx_HAL_Driver/Src/stm32h7xx_hal.c ****   assert_param(IS_FMC_SWAPBMAP_MODE(BankMapConfig));
 1816              		.loc 1 1068 3 view .LVU297
1069:../../Drivers/STM32H7xx_HAL_Driver/Src/stm32h7xx_hal.c ****   MODIFY_REG(FMC_Bank1_R->BTCR[0], FMC_BCR1_BMAP, BankMapConfig);
 1817              		.loc 1 1069 3 view .LVU298
 1818 0000 034A     		ldr	r2, .L182
 1819 0002 1368     		ldr	r3, [r2]
 1820 0004 23F04073 		bic	r3, r3, #50331648
 1821 0008 0343     		orrs	r3, r3, r0
 1822 000a 1360     		str	r3, [r2]
1070:../../Drivers/STM32H7xx_HAL_Driver/Src/stm32h7xx_hal.c **** }
 1823              		.loc 1 1070 1 is_stmt 0 view .LVU299
 1824 000c 7047     		bx	lr
 1825              	.L183:
 1826 000e 00BF     		.align	2
 1827              	.L182:
 1828 0010 00400052 		.word	1375748096
 1829              		.cfi_endproc
 1830              	.LFE196:
 1832              		.section	.text.HAL_GetFMCMemorySwappingConfig,"ax",%progbits
 1833              		.align	1
 1834              		.global	HAL_GetFMCMemorySwappingConfig
 1835              		.syntax unified
 1836              		.thumb
 1837              		.thumb_func
 1839              	HAL_GetFMCMemorySwappingConfig:
 1840              	.LFB197:
1071:../../Drivers/STM32H7xx_HAL_Driver/Src/stm32h7xx_hal.c **** 
1072:../../Drivers/STM32H7xx_HAL_Driver/Src/stm32h7xx_hal.c **** /**
1073:../../Drivers/STM32H7xx_HAL_Driver/Src/stm32h7xx_hal.c ****   * @brief  Get FMC Bank mapping mode.
1074:../../Drivers/STM32H7xx_HAL_Driver/Src/stm32h7xx_hal.c ****   * @retval The FMC Bank mapping mode. This parameter can be
1075:../../Drivers/STM32H7xx_HAL_Driver/Src/stm32h7xx_hal.c ****             FMC_SWAPBMAP_DISABLE, FMC_SWAPBMAP_SDRAM_SRAM, FMC_SWAPBMAP_SDRAMB2
1076:../../Drivers/STM32H7xx_HAL_Driver/Src/stm32h7xx_hal.c **** */
1077:../../Drivers/STM32H7xx_HAL_Driver/Src/stm32h7xx_hal.c **** uint32_t HAL_GetFMCMemorySwappingConfig(void)
1078:../../Drivers/STM32H7xx_HAL_Driver/Src/stm32h7xx_hal.c **** {
 1841              		.loc 1 1078 1 is_stmt 1 view -0
 1842              		.cfi_startproc
 1843              		@ args = 0, pretend = 0, frame = 0
 1844              		@ frame_needed = 0, uses_anonymous_args = 0
 1845              		@ link register save eliminated.
1079:../../Drivers/STM32H7xx_HAL_Driver/Src/stm32h7xx_hal.c ****   return READ_BIT(FMC_Bank1_R->BTCR[0], FMC_BCR1_BMAP);
 1846              		.loc 1 1079 3 view .LVU301
 1847              		.loc 1 1079 10 is_stmt 0 view .LVU302
 1848 0000 024B     		ldr	r3, .L185
 1849 0002 1868     		ldr	r0, [r3]
1080:../../Drivers/STM32H7xx_HAL_Driver/Src/stm32h7xx_hal.c **** }
 1850              		.loc 1 1080 1 view .LVU303
 1851 0004 00F04070 		and	r0, r0, #50331648
 1852 0008 7047     		bx	lr
 1853              	.L186:
 1854 000a 00BF     		.align	2
ARM GAS  C:\Users\minis\AppData\Local\Temp\ccPvto3C.s 			page 52


 1855              	.L185:
 1856 000c 00400052 		.word	1375748096
 1857              		.cfi_endproc
 1858              	.LFE197:
 1860              		.section	.text.HAL_EXTI_EdgeConfig,"ax",%progbits
 1861              		.align	1
 1862              		.global	HAL_EXTI_EdgeConfig
 1863              		.syntax unified
 1864              		.thumb
 1865              		.thumb_func
 1867              	HAL_EXTI_EdgeConfig:
 1868              	.LVL45:
 1869              	.LFB198:
1081:../../Drivers/STM32H7xx_HAL_Driver/Src/stm32h7xx_hal.c **** 
1082:../../Drivers/STM32H7xx_HAL_Driver/Src/stm32h7xx_hal.c **** /**
1083:../../Drivers/STM32H7xx_HAL_Driver/Src/stm32h7xx_hal.c ****   * @brief  Configure the EXTI input event line edge
1084:../../Drivers/STM32H7xx_HAL_Driver/Src/stm32h7xx_hal.c ****   * @note    No edge configuration for direct lines but for configurable lines:(EXTI_LINE0..EXTI_LI
1085:../../Drivers/STM32H7xx_HAL_Driver/Src/stm32h7xx_hal.c ****   *          EXTI_LINE49,EXTI_LINE51,EXTI_LINE82,EXTI_LINE84,EXTI_LINE85 and EXTI_LINE86.
1086:../../Drivers/STM32H7xx_HAL_Driver/Src/stm32h7xx_hal.c ****   * @param   EXTI_Line: Specifies the EXTI LINE, it can be one of the following values,
1087:../../Drivers/STM32H7xx_HAL_Driver/Src/stm32h7xx_hal.c ****   *         (EXTI_LINE0....EXTI_LINE87)excluding :line45, line81,line83 which are reserved
1088:../../Drivers/STM32H7xx_HAL_Driver/Src/stm32h7xx_hal.c ****   * @param   EXTI_Edge: Specifies  EXTI line Edge used.
1089:../../Drivers/STM32H7xx_HAL_Driver/Src/stm32h7xx_hal.c ****   *          This parameter can be one of the following values :
1090:../../Drivers/STM32H7xx_HAL_Driver/Src/stm32h7xx_hal.c ****   *   @arg EXTI_RISING_EDGE : Configurable line, with Rising edge trigger detection
1091:../../Drivers/STM32H7xx_HAL_Driver/Src/stm32h7xx_hal.c ****   *   @arg EXTI_FALLING_EDGE: Configurable line, with Falling edge trigger detection
1092:../../Drivers/STM32H7xx_HAL_Driver/Src/stm32h7xx_hal.c ****   * @retval None
1093:../../Drivers/STM32H7xx_HAL_Driver/Src/stm32h7xx_hal.c ****   */
1094:../../Drivers/STM32H7xx_HAL_Driver/Src/stm32h7xx_hal.c **** void HAL_EXTI_EdgeConfig(uint32_t EXTI_Line , uint32_t EXTI_Edge )
1095:../../Drivers/STM32H7xx_HAL_Driver/Src/stm32h7xx_hal.c **** {
 1870              		.loc 1 1095 1 is_stmt 1 view -0
 1871              		.cfi_startproc
 1872              		@ args = 0, pretend = 0, frame = 0
 1873              		@ frame_needed = 0, uses_anonymous_args = 0
 1874              		@ link register save eliminated.
 1875              		.loc 1 1095 1 is_stmt 0 view .LVU305
 1876 0000 30B4     		push	{r4, r5}
 1877              	.LCFI6:
 1878              		.cfi_def_cfa_offset 8
 1879              		.cfi_offset 4, -8
 1880              		.cfi_offset 5, -4
1096:../../Drivers/STM32H7xx_HAL_Driver/Src/stm32h7xx_hal.c ****   /* Check the parameter */
1097:../../Drivers/STM32H7xx_HAL_Driver/Src/stm32h7xx_hal.c ****   assert_param(IS_HAL_EXTI_CONFIG_LINE(EXTI_Line));
 1881              		.loc 1 1097 3 is_stmt 1 view .LVU306
1098:../../Drivers/STM32H7xx_HAL_Driver/Src/stm32h7xx_hal.c ****   assert_param(IS_EXTI_EDGE_LINE(EXTI_Edge));
 1882              		.loc 1 1098 3 view .LVU307
1099:../../Drivers/STM32H7xx_HAL_Driver/Src/stm32h7xx_hal.c **** 
1100:../../Drivers/STM32H7xx_HAL_Driver/Src/stm32h7xx_hal.c ****   /* Clear Rising Falling edge configuration */
1101:../../Drivers/STM32H7xx_HAL_Driver/Src/stm32h7xx_hal.c ****   CLEAR_BIT(*(__IO uint32_t *) (((uint32_t) &(EXTI->FTSR1)) + ((EXTI_Line >> 5 ) * 0x20UL)), (uint3
 1883              		.loc 1 1101 3 view .LVU308
 1884 0002 4309     		lsrs	r3, r0, #5
 1885 0004 20F01F0C 		bic	ip, r0, #31
 1886 0008 104C     		ldr	r4, .L191
 1887 000a 5CF80450 		ldr	r5, [ip, r4]
 1888 000e 00F01F00 		and	r0, r0, #31
 1889              	.LVL46:
 1890              		.loc 1 1101 3 is_stmt 0 view .LVU309
 1891 0012 0122     		movs	r2, #1
 1892 0014 8240     		lsls	r2, r2, r0
ARM GAS  C:\Users\minis\AppData\Local\Temp\ccPvto3C.s 			page 53


 1893 0016 25EA0205 		bic	r5, r5, r2
 1894 001a 4CF80450 		str	r5, [ip, r4]
1102:../../Drivers/STM32H7xx_HAL_Driver/Src/stm32h7xx_hal.c ****   CLEAR_BIT( *(__IO uint32_t *) (((uint32_t) &(EXTI->RTSR1)) + ((EXTI_Line >> 5 ) * 0x20UL)), (uint
 1895              		.loc 1 1102 3 is_stmt 1 view .LVU310
 1896 001e 03F13073 		add	r3, r3, #46137344
 1897 0022 5B01     		lsls	r3, r3, #5
 1898 0024 1868     		ldr	r0, [r3]
 1899 0026 20EA0200 		bic	r0, r0, r2
 1900 002a 1860     		str	r0, [r3]
1103:../../Drivers/STM32H7xx_HAL_Driver/Src/stm32h7xx_hal.c **** 
1104:../../Drivers/STM32H7xx_HAL_Driver/Src/stm32h7xx_hal.c ****   if( (EXTI_Edge & EXTI_RISING_EDGE) == EXTI_RISING_EDGE)
 1901              		.loc 1 1104 3 view .LVU311
 1902              		.loc 1 1104 5 is_stmt 0 view .LVU312
 1903 002c 11F4801F 		tst	r1, #1048576
 1904 0030 02D0     		beq	.L188
1105:../../Drivers/STM32H7xx_HAL_Driver/Src/stm32h7xx_hal.c ****   {
1106:../../Drivers/STM32H7xx_HAL_Driver/Src/stm32h7xx_hal.c ****    SET_BIT( *(__IO uint32_t *) (((uint32_t) &(EXTI->RTSR1)) + ((EXTI_Line >> 5 ) * 0x20UL)), (uint3
 1905              		.loc 1 1106 4 is_stmt 1 view .LVU313
 1906 0032 1868     		ldr	r0, [r3]
 1907 0034 1043     		orrs	r0, r0, r2
 1908 0036 1860     		str	r0, [r3]
 1909              	.L188:
1107:../../Drivers/STM32H7xx_HAL_Driver/Src/stm32h7xx_hal.c ****   }
1108:../../Drivers/STM32H7xx_HAL_Driver/Src/stm32h7xx_hal.c ****   if( (EXTI_Edge & EXTI_FALLING_EDGE) == EXTI_FALLING_EDGE)
 1910              		.loc 1 1108 3 view .LVU314
 1911              		.loc 1 1108 5 is_stmt 0 view .LVU315
 1912 0038 11F4001F 		tst	r1, #2097152
 1913 003c 04D0     		beq	.L187
1109:../../Drivers/STM32H7xx_HAL_Driver/Src/stm32h7xx_hal.c ****   {
1110:../../Drivers/STM32H7xx_HAL_Driver/Src/stm32h7xx_hal.c ****    SET_BIT(*(__IO uint32_t *) (((uint32_t) &(EXTI->FTSR1)) + ((EXTI_Line >> 5 ) * 0x20UL)), (uint32
 1914              		.loc 1 1110 4 is_stmt 1 view .LVU316
 1915 003e 5CF80430 		ldr	r3, [ip, r4]
 1916 0042 1A43     		orrs	r2, r2, r3
 1917 0044 4CF80420 		str	r2, [ip, r4]
 1918              	.L187:
1111:../../Drivers/STM32H7xx_HAL_Driver/Src/stm32h7xx_hal.c ****   }
1112:../../Drivers/STM32H7xx_HAL_Driver/Src/stm32h7xx_hal.c **** }
 1919              		.loc 1 1112 1 is_stmt 0 view .LVU317
 1920 0048 30BC     		pop	{r4, r5}
 1921              	.LCFI7:
 1922              		.cfi_restore 5
 1923              		.cfi_restore 4
 1924              		.cfi_def_cfa_offset 0
 1925 004a 7047     		bx	lr
 1926              	.L192:
 1927              		.align	2
 1928              	.L191:
 1929 004c 04000058 		.word	1476395012
 1930              		.cfi_endproc
 1931              	.LFE198:
 1933              		.section	.text.HAL_EXTI_GenerateSWInterrupt,"ax",%progbits
 1934              		.align	1
 1935              		.global	HAL_EXTI_GenerateSWInterrupt
 1936              		.syntax unified
 1937              		.thumb
 1938              		.thumb_func
 1940              	HAL_EXTI_GenerateSWInterrupt:
ARM GAS  C:\Users\minis\AppData\Local\Temp\ccPvto3C.s 			page 54


 1941              	.LVL47:
 1942              	.LFB199:
1113:../../Drivers/STM32H7xx_HAL_Driver/Src/stm32h7xx_hal.c **** 
1114:../../Drivers/STM32H7xx_HAL_Driver/Src/stm32h7xx_hal.c **** /**
1115:../../Drivers/STM32H7xx_HAL_Driver/Src/stm32h7xx_hal.c ****   * @brief  Generates a Software interrupt on selected EXTI line.
1116:../../Drivers/STM32H7xx_HAL_Driver/Src/stm32h7xx_hal.c ****   * @param   EXTI_Line: Specifies the EXTI LINE, it can be one of the following values,
1117:../../Drivers/STM32H7xx_HAL_Driver/Src/stm32h7xx_hal.c ****   *          (EXTI_LINE0..EXTI_LINE21),EXTI_LINE49,EXTI_LINE51,EXTI_LINE82,EXTI_LINE84,EXTI_LINE85 
1118:../../Drivers/STM32H7xx_HAL_Driver/Src/stm32h7xx_hal.c ****   * @retval None
1119:../../Drivers/STM32H7xx_HAL_Driver/Src/stm32h7xx_hal.c ****   */
1120:../../Drivers/STM32H7xx_HAL_Driver/Src/stm32h7xx_hal.c **** void HAL_EXTI_GenerateSWInterrupt(uint32_t EXTI_Line)
1121:../../Drivers/STM32H7xx_HAL_Driver/Src/stm32h7xx_hal.c **** {
 1943              		.loc 1 1121 1 is_stmt 1 view -0
 1944              		.cfi_startproc
 1945              		@ args = 0, pretend = 0, frame = 0
 1946              		@ frame_needed = 0, uses_anonymous_args = 0
 1947              		@ link register save eliminated.
1122:../../Drivers/STM32H7xx_HAL_Driver/Src/stm32h7xx_hal.c ****   /* Check the parameters */
1123:../../Drivers/STM32H7xx_HAL_Driver/Src/stm32h7xx_hal.c ****   assert_param(IS_HAL_EXTI_CONFIG_LINE(EXTI_Line));
 1948              		.loc 1 1123 3 view .LVU319
1124:../../Drivers/STM32H7xx_HAL_Driver/Src/stm32h7xx_hal.c **** 
1125:../../Drivers/STM32H7xx_HAL_Driver/Src/stm32h7xx_hal.c ****   SET_BIT(*(__IO uint32_t *) (((uint32_t) &(EXTI->SWIER1)) + ((EXTI_Line >> 5 ) * 0x20UL)), (uint32
 1949              		.loc 1 1125 3 view .LVU320
 1950 0000 20F01F0C 		bic	ip, r0, #31
 1951 0004 0549     		ldr	r1, .L194
 1952 0006 5CF80130 		ldr	r3, [ip, r1]
 1953 000a 00F01F00 		and	r0, r0, #31
 1954              	.LVL48:
 1955              		.loc 1 1125 3 is_stmt 0 view .LVU321
 1956 000e 0122     		movs	r2, #1
 1957 0010 8240     		lsls	r2, r2, r0
 1958 0012 1343     		orrs	r3, r3, r2
 1959 0014 4CF80130 		str	r3, [ip, r1]
1126:../../Drivers/STM32H7xx_HAL_Driver/Src/stm32h7xx_hal.c **** }
 1960              		.loc 1 1126 1 view .LVU322
 1961 0018 7047     		bx	lr
 1962              	.L195:
 1963 001a 00BF     		.align	2
 1964              	.L194:
 1965 001c 08000058 		.word	1476395016
 1966              		.cfi_endproc
 1967              	.LFE199:
 1969              		.section	.text.HAL_EXTI_D1_ClearFlag,"ax",%progbits
 1970              		.align	1
 1971              		.global	HAL_EXTI_D1_ClearFlag
 1972              		.syntax unified
 1973              		.thumb
 1974              		.thumb_func
 1976              	HAL_EXTI_D1_ClearFlag:
 1977              	.LVL49:
 1978              	.LFB200:
1127:../../Drivers/STM32H7xx_HAL_Driver/Src/stm32h7xx_hal.c **** 
1128:../../Drivers/STM32H7xx_HAL_Driver/Src/stm32h7xx_hal.c **** 
1129:../../Drivers/STM32H7xx_HAL_Driver/Src/stm32h7xx_hal.c **** /**
1130:../../Drivers/STM32H7xx_HAL_Driver/Src/stm32h7xx_hal.c ****   * @brief  Clears the EXTI's line pending flags for Domain D1
1131:../../Drivers/STM32H7xx_HAL_Driver/Src/stm32h7xx_hal.c ****   * @param   EXTI_Line: Specifies the EXTI LINE, it can be one of the following values,
1132:../../Drivers/STM32H7xx_HAL_Driver/Src/stm32h7xx_hal.c ****   *         (EXTI_LINE0....EXTI_LINE87)excluding :line45, line81,line83 which are reserved
1133:../../Drivers/STM32H7xx_HAL_Driver/Src/stm32h7xx_hal.c ****   * @retval None
ARM GAS  C:\Users\minis\AppData\Local\Temp\ccPvto3C.s 			page 55


1134:../../Drivers/STM32H7xx_HAL_Driver/Src/stm32h7xx_hal.c ****   */
1135:../../Drivers/STM32H7xx_HAL_Driver/Src/stm32h7xx_hal.c **** void HAL_EXTI_D1_ClearFlag(uint32_t EXTI_Line)
1136:../../Drivers/STM32H7xx_HAL_Driver/Src/stm32h7xx_hal.c **** {
 1979              		.loc 1 1136 1 is_stmt 1 view -0
 1980              		.cfi_startproc
 1981              		@ args = 0, pretend = 0, frame = 0
 1982              		@ frame_needed = 0, uses_anonymous_args = 0
 1983              		@ link register save eliminated.
1137:../../Drivers/STM32H7xx_HAL_Driver/Src/stm32h7xx_hal.c ****   /* Check the parameters */
1138:../../Drivers/STM32H7xx_HAL_Driver/Src/stm32h7xx_hal.c ****  assert_param(IS_EXTI_D1_LINE(EXTI_Line));
 1984              		.loc 1 1138 2 view .LVU324
1139:../../Drivers/STM32H7xx_HAL_Driver/Src/stm32h7xx_hal.c ****  WRITE_REG(*(__IO uint32_t *) (((uint32_t) &(EXTI_D1->PR1)) + ((EXTI_Line >> 5 ) * 0x10UL)), (uint3
 1985              		.loc 1 1139 2 view .LVU325
 1986 0000 00F01F02 		and	r2, r0, #31
 1987 0004 4009     		lsrs	r0, r0, #5
 1988              	.LVL50:
 1989              		.loc 1 1139 2 is_stmt 0 view .LVU326
 1990 0006 0001     		lsls	r0, r0, #4
 1991 0008 0123     		movs	r3, #1
 1992 000a 9340     		lsls	r3, r3, r2
 1993 000c 014A     		ldr	r2, .L197
 1994 000e 8350     		str	r3, [r0, r2]
1140:../../Drivers/STM32H7xx_HAL_Driver/Src/stm32h7xx_hal.c **** 
1141:../../Drivers/STM32H7xx_HAL_Driver/Src/stm32h7xx_hal.c **** }
 1995              		.loc 1 1141 1 view .LVU327
 1996 0010 7047     		bx	lr
 1997              	.L198:
 1998 0012 00BF     		.align	2
 1999              	.L197:
 2000 0014 88000058 		.word	1476395144
 2001              		.cfi_endproc
 2002              	.LFE200:
 2004              		.section	.text.HAL_EXTI_D2_ClearFlag,"ax",%progbits
 2005              		.align	1
 2006              		.global	HAL_EXTI_D2_ClearFlag
 2007              		.syntax unified
 2008              		.thumb
 2009              		.thumb_func
 2011              	HAL_EXTI_D2_ClearFlag:
 2012              	.LVL51:
 2013              	.LFB201:
1142:../../Drivers/STM32H7xx_HAL_Driver/Src/stm32h7xx_hal.c **** 
1143:../../Drivers/STM32H7xx_HAL_Driver/Src/stm32h7xx_hal.c **** #if defined(DUAL_CORE)
1144:../../Drivers/STM32H7xx_HAL_Driver/Src/stm32h7xx_hal.c **** /**
1145:../../Drivers/STM32H7xx_HAL_Driver/Src/stm32h7xx_hal.c ****   * @brief  Clears the EXTI's line pending flags for Domain D2
1146:../../Drivers/STM32H7xx_HAL_Driver/Src/stm32h7xx_hal.c ****   * @param   EXTI_Line: Specifies the EXTI LINE, it can be one of the following values,
1147:../../Drivers/STM32H7xx_HAL_Driver/Src/stm32h7xx_hal.c ****   *         (EXTI_LINE0....EXTI_LINE87)excluding :line45, line81,line83 which are reserved
1148:../../Drivers/STM32H7xx_HAL_Driver/Src/stm32h7xx_hal.c ****   * @retval None
1149:../../Drivers/STM32H7xx_HAL_Driver/Src/stm32h7xx_hal.c ****   */
1150:../../Drivers/STM32H7xx_HAL_Driver/Src/stm32h7xx_hal.c **** void HAL_EXTI_D2_ClearFlag(uint32_t EXTI_Line)
1151:../../Drivers/STM32H7xx_HAL_Driver/Src/stm32h7xx_hal.c **** {
 2014              		.loc 1 1151 1 is_stmt 1 view -0
 2015              		.cfi_startproc
 2016              		@ args = 0, pretend = 0, frame = 0
 2017              		@ frame_needed = 0, uses_anonymous_args = 0
 2018              		@ link register save eliminated.
1152:../../Drivers/STM32H7xx_HAL_Driver/Src/stm32h7xx_hal.c ****   /* Check the parameters */
ARM GAS  C:\Users\minis\AppData\Local\Temp\ccPvto3C.s 			page 56


1153:../../Drivers/STM32H7xx_HAL_Driver/Src/stm32h7xx_hal.c ****  assert_param(IS_EXTI_D2_LINE(EXTI_Line));
 2019              		.loc 1 1153 2 view .LVU329
1154:../../Drivers/STM32H7xx_HAL_Driver/Src/stm32h7xx_hal.c ****  WRITE_REG(*(__IO uint32_t *) (((uint32_t) &(EXTI_D2->PR1)) + ((EXTI_Line >> 5 ) * 0x10UL)), (uint3
 2020              		.loc 1 1154 2 view .LVU330
 2021 0000 00F01F02 		and	r2, r0, #31
 2022 0004 4009     		lsrs	r0, r0, #5
 2023              	.LVL52:
 2024              		.loc 1 1154 2 is_stmt 0 view .LVU331
 2025 0006 0001     		lsls	r0, r0, #4
 2026 0008 0123     		movs	r3, #1
 2027 000a 9340     		lsls	r3, r3, r2
 2028 000c 014A     		ldr	r2, .L200
 2029 000e 8350     		str	r3, [r0, r2]
1155:../../Drivers/STM32H7xx_HAL_Driver/Src/stm32h7xx_hal.c **** }
 2030              		.loc 1 1155 1 view .LVU332
 2031 0010 7047     		bx	lr
 2032              	.L201:
 2033 0012 00BF     		.align	2
 2034              	.L200:
 2035 0014 C8000058 		.word	1476395208
 2036              		.cfi_endproc
 2037              	.LFE201:
 2039              		.section	.text.HAL_EXTI_D1_EventInputConfig,"ax",%progbits
 2040              		.align	1
 2041              		.global	HAL_EXTI_D1_EventInputConfig
 2042              		.syntax unified
 2043              		.thumb
 2044              		.thumb_func
 2046              	HAL_EXTI_D1_EventInputConfig:
 2047              	.LVL53:
 2048              	.LFB202:
1156:../../Drivers/STM32H7xx_HAL_Driver/Src/stm32h7xx_hal.c **** 
1157:../../Drivers/STM32H7xx_HAL_Driver/Src/stm32h7xx_hal.c **** #endif /*DUAL_CORE*/
1158:../../Drivers/STM32H7xx_HAL_Driver/Src/stm32h7xx_hal.c **** /**
1159:../../Drivers/STM32H7xx_HAL_Driver/Src/stm32h7xx_hal.c ****   * @brief  Configure the EXTI input event line for Domain D1
1160:../../Drivers/STM32H7xx_HAL_Driver/Src/stm32h7xx_hal.c ****   * @param   EXTI_Line: Specifies the EXTI LINE, it can be one of the following values,
1161:../../Drivers/STM32H7xx_HAL_Driver/Src/stm32h7xx_hal.c ****   *         (EXTI_LINE0....EXTI_LINE87)excluding :line45, line81,line83 which are reserved
1162:../../Drivers/STM32H7xx_HAL_Driver/Src/stm32h7xx_hal.c ****   * @param   EXTI_Mode: Specifies which EXTI line is used as interrupt or an event.
1163:../../Drivers/STM32H7xx_HAL_Driver/Src/stm32h7xx_hal.c ****   *          This parameter can be one or a combination of the following values :
1164:../../Drivers/STM32H7xx_HAL_Driver/Src/stm32h7xx_hal.c ****   *   @arg EXTI_MODE_IT :  Interrupt Mode selected
1165:../../Drivers/STM32H7xx_HAL_Driver/Src/stm32h7xx_hal.c ****   *   @arg EXTI_MODE_EVT : Event Mode selected
1166:../../Drivers/STM32H7xx_HAL_Driver/Src/stm32h7xx_hal.c ****   * @param   EXTI_LineCmd controls (Enable/Disable) the EXTI line.
1167:../../Drivers/STM32H7xx_HAL_Driver/Src/stm32h7xx_hal.c **** 
1168:../../Drivers/STM32H7xx_HAL_Driver/Src/stm32h7xx_hal.c ****   * @retval None
1169:../../Drivers/STM32H7xx_HAL_Driver/Src/stm32h7xx_hal.c ****   */
1170:../../Drivers/STM32H7xx_HAL_Driver/Src/stm32h7xx_hal.c **** void HAL_EXTI_D1_EventInputConfig(uint32_t EXTI_Line , uint32_t EXTI_Mode,  uint32_t EXTI_LineCmd )
1171:../../Drivers/STM32H7xx_HAL_Driver/Src/stm32h7xx_hal.c **** {
 2049              		.loc 1 1171 1 is_stmt 1 view -0
 2050              		.cfi_startproc
 2051              		@ args = 0, pretend = 0, frame = 0
 2052              		@ frame_needed = 0, uses_anonymous_args = 0
 2053              		.loc 1 1171 1 is_stmt 0 view .LVU334
 2054 0000 10B5     		push	{r4, lr}
 2055              	.LCFI8:
 2056              		.cfi_def_cfa_offset 8
 2057              		.cfi_offset 4, -8
 2058              		.cfi_offset 14, -4
ARM GAS  C:\Users\minis\AppData\Local\Temp\ccPvto3C.s 			page 57


1172:../../Drivers/STM32H7xx_HAL_Driver/Src/stm32h7xx_hal.c ****   /* Check the parameter */
1173:../../Drivers/STM32H7xx_HAL_Driver/Src/stm32h7xx_hal.c ****   assert_param(IS_EXTI_D1_LINE(EXTI_Line));
 2059              		.loc 1 1173 3 is_stmt 1 view .LVU335
1174:../../Drivers/STM32H7xx_HAL_Driver/Src/stm32h7xx_hal.c ****   assert_param(IS_EXTI_MODE_LINE(EXTI_Mode));
 2060              		.loc 1 1174 3 view .LVU336
1175:../../Drivers/STM32H7xx_HAL_Driver/Src/stm32h7xx_hal.c **** 
1176:../../Drivers/STM32H7xx_HAL_Driver/Src/stm32h7xx_hal.c ****   if( (EXTI_Mode & EXTI_MODE_IT) == EXTI_MODE_IT)
 2061              		.loc 1 1176 3 view .LVU337
 2062              		.loc 1 1176 5 is_stmt 0 view .LVU338
 2063 0002 11F4803F 		tst	r1, #65536
 2064 0006 0ED0     		beq	.L203
1177:../../Drivers/STM32H7xx_HAL_Driver/Src/stm32h7xx_hal.c ****   {
1178:../../Drivers/STM32H7xx_HAL_Driver/Src/stm32h7xx_hal.c ****      if( EXTI_LineCmd == 0UL)
 2065              		.loc 1 1178 6 is_stmt 1 view .LVU339
 2066              		.loc 1 1178 8 is_stmt 0 view .LVU340
 2067 0008 EAB9     		cbnz	r2, .L204
1179:../../Drivers/STM32H7xx_HAL_Driver/Src/stm32h7xx_hal.c ****      {
1180:../../Drivers/STM32H7xx_HAL_Driver/Src/stm32h7xx_hal.c ****        /* Clear EXTI line configuration */
1181:../../Drivers/STM32H7xx_HAL_Driver/Src/stm32h7xx_hal.c ****         CLEAR_BIT(*(__IO uint32_t *) (((uint32_t) &(EXTI_D1->IMR1)) + ((EXTI_Line >> 5 ) * 0x10UL))
 2068              		.loc 1 1181 9 is_stmt 1 view .LVU341
 2069 000a 1C4B     		ldr	r3, .L208
 2070 000c 03EB5013 		add	r3, r3, r0, lsr #5
 2071 0010 1B01     		lsls	r3, r3, #4
 2072 0012 1C68     		ldr	r4, [r3]
 2073 0014 00F01F0E 		and	lr, r0, #31
 2074 0018 4FF0010C 		mov	ip, #1
 2075 001c 0CFA0EFC 		lsl	ip, ip, lr
 2076 0020 24EA0C04 		bic	r4, r4, ip
 2077 0024 1C60     		str	r4, [r3]
 2078              	.L203:
1182:../../Drivers/STM32H7xx_HAL_Driver/Src/stm32h7xx_hal.c ****      }
1183:../../Drivers/STM32H7xx_HAL_Driver/Src/stm32h7xx_hal.c ****      else
1184:../../Drivers/STM32H7xx_HAL_Driver/Src/stm32h7xx_hal.c ****      {
1185:../../Drivers/STM32H7xx_HAL_Driver/Src/stm32h7xx_hal.c ****         SET_BIT(*(__IO uint32_t *) (((uint32_t) &(EXTI_D1->IMR1)) + ((EXTI_Line >> 5 ) * 0x10UL)), 
1186:../../Drivers/STM32H7xx_HAL_Driver/Src/stm32h7xx_hal.c ****      }
1187:../../Drivers/STM32H7xx_HAL_Driver/Src/stm32h7xx_hal.c ****   }
1188:../../Drivers/STM32H7xx_HAL_Driver/Src/stm32h7xx_hal.c **** 
1189:../../Drivers/STM32H7xx_HAL_Driver/Src/stm32h7xx_hal.c ****   if( (EXTI_Mode & EXTI_MODE_EVT) == EXTI_MODE_EVT)
 2079              		.loc 1 1189 3 view .LVU342
 2080              		.loc 1 1189 5 is_stmt 0 view .LVU343
 2081 0026 11F4003F 		tst	r1, #131072
 2082 002a 0BD0     		beq	.L202
1190:../../Drivers/STM32H7xx_HAL_Driver/Src/stm32h7xx_hal.c ****   {
1191:../../Drivers/STM32H7xx_HAL_Driver/Src/stm32h7xx_hal.c ****     if( EXTI_LineCmd == 0UL)
 2083              		.loc 1 1191 5 is_stmt 1 view .LVU344
 2084              		.loc 1 1191 7 is_stmt 0 view .LVU345
 2085 002c D2B9     		cbnz	r2, .L206
1192:../../Drivers/STM32H7xx_HAL_Driver/Src/stm32h7xx_hal.c ****     {
1193:../../Drivers/STM32H7xx_HAL_Driver/Src/stm32h7xx_hal.c ****       /* Clear EXTI line configuration */
1194:../../Drivers/STM32H7xx_HAL_Driver/Src/stm32h7xx_hal.c ****       CLEAR_BIT(  *(__IO uint32_t *) (((uint32_t) &(EXTI_D1->EMR1)) + ((EXTI_Line >> 5 ) * 0x10UL))
 2086              		.loc 1 1194 7 is_stmt 1 view .LVU346
 2087 002e 4309     		lsrs	r3, r0, #5
 2088 0030 1B01     		lsls	r3, r3, #4
 2089 0032 134C     		ldr	r4, .L208+4
 2090 0034 1A59     		ldr	r2, [r3, r4]
 2091              	.LVL54:
 2092              		.loc 1 1194 7 is_stmt 0 view .LVU347
ARM GAS  C:\Users\minis\AppData\Local\Temp\ccPvto3C.s 			page 58


 2093 0036 00F01F00 		and	r0, r0, #31
 2094              	.LVL55:
 2095              		.loc 1 1194 7 view .LVU348
 2096 003a 0121     		movs	r1, #1
 2097              	.LVL56:
 2098              		.loc 1 1194 7 view .LVU349
 2099 003c 8140     		lsls	r1, r1, r0
 2100 003e 22EA0102 		bic	r2, r2, r1
 2101 0042 1A51     		str	r2, [r3, r4]
 2102              	.L202:
1195:../../Drivers/STM32H7xx_HAL_Driver/Src/stm32h7xx_hal.c ****     }
1196:../../Drivers/STM32H7xx_HAL_Driver/Src/stm32h7xx_hal.c ****     else
1197:../../Drivers/STM32H7xx_HAL_Driver/Src/stm32h7xx_hal.c ****     {
1198:../../Drivers/STM32H7xx_HAL_Driver/Src/stm32h7xx_hal.c ****       SET_BIT(  *(__IO uint32_t *) (((uint32_t) &(EXTI_D1->EMR1)) + ((EXTI_Line >> 5 ) * 0x10UL)), 
1199:../../Drivers/STM32H7xx_HAL_Driver/Src/stm32h7xx_hal.c ****     }
1200:../../Drivers/STM32H7xx_HAL_Driver/Src/stm32h7xx_hal.c ****   }
1201:../../Drivers/STM32H7xx_HAL_Driver/Src/stm32h7xx_hal.c **** }
 2103              		.loc 1 1201 1 view .LVU350
 2104 0044 10BD     		pop	{r4, pc}
 2105              	.LVL57:
 2106              	.L204:
1185:../../Drivers/STM32H7xx_HAL_Driver/Src/stm32h7xx_hal.c ****      }
 2107              		.loc 1 1185 9 is_stmt 1 view .LVU351
 2108 0046 0D4B     		ldr	r3, .L208
 2109 0048 03EB5013 		add	r3, r3, r0, lsr #5
 2110 004c 1B01     		lsls	r3, r3, #4
 2111 004e 1C68     		ldr	r4, [r3]
 2112 0050 00F01F0E 		and	lr, r0, #31
 2113 0054 4FF0010C 		mov	ip, #1
 2114 0058 0CFA0EFC 		lsl	ip, ip, lr
 2115 005c 44EA0C04 		orr	r4, r4, ip
 2116 0060 1C60     		str	r4, [r3]
 2117 0062 E0E7     		b	.L203
 2118              	.L206:
1198:../../Drivers/STM32H7xx_HAL_Driver/Src/stm32h7xx_hal.c ****     }
 2119              		.loc 1 1198 7 view .LVU352
 2120 0064 4309     		lsrs	r3, r0, #5
 2121 0066 1B01     		lsls	r3, r3, #4
 2122 0068 054C     		ldr	r4, .L208+4
 2123 006a 1A59     		ldr	r2, [r3, r4]
 2124              	.LVL58:
1198:../../Drivers/STM32H7xx_HAL_Driver/Src/stm32h7xx_hal.c ****     }
 2125              		.loc 1 1198 7 is_stmt 0 view .LVU353
 2126 006c 00F01F00 		and	r0, r0, #31
 2127              	.LVL59:
1198:../../Drivers/STM32H7xx_HAL_Driver/Src/stm32h7xx_hal.c ****     }
 2128              		.loc 1 1198 7 view .LVU354
 2129 0070 0121     		movs	r1, #1
 2130              	.LVL60:
1198:../../Drivers/STM32H7xx_HAL_Driver/Src/stm32h7xx_hal.c ****     }
 2131              		.loc 1 1198 7 view .LVU355
 2132 0072 8140     		lsls	r1, r1, r0
 2133 0074 0A43     		orrs	r2, r2, r1
 2134 0076 1A51     		str	r2, [r3, r4]
 2135              		.loc 1 1201 1 view .LVU356
 2136 0078 E4E7     		b	.L202
 2137              	.L209:
ARM GAS  C:\Users\minis\AppData\Local\Temp\ccPvto3C.s 			page 59


 2138 007a 00BF     		.align	2
 2139              	.L208:
 2140 007c 08008005 		.word	92274696
 2141 0080 84000058 		.word	1476395140
 2142              		.cfi_endproc
 2143              	.LFE202:
 2145              		.section	.text.HAL_EXTI_D2_EventInputConfig,"ax",%progbits
 2146              		.align	1
 2147              		.global	HAL_EXTI_D2_EventInputConfig
 2148              		.syntax unified
 2149              		.thumb
 2150              		.thumb_func
 2152              	HAL_EXTI_D2_EventInputConfig:
 2153              	.LVL61:
 2154              	.LFB203:
1202:../../Drivers/STM32H7xx_HAL_Driver/Src/stm32h7xx_hal.c **** 
1203:../../Drivers/STM32H7xx_HAL_Driver/Src/stm32h7xx_hal.c **** #if defined(DUAL_CORE)
1204:../../Drivers/STM32H7xx_HAL_Driver/Src/stm32h7xx_hal.c **** /**
1205:../../Drivers/STM32H7xx_HAL_Driver/Src/stm32h7xx_hal.c ****   * @brief  Configure the EXTI input event line for Domain D2
1206:../../Drivers/STM32H7xx_HAL_Driver/Src/stm32h7xx_hal.c ****   * @param   EXTI_Line: Specifies the EXTI LINE, it can be one of the following values,
1207:../../Drivers/STM32H7xx_HAL_Driver/Src/stm32h7xx_hal.c ****   *         (EXTI_LINE0....EXTI_LINE87)excluding :line45, line81,line83 which are reserved
1208:../../Drivers/STM32H7xx_HAL_Driver/Src/stm32h7xx_hal.c ****   * @param   EXTI_Mode: Specifies which EXTI line is used as interrupt or an event.
1209:../../Drivers/STM32H7xx_HAL_Driver/Src/stm32h7xx_hal.c ****   *          This parameter can be one or a combination of the following values :
1210:../../Drivers/STM32H7xx_HAL_Driver/Src/stm32h7xx_hal.c ****   *   @arg EXTI_MODE_IT :  Interrupt Mode selected
1211:../../Drivers/STM32H7xx_HAL_Driver/Src/stm32h7xx_hal.c ****   *   @arg EXTI_MODE_EVT : Event Mode selected
1212:../../Drivers/STM32H7xx_HAL_Driver/Src/stm32h7xx_hal.c ****   * @param   EXTI_LineCmd controls (Enable/Disable) the EXTI line.
1213:../../Drivers/STM32H7xx_HAL_Driver/Src/stm32h7xx_hal.c **** 
1214:../../Drivers/STM32H7xx_HAL_Driver/Src/stm32h7xx_hal.c ****   * @retval None
1215:../../Drivers/STM32H7xx_HAL_Driver/Src/stm32h7xx_hal.c ****   */
1216:../../Drivers/STM32H7xx_HAL_Driver/Src/stm32h7xx_hal.c **** void HAL_EXTI_D2_EventInputConfig(uint32_t EXTI_Line , uint32_t EXTI_Mode,  uint32_t EXTI_LineCmd )
1217:../../Drivers/STM32H7xx_HAL_Driver/Src/stm32h7xx_hal.c **** {
 2155              		.loc 1 1217 1 is_stmt 1 view -0
 2156              		.cfi_startproc
 2157              		@ args = 0, pretend = 0, frame = 0
 2158              		@ frame_needed = 0, uses_anonymous_args = 0
 2159              		.loc 1 1217 1 is_stmt 0 view .LVU358
 2160 0000 10B5     		push	{r4, lr}
 2161              	.LCFI9:
 2162              		.cfi_def_cfa_offset 8
 2163              		.cfi_offset 4, -8
 2164              		.cfi_offset 14, -4
1218:../../Drivers/STM32H7xx_HAL_Driver/Src/stm32h7xx_hal.c ****   /* Check the parameter */
1219:../../Drivers/STM32H7xx_HAL_Driver/Src/stm32h7xx_hal.c ****   assert_param(IS_EXTI_D2_LINE(EXTI_Line));
 2165              		.loc 1 1219 3 is_stmt 1 view .LVU359
1220:../../Drivers/STM32H7xx_HAL_Driver/Src/stm32h7xx_hal.c ****   assert_param(IS_EXTI_MODE_LINE(EXTI_Mode));
 2166              		.loc 1 1220 3 view .LVU360
1221:../../Drivers/STM32H7xx_HAL_Driver/Src/stm32h7xx_hal.c **** 
1222:../../Drivers/STM32H7xx_HAL_Driver/Src/stm32h7xx_hal.c ****   if( (EXTI_Mode & EXTI_MODE_IT) == EXTI_MODE_IT)
 2167              		.loc 1 1222 3 view .LVU361
 2168              		.loc 1 1222 5 is_stmt 0 view .LVU362
 2169 0002 11F4803F 		tst	r1, #65536
 2170 0006 0ED0     		beq	.L211
1223:../../Drivers/STM32H7xx_HAL_Driver/Src/stm32h7xx_hal.c ****   {
1224:../../Drivers/STM32H7xx_HAL_Driver/Src/stm32h7xx_hal.c ****     if( EXTI_LineCmd == 0UL)
 2171              		.loc 1 1224 5 is_stmt 1 view .LVU363
 2172              		.loc 1 1224 7 is_stmt 0 view .LVU364
 2173 0008 EAB9     		cbnz	r2, .L212
ARM GAS  C:\Users\minis\AppData\Local\Temp\ccPvto3C.s 			page 60


1225:../../Drivers/STM32H7xx_HAL_Driver/Src/stm32h7xx_hal.c ****     {
1226:../../Drivers/STM32H7xx_HAL_Driver/Src/stm32h7xx_hal.c ****     /* Clear EXTI line configuration */
1227:../../Drivers/STM32H7xx_HAL_Driver/Src/stm32h7xx_hal.c ****      CLEAR_BIT(*(__IO uint32_t *) (((uint32_t) &(EXTI_D2->IMR1)) + ((EXTI_Line >> 5 ) * 0x10UL)),(u
 2174              		.loc 1 1227 6 is_stmt 1 view .LVU365
 2175 000a 1C4B     		ldr	r3, .L216
 2176 000c 03EB5013 		add	r3, r3, r0, lsr #5
 2177 0010 1B01     		lsls	r3, r3, #4
 2178 0012 1C68     		ldr	r4, [r3]
 2179 0014 00F01F0E 		and	lr, r0, #31
 2180 0018 4FF0010C 		mov	ip, #1
 2181 001c 0CFA0EFC 		lsl	ip, ip, lr
 2182 0020 24EA0C04 		bic	r4, r4, ip
 2183 0024 1C60     		str	r4, [r3]
 2184              	.L211:
1228:../../Drivers/STM32H7xx_HAL_Driver/Src/stm32h7xx_hal.c ****     }
1229:../../Drivers/STM32H7xx_HAL_Driver/Src/stm32h7xx_hal.c ****     else
1230:../../Drivers/STM32H7xx_HAL_Driver/Src/stm32h7xx_hal.c ****     {
1231:../../Drivers/STM32H7xx_HAL_Driver/Src/stm32h7xx_hal.c ****      SET_BIT(*(__IO uint32_t *) (((uint32_t) &(EXTI_D2->IMR1)) + ((EXTI_Line >> 5 ) * 0x10UL)), (ui
1232:../../Drivers/STM32H7xx_HAL_Driver/Src/stm32h7xx_hal.c ****     }
1233:../../Drivers/STM32H7xx_HAL_Driver/Src/stm32h7xx_hal.c ****   }
1234:../../Drivers/STM32H7xx_HAL_Driver/Src/stm32h7xx_hal.c **** 
1235:../../Drivers/STM32H7xx_HAL_Driver/Src/stm32h7xx_hal.c ****   if( (EXTI_Mode & EXTI_MODE_EVT) == EXTI_MODE_EVT)
 2185              		.loc 1 1235 3 view .LVU366
 2186              		.loc 1 1235 5 is_stmt 0 view .LVU367
 2187 0026 11F4003F 		tst	r1, #131072
 2188 002a 0BD0     		beq	.L210
1236:../../Drivers/STM32H7xx_HAL_Driver/Src/stm32h7xx_hal.c ****   {
1237:../../Drivers/STM32H7xx_HAL_Driver/Src/stm32h7xx_hal.c ****     if( EXTI_LineCmd == 0UL)
 2189              		.loc 1 1237 5 is_stmt 1 view .LVU368
 2190              		.loc 1 1237 7 is_stmt 0 view .LVU369
 2191 002c D2B9     		cbnz	r2, .L214
1238:../../Drivers/STM32H7xx_HAL_Driver/Src/stm32h7xx_hal.c ****     {
1239:../../Drivers/STM32H7xx_HAL_Driver/Src/stm32h7xx_hal.c ****       /* Clear EXTI line configuration */
1240:../../Drivers/STM32H7xx_HAL_Driver/Src/stm32h7xx_hal.c ****       CLEAR_BIT(  *(__IO uint32_t *) (((uint32_t) &(EXTI_D2->EMR1)) + ((EXTI_Line >> 5 ) * 0x10UL))
 2192              		.loc 1 1240 7 is_stmt 1 view .LVU370
 2193 002e 4309     		lsrs	r3, r0, #5
 2194 0030 1B01     		lsls	r3, r3, #4
 2195 0032 134C     		ldr	r4, .L216+4
 2196 0034 1A59     		ldr	r2, [r3, r4]
 2197              	.LVL62:
 2198              		.loc 1 1240 7 is_stmt 0 view .LVU371
 2199 0036 00F01F00 		and	r0, r0, #31
 2200              	.LVL63:
 2201              		.loc 1 1240 7 view .LVU372
 2202 003a 0121     		movs	r1, #1
 2203              	.LVL64:
 2204              		.loc 1 1240 7 view .LVU373
 2205 003c 8140     		lsls	r1, r1, r0
 2206 003e 22EA0102 		bic	r2, r2, r1
 2207 0042 1A51     		str	r2, [r3, r4]
 2208              	.L210:
1241:../../Drivers/STM32H7xx_HAL_Driver/Src/stm32h7xx_hal.c ****     }
1242:../../Drivers/STM32H7xx_HAL_Driver/Src/stm32h7xx_hal.c ****     else
1243:../../Drivers/STM32H7xx_HAL_Driver/Src/stm32h7xx_hal.c ****     {
1244:../../Drivers/STM32H7xx_HAL_Driver/Src/stm32h7xx_hal.c ****       SET_BIT(  *(__IO uint32_t *) (((uint32_t) &(EXTI_D2->EMR1)) + ((EXTI_Line >> 5 ) * 0x10UL)), 
1245:../../Drivers/STM32H7xx_HAL_Driver/Src/stm32h7xx_hal.c ****     }
1246:../../Drivers/STM32H7xx_HAL_Driver/Src/stm32h7xx_hal.c ****   }
ARM GAS  C:\Users\minis\AppData\Local\Temp\ccPvto3C.s 			page 61


1247:../../Drivers/STM32H7xx_HAL_Driver/Src/stm32h7xx_hal.c **** }
 2209              		.loc 1 1247 1 view .LVU374
 2210 0044 10BD     		pop	{r4, pc}
 2211              	.LVL65:
 2212              	.L212:
1231:../../Drivers/STM32H7xx_HAL_Driver/Src/stm32h7xx_hal.c ****     }
 2213              		.loc 1 1231 6 is_stmt 1 view .LVU375
 2214 0046 0D4B     		ldr	r3, .L216
 2215 0048 03EB5013 		add	r3, r3, r0, lsr #5
 2216 004c 1B01     		lsls	r3, r3, #4
 2217 004e 1C68     		ldr	r4, [r3]
 2218 0050 00F01F0E 		and	lr, r0, #31
 2219 0054 4FF0010C 		mov	ip, #1
 2220 0058 0CFA0EFC 		lsl	ip, ip, lr
 2221 005c 44EA0C04 		orr	r4, r4, ip
 2222 0060 1C60     		str	r4, [r3]
 2223 0062 E0E7     		b	.L211
 2224              	.L214:
1244:../../Drivers/STM32H7xx_HAL_Driver/Src/stm32h7xx_hal.c ****     }
 2225              		.loc 1 1244 7 view .LVU376
 2226 0064 4309     		lsrs	r3, r0, #5
 2227 0066 1B01     		lsls	r3, r3, #4
 2228 0068 054C     		ldr	r4, .L216+4
 2229 006a 1A59     		ldr	r2, [r3, r4]
 2230              	.LVL66:
1244:../../Drivers/STM32H7xx_HAL_Driver/Src/stm32h7xx_hal.c ****     }
 2231              		.loc 1 1244 7 is_stmt 0 view .LVU377
 2232 006c 00F01F00 		and	r0, r0, #31
 2233              	.LVL67:
1244:../../Drivers/STM32H7xx_HAL_Driver/Src/stm32h7xx_hal.c ****     }
 2234              		.loc 1 1244 7 view .LVU378
 2235 0070 0121     		movs	r1, #1
 2236              	.LVL68:
1244:../../Drivers/STM32H7xx_HAL_Driver/Src/stm32h7xx_hal.c ****     }
 2237              		.loc 1 1244 7 view .LVU379
 2238 0072 8140     		lsls	r1, r1, r0
 2239 0074 0A43     		orrs	r2, r2, r1
 2240 0076 1A51     		str	r2, [r3, r4]
 2241              		.loc 1 1247 1 view .LVU380
 2242 0078 E4E7     		b	.L210
 2243              	.L217:
 2244 007a 00BF     		.align	2
 2245              	.L216:
 2246 007c 0C008005 		.word	92274700
 2247 0080 C4000058 		.word	1476395204
 2248              		.cfi_endproc
 2249              	.LFE203:
 2251              		.section	.text.HAL_EXTI_D3_EventInputConfig,"ax",%progbits
 2252              		.align	1
 2253              		.global	HAL_EXTI_D3_EventInputConfig
 2254              		.syntax unified
 2255              		.thumb
 2256              		.thumb_func
 2258              	HAL_EXTI_D3_EventInputConfig:
 2259              	.LVL69:
 2260              	.LFB204:
1248:../../Drivers/STM32H7xx_HAL_Driver/Src/stm32h7xx_hal.c **** #endif /*DUAL_CORE*/
ARM GAS  C:\Users\minis\AppData\Local\Temp\ccPvto3C.s 			page 62


1249:../../Drivers/STM32H7xx_HAL_Driver/Src/stm32h7xx_hal.c **** 
1250:../../Drivers/STM32H7xx_HAL_Driver/Src/stm32h7xx_hal.c **** /**
1251:../../Drivers/STM32H7xx_HAL_Driver/Src/stm32h7xx_hal.c ****   * @brief  Configure the EXTI input event line for Domain D3
1252:../../Drivers/STM32H7xx_HAL_Driver/Src/stm32h7xx_hal.c ****   * @param   EXTI_Line: Specifies the EXTI LINE, it can be one of the following values,
1253:../../Drivers/STM32H7xx_HAL_Driver/Src/stm32h7xx_hal.c ****   *         (EXTI_LINE0...EXTI_LINE15),(EXTI_LINE19...EXTI_LINE21),EXTI_LINE25, EXTI_LINE34,
1254:../../Drivers/STM32H7xx_HAL_Driver/Src/stm32h7xx_hal.c ****   *          EXTI_LINE35,EXTI_LINE41,(EXTI_LINE48...EXTI_LINE53)
1255:../../Drivers/STM32H7xx_HAL_Driver/Src/stm32h7xx_hal.c ****   * @param   EXTI_LineCmd controls (Enable/Disable) the EXTI line.
1256:../../Drivers/STM32H7xx_HAL_Driver/Src/stm32h7xx_hal.c ****   * @param   EXTI_ClearSrc: Specifies the clear source of D3 pending event.
1257:../../Drivers/STM32H7xx_HAL_Driver/Src/stm32h7xx_hal.c ****   *          This parameter can be one of the following values :
1258:../../Drivers/STM32H7xx_HAL_Driver/Src/stm32h7xx_hal.c ****   *   @arg BDMA_CH6_CLEAR : BDMA ch6 event selected as D3 domain pendclear source
1259:../../Drivers/STM32H7xx_HAL_Driver/Src/stm32h7xx_hal.c ****   *   @arg BDMA_CH7_CLEAR : BDMA ch7 event selected as D3 domain pendclear source
1260:../../Drivers/STM32H7xx_HAL_Driver/Src/stm32h7xx_hal.c ****   *   @arg LPTIM4_OUT_CLEAR : LPTIM4 out selected as D3 domain pendclear source
1261:../../Drivers/STM32H7xx_HAL_Driver/Src/stm32h7xx_hal.c ****   *   @arg LPTIM5_OUT_CLEAR : LPTIM5 out selected as D3 domain pendclear source
1262:../../Drivers/STM32H7xx_HAL_Driver/Src/stm32h7xx_hal.c ****   * @retval None
1263:../../Drivers/STM32H7xx_HAL_Driver/Src/stm32h7xx_hal.c ****   */
1264:../../Drivers/STM32H7xx_HAL_Driver/Src/stm32h7xx_hal.c **** void HAL_EXTI_D3_EventInputConfig(uint32_t EXTI_Line, uint32_t EXTI_LineCmd , uint32_t EXTI_ClearSr
1265:../../Drivers/STM32H7xx_HAL_Driver/Src/stm32h7xx_hal.c **** {
 2261              		.loc 1 1265 1 is_stmt 1 view -0
 2262              		.cfi_startproc
 2263              		@ args = 0, pretend = 0, frame = 0
 2264              		@ frame_needed = 0, uses_anonymous_args = 0
 2265              		.loc 1 1265 1 is_stmt 0 view .LVU382
 2266 0000 10B5     		push	{r4, lr}
 2267              	.LCFI10:
 2268              		.cfi_def_cfa_offset 8
 2269              		.cfi_offset 4, -8
 2270              		.cfi_offset 14, -4
1266:../../Drivers/STM32H7xx_HAL_Driver/Src/stm32h7xx_hal.c ****   __IO uint32_t *pRegv;
 2271              		.loc 1 1266 3 is_stmt 1 view .LVU383
1267:../../Drivers/STM32H7xx_HAL_Driver/Src/stm32h7xx_hal.c **** 
1268:../../Drivers/STM32H7xx_HAL_Driver/Src/stm32h7xx_hal.c ****   /* Check the parameter */
1269:../../Drivers/STM32H7xx_HAL_Driver/Src/stm32h7xx_hal.c ****   assert_param(IS_EXTI_D3_LINE(EXTI_Line));
 2272              		.loc 1 1269 3 view .LVU384
1270:../../Drivers/STM32H7xx_HAL_Driver/Src/stm32h7xx_hal.c ****   assert_param(IS_EXTI_D3_CLEAR(EXTI_ClearSrc));
 2273              		.loc 1 1270 3 view .LVU385
1271:../../Drivers/STM32H7xx_HAL_Driver/Src/stm32h7xx_hal.c **** 
1272:../../Drivers/STM32H7xx_HAL_Driver/Src/stm32h7xx_hal.c ****   if( EXTI_LineCmd == 0UL)
 2274              		.loc 1 1272 3 view .LVU386
 2275              		.loc 1 1272 5 is_stmt 0 view .LVU387
 2276 0002 09BB     		cbnz	r1, .L219
1273:../../Drivers/STM32H7xx_HAL_Driver/Src/stm32h7xx_hal.c ****   {
1274:../../Drivers/STM32H7xx_HAL_Driver/Src/stm32h7xx_hal.c ****     /* Clear EXTI line configuration */
1275:../../Drivers/STM32H7xx_HAL_Driver/Src/stm32h7xx_hal.c ****     CLEAR_BIT(*(__IO uint32_t *) (((uint32_t) &(EXTI->D3PMR1)) + ((EXTI_Line >> 5 ) * 0x20UL)),(uin
 2277              		.loc 1 1275 5 is_stmt 1 view .LVU388
 2278 0004 20F01F03 		bic	r3, r0, #31
 2279 0008 194C     		ldr	r4, .L224
 2280 000a 1959     		ldr	r1, [r3, r4]
 2281              	.LVL70:
 2282              		.loc 1 1275 5 is_stmt 0 view .LVU389
 2283 000c 00F01F0E 		and	lr, r0, #31
 2284 0010 4FF0010C 		mov	ip, #1
 2285 0014 0CFA0EFC 		lsl	ip, ip, lr
 2286 0018 21EA0C01 		bic	r1, r1, ip
 2287 001c 1951     		str	r1, [r3, r4]
 2288              	.L220:
1276:../../Drivers/STM32H7xx_HAL_Driver/Src/stm32h7xx_hal.c ****   }
1277:../../Drivers/STM32H7xx_HAL_Driver/Src/stm32h7xx_hal.c ****   else
ARM GAS  C:\Users\minis\AppData\Local\Temp\ccPvto3C.s 			page 63


1278:../../Drivers/STM32H7xx_HAL_Driver/Src/stm32h7xx_hal.c ****   {
1279:../../Drivers/STM32H7xx_HAL_Driver/Src/stm32h7xx_hal.c ****     SET_BIT(*(__IO uint32_t *) (((uint32_t) &(EXTI->D3PMR1)) +((EXTI_Line >> 5 ) * 0x20UL)), (uint3
1280:../../Drivers/STM32H7xx_HAL_Driver/Src/stm32h7xx_hal.c ****   }
1281:../../Drivers/STM32H7xx_HAL_Driver/Src/stm32h7xx_hal.c **** 
1282:../../Drivers/STM32H7xx_HAL_Driver/Src/stm32h7xx_hal.c ****   if(((EXTI_Line>>4)%2UL) == 0UL)
 2289              		.loc 1 1282 3 is_stmt 1 view .LVU390
 2290              		.loc 1 1282 5 is_stmt 0 view .LVU391
 2291 001e 10F0100F 		tst	r0, #16
 2292 0022 1FD1     		bne	.L221
1283:../../Drivers/STM32H7xx_HAL_Driver/Src/stm32h7xx_hal.c ****   {
1284:../../Drivers/STM32H7xx_HAL_Driver/Src/stm32h7xx_hal.c ****     pRegv = (__IO uint32_t *) (((uint32_t) &(EXTI->D3PCR1L)) + ((EXTI_Line >> 5 ) * 0x20UL));
 2293              		.loc 1 1284 5 is_stmt 1 view .LVU392
 2294              		.loc 1 1284 83 is_stmt 0 view .LVU393
 2295 0024 20F01F03 		bic	r3, r0, #31
 2296              		.loc 1 1284 62 view .LVU394
 2297 0028 1249     		ldr	r1, .L224+4
 2298 002a 1944     		add	r1, r1, r3
 2299              	.LVL71:
 2300              	.L222:
1285:../../Drivers/STM32H7xx_HAL_Driver/Src/stm32h7xx_hal.c ****   }
1286:../../Drivers/STM32H7xx_HAL_Driver/Src/stm32h7xx_hal.c ****   else
1287:../../Drivers/STM32H7xx_HAL_Driver/Src/stm32h7xx_hal.c ****   {
1288:../../Drivers/STM32H7xx_HAL_Driver/Src/stm32h7xx_hal.c ****     pRegv = (__IO uint32_t *) (((uint32_t) &(EXTI->D3PCR1H)) + ((EXTI_Line >> 5 ) * 0x20UL));
1289:../../Drivers/STM32H7xx_HAL_Driver/Src/stm32h7xx_hal.c ****   }
1290:../../Drivers/STM32H7xx_HAL_Driver/Src/stm32h7xx_hal.c ****   MODIFY_REG(*pRegv, (uint32_t)(3UL << ((EXTI_Line*2UL) & 0x1FUL)), (uint32_t)(EXTI_ClearSrc << ((E
 2301              		.loc 1 1290 3 is_stmt 1 view .LVU395
 2302 002c 0B68     		ldr	r3, [r1]
 2303 002e 4000     		lsls	r0, r0, #1
 2304              	.LVL72:
 2305              		.loc 1 1290 3 is_stmt 0 view .LVU396
 2306 0030 00F01E00 		and	r0, r0, #30
 2307 0034 4FF0030C 		mov	ip, #3
 2308 0038 0CFA00FC 		lsl	ip, ip, r0
 2309 003c 23EA0C03 		bic	r3, r3, ip
 2310 0040 8240     		lsls	r2, r2, r0
 2311              	.LVL73:
 2312              		.loc 1 1290 3 view .LVU397
 2313 0042 1A43     		orrs	r2, r2, r3
 2314 0044 0A60     		str	r2, [r1]
1291:../../Drivers/STM32H7xx_HAL_Driver/Src/stm32h7xx_hal.c **** 
1292:../../Drivers/STM32H7xx_HAL_Driver/Src/stm32h7xx_hal.c **** }
 2315              		.loc 1 1292 1 view .LVU398
 2316 0046 10BD     		pop	{r4, pc}
 2317              	.LVL74:
 2318              	.L219:
1279:../../Drivers/STM32H7xx_HAL_Driver/Src/stm32h7xx_hal.c ****   }
 2319              		.loc 1 1279 5 is_stmt 1 view .LVU399
 2320 0048 20F01F03 		bic	r3, r0, #31
 2321 004c 084C     		ldr	r4, .L224
 2322 004e 1959     		ldr	r1, [r3, r4]
 2323              	.LVL75:
1279:../../Drivers/STM32H7xx_HAL_Driver/Src/stm32h7xx_hal.c ****   }
 2324              		.loc 1 1279 5 is_stmt 0 view .LVU400
 2325 0050 00F01F0E 		and	lr, r0, #31
 2326 0054 4FF0010C 		mov	ip, #1
 2327 0058 0CFA0EFC 		lsl	ip, ip, lr
 2328 005c 41EA0C01 		orr	r1, r1, ip
ARM GAS  C:\Users\minis\AppData\Local\Temp\ccPvto3C.s 			page 64


 2329 0060 1951     		str	r1, [r3, r4]
 2330 0062 DCE7     		b	.L220
 2331              	.L221:
1288:../../Drivers/STM32H7xx_HAL_Driver/Src/stm32h7xx_hal.c ****   }
 2332              		.loc 1 1288 5 is_stmt 1 view .LVU401
1288:../../Drivers/STM32H7xx_HAL_Driver/Src/stm32h7xx_hal.c ****   }
 2333              		.loc 1 1288 83 is_stmt 0 view .LVU402
 2334 0064 20F01F03 		bic	r3, r0, #31
1288:../../Drivers/STM32H7xx_HAL_Driver/Src/stm32h7xx_hal.c ****   }
 2335              		.loc 1 1288 62 view .LVU403
 2336 0068 0349     		ldr	r1, .L224+8
 2337 006a 1944     		add	r1, r1, r3
 2338 006c DEE7     		b	.L222
 2339              	.L225:
 2340 006e 00BF     		.align	2
 2341              	.L224:
 2342 0070 0C000058 		.word	1476395020
 2343 0074 10000058 		.word	1476395024
 2344 0078 14000058 		.word	1476395028
 2345              		.cfi_endproc
 2346              	.LFE204:
 2348              		.global	uwTickFreq
 2349              		.section	.data.uwTickFreq,"aw"
 2352              	uwTickFreq:
 2353 0000 01       		.byte	1
 2354              		.global	uwTickPrio
 2355              		.section	.data.uwTickPrio,"aw"
 2356              		.align	2
 2359              	uwTickPrio:
 2360 0000 10000000 		.word	16
 2361              		.global	uwTick
 2362              		.section	.bss.uwTick,"aw",%nobits
 2363              		.align	2
 2366              	uwTick:
 2367 0000 00000000 		.space	4
 2368              		.text
 2369              	.Letext0:
 2370              		.file 2 "../../Drivers/CMSIS/Device/ST/STM32H7xx/Include/stm32h755xx.h"
 2371              		.file 3 "C:/Program Files (x86)/Arm GNU Toolchain arm-none-eabi/14.3 rel1/arm-none-eabi/include/ma
 2372              		.file 4 "C:/Program Files (x86)/Arm GNU Toolchain arm-none-eabi/14.3 rel1/arm-none-eabi/include/sy
 2373              		.file 5 "../../Drivers/CMSIS/Include/core_cm7.h"
 2374              		.file 6 "../../Drivers/CMSIS/Device/ST/STM32H7xx/Include/system_stm32h7xx.h"
 2375              		.file 7 "../../Drivers/STM32H7xx_HAL_Driver/Inc/stm32h7xx_hal_def.h"
 2376              		.file 8 "../../Drivers/STM32H7xx_HAL_Driver/Inc/stm32h7xx_hal.h"
 2377              		.file 9 "../../Drivers/STM32H7xx_HAL_Driver/Inc/stm32h7xx_hal_cortex.h"
 2378              		.file 10 "../../Drivers/STM32H7xx_HAL_Driver/Inc/stm32h7xx_hal_rcc.h"
ARM GAS  C:\Users\minis\AppData\Local\Temp\ccPvto3C.s 			page 65

