ARM GAS  C:\Users\minis\AppData\Local\Temp\cczlSevg.s 			page 1


   1              		.cpu cortex-m7
   2              		.arch armv7e-m
   3              		.fpu fpv5-d16
   4              		.eabi_attribute 20, 1
   5              		.eabi_attribute 21, 1
   6              		.eabi_attribute 23, 3
   7              		.eabi_attribute 24, 1
   8              		.eabi_attribute 25, 1
   9              		.eabi_attribute 26, 1
  10              		.eabi_attribute 30, 1
  11              		.eabi_attribute 34, 1
  12              		.eabi_attribute 18, 4
  13              		.file	"stm32h7xx_hal_rcc.c"
  14              		.text
  15              	.Ltext0:
  16              		.cfi_sections	.debug_frame
  17              		.file 1 "../../Drivers/STM32H7xx_HAL_Driver/Src/stm32h7xx_hal_rcc.c"
  18              		.section	.text.HAL_RCC_DeInit,"ax",%progbits
  19              		.align	1
  20              		.global	HAL_RCC_DeInit
  21              		.syntax unified
  22              		.thumb
  23              		.thumb_func
  25              	HAL_RCC_DeInit:
  26              	.LFB144:
   1:../../Drivers/STM32H7xx_HAL_Driver/Src/stm32h7xx_hal_rcc.c **** /**
   2:../../Drivers/STM32H7xx_HAL_Driver/Src/stm32h7xx_hal_rcc.c ****   ******************************************************************************
   3:../../Drivers/STM32H7xx_HAL_Driver/Src/stm32h7xx_hal_rcc.c ****   * @file    stm32h7xx_hal_rcc.c
   4:../../Drivers/STM32H7xx_HAL_Driver/Src/stm32h7xx_hal_rcc.c ****   * @author  MCD Application Team
   5:../../Drivers/STM32H7xx_HAL_Driver/Src/stm32h7xx_hal_rcc.c ****   * @brief   RCC HAL module driver.
   6:../../Drivers/STM32H7xx_HAL_Driver/Src/stm32h7xx_hal_rcc.c ****   *          This file provides firmware functions to manage the following
   7:../../Drivers/STM32H7xx_HAL_Driver/Src/stm32h7xx_hal_rcc.c ****   *          functionalities of the Reset and Clock Control (RCC) peripheral:
   8:../../Drivers/STM32H7xx_HAL_Driver/Src/stm32h7xx_hal_rcc.c ****   *           + Initialization and de-initialization functions
   9:../../Drivers/STM32H7xx_HAL_Driver/Src/stm32h7xx_hal_rcc.c ****   *           + Peripheral Control functions
  10:../../Drivers/STM32H7xx_HAL_Driver/Src/stm32h7xx_hal_rcc.c ****   *
  11:../../Drivers/STM32H7xx_HAL_Driver/Src/stm32h7xx_hal_rcc.c ****   @verbatim
  12:../../Drivers/STM32H7xx_HAL_Driver/Src/stm32h7xx_hal_rcc.c ****   ==============================================================================
  13:../../Drivers/STM32H7xx_HAL_Driver/Src/stm32h7xx_hal_rcc.c ****                       ##### RCC specific features #####
  14:../../Drivers/STM32H7xx_HAL_Driver/Src/stm32h7xx_hal_rcc.c ****   ==============================================================================
  15:../../Drivers/STM32H7xx_HAL_Driver/Src/stm32h7xx_hal_rcc.c ****     [..]
  16:../../Drivers/STM32H7xx_HAL_Driver/Src/stm32h7xx_hal_rcc.c ****       After reset the device is running from Internal High Speed oscillator
  17:../../Drivers/STM32H7xx_HAL_Driver/Src/stm32h7xx_hal_rcc.c ****       (HSI 64MHz) with Flash 0 wait state,and all peripherals are off except
  18:../../Drivers/STM32H7xx_HAL_Driver/Src/stm32h7xx_hal_rcc.c ****       internal SRAM, Flash, JTAG and PWR
  19:../../Drivers/STM32H7xx_HAL_Driver/Src/stm32h7xx_hal_rcc.c ****       (+) There is no pre-scaler on High speed (AHB) and Low speed (APB) buses;
  20:../../Drivers/STM32H7xx_HAL_Driver/Src/stm32h7xx_hal_rcc.c ****           all peripherals mapped on these buses are running at HSI speed.
  21:../../Drivers/STM32H7xx_HAL_Driver/Src/stm32h7xx_hal_rcc.c ****       (+) The clock for all peripherals is switched off, except the SRAM and FLASH.
  22:../../Drivers/STM32H7xx_HAL_Driver/Src/stm32h7xx_hal_rcc.c ****       (+) All GPIOs are in analogue mode , except the JTAG pins which
  23:../../Drivers/STM32H7xx_HAL_Driver/Src/stm32h7xx_hal_rcc.c ****           are assigned to be used for debug purpose.
  24:../../Drivers/STM32H7xx_HAL_Driver/Src/stm32h7xx_hal_rcc.c **** 
  25:../../Drivers/STM32H7xx_HAL_Driver/Src/stm32h7xx_hal_rcc.c ****     [..]
  26:../../Drivers/STM32H7xx_HAL_Driver/Src/stm32h7xx_hal_rcc.c ****       Once the device started from reset, the user application has to:
  27:../../Drivers/STM32H7xx_HAL_Driver/Src/stm32h7xx_hal_rcc.c ****       (+) Configure the clock source to be used to drive the System clock
  28:../../Drivers/STM32H7xx_HAL_Driver/Src/stm32h7xx_hal_rcc.c ****           (if the application needs higher frequency/performance)
  29:../../Drivers/STM32H7xx_HAL_Driver/Src/stm32h7xx_hal_rcc.c ****       (+) Configure the System clock frequency and Flash settings
  30:../../Drivers/STM32H7xx_HAL_Driver/Src/stm32h7xx_hal_rcc.c ****       (+) Configure the AHB and APB buses pre-scalers
  31:../../Drivers/STM32H7xx_HAL_Driver/Src/stm32h7xx_hal_rcc.c ****       (+) Enable the clock for the peripheral(s) to be used
  32:../../Drivers/STM32H7xx_HAL_Driver/Src/stm32h7xx_hal_rcc.c ****       (+) Configure the clock kernel source(s) for peripherals which clocks are not
ARM GAS  C:\Users\minis\AppData\Local\Temp\cczlSevg.s 			page 2


  33:../../Drivers/STM32H7xx_HAL_Driver/Src/stm32h7xx_hal_rcc.c ****           derived from the System clock through :RCC_D1CCIPR,RCC_D2CCIP1R,RCC_D2CCIP2R
  34:../../Drivers/STM32H7xx_HAL_Driver/Src/stm32h7xx_hal_rcc.c ****           and RCC_D3CCIPR registers
  35:../../Drivers/STM32H7xx_HAL_Driver/Src/stm32h7xx_hal_rcc.c **** 
  36:../../Drivers/STM32H7xx_HAL_Driver/Src/stm32h7xx_hal_rcc.c ****                       ##### RCC Limitations #####
  37:../../Drivers/STM32H7xx_HAL_Driver/Src/stm32h7xx_hal_rcc.c ****   ==============================================================================
  38:../../Drivers/STM32H7xx_HAL_Driver/Src/stm32h7xx_hal_rcc.c ****     [..]
  39:../../Drivers/STM32H7xx_HAL_Driver/Src/stm32h7xx_hal_rcc.c ****       A delay between an RCC peripheral clock enable and the effective peripheral
  40:../../Drivers/STM32H7xx_HAL_Driver/Src/stm32h7xx_hal_rcc.c ****       enabling should be taken into account in order to manage the peripheral read/write
  41:../../Drivers/STM32H7xx_HAL_Driver/Src/stm32h7xx_hal_rcc.c ****       from/to registers.
  42:../../Drivers/STM32H7xx_HAL_Driver/Src/stm32h7xx_hal_rcc.c ****       (+) This delay depends on the peripheral mapping.
  43:../../Drivers/STM32H7xx_HAL_Driver/Src/stm32h7xx_hal_rcc.c ****       (+) If peripheral is mapped on AHB: the delay is 2 AHB clock cycle
  44:../../Drivers/STM32H7xx_HAL_Driver/Src/stm32h7xx_hal_rcc.c ****           after the clock enable bit is set on the hardware register
  45:../../Drivers/STM32H7xx_HAL_Driver/Src/stm32h7xx_hal_rcc.c ****       (+) If peripheral is mapped on APB: the delay is 2 APB clock cycle
  46:../../Drivers/STM32H7xx_HAL_Driver/Src/stm32h7xx_hal_rcc.c ****           after the clock enable bit is set on the hardware register
  47:../../Drivers/STM32H7xx_HAL_Driver/Src/stm32h7xx_hal_rcc.c **** 
  48:../../Drivers/STM32H7xx_HAL_Driver/Src/stm32h7xx_hal_rcc.c ****     [..]
  49:../../Drivers/STM32H7xx_HAL_Driver/Src/stm32h7xx_hal_rcc.c ****       Implemented Workaround:
  50:../../Drivers/STM32H7xx_HAL_Driver/Src/stm32h7xx_hal_rcc.c ****       (+) For AHB & APB peripherals, a dummy read to the peripheral register has been
  51:../../Drivers/STM32H7xx_HAL_Driver/Src/stm32h7xx_hal_rcc.c ****           inserted in each __HAL_RCC_PPP_CLK_ENABLE() macro.
  52:../../Drivers/STM32H7xx_HAL_Driver/Src/stm32h7xx_hal_rcc.c **** 
  53:../../Drivers/STM32H7xx_HAL_Driver/Src/stm32h7xx_hal_rcc.c ****   @endverbatim
  54:../../Drivers/STM32H7xx_HAL_Driver/Src/stm32h7xx_hal_rcc.c ****  ******************************************************************************
  55:../../Drivers/STM32H7xx_HAL_Driver/Src/stm32h7xx_hal_rcc.c ****   * @attention
  56:../../Drivers/STM32H7xx_HAL_Driver/Src/stm32h7xx_hal_rcc.c ****   *
  57:../../Drivers/STM32H7xx_HAL_Driver/Src/stm32h7xx_hal_rcc.c ****   * Copyright (c) 2017 STMicroelectronics.
  58:../../Drivers/STM32H7xx_HAL_Driver/Src/stm32h7xx_hal_rcc.c ****   * All rights reserved.
  59:../../Drivers/STM32H7xx_HAL_Driver/Src/stm32h7xx_hal_rcc.c ****   *
  60:../../Drivers/STM32H7xx_HAL_Driver/Src/stm32h7xx_hal_rcc.c ****   * This software is licensed under terms that can be found in the LICENSE file in
  61:../../Drivers/STM32H7xx_HAL_Driver/Src/stm32h7xx_hal_rcc.c ****   * the root directory of this software component.
  62:../../Drivers/STM32H7xx_HAL_Driver/Src/stm32h7xx_hal_rcc.c ****   * If no LICENSE file comes with this software, it is provided AS-IS.
  63:../../Drivers/STM32H7xx_HAL_Driver/Src/stm32h7xx_hal_rcc.c ****   ******************************************************************************
  64:../../Drivers/STM32H7xx_HAL_Driver/Src/stm32h7xx_hal_rcc.c ****   */
  65:../../Drivers/STM32H7xx_HAL_Driver/Src/stm32h7xx_hal_rcc.c **** 
  66:../../Drivers/STM32H7xx_HAL_Driver/Src/stm32h7xx_hal_rcc.c **** /* Includes ------------------------------------------------------------------*/
  67:../../Drivers/STM32H7xx_HAL_Driver/Src/stm32h7xx_hal_rcc.c **** #include "stm32h7xx_hal.h"
  68:../../Drivers/STM32H7xx_HAL_Driver/Src/stm32h7xx_hal_rcc.c **** 
  69:../../Drivers/STM32H7xx_HAL_Driver/Src/stm32h7xx_hal_rcc.c **** /** @addtogroup STM32H7xx_HAL_Driver
  70:../../Drivers/STM32H7xx_HAL_Driver/Src/stm32h7xx_hal_rcc.c ****   * @{
  71:../../Drivers/STM32H7xx_HAL_Driver/Src/stm32h7xx_hal_rcc.c ****   */
  72:../../Drivers/STM32H7xx_HAL_Driver/Src/stm32h7xx_hal_rcc.c **** 
  73:../../Drivers/STM32H7xx_HAL_Driver/Src/stm32h7xx_hal_rcc.c **** /** @defgroup RCC  RCC
  74:../../Drivers/STM32H7xx_HAL_Driver/Src/stm32h7xx_hal_rcc.c ****   * @brief RCC HAL module driver
  75:../../Drivers/STM32H7xx_HAL_Driver/Src/stm32h7xx_hal_rcc.c ****   * @{
  76:../../Drivers/STM32H7xx_HAL_Driver/Src/stm32h7xx_hal_rcc.c ****   */
  77:../../Drivers/STM32H7xx_HAL_Driver/Src/stm32h7xx_hal_rcc.c **** 
  78:../../Drivers/STM32H7xx_HAL_Driver/Src/stm32h7xx_hal_rcc.c **** #ifdef HAL_RCC_MODULE_ENABLED
  79:../../Drivers/STM32H7xx_HAL_Driver/Src/stm32h7xx_hal_rcc.c **** 
  80:../../Drivers/STM32H7xx_HAL_Driver/Src/stm32h7xx_hal_rcc.c **** /* Private typedef -----------------------------------------------------------*/
  81:../../Drivers/STM32H7xx_HAL_Driver/Src/stm32h7xx_hal_rcc.c **** /* Private define ------------------------------------------------------------*/
  82:../../Drivers/STM32H7xx_HAL_Driver/Src/stm32h7xx_hal_rcc.c **** /* Private macro -------------------------------------------------------------*/
  83:../../Drivers/STM32H7xx_HAL_Driver/Src/stm32h7xx_hal_rcc.c **** /** @defgroup RCC_Private_Macros RCC Private Macros
  84:../../Drivers/STM32H7xx_HAL_Driver/Src/stm32h7xx_hal_rcc.c ****   * @{
  85:../../Drivers/STM32H7xx_HAL_Driver/Src/stm32h7xx_hal_rcc.c ****   */
  86:../../Drivers/STM32H7xx_HAL_Driver/Src/stm32h7xx_hal_rcc.c **** #define MCO1_CLK_ENABLE()     __HAL_RCC_GPIOA_CLK_ENABLE()
  87:../../Drivers/STM32H7xx_HAL_Driver/Src/stm32h7xx_hal_rcc.c **** #define MCO1_GPIO_PORT        GPIOA
  88:../../Drivers/STM32H7xx_HAL_Driver/Src/stm32h7xx_hal_rcc.c **** #define MCO1_PIN              GPIO_PIN_8
  89:../../Drivers/STM32H7xx_HAL_Driver/Src/stm32h7xx_hal_rcc.c **** 
ARM GAS  C:\Users\minis\AppData\Local\Temp\cczlSevg.s 			page 3


  90:../../Drivers/STM32H7xx_HAL_Driver/Src/stm32h7xx_hal_rcc.c **** #define MCO2_CLK_ENABLE()      __HAL_RCC_GPIOC_CLK_ENABLE()
  91:../../Drivers/STM32H7xx_HAL_Driver/Src/stm32h7xx_hal_rcc.c **** #define MCO2_GPIO_PORT         GPIOC
  92:../../Drivers/STM32H7xx_HAL_Driver/Src/stm32h7xx_hal_rcc.c **** #define MCO2_PIN               GPIO_PIN_9
  93:../../Drivers/STM32H7xx_HAL_Driver/Src/stm32h7xx_hal_rcc.c **** 
  94:../../Drivers/STM32H7xx_HAL_Driver/Src/stm32h7xx_hal_rcc.c **** /**
  95:../../Drivers/STM32H7xx_HAL_Driver/Src/stm32h7xx_hal_rcc.c ****   * @}
  96:../../Drivers/STM32H7xx_HAL_Driver/Src/stm32h7xx_hal_rcc.c ****   */
  97:../../Drivers/STM32H7xx_HAL_Driver/Src/stm32h7xx_hal_rcc.c **** /* Private variables ---------------------------------------------------------*/
  98:../../Drivers/STM32H7xx_HAL_Driver/Src/stm32h7xx_hal_rcc.c **** /** @defgroup RCC_Private_Variables RCC Private Variables
  99:../../Drivers/STM32H7xx_HAL_Driver/Src/stm32h7xx_hal_rcc.c ****   * @{
 100:../../Drivers/STM32H7xx_HAL_Driver/Src/stm32h7xx_hal_rcc.c ****   */
 101:../../Drivers/STM32H7xx_HAL_Driver/Src/stm32h7xx_hal_rcc.c **** 
 102:../../Drivers/STM32H7xx_HAL_Driver/Src/stm32h7xx_hal_rcc.c **** /**
 103:../../Drivers/STM32H7xx_HAL_Driver/Src/stm32h7xx_hal_rcc.c ****   * @}
 104:../../Drivers/STM32H7xx_HAL_Driver/Src/stm32h7xx_hal_rcc.c ****   */
 105:../../Drivers/STM32H7xx_HAL_Driver/Src/stm32h7xx_hal_rcc.c **** /* Private function prototypes -----------------------------------------------*/
 106:../../Drivers/STM32H7xx_HAL_Driver/Src/stm32h7xx_hal_rcc.c **** /* Exported functions --------------------------------------------------------*/
 107:../../Drivers/STM32H7xx_HAL_Driver/Src/stm32h7xx_hal_rcc.c **** 
 108:../../Drivers/STM32H7xx_HAL_Driver/Src/stm32h7xx_hal_rcc.c **** /** @defgroup RCC_Exported_Functions RCC Exported Functions
 109:../../Drivers/STM32H7xx_HAL_Driver/Src/stm32h7xx_hal_rcc.c ****   * @{
 110:../../Drivers/STM32H7xx_HAL_Driver/Src/stm32h7xx_hal_rcc.c ****   */
 111:../../Drivers/STM32H7xx_HAL_Driver/Src/stm32h7xx_hal_rcc.c **** 
 112:../../Drivers/STM32H7xx_HAL_Driver/Src/stm32h7xx_hal_rcc.c **** /** @defgroup RCC_Exported_Functions_Group1 Initialization and de-initialization functions
 113:../../Drivers/STM32H7xx_HAL_Driver/Src/stm32h7xx_hal_rcc.c ****  *  @brief    Initialization and Configuration functions
 114:../../Drivers/STM32H7xx_HAL_Driver/Src/stm32h7xx_hal_rcc.c ****  *
 115:../../Drivers/STM32H7xx_HAL_Driver/Src/stm32h7xx_hal_rcc.c **** @verbatim
 116:../../Drivers/STM32H7xx_HAL_Driver/Src/stm32h7xx_hal_rcc.c ****  ===============================================================================
 117:../../Drivers/STM32H7xx_HAL_Driver/Src/stm32h7xx_hal_rcc.c ****            ##### Initialization and de-initialization functions #####
 118:../../Drivers/STM32H7xx_HAL_Driver/Src/stm32h7xx_hal_rcc.c ****  ===============================================================================
 119:../../Drivers/STM32H7xx_HAL_Driver/Src/stm32h7xx_hal_rcc.c ****     [..]
 120:../../Drivers/STM32H7xx_HAL_Driver/Src/stm32h7xx_hal_rcc.c ****       This section provides functions allowing to configure the internal/external oscillators
 121:../../Drivers/STM32H7xx_HAL_Driver/Src/stm32h7xx_hal_rcc.c ****       (HSE, HSI, LSE,CSI, LSI,HSI48, PLL, CSS and MCO) and the System buses clocks (SYSCLK, AHB3, A
 122:../../Drivers/STM32H7xx_HAL_Driver/Src/stm32h7xx_hal_rcc.c ****        AHB2,AHB4,APB3, APB1L, APB1H, APB2, and APB4).
 123:../../Drivers/STM32H7xx_HAL_Driver/Src/stm32h7xx_hal_rcc.c **** 
 124:../../Drivers/STM32H7xx_HAL_Driver/Src/stm32h7xx_hal_rcc.c ****     [..] Internal/external clock and PLL configuration
 125:../../Drivers/STM32H7xx_HAL_Driver/Src/stm32h7xx_hal_rcc.c ****          (#) HSI (high-speed internal), 64 MHz factory-trimmed RC used directly or through
 126:../../Drivers/STM32H7xx_HAL_Driver/Src/stm32h7xx_hal_rcc.c ****              the PLL as System clock source.
 127:../../Drivers/STM32H7xx_HAL_Driver/Src/stm32h7xx_hal_rcc.c ****          (#) CSI is a low-power RC oscillator which can be used directly as system clock, periphera
 128:../../Drivers/STM32H7xx_HAL_Driver/Src/stm32h7xx_hal_rcc.c ****              clock, or PLL input.But even with frequency calibration, is less accurate than an
 129:../../Drivers/STM32H7xx_HAL_Driver/Src/stm32h7xx_hal_rcc.c ****              external crystal oscillator or ceramic resonator.
 130:../../Drivers/STM32H7xx_HAL_Driver/Src/stm32h7xx_hal_rcc.c ****          (#) LSI (low-speed internal), 32 KHz low consumption RC used as IWDG and/or RTC
 131:../../Drivers/STM32H7xx_HAL_Driver/Src/stm32h7xx_hal_rcc.c ****              clock source.
 132:../../Drivers/STM32H7xx_HAL_Driver/Src/stm32h7xx_hal_rcc.c **** 
 133:../../Drivers/STM32H7xx_HAL_Driver/Src/stm32h7xx_hal_rcc.c ****          (#) HSE (high-speed external), 4 to 48 MHz crystal oscillator used directly or
 134:../../Drivers/STM32H7xx_HAL_Driver/Src/stm32h7xx_hal_rcc.c ****              through the PLL as System clock source. Can be used also as RTC clock source.
 135:../../Drivers/STM32H7xx_HAL_Driver/Src/stm32h7xx_hal_rcc.c **** 
 136:../../Drivers/STM32H7xx_HAL_Driver/Src/stm32h7xx_hal_rcc.c ****          (#) LSE (low-speed external), 32 KHz oscillator used as RTC clock source.
 137:../../Drivers/STM32H7xx_HAL_Driver/Src/stm32h7xx_hal_rcc.c **** 
 138:../../Drivers/STM32H7xx_HAL_Driver/Src/stm32h7xx_hal_rcc.c ****          (#) PLL , The RCC features three independent PLLs (clocked by HSI , HSE or CSI),
 139:../../Drivers/STM32H7xx_HAL_Driver/Src/stm32h7xx_hal_rcc.c ****              featuring three different output clocks and able  to work either in integer or Fractio
 140:../../Drivers/STM32H7xx_HAL_Driver/Src/stm32h7xx_hal_rcc.c ****            (++) A main PLL, PLL1, which is generally used to provide clocks to the CPU
 141:../../Drivers/STM32H7xx_HAL_Driver/Src/stm32h7xx_hal_rcc.c ****                 and to some peripherals.
 142:../../Drivers/STM32H7xx_HAL_Driver/Src/stm32h7xx_hal_rcc.c ****            (++) Two dedicated PLLs, PLL2 and PLL3, which are used to generate the kernel clock for 
 143:../../Drivers/STM32H7xx_HAL_Driver/Src/stm32h7xx_hal_rcc.c **** 
 144:../../Drivers/STM32H7xx_HAL_Driver/Src/stm32h7xx_hal_rcc.c **** 
 145:../../Drivers/STM32H7xx_HAL_Driver/Src/stm32h7xx_hal_rcc.c ****          (#) CSS (Clock security system), once enabled and if a HSE clock failure occurs
 146:../../Drivers/STM32H7xx_HAL_Driver/Src/stm32h7xx_hal_rcc.c ****             (HSE used directly or through PLL as System clock source), the System clock
ARM GAS  C:\Users\minis\AppData\Local\Temp\cczlSevg.s 			page 4


 147:../../Drivers/STM32H7xx_HAL_Driver/Src/stm32h7xx_hal_rcc.c ****              is automatically switched to HSI and an interrupt is generated if enabled.
 148:../../Drivers/STM32H7xx_HAL_Driver/Src/stm32h7xx_hal_rcc.c ****              The interrupt is linked to the Cortex-M NMI (Non-Mask-able Interrupt)
 149:../../Drivers/STM32H7xx_HAL_Driver/Src/stm32h7xx_hal_rcc.c ****              exception vector.
 150:../../Drivers/STM32H7xx_HAL_Driver/Src/stm32h7xx_hal_rcc.c **** 
 151:../../Drivers/STM32H7xx_HAL_Driver/Src/stm32h7xx_hal_rcc.c ****          (#) MCO1 (micro controller clock output), used to output HSI, LSE, HSE, PLL1(PLL1_Q)
 152:../../Drivers/STM32H7xx_HAL_Driver/Src/stm32h7xx_hal_rcc.c ****              or HSI48 clock (through a configurable pre-scaler) on PA8 pin.
 153:../../Drivers/STM32H7xx_HAL_Driver/Src/stm32h7xx_hal_rcc.c **** 
 154:../../Drivers/STM32H7xx_HAL_Driver/Src/stm32h7xx_hal_rcc.c ****          (#) MCO2 (micro controller clock output), used to output HSE, PLL2(PLL2_P), SYSCLK,
 155:../../Drivers/STM32H7xx_HAL_Driver/Src/stm32h7xx_hal_rcc.c ****              LSI, CSI, or PLL1(PLL1_P) clock (through a configurable pre-scaler) on PC9 pin.
 156:../../Drivers/STM32H7xx_HAL_Driver/Src/stm32h7xx_hal_rcc.c **** 
 157:../../Drivers/STM32H7xx_HAL_Driver/Src/stm32h7xx_hal_rcc.c ****     [..] System, AHB and APB buses clocks configuration
 158:../../Drivers/STM32H7xx_HAL_Driver/Src/stm32h7xx_hal_rcc.c ****          (#) Several clock sources can be used to drive the System clock (SYSCLK): CSI,HSI,
 159:../../Drivers/STM32H7xx_HAL_Driver/Src/stm32h7xx_hal_rcc.c ****              HSE and PLL.
 160:../../Drivers/STM32H7xx_HAL_Driver/Src/stm32h7xx_hal_rcc.c ****              The AHB clock (HCLK) is derived from System core clock through configurable
 161:../../Drivers/STM32H7xx_HAL_Driver/Src/stm32h7xx_hal_rcc.c ****              pre-scaler and used to clock the CPU, memory and peripherals mapped
 162:../../Drivers/STM32H7xx_HAL_Driver/Src/stm32h7xx_hal_rcc.c ****              on AHB and APB bus of the 3 Domains (D1, D2, D3)* through configurable pre-scalers
 163:../../Drivers/STM32H7xx_HAL_Driver/Src/stm32h7xx_hal_rcc.c ****              and used to clock the peripherals mapped on these buses. You can use
 164:../../Drivers/STM32H7xx_HAL_Driver/Src/stm32h7xx_hal_rcc.c ****              "HAL_RCC_GetSysClockFreq()" function to retrieve system clock frequency.
 165:../../Drivers/STM32H7xx_HAL_Driver/Src/stm32h7xx_hal_rcc.c **** 
 166:../../Drivers/STM32H7xx_HAL_Driver/Src/stm32h7xx_hal_rcc.c ****          -@- All the peripheral clocks are derived from the System clock (SYSCLK) except those
 167:../../Drivers/STM32H7xx_HAL_Driver/Src/stm32h7xx_hal_rcc.c ****              with dual clock domain where kernel source clock could be selected through
 168:../../Drivers/STM32H7xx_HAL_Driver/Src/stm32h7xx_hal_rcc.c ****              RCC_D1CCIPR,RCC_D2CCIP1R,RCC_D2CCIP2R and RCC_D3CCIPR registers.
 169:../../Drivers/STM32H7xx_HAL_Driver/Src/stm32h7xx_hal_rcc.c **** 
 170:../../Drivers/STM32H7xx_HAL_Driver/Src/stm32h7xx_hal_rcc.c ****      (*) : 2 Domains (CD and SRD) for stm32h7a3xx and stm32h7b3xx family lines.
 171:../../Drivers/STM32H7xx_HAL_Driver/Src/stm32h7xx_hal_rcc.c **** @endverbatim
 172:../../Drivers/STM32H7xx_HAL_Driver/Src/stm32h7xx_hal_rcc.c ****   * @{
 173:../../Drivers/STM32H7xx_HAL_Driver/Src/stm32h7xx_hal_rcc.c ****   */
 174:../../Drivers/STM32H7xx_HAL_Driver/Src/stm32h7xx_hal_rcc.c **** 
 175:../../Drivers/STM32H7xx_HAL_Driver/Src/stm32h7xx_hal_rcc.c **** /**
 176:../../Drivers/STM32H7xx_HAL_Driver/Src/stm32h7xx_hal_rcc.c ****   * @brief  Resets the RCC clock configuration to the default reset state.
 177:../../Drivers/STM32H7xx_HAL_Driver/Src/stm32h7xx_hal_rcc.c ****   * @note   The default reset state of the clock configuration is given below:
 178:../../Drivers/STM32H7xx_HAL_Driver/Src/stm32h7xx_hal_rcc.c ****   *            - HSI ON and used as system clock source
 179:../../Drivers/STM32H7xx_HAL_Driver/Src/stm32h7xx_hal_rcc.c ****   *            - HSE, PLL1, PLL2 and PLL3 OFF
 180:../../Drivers/STM32H7xx_HAL_Driver/Src/stm32h7xx_hal_rcc.c ****   *            - AHB, APB Bus pre-scaler set to 1.
 181:../../Drivers/STM32H7xx_HAL_Driver/Src/stm32h7xx_hal_rcc.c ****   *            - CSS, MCO1 and MCO2 OFF
 182:../../Drivers/STM32H7xx_HAL_Driver/Src/stm32h7xx_hal_rcc.c ****   *            - All interrupts disabled
 183:../../Drivers/STM32H7xx_HAL_Driver/Src/stm32h7xx_hal_rcc.c ****   * @note   This function doesn't modify the configuration of the
 184:../../Drivers/STM32H7xx_HAL_Driver/Src/stm32h7xx_hal_rcc.c ****   *            - Peripheral clocks
 185:../../Drivers/STM32H7xx_HAL_Driver/Src/stm32h7xx_hal_rcc.c ****   *            - LSI, LSE and RTC clocks
 186:../../Drivers/STM32H7xx_HAL_Driver/Src/stm32h7xx_hal_rcc.c ****   * @retval HAL status
 187:../../Drivers/STM32H7xx_HAL_Driver/Src/stm32h7xx_hal_rcc.c ****   */
 188:../../Drivers/STM32H7xx_HAL_Driver/Src/stm32h7xx_hal_rcc.c **** HAL_StatusTypeDef HAL_RCC_DeInit(void)
 189:../../Drivers/STM32H7xx_HAL_Driver/Src/stm32h7xx_hal_rcc.c **** {
  27              		.loc 1 189 1 view -0
  28              		.cfi_startproc
  29              		@ args = 0, pretend = 0, frame = 0
  30              		@ frame_needed = 0, uses_anonymous_args = 0
  31 0000 38B5     		push	{r3, r4, r5, lr}
  32              	.LCFI0:
  33              		.cfi_def_cfa_offset 16
  34              		.cfi_offset 3, -16
  35              		.cfi_offset 4, -12
  36              		.cfi_offset 5, -8
  37              		.cfi_offset 14, -4
 190:../../Drivers/STM32H7xx_HAL_Driver/Src/stm32h7xx_hal_rcc.c ****   uint32_t tickstart;
  38              		.loc 1 190 3 view .LVU1
 191:../../Drivers/STM32H7xx_HAL_Driver/Src/stm32h7xx_hal_rcc.c **** 
ARM GAS  C:\Users\minis\AppData\Local\Temp\cczlSevg.s 			page 5


 192:../../Drivers/STM32H7xx_HAL_Driver/Src/stm32h7xx_hal_rcc.c ****   /* Increasing the CPU frequency */
 193:../../Drivers/STM32H7xx_HAL_Driver/Src/stm32h7xx_hal_rcc.c ****   if (FLASH_LATENCY_DEFAULT  > __HAL_FLASH_GET_LATENCY())
  39              		.loc 1 193 3 view .LVU2
  40              		.loc 1 193 32 is_stmt 0 view .LVU3
  41 0002 684B     		ldr	r3, .L33
  42 0004 1B68     		ldr	r3, [r3]
  43 0006 03F00F03 		and	r3, r3, #15
  44              		.loc 1 193 6 view .LVU4
  45 000a 062B     		cmp	r3, #6
  46 000c 0CD8     		bhi	.L2
 194:../../Drivers/STM32H7xx_HAL_Driver/Src/stm32h7xx_hal_rcc.c ****   {
 195:../../Drivers/STM32H7xx_HAL_Driver/Src/stm32h7xx_hal_rcc.c ****     /* Program the new number of wait states to the LATENCY bits in the FLASH_ACR register */
 196:../../Drivers/STM32H7xx_HAL_Driver/Src/stm32h7xx_hal_rcc.c ****     __HAL_FLASH_SET_LATENCY(FLASH_LATENCY_DEFAULT);
  47              		.loc 1 196 5 is_stmt 1 view .LVU5
  48 000e 654A     		ldr	r2, .L33
  49 0010 1368     		ldr	r3, [r2]
  50 0012 23F00F03 		bic	r3, r3, #15
  51 0016 43F00703 		orr	r3, r3, #7
  52 001a 1360     		str	r3, [r2]
 197:../../Drivers/STM32H7xx_HAL_Driver/Src/stm32h7xx_hal_rcc.c **** 
 198:../../Drivers/STM32H7xx_HAL_Driver/Src/stm32h7xx_hal_rcc.c ****     /* Check that the new number of wait states is taken into account to access the Flash
 199:../../Drivers/STM32H7xx_HAL_Driver/Src/stm32h7xx_hal_rcc.c ****     memory by reading the FLASH_ACR register */
 200:../../Drivers/STM32H7xx_HAL_Driver/Src/stm32h7xx_hal_rcc.c ****     if (__HAL_FLASH_GET_LATENCY() != FLASH_LATENCY_DEFAULT)
  53              		.loc 1 200 5 view .LVU6
  54              		.loc 1 200 9 is_stmt 0 view .LVU7
  55 001c 1368     		ldr	r3, [r2]
  56 001e 03F00F03 		and	r3, r3, #15
  57              		.loc 1 200 8 view .LVU8
  58 0022 072B     		cmp	r3, #7
  59 0024 40F0BA80 		bne	.L16
  60              	.L2:
 201:../../Drivers/STM32H7xx_HAL_Driver/Src/stm32h7xx_hal_rcc.c ****     {
 202:../../Drivers/STM32H7xx_HAL_Driver/Src/stm32h7xx_hal_rcc.c ****       return HAL_ERROR;
 203:../../Drivers/STM32H7xx_HAL_Driver/Src/stm32h7xx_hal_rcc.c ****     }
 204:../../Drivers/STM32H7xx_HAL_Driver/Src/stm32h7xx_hal_rcc.c **** 
 205:../../Drivers/STM32H7xx_HAL_Driver/Src/stm32h7xx_hal_rcc.c ****   }
 206:../../Drivers/STM32H7xx_HAL_Driver/Src/stm32h7xx_hal_rcc.c **** 
 207:../../Drivers/STM32H7xx_HAL_Driver/Src/stm32h7xx_hal_rcc.c **** 
 208:../../Drivers/STM32H7xx_HAL_Driver/Src/stm32h7xx_hal_rcc.c ****   /* Get Start Tick */
 209:../../Drivers/STM32H7xx_HAL_Driver/Src/stm32h7xx_hal_rcc.c ****   tickstart = HAL_GetTick();
  61              		.loc 1 209 3 is_stmt 1 view .LVU9
  62              		.loc 1 209 15 is_stmt 0 view .LVU10
  63 0028 FFF7FEFF 		bl	HAL_GetTick
  64              	.LVL0:
  65 002c 0446     		mov	r4, r0
  66              	.LVL1:
 210:../../Drivers/STM32H7xx_HAL_Driver/Src/stm32h7xx_hal_rcc.c **** 
 211:../../Drivers/STM32H7xx_HAL_Driver/Src/stm32h7xx_hal_rcc.c ****   /* Set HSION bit */
 212:../../Drivers/STM32H7xx_HAL_Driver/Src/stm32h7xx_hal_rcc.c ****   SET_BIT(RCC->CR, RCC_CR_HSION);
  67              		.loc 1 212 3 is_stmt 1 view .LVU11
  68 002e 5E4A     		ldr	r2, .L33+4
  69 0030 1368     		ldr	r3, [r2]
  70 0032 43F00103 		orr	r3, r3, #1
  71 0036 1360     		str	r3, [r2]
 213:../../Drivers/STM32H7xx_HAL_Driver/Src/stm32h7xx_hal_rcc.c **** 
 214:../../Drivers/STM32H7xx_HAL_Driver/Src/stm32h7xx_hal_rcc.c ****   /* Wait till HSI is ready */
 215:../../Drivers/STM32H7xx_HAL_Driver/Src/stm32h7xx_hal_rcc.c ****   while (READ_BIT(RCC->CR, RCC_CR_HSIRDY) == 0U)
ARM GAS  C:\Users\minis\AppData\Local\Temp\cczlSevg.s 			page 6


  72              		.loc 1 215 3 view .LVU12
  73              	.LVL2:
  74              	.L4:
  75              		.loc 1 215 43 view .LVU13
  76              		.loc 1 215 10 is_stmt 0 view .LVU14
  77 0038 5B4B     		ldr	r3, .L33+4
  78 003a 1B68     		ldr	r3, [r3]
  79              		.loc 1 215 43 view .LVU15
  80 003c 13F0040F 		tst	r3, #4
  81 0040 06D1     		bne	.L26
 216:../../Drivers/STM32H7xx_HAL_Driver/Src/stm32h7xx_hal_rcc.c ****   {
 217:../../Drivers/STM32H7xx_HAL_Driver/Src/stm32h7xx_hal_rcc.c ****     if ((HAL_GetTick() - tickstart) > HSI_TIMEOUT_VALUE)
  82              		.loc 1 217 5 is_stmt 1 view .LVU16
  83              		.loc 1 217 10 is_stmt 0 view .LVU17
  84 0042 FFF7FEFF 		bl	HAL_GetTick
  85              	.LVL3:
  86              		.loc 1 217 24 discriminator 1 view .LVU18
  87 0046 001B     		subs	r0, r0, r4
  88              		.loc 1 217 8 discriminator 1 view .LVU19
  89 0048 0228     		cmp	r0, #2
  90 004a F5D9     		bls	.L4
 218:../../Drivers/STM32H7xx_HAL_Driver/Src/stm32h7xx_hal_rcc.c ****     {
 219:../../Drivers/STM32H7xx_HAL_Driver/Src/stm32h7xx_hal_rcc.c ****       return HAL_TIMEOUT;
  91              		.loc 1 219 14 view .LVU20
  92 004c 0324     		movs	r4, #3
  93              	.LVL4:
  94              		.loc 1 219 14 view .LVU21
  95 004e A6E0     		b	.L3
  96              	.LVL5:
  97              	.L26:
 220:../../Drivers/STM32H7xx_HAL_Driver/Src/stm32h7xx_hal_rcc.c ****     }
 221:../../Drivers/STM32H7xx_HAL_Driver/Src/stm32h7xx_hal_rcc.c ****   }
 222:../../Drivers/STM32H7xx_HAL_Driver/Src/stm32h7xx_hal_rcc.c **** 
 223:../../Drivers/STM32H7xx_HAL_Driver/Src/stm32h7xx_hal_rcc.c ****   /* Set HSITRIM[6:0] bits to the reset value */
 224:../../Drivers/STM32H7xx_HAL_Driver/Src/stm32h7xx_hal_rcc.c ****   SET_BIT(RCC->HSICFGR, RCC_HSICFGR_HSITRIM_6);
  98              		.loc 1 224 3 is_stmt 1 view .LVU22
  99 0050 554B     		ldr	r3, .L33+4
 100 0052 5A68     		ldr	r2, [r3, #4]
 101 0054 42F08042 		orr	r2, r2, #1073741824
 102 0058 5A60     		str	r2, [r3, #4]
 225:../../Drivers/STM32H7xx_HAL_Driver/Src/stm32h7xx_hal_rcc.c **** 
 226:../../Drivers/STM32H7xx_HAL_Driver/Src/stm32h7xx_hal_rcc.c ****   /* Reset CFGR register */
 227:../../Drivers/STM32H7xx_HAL_Driver/Src/stm32h7xx_hal_rcc.c ****   CLEAR_REG(RCC->CFGR);
 103              		.loc 1 227 3 view .LVU23
 104 005a 0022     		movs	r2, #0
 105 005c 1A61     		str	r2, [r3, #16]
 228:../../Drivers/STM32H7xx_HAL_Driver/Src/stm32h7xx_hal_rcc.c **** 
 229:../../Drivers/STM32H7xx_HAL_Driver/Src/stm32h7xx_hal_rcc.c ****   /* Update the SystemCoreClock and SystemD2Clock global variables */
 230:../../Drivers/STM32H7xx_HAL_Driver/Src/stm32h7xx_hal_rcc.c ****   SystemCoreClock = HSI_VALUE;
 106              		.loc 1 230 3 view .LVU24
 107              		.loc 1 230 19 is_stmt 0 view .LVU25
 108 005e 534B     		ldr	r3, .L33+8
 109 0060 534A     		ldr	r2, .L33+12
 110 0062 1360     		str	r3, [r2]
 231:../../Drivers/STM32H7xx_HAL_Driver/Src/stm32h7xx_hal_rcc.c ****   SystemD2Clock = HSI_VALUE;
 111              		.loc 1 231 3 is_stmt 1 view .LVU26
 112              		.loc 1 231 17 is_stmt 0 view .LVU27
ARM GAS  C:\Users\minis\AppData\Local\Temp\cczlSevg.s 			page 7


 113 0064 534A     		ldr	r2, .L33+16
 114 0066 1360     		str	r3, [r2]
 232:../../Drivers/STM32H7xx_HAL_Driver/Src/stm32h7xx_hal_rcc.c **** 
 233:../../Drivers/STM32H7xx_HAL_Driver/Src/stm32h7xx_hal_rcc.c ****   /* Adapt Systick interrupt period */
 234:../../Drivers/STM32H7xx_HAL_Driver/Src/stm32h7xx_hal_rcc.c ****   if (HAL_InitTick(uwTickPrio) != HAL_OK)
 115              		.loc 1 234 3 is_stmt 1 view .LVU28
 116              		.loc 1 234 7 is_stmt 0 view .LVU29
 117 0068 534B     		ldr	r3, .L33+20
 118 006a 1868     		ldr	r0, [r3]
 119 006c FFF7FEFF 		bl	HAL_InitTick
 120              	.LVL6:
 121              		.loc 1 234 6 discriminator 1 view .LVU30
 122 0070 0446     		mov	r4, r0
 123              	.LVL7:
 124              		.loc 1 234 6 discriminator 1 view .LVU31
 125 0072 08B1     		cbz	r0, .L27
 235:../../Drivers/STM32H7xx_HAL_Driver/Src/stm32h7xx_hal_rcc.c ****   {
 236:../../Drivers/STM32H7xx_HAL_Driver/Src/stm32h7xx_hal_rcc.c ****     return HAL_ERROR;
 126              		.loc 1 236 12 view .LVU32
 127 0074 0124     		movs	r4, #1
 128 0076 92E0     		b	.L3
 129              	.L27:
 237:../../Drivers/STM32H7xx_HAL_Driver/Src/stm32h7xx_hal_rcc.c ****   }
 238:../../Drivers/STM32H7xx_HAL_Driver/Src/stm32h7xx_hal_rcc.c **** 
 239:../../Drivers/STM32H7xx_HAL_Driver/Src/stm32h7xx_hal_rcc.c ****   /* Get Start Tick */
 240:../../Drivers/STM32H7xx_HAL_Driver/Src/stm32h7xx_hal_rcc.c ****   tickstart = HAL_GetTick();
 130              		.loc 1 240 3 is_stmt 1 view .LVU33
 131              		.loc 1 240 15 is_stmt 0 view .LVU34
 132 0078 FFF7FEFF 		bl	HAL_GetTick
 133              	.LVL8:
 134 007c 0546     		mov	r5, r0
 135              	.LVL9:
 241:../../Drivers/STM32H7xx_HAL_Driver/Src/stm32h7xx_hal_rcc.c **** 
 242:../../Drivers/STM32H7xx_HAL_Driver/Src/stm32h7xx_hal_rcc.c ****   /* Wait till clock switch is ready */
 243:../../Drivers/STM32H7xx_HAL_Driver/Src/stm32h7xx_hal_rcc.c ****   while (READ_BIT(RCC->CFGR, RCC_CFGR_SWS) != 0U)
 136              		.loc 1 243 3 is_stmt 1 view .LVU35
 137              	.L6:
 138              		.loc 1 243 44 view .LVU36
 139              		.loc 1 243 10 is_stmt 0 view .LVU37
 140 007e 4A4B     		ldr	r3, .L33+4
 141 0080 1B69     		ldr	r3, [r3, #16]
 142              		.loc 1 243 44 view .LVU38
 143 0082 13F0380F 		tst	r3, #56
 144 0086 08D0     		beq	.L28
 244:../../Drivers/STM32H7xx_HAL_Driver/Src/stm32h7xx_hal_rcc.c ****   {
 245:../../Drivers/STM32H7xx_HAL_Driver/Src/stm32h7xx_hal_rcc.c ****     if ((HAL_GetTick() - tickstart) > CLOCKSWITCH_TIMEOUT_VALUE)
 145              		.loc 1 245 5 is_stmt 1 view .LVU39
 146              		.loc 1 245 10 is_stmt 0 view .LVU40
 147 0088 FFF7FEFF 		bl	HAL_GetTick
 148              	.LVL10:
 149              		.loc 1 245 24 discriminator 1 view .LVU41
 150 008c 401B     		subs	r0, r0, r5
 151              		.loc 1 245 8 discriminator 1 view .LVU42
 152 008e 41F28833 		movw	r3, #5000
 153 0092 9842     		cmp	r0, r3
 154 0094 F3D9     		bls	.L6
 246:../../Drivers/STM32H7xx_HAL_Driver/Src/stm32h7xx_hal_rcc.c ****     {
ARM GAS  C:\Users\minis\AppData\Local\Temp\cczlSevg.s 			page 8


 247:../../Drivers/STM32H7xx_HAL_Driver/Src/stm32h7xx_hal_rcc.c ****       return HAL_TIMEOUT;
 155              		.loc 1 247 14 view .LVU43
 156 0096 0324     		movs	r4, #3
 157 0098 81E0     		b	.L3
 158              	.L28:
 248:../../Drivers/STM32H7xx_HAL_Driver/Src/stm32h7xx_hal_rcc.c ****     }
 249:../../Drivers/STM32H7xx_HAL_Driver/Src/stm32h7xx_hal_rcc.c ****   }
 250:../../Drivers/STM32H7xx_HAL_Driver/Src/stm32h7xx_hal_rcc.c **** 
 251:../../Drivers/STM32H7xx_HAL_Driver/Src/stm32h7xx_hal_rcc.c ****   /* Get Start Tick */
 252:../../Drivers/STM32H7xx_HAL_Driver/Src/stm32h7xx_hal_rcc.c ****   tickstart = HAL_GetTick();
 159              		.loc 1 252 3 is_stmt 1 view .LVU44
 160              		.loc 1 252 15 is_stmt 0 view .LVU45
 161 009a FFF7FEFF 		bl	HAL_GetTick
 162              	.LVL11:
 163 009e 0546     		mov	r5, r0
 164              	.LVL12:
 253:../../Drivers/STM32H7xx_HAL_Driver/Src/stm32h7xx_hal_rcc.c **** 
 254:../../Drivers/STM32H7xx_HAL_Driver/Src/stm32h7xx_hal_rcc.c ****   /* Reset CSION, CSIKERON, HSEON, HSI48ON, HSECSSON, HSIDIV bits */
 255:../../Drivers/STM32H7xx_HAL_Driver/Src/stm32h7xx_hal_rcc.c ****   CLEAR_BIT(RCC->CR, RCC_CR_HSEON | RCC_CR_HSIKERON | RCC_CR_HSIDIV | RCC_CR_HSIDIVF | RCC_CR_CSION
 165              		.loc 1 255 3 is_stmt 1 view .LVU46
 166 00a0 414A     		ldr	r2, .L33+4
 167 00a2 1168     		ldr	r1, [r2]
 168 00a4 454B     		ldr	r3, .L33+24
 169 00a6 0B40     		ands	r3, r3, r1
 170 00a8 1360     		str	r3, [r2]
 256:../../Drivers/STM32H7xx_HAL_Driver/Src/stm32h7xx_hal_rcc.c ****             | RCC_CR_HSI48ON | RCC_CR_CSSHSEON);
 257:../../Drivers/STM32H7xx_HAL_Driver/Src/stm32h7xx_hal_rcc.c **** 
 258:../../Drivers/STM32H7xx_HAL_Driver/Src/stm32h7xx_hal_rcc.c ****   /* Wait till HSE is disabled */
 259:../../Drivers/STM32H7xx_HAL_Driver/Src/stm32h7xx_hal_rcc.c ****   while (READ_BIT(RCC->CR, RCC_CR_HSERDY) != 0U)
 171              		.loc 1 259 3 view .LVU47
 172              	.LVL13:
 173              	.L8:
 174              		.loc 1 259 43 view .LVU48
 175              		.loc 1 259 10 is_stmt 0 view .LVU49
 176 00aa 3F4B     		ldr	r3, .L33+4
 177 00ac 1B68     		ldr	r3, [r3]
 178              		.loc 1 259 43 view .LVU50
 179 00ae 13F4003F 		tst	r3, #131072
 180 00b2 06D0     		beq	.L29
 260:../../Drivers/STM32H7xx_HAL_Driver/Src/stm32h7xx_hal_rcc.c ****   {
 261:../../Drivers/STM32H7xx_HAL_Driver/Src/stm32h7xx_hal_rcc.c ****     if ((HAL_GetTick() - tickstart) > HSE_TIMEOUT_VALUE)
 181              		.loc 1 261 5 is_stmt 1 view .LVU51
 182              		.loc 1 261 10 is_stmt 0 view .LVU52
 183 00b4 FFF7FEFF 		bl	HAL_GetTick
 184              	.LVL14:
 185              		.loc 1 261 24 discriminator 1 view .LVU53
 186 00b8 401B     		subs	r0, r0, r5
 187              		.loc 1 261 8 discriminator 1 view .LVU54
 188 00ba 6428     		cmp	r0, #100
 189 00bc F5D9     		bls	.L8
 262:../../Drivers/STM32H7xx_HAL_Driver/Src/stm32h7xx_hal_rcc.c ****     {
 263:../../Drivers/STM32H7xx_HAL_Driver/Src/stm32h7xx_hal_rcc.c ****       return HAL_TIMEOUT;
 190              		.loc 1 263 14 view .LVU55
 191 00be 0324     		movs	r4, #3
 192 00c0 6DE0     		b	.L3
 193              	.L29:
 264:../../Drivers/STM32H7xx_HAL_Driver/Src/stm32h7xx_hal_rcc.c ****     }
ARM GAS  C:\Users\minis\AppData\Local\Temp\cczlSevg.s 			page 9


 265:../../Drivers/STM32H7xx_HAL_Driver/Src/stm32h7xx_hal_rcc.c ****   }
 266:../../Drivers/STM32H7xx_HAL_Driver/Src/stm32h7xx_hal_rcc.c **** 
 267:../../Drivers/STM32H7xx_HAL_Driver/Src/stm32h7xx_hal_rcc.c ****   /* Get Start Tick */
 268:../../Drivers/STM32H7xx_HAL_Driver/Src/stm32h7xx_hal_rcc.c ****   tickstart = HAL_GetTick();
 194              		.loc 1 268 3 is_stmt 1 view .LVU56
 195              		.loc 1 268 15 is_stmt 0 view .LVU57
 196 00c2 FFF7FEFF 		bl	HAL_GetTick
 197              	.LVL15:
 198 00c6 0546     		mov	r5, r0
 199              	.LVL16:
 269:../../Drivers/STM32H7xx_HAL_Driver/Src/stm32h7xx_hal_rcc.c **** 
 270:../../Drivers/STM32H7xx_HAL_Driver/Src/stm32h7xx_hal_rcc.c ****   /* Clear PLLON bit */
 271:../../Drivers/STM32H7xx_HAL_Driver/Src/stm32h7xx_hal_rcc.c ****   CLEAR_BIT(RCC->CR, RCC_CR_PLL1ON);
 200              		.loc 1 271 3 is_stmt 1 view .LVU58
 201 00c8 374A     		ldr	r2, .L33+4
 202 00ca 1368     		ldr	r3, [r2]
 203 00cc 23F08073 		bic	r3, r3, #16777216
 204 00d0 1360     		str	r3, [r2]
 272:../../Drivers/STM32H7xx_HAL_Driver/Src/stm32h7xx_hal_rcc.c **** 
 273:../../Drivers/STM32H7xx_HAL_Driver/Src/stm32h7xx_hal_rcc.c ****   /* Wait till PLL is disabled */
 274:../../Drivers/STM32H7xx_HAL_Driver/Src/stm32h7xx_hal_rcc.c ****   while (READ_BIT(RCC->CR, RCC_CR_PLL1RDY) != 0U)
 205              		.loc 1 274 3 view .LVU59
 206              	.LVL17:
 207              	.L10:
 208              		.loc 1 274 44 view .LVU60
 209              		.loc 1 274 10 is_stmt 0 view .LVU61
 210 00d2 354B     		ldr	r3, .L33+4
 211 00d4 1B68     		ldr	r3, [r3]
 212              		.loc 1 274 44 view .LVU62
 213 00d6 13F0007F 		tst	r3, #33554432
 214 00da 06D0     		beq	.L30
 275:../../Drivers/STM32H7xx_HAL_Driver/Src/stm32h7xx_hal_rcc.c ****   {
 276:../../Drivers/STM32H7xx_HAL_Driver/Src/stm32h7xx_hal_rcc.c ****     if ((HAL_GetTick() - tickstart) > PLL_TIMEOUT_VALUE)
 215              		.loc 1 276 5 is_stmt 1 view .LVU63
 216              		.loc 1 276 10 is_stmt 0 view .LVU64
 217 00dc FFF7FEFF 		bl	HAL_GetTick
 218              	.LVL18:
 219              		.loc 1 276 24 discriminator 1 view .LVU65
 220 00e0 401B     		subs	r0, r0, r5
 221              		.loc 1 276 8 discriminator 1 view .LVU66
 222 00e2 0228     		cmp	r0, #2
 223 00e4 F5D9     		bls	.L10
 277:../../Drivers/STM32H7xx_HAL_Driver/Src/stm32h7xx_hal_rcc.c ****     {
 278:../../Drivers/STM32H7xx_HAL_Driver/Src/stm32h7xx_hal_rcc.c ****       return HAL_TIMEOUT;
 224              		.loc 1 278 14 view .LVU67
 225 00e6 0324     		movs	r4, #3
 226 00e8 59E0     		b	.L3
 227              	.L30:
 279:../../Drivers/STM32H7xx_HAL_Driver/Src/stm32h7xx_hal_rcc.c ****     }
 280:../../Drivers/STM32H7xx_HAL_Driver/Src/stm32h7xx_hal_rcc.c ****   }
 281:../../Drivers/STM32H7xx_HAL_Driver/Src/stm32h7xx_hal_rcc.c **** 
 282:../../Drivers/STM32H7xx_HAL_Driver/Src/stm32h7xx_hal_rcc.c ****   /* Get Start Tick */
 283:../../Drivers/STM32H7xx_HAL_Driver/Src/stm32h7xx_hal_rcc.c ****   tickstart = HAL_GetTick();
 228              		.loc 1 283 3 is_stmt 1 view .LVU68
 229              		.loc 1 283 15 is_stmt 0 view .LVU69
 230 00ea FFF7FEFF 		bl	HAL_GetTick
 231              	.LVL19:
ARM GAS  C:\Users\minis\AppData\Local\Temp\cczlSevg.s 			page 10


 232 00ee 0546     		mov	r5, r0
 233              	.LVL20:
 284:../../Drivers/STM32H7xx_HAL_Driver/Src/stm32h7xx_hal_rcc.c **** 
 285:../../Drivers/STM32H7xx_HAL_Driver/Src/stm32h7xx_hal_rcc.c ****   /* Reset PLL2ON bit */
 286:../../Drivers/STM32H7xx_HAL_Driver/Src/stm32h7xx_hal_rcc.c ****   CLEAR_BIT(RCC->CR, RCC_CR_PLL2ON);
 234              		.loc 1 286 3 is_stmt 1 view .LVU70
 235 00f0 2D4A     		ldr	r2, .L33+4
 236 00f2 1368     		ldr	r3, [r2]
 237 00f4 23F08063 		bic	r3, r3, #67108864
 238 00f8 1360     		str	r3, [r2]
 287:../../Drivers/STM32H7xx_HAL_Driver/Src/stm32h7xx_hal_rcc.c **** 
 288:../../Drivers/STM32H7xx_HAL_Driver/Src/stm32h7xx_hal_rcc.c ****   /* Wait till PLL2 is disabled */
 289:../../Drivers/STM32H7xx_HAL_Driver/Src/stm32h7xx_hal_rcc.c ****   while (READ_BIT(RCC->CR, RCC_CR_PLL2RDY) != 0U)
 239              		.loc 1 289 3 view .LVU71
 240              	.LVL21:
 241              	.L12:
 242              		.loc 1 289 44 view .LVU72
 243              		.loc 1 289 10 is_stmt 0 view .LVU73
 244 00fa 2B4B     		ldr	r3, .L33+4
 245 00fc 1B68     		ldr	r3, [r3]
 246              		.loc 1 289 44 view .LVU74
 247 00fe 13F0006F 		tst	r3, #134217728
 248 0102 06D0     		beq	.L31
 290:../../Drivers/STM32H7xx_HAL_Driver/Src/stm32h7xx_hal_rcc.c ****   {
 291:../../Drivers/STM32H7xx_HAL_Driver/Src/stm32h7xx_hal_rcc.c ****     if ((HAL_GetTick() - tickstart) > PLL_TIMEOUT_VALUE)
 249              		.loc 1 291 5 is_stmt 1 view .LVU75
 250              		.loc 1 291 10 is_stmt 0 view .LVU76
 251 0104 FFF7FEFF 		bl	HAL_GetTick
 252              	.LVL22:
 253              		.loc 1 291 24 discriminator 1 view .LVU77
 254 0108 401B     		subs	r0, r0, r5
 255              		.loc 1 291 8 discriminator 1 view .LVU78
 256 010a 0228     		cmp	r0, #2
 257 010c F5D9     		bls	.L12
 292:../../Drivers/STM32H7xx_HAL_Driver/Src/stm32h7xx_hal_rcc.c ****     {
 293:../../Drivers/STM32H7xx_HAL_Driver/Src/stm32h7xx_hal_rcc.c ****       return HAL_TIMEOUT;
 258              		.loc 1 293 14 view .LVU79
 259 010e 0324     		movs	r4, #3
 260 0110 45E0     		b	.L3
 261              	.L31:
 294:../../Drivers/STM32H7xx_HAL_Driver/Src/stm32h7xx_hal_rcc.c ****     }
 295:../../Drivers/STM32H7xx_HAL_Driver/Src/stm32h7xx_hal_rcc.c ****   }
 296:../../Drivers/STM32H7xx_HAL_Driver/Src/stm32h7xx_hal_rcc.c **** 
 297:../../Drivers/STM32H7xx_HAL_Driver/Src/stm32h7xx_hal_rcc.c ****   /* Get Start Tick */
 298:../../Drivers/STM32H7xx_HAL_Driver/Src/stm32h7xx_hal_rcc.c ****   tickstart = HAL_GetTick();
 262              		.loc 1 298 3 is_stmt 1 view .LVU80
 263              		.loc 1 298 15 is_stmt 0 view .LVU81
 264 0112 FFF7FEFF 		bl	HAL_GetTick
 265              	.LVL23:
 266 0116 0546     		mov	r5, r0
 267              	.LVL24:
 299:../../Drivers/STM32H7xx_HAL_Driver/Src/stm32h7xx_hal_rcc.c **** 
 300:../../Drivers/STM32H7xx_HAL_Driver/Src/stm32h7xx_hal_rcc.c ****   /* Reset PLL3 bit */
 301:../../Drivers/STM32H7xx_HAL_Driver/Src/stm32h7xx_hal_rcc.c ****   CLEAR_BIT(RCC->CR, RCC_CR_PLL3ON);
 268              		.loc 1 301 3 is_stmt 1 view .LVU82
 269 0118 234A     		ldr	r2, .L33+4
 270 011a 1368     		ldr	r3, [r2]
ARM GAS  C:\Users\minis\AppData\Local\Temp\cczlSevg.s 			page 11


 271 011c 23F08053 		bic	r3, r3, #268435456
 272 0120 1360     		str	r3, [r2]
 302:../../Drivers/STM32H7xx_HAL_Driver/Src/stm32h7xx_hal_rcc.c **** 
 303:../../Drivers/STM32H7xx_HAL_Driver/Src/stm32h7xx_hal_rcc.c ****   /* Wait till PLL3 is disabled */
 304:../../Drivers/STM32H7xx_HAL_Driver/Src/stm32h7xx_hal_rcc.c ****   while (READ_BIT(RCC->CR, RCC_CR_PLL3RDY) != 0U)
 273              		.loc 1 304 3 view .LVU83
 274              	.LVL25:
 275              	.L14:
 276              		.loc 1 304 44 view .LVU84
 277              		.loc 1 304 10 is_stmt 0 view .LVU85
 278 0122 214B     		ldr	r3, .L33+4
 279 0124 1B68     		ldr	r3, [r3]
 280              		.loc 1 304 44 view .LVU86
 281 0126 13F0005F 		tst	r3, #536870912
 282 012a 06D0     		beq	.L32
 305:../../Drivers/STM32H7xx_HAL_Driver/Src/stm32h7xx_hal_rcc.c ****   {
 306:../../Drivers/STM32H7xx_HAL_Driver/Src/stm32h7xx_hal_rcc.c ****     if ((HAL_GetTick() - tickstart) > PLL_TIMEOUT_VALUE)
 283              		.loc 1 306 5 is_stmt 1 view .LVU87
 284              		.loc 1 306 10 is_stmt 0 view .LVU88
 285 012c FFF7FEFF 		bl	HAL_GetTick
 286              	.LVL26:
 287              		.loc 1 306 24 discriminator 1 view .LVU89
 288 0130 401B     		subs	r0, r0, r5
 289              		.loc 1 306 8 discriminator 1 view .LVU90
 290 0132 0228     		cmp	r0, #2
 291 0134 F5D9     		bls	.L14
 307:../../Drivers/STM32H7xx_HAL_Driver/Src/stm32h7xx_hal_rcc.c ****     {
 308:../../Drivers/STM32H7xx_HAL_Driver/Src/stm32h7xx_hal_rcc.c ****       return HAL_TIMEOUT;
 292              		.loc 1 308 14 view .LVU91
 293 0136 0324     		movs	r4, #3
 294 0138 31E0     		b	.L3
 295              	.L32:
 309:../../Drivers/STM32H7xx_HAL_Driver/Src/stm32h7xx_hal_rcc.c ****     }
 310:../../Drivers/STM32H7xx_HAL_Driver/Src/stm32h7xx_hal_rcc.c ****   }
 311:../../Drivers/STM32H7xx_HAL_Driver/Src/stm32h7xx_hal_rcc.c **** 
 312:../../Drivers/STM32H7xx_HAL_Driver/Src/stm32h7xx_hal_rcc.c **** #if defined(RCC_D1CFGR_HPRE)
 313:../../Drivers/STM32H7xx_HAL_Driver/Src/stm32h7xx_hal_rcc.c ****   /* Reset D1CFGR register */
 314:../../Drivers/STM32H7xx_HAL_Driver/Src/stm32h7xx_hal_rcc.c ****   CLEAR_REG(RCC->D1CFGR);
 296              		.loc 1 314 3 is_stmt 1 view .LVU92
 297 013a 1B4B     		ldr	r3, .L33+4
 298 013c 0022     		movs	r2, #0
 299 013e 9A61     		str	r2, [r3, #24]
 315:../../Drivers/STM32H7xx_HAL_Driver/Src/stm32h7xx_hal_rcc.c **** 
 316:../../Drivers/STM32H7xx_HAL_Driver/Src/stm32h7xx_hal_rcc.c ****   /* Reset D2CFGR register */
 317:../../Drivers/STM32H7xx_HAL_Driver/Src/stm32h7xx_hal_rcc.c ****   CLEAR_REG(RCC->D2CFGR);
 300              		.loc 1 317 3 view .LVU93
 301 0140 DA61     		str	r2, [r3, #28]
 318:../../Drivers/STM32H7xx_HAL_Driver/Src/stm32h7xx_hal_rcc.c **** 
 319:../../Drivers/STM32H7xx_HAL_Driver/Src/stm32h7xx_hal_rcc.c ****   /* Reset D3CFGR register */
 320:../../Drivers/STM32H7xx_HAL_Driver/Src/stm32h7xx_hal_rcc.c ****   CLEAR_REG(RCC->D3CFGR);
 302              		.loc 1 320 3 view .LVU94
 303 0142 1A62     		str	r2, [r3, #32]
 321:../../Drivers/STM32H7xx_HAL_Driver/Src/stm32h7xx_hal_rcc.c **** #else
 322:../../Drivers/STM32H7xx_HAL_Driver/Src/stm32h7xx_hal_rcc.c ****   /* Reset CDCFGR1 register */
 323:../../Drivers/STM32H7xx_HAL_Driver/Src/stm32h7xx_hal_rcc.c ****   CLEAR_REG(RCC->CDCFGR1);
 324:../../Drivers/STM32H7xx_HAL_Driver/Src/stm32h7xx_hal_rcc.c **** 
 325:../../Drivers/STM32H7xx_HAL_Driver/Src/stm32h7xx_hal_rcc.c ****   /* Reset CDCFGR2 register */
ARM GAS  C:\Users\minis\AppData\Local\Temp\cczlSevg.s 			page 12


 326:../../Drivers/STM32H7xx_HAL_Driver/Src/stm32h7xx_hal_rcc.c ****   CLEAR_REG(RCC->CDCFGR2);
 327:../../Drivers/STM32H7xx_HAL_Driver/Src/stm32h7xx_hal_rcc.c **** 
 328:../../Drivers/STM32H7xx_HAL_Driver/Src/stm32h7xx_hal_rcc.c ****   /* Reset SRDCFGR register */
 329:../../Drivers/STM32H7xx_HAL_Driver/Src/stm32h7xx_hal_rcc.c ****   CLEAR_REG(RCC->SRDCFGR);
 330:../../Drivers/STM32H7xx_HAL_Driver/Src/stm32h7xx_hal_rcc.c **** #endif
 331:../../Drivers/STM32H7xx_HAL_Driver/Src/stm32h7xx_hal_rcc.c **** 
 332:../../Drivers/STM32H7xx_HAL_Driver/Src/stm32h7xx_hal_rcc.c ****   /* Reset PLLCKSELR register to default value */
 333:../../Drivers/STM32H7xx_HAL_Driver/Src/stm32h7xx_hal_rcc.c ****   RCC->PLLCKSELR = RCC_PLLCKSELR_DIVM1_5 | RCC_PLLCKSELR_DIVM2_5 | RCC_PLLCKSELR_DIVM3_5;
 304              		.loc 1 333 3 view .LVU95
 305              		.loc 1 333 18 is_stmt 0 view .LVU96
 306 0144 1E49     		ldr	r1, .L33+28
 307 0146 9962     		str	r1, [r3, #40]
 334:../../Drivers/STM32H7xx_HAL_Driver/Src/stm32h7xx_hal_rcc.c **** 
 335:../../Drivers/STM32H7xx_HAL_Driver/Src/stm32h7xx_hal_rcc.c ****   /* Reset PLLCFGR register to default value */
 336:../../Drivers/STM32H7xx_HAL_Driver/Src/stm32h7xx_hal_rcc.c ****   WRITE_REG(RCC->PLLCFGR, 0x01FF0000U);
 308              		.loc 1 336 3 is_stmt 1 view .LVU97
 309 0148 1E49     		ldr	r1, .L33+32
 310 014a D962     		str	r1, [r3, #44]
 337:../../Drivers/STM32H7xx_HAL_Driver/Src/stm32h7xx_hal_rcc.c **** 
 338:../../Drivers/STM32H7xx_HAL_Driver/Src/stm32h7xx_hal_rcc.c ****   /* Reset PLL1DIVR register to default value */
 339:../../Drivers/STM32H7xx_HAL_Driver/Src/stm32h7xx_hal_rcc.c ****   WRITE_REG(RCC->PLL1DIVR, 0x01010280U);
 311              		.loc 1 339 3 view .LVU98
 312 014c 1E49     		ldr	r1, .L33+36
 313 014e 1963     		str	r1, [r3, #48]
 340:../../Drivers/STM32H7xx_HAL_Driver/Src/stm32h7xx_hal_rcc.c **** 
 341:../../Drivers/STM32H7xx_HAL_Driver/Src/stm32h7xx_hal_rcc.c ****   /* Reset PLL1FRACR register */
 342:../../Drivers/STM32H7xx_HAL_Driver/Src/stm32h7xx_hal_rcc.c ****   CLEAR_REG(RCC->PLL1FRACR);
 314              		.loc 1 342 3 view .LVU99
 315 0150 5A63     		str	r2, [r3, #52]
 343:../../Drivers/STM32H7xx_HAL_Driver/Src/stm32h7xx_hal_rcc.c **** 
 344:../../Drivers/STM32H7xx_HAL_Driver/Src/stm32h7xx_hal_rcc.c ****   /* Reset PLL2DIVR register to default value */
 345:../../Drivers/STM32H7xx_HAL_Driver/Src/stm32h7xx_hal_rcc.c ****   WRITE_REG(RCC->PLL2DIVR, 0x01010280U);
 316              		.loc 1 345 3 view .LVU100
 317 0152 9963     		str	r1, [r3, #56]
 346:../../Drivers/STM32H7xx_HAL_Driver/Src/stm32h7xx_hal_rcc.c **** 
 347:../../Drivers/STM32H7xx_HAL_Driver/Src/stm32h7xx_hal_rcc.c ****   /* Reset PLL2FRACR register */
 348:../../Drivers/STM32H7xx_HAL_Driver/Src/stm32h7xx_hal_rcc.c ****   CLEAR_REG(RCC->PLL2FRACR);
 318              		.loc 1 348 3 view .LVU101
 319 0154 DA63     		str	r2, [r3, #60]
 349:../../Drivers/STM32H7xx_HAL_Driver/Src/stm32h7xx_hal_rcc.c **** 
 350:../../Drivers/STM32H7xx_HAL_Driver/Src/stm32h7xx_hal_rcc.c ****   /* Reset PLL3DIVR register to default value */
 351:../../Drivers/STM32H7xx_HAL_Driver/Src/stm32h7xx_hal_rcc.c ****   WRITE_REG(RCC->PLL3DIVR, 0x01010280U);
 320              		.loc 1 351 3 view .LVU102
 321 0156 1964     		str	r1, [r3, #64]
 352:../../Drivers/STM32H7xx_HAL_Driver/Src/stm32h7xx_hal_rcc.c **** 
 353:../../Drivers/STM32H7xx_HAL_Driver/Src/stm32h7xx_hal_rcc.c ****   /* Reset PLL3FRACR register */
 354:../../Drivers/STM32H7xx_HAL_Driver/Src/stm32h7xx_hal_rcc.c ****   CLEAR_REG(RCC->PLL3FRACR);
 322              		.loc 1 354 3 view .LVU103
 323 0158 5A64     		str	r2, [r3, #68]
 355:../../Drivers/STM32H7xx_HAL_Driver/Src/stm32h7xx_hal_rcc.c **** 
 356:../../Drivers/STM32H7xx_HAL_Driver/Src/stm32h7xx_hal_rcc.c **** #if defined(RCC_CR_HSEEXT)
 357:../../Drivers/STM32H7xx_HAL_Driver/Src/stm32h7xx_hal_rcc.c ****   /* Reset HSEEXT  */
 358:../../Drivers/STM32H7xx_HAL_Driver/Src/stm32h7xx_hal_rcc.c ****   CLEAR_BIT(RCC->CR, RCC_CR_HSEEXT);
 359:../../Drivers/STM32H7xx_HAL_Driver/Src/stm32h7xx_hal_rcc.c **** #endif /* RCC_CR_HSEEXT */
 360:../../Drivers/STM32H7xx_HAL_Driver/Src/stm32h7xx_hal_rcc.c **** 
 361:../../Drivers/STM32H7xx_HAL_Driver/Src/stm32h7xx_hal_rcc.c ****   /* Reset HSEBYP bit */
 362:../../Drivers/STM32H7xx_HAL_Driver/Src/stm32h7xx_hal_rcc.c ****   CLEAR_BIT(RCC->CR, RCC_CR_HSEBYP);
ARM GAS  C:\Users\minis\AppData\Local\Temp\cczlSevg.s 			page 13


 324              		.loc 1 362 3 view .LVU104
 325 015a 1968     		ldr	r1, [r3]
 326 015c 21F48021 		bic	r1, r1, #262144
 327 0160 1960     		str	r1, [r3]
 363:../../Drivers/STM32H7xx_HAL_Driver/Src/stm32h7xx_hal_rcc.c **** 
 364:../../Drivers/STM32H7xx_HAL_Driver/Src/stm32h7xx_hal_rcc.c ****   /* Disable all interrupts */
 365:../../Drivers/STM32H7xx_HAL_Driver/Src/stm32h7xx_hal_rcc.c ****   CLEAR_REG(RCC->CIER);
 328              		.loc 1 365 3 view .LVU105
 329 0162 1A66     		str	r2, [r3, #96]
 366:../../Drivers/STM32H7xx_HAL_Driver/Src/stm32h7xx_hal_rcc.c **** 
 367:../../Drivers/STM32H7xx_HAL_Driver/Src/stm32h7xx_hal_rcc.c ****   /* Clear all interrupts flags */
 368:../../Drivers/STM32H7xx_HAL_Driver/Src/stm32h7xx_hal_rcc.c ****   WRITE_REG(RCC->CICR, 0xFFFFFFFFU);
 330              		.loc 1 368 3 view .LVU106
 331 0164 4FF0FF32 		mov	r2, #-1
 332 0168 9A66     		str	r2, [r3, #104]
 369:../../Drivers/STM32H7xx_HAL_Driver/Src/stm32h7xx_hal_rcc.c **** 
 370:../../Drivers/STM32H7xx_HAL_Driver/Src/stm32h7xx_hal_rcc.c ****   /* Reset all RSR flags */
 371:../../Drivers/STM32H7xx_HAL_Driver/Src/stm32h7xx_hal_rcc.c ****   SET_BIT(RCC->RSR, RCC_RSR_RMVF);
 333              		.loc 1 371 3 view .LVU107
 334 016a D3F8D020 		ldr	r2, [r3, #208]
 335 016e 42F48032 		orr	r2, r2, #65536
 336 0172 C3F8D020 		str	r2, [r3, #208]
 372:../../Drivers/STM32H7xx_HAL_Driver/Src/stm32h7xx_hal_rcc.c **** 
 373:../../Drivers/STM32H7xx_HAL_Driver/Src/stm32h7xx_hal_rcc.c ****   /* Decreasing the number of wait states because of lower CPU frequency */
 374:../../Drivers/STM32H7xx_HAL_Driver/Src/stm32h7xx_hal_rcc.c ****   if (FLASH_LATENCY_DEFAULT  < __HAL_FLASH_GET_LATENCY())
 337              		.loc 1 374 3 view .LVU108
 338              		.loc 1 374 32 is_stmt 0 view .LVU109
 339 0176 0B4B     		ldr	r3, .L33
 340 0178 1B68     		ldr	r3, [r3]
 341              		.loc 1 374 6 view .LVU110
 342 017a 13F0080F 		tst	r3, #8
 343 017e 0ED0     		beq	.L3
 375:../../Drivers/STM32H7xx_HAL_Driver/Src/stm32h7xx_hal_rcc.c ****   {
 376:../../Drivers/STM32H7xx_HAL_Driver/Src/stm32h7xx_hal_rcc.c ****     /* Program the new number of wait states to the LATENCY bits in the FLASH_ACR register */
 377:../../Drivers/STM32H7xx_HAL_Driver/Src/stm32h7xx_hal_rcc.c ****     __HAL_FLASH_SET_LATENCY(FLASH_LATENCY_DEFAULT);
 344              		.loc 1 377 5 is_stmt 1 view .LVU111
 345 0180 084A     		ldr	r2, .L33
 346 0182 1368     		ldr	r3, [r2]
 347 0184 23F00F03 		bic	r3, r3, #15
 348 0188 43F00703 		orr	r3, r3, #7
 349 018c 1360     		str	r3, [r2]
 378:../../Drivers/STM32H7xx_HAL_Driver/Src/stm32h7xx_hal_rcc.c **** 
 379:../../Drivers/STM32H7xx_HAL_Driver/Src/stm32h7xx_hal_rcc.c ****     /* Check that the new number of wait states is taken into account to access the Flash
 380:../../Drivers/STM32H7xx_HAL_Driver/Src/stm32h7xx_hal_rcc.c ****     memory by reading the FLASH_ACR register */
 381:../../Drivers/STM32H7xx_HAL_Driver/Src/stm32h7xx_hal_rcc.c ****     if (__HAL_FLASH_GET_LATENCY() != FLASH_LATENCY_DEFAULT)
 350              		.loc 1 381 5 view .LVU112
 351              		.loc 1 381 9 is_stmt 0 view .LVU113
 352 018e 1368     		ldr	r3, [r2]
 353 0190 03F00F03 		and	r3, r3, #15
 354              		.loc 1 381 8 view .LVU114
 355 0194 072B     		cmp	r3, #7
 356 0196 02D0     		beq	.L3
 382:../../Drivers/STM32H7xx_HAL_Driver/Src/stm32h7xx_hal_rcc.c ****     {
 383:../../Drivers/STM32H7xx_HAL_Driver/Src/stm32h7xx_hal_rcc.c ****       return HAL_ERROR;
 357              		.loc 1 383 14 view .LVU115
 358 0198 0124     		movs	r4, #1
 359 019a 00E0     		b	.L3
ARM GAS  C:\Users\minis\AppData\Local\Temp\cczlSevg.s 			page 14


 360              	.LVL27:
 361              	.L16:
 202:../../Drivers/STM32H7xx_HAL_Driver/Src/stm32h7xx_hal_rcc.c ****     }
 362              		.loc 1 202 14 view .LVU116
 363 019c 0124     		movs	r4, #1
 364              	.L3:
 384:../../Drivers/STM32H7xx_HAL_Driver/Src/stm32h7xx_hal_rcc.c ****     }
 385:../../Drivers/STM32H7xx_HAL_Driver/Src/stm32h7xx_hal_rcc.c **** 
 386:../../Drivers/STM32H7xx_HAL_Driver/Src/stm32h7xx_hal_rcc.c ****   }
 387:../../Drivers/STM32H7xx_HAL_Driver/Src/stm32h7xx_hal_rcc.c **** 
 388:../../Drivers/STM32H7xx_HAL_Driver/Src/stm32h7xx_hal_rcc.c ****   return HAL_OK;
 389:../../Drivers/STM32H7xx_HAL_Driver/Src/stm32h7xx_hal_rcc.c **** }
 365              		.loc 1 389 1 view .LVU117
 366 019e 2046     		mov	r0, r4
 367 01a0 38BD     		pop	{r3, r4, r5, pc}
 368              	.L34:
 369 01a2 00BF     		.align	2
 370              	.L33:
 371 01a4 00200052 		.word	1375739904
 372 01a8 00440258 		.word	1476543488
 373 01ac 0090D003 		.word	64000000
 374 01b0 00000000 		.word	SystemCoreClock
 375 01b4 00000000 		.word	SystemD2Clock
 376 01b8 00000000 		.word	uwTickPrio
 377 01bc 45EDF6FF 		.word	-594619
 378 01c0 00020202 		.word	33686016
 379 01c4 0000FF01 		.word	33488896
 380 01c8 80020101 		.word	16843392
 381              		.cfi_endproc
 382              	.LFE144:
 384              		.section	.text.HAL_RCC_OscConfig,"ax",%progbits
 385              		.align	1
 386              		.weak	HAL_RCC_OscConfig
 387              		.syntax unified
 388              		.thumb
 389              		.thumb_func
 391              	HAL_RCC_OscConfig:
 392              	.LVL28:
 393              	.LFB145:
 390:../../Drivers/STM32H7xx_HAL_Driver/Src/stm32h7xx_hal_rcc.c **** 
 391:../../Drivers/STM32H7xx_HAL_Driver/Src/stm32h7xx_hal_rcc.c **** /**
 392:../../Drivers/STM32H7xx_HAL_Driver/Src/stm32h7xx_hal_rcc.c ****   * @brief  Initializes the RCC Oscillators according to the specified parameters in the
 393:../../Drivers/STM32H7xx_HAL_Driver/Src/stm32h7xx_hal_rcc.c ****   *         RCC_OscInitTypeDef.
 394:../../Drivers/STM32H7xx_HAL_Driver/Src/stm32h7xx_hal_rcc.c ****   * @param  RCC_OscInitStruct: pointer to an RCC_OscInitTypeDef structure that
 395:../../Drivers/STM32H7xx_HAL_Driver/Src/stm32h7xx_hal_rcc.c ****   *         contains the configuration information for the RCC Oscillators.
 396:../../Drivers/STM32H7xx_HAL_Driver/Src/stm32h7xx_hal_rcc.c ****   * @note   The PLL is not disabled when used as system clock.
 397:../../Drivers/STM32H7xx_HAL_Driver/Src/stm32h7xx_hal_rcc.c ****   * @note   Transitions LSE Bypass to LSE On and LSE On to LSE Bypass are not
 398:../../Drivers/STM32H7xx_HAL_Driver/Src/stm32h7xx_hal_rcc.c ****   *         supported by this function. User should request a transition to LSE Off
 399:../../Drivers/STM32H7xx_HAL_Driver/Src/stm32h7xx_hal_rcc.c ****   *         first and then LSE On or LSE Bypass.
 400:../../Drivers/STM32H7xx_HAL_Driver/Src/stm32h7xx_hal_rcc.c ****   * @note   Transition HSE Bypass to HSE On and HSE On to HSE Bypass are not
 401:../../Drivers/STM32H7xx_HAL_Driver/Src/stm32h7xx_hal_rcc.c ****   *         supported by this function. User should request a transition to HSE Off
 402:../../Drivers/STM32H7xx_HAL_Driver/Src/stm32h7xx_hal_rcc.c ****   *         first and then HSE On or HSE Bypass.
 403:../../Drivers/STM32H7xx_HAL_Driver/Src/stm32h7xx_hal_rcc.c ****   * @retval HAL status
 404:../../Drivers/STM32H7xx_HAL_Driver/Src/stm32h7xx_hal_rcc.c ****   */
 405:../../Drivers/STM32H7xx_HAL_Driver/Src/stm32h7xx_hal_rcc.c **** __weak HAL_StatusTypeDef HAL_RCC_OscConfig(RCC_OscInitTypeDef  *RCC_OscInitStruct)
 406:../../Drivers/STM32H7xx_HAL_Driver/Src/stm32h7xx_hal_rcc.c **** {
 394              		.loc 1 406 1 is_stmt 1 view -0
ARM GAS  C:\Users\minis\AppData\Local\Temp\cczlSevg.s 			page 15


 395              		.cfi_startproc
 396              		@ args = 0, pretend = 0, frame = 0
 397              		@ frame_needed = 0, uses_anonymous_args = 0
 407:../../Drivers/STM32H7xx_HAL_Driver/Src/stm32h7xx_hal_rcc.c ****   uint32_t tickstart;
 398              		.loc 1 407 3 view .LVU119
 408:../../Drivers/STM32H7xx_HAL_Driver/Src/stm32h7xx_hal_rcc.c ****   uint32_t temp1_pllckcfg, temp2_pllckcfg;
 399              		.loc 1 408 3 view .LVU120
 409:../../Drivers/STM32H7xx_HAL_Driver/Src/stm32h7xx_hal_rcc.c **** 
 410:../../Drivers/STM32H7xx_HAL_Driver/Src/stm32h7xx_hal_rcc.c ****   /* Check Null pointer */
 411:../../Drivers/STM32H7xx_HAL_Driver/Src/stm32h7xx_hal_rcc.c ****   if (RCC_OscInitStruct == NULL)
 400              		.loc 1 411 3 view .LVU121
 401              		.loc 1 411 6 is_stmt 0 view .LVU122
 402 0000 0028     		cmp	r0, #0
 403 0002 00F03983 		beq	.L110
 406:../../Drivers/STM32H7xx_HAL_Driver/Src/stm32h7xx_hal_rcc.c ****   uint32_t tickstart;
 404              		.loc 1 406 1 view .LVU123
 405 0006 38B5     		push	{r3, r4, r5, lr}
 406              	.LCFI1:
 407              		.cfi_def_cfa_offset 16
 408              		.cfi_offset 3, -16
 409              		.cfi_offset 4, -12
 410              		.cfi_offset 5, -8
 411              		.cfi_offset 14, -4
 412 0008 0446     		mov	r4, r0
 412:../../Drivers/STM32H7xx_HAL_Driver/Src/stm32h7xx_hal_rcc.c ****   {
 413:../../Drivers/STM32H7xx_HAL_Driver/Src/stm32h7xx_hal_rcc.c ****     return HAL_ERROR;
 414:../../Drivers/STM32H7xx_HAL_Driver/Src/stm32h7xx_hal_rcc.c ****   }
 415:../../Drivers/STM32H7xx_HAL_Driver/Src/stm32h7xx_hal_rcc.c **** 
 416:../../Drivers/STM32H7xx_HAL_Driver/Src/stm32h7xx_hal_rcc.c ****   /* Check the parameters */
 417:../../Drivers/STM32H7xx_HAL_Driver/Src/stm32h7xx_hal_rcc.c ****   assert_param(IS_RCC_OSCILLATORTYPE(RCC_OscInitStruct->OscillatorType));
 413              		.loc 1 417 3 is_stmt 1 view .LVU124
 418:../../Drivers/STM32H7xx_HAL_Driver/Src/stm32h7xx_hal_rcc.c ****   /*------------------------------- HSE Configuration ------------------------*/
 419:../../Drivers/STM32H7xx_HAL_Driver/Src/stm32h7xx_hal_rcc.c ****   if (((RCC_OscInitStruct->OscillatorType) & RCC_OSCILLATORTYPE_HSE) == RCC_OSCILLATORTYPE_HSE)
 414              		.loc 1 419 3 view .LVU125
 415              		.loc 1 419 26 is_stmt 0 view .LVU126
 416 000a 0368     		ldr	r3, [r0]
 417              		.loc 1 419 6 view .LVU127
 418 000c 13F0010F 		tst	r3, #1
 419 0010 25D0     		beq	.L37
 420              	.LBB2:
 420:../../Drivers/STM32H7xx_HAL_Driver/Src/stm32h7xx_hal_rcc.c ****   {
 421:../../Drivers/STM32H7xx_HAL_Driver/Src/stm32h7xx_hal_rcc.c ****     /* Check the parameters */
 422:../../Drivers/STM32H7xx_HAL_Driver/Src/stm32h7xx_hal_rcc.c ****     assert_param(IS_RCC_HSE(RCC_OscInitStruct->HSEState));
 421              		.loc 1 422 5 is_stmt 1 view .LVU128
 423:../../Drivers/STM32H7xx_HAL_Driver/Src/stm32h7xx_hal_rcc.c **** 
 424:../../Drivers/STM32H7xx_HAL_Driver/Src/stm32h7xx_hal_rcc.c ****     const uint32_t temp_sysclksrc = __HAL_RCC_GET_SYSCLK_SOURCE();
 422              		.loc 1 424 5 view .LVU129
 423              		.loc 1 424 37 is_stmt 0 view .LVU130
 424 0012 944A     		ldr	r2, .L166
 425 0014 1369     		ldr	r3, [r2, #16]
 426              		.loc 1 424 20 view .LVU131
 427 0016 03F03803 		and	r3, r3, #56
 428              	.LVL29:
 425:../../Drivers/STM32H7xx_HAL_Driver/Src/stm32h7xx_hal_rcc.c ****     const uint32_t temp_pllckselr = RCC->PLLCKSELR;
 429              		.loc 1 425 5 is_stmt 1 view .LVU132
 430              		.loc 1 425 20 is_stmt 0 view .LVU133
 431 001a 926A     		ldr	r2, [r2, #40]
ARM GAS  C:\Users\minis\AppData\Local\Temp\cczlSevg.s 			page 16


 432              	.LVL30:
 426:../../Drivers/STM32H7xx_HAL_Driver/Src/stm32h7xx_hal_rcc.c ****     /* When the HSE is used as system clock or clock source for PLL in these cases HSE will not dis
 427:../../Drivers/STM32H7xx_HAL_Driver/Src/stm32h7xx_hal_rcc.c ****     if ((temp_sysclksrc == RCC_CFGR_SWS_HSE) || ((temp_sysclksrc == RCC_CFGR_SWS_PLL1) && ((temp_pl
 433              		.loc 1 427 5 is_stmt 1 view .LVU134
 434              		.loc 1 427 8 is_stmt 0 view .LVU135
 435 001c 102B     		cmp	r3, #16
 436 001e 15D0     		beq	.L38
 437              		.loc 1 427 46 discriminator 1 view .LVU136
 438 0020 182B     		cmp	r3, #24
 439 0022 0FD0     		beq	.L144
 440              	.LVL31:
 441              	.L39:
 428:../../Drivers/STM32H7xx_HAL_Driver/Src/stm32h7xx_hal_rcc.c ****     {
 429:../../Drivers/STM32H7xx_HAL_Driver/Src/stm32h7xx_hal_rcc.c ****       if ((__HAL_RCC_GET_FLAG(RCC_FLAG_HSERDY) != 0U) && (RCC_OscInitStruct->HSEState == RCC_HSE_OF
 430:../../Drivers/STM32H7xx_HAL_Driver/Src/stm32h7xx_hal_rcc.c ****       {
 431:../../Drivers/STM32H7xx_HAL_Driver/Src/stm32h7xx_hal_rcc.c ****         return HAL_ERROR;
 432:../../Drivers/STM32H7xx_HAL_Driver/Src/stm32h7xx_hal_rcc.c ****       }
 433:../../Drivers/STM32H7xx_HAL_Driver/Src/stm32h7xx_hal_rcc.c ****     }
 434:../../Drivers/STM32H7xx_HAL_Driver/Src/stm32h7xx_hal_rcc.c ****     else
 435:../../Drivers/STM32H7xx_HAL_Driver/Src/stm32h7xx_hal_rcc.c ****     {
 436:../../Drivers/STM32H7xx_HAL_Driver/Src/stm32h7xx_hal_rcc.c ****       /* Set the new HSE configuration ---------------------------------------*/
 437:../../Drivers/STM32H7xx_HAL_Driver/Src/stm32h7xx_hal_rcc.c ****       __HAL_RCC_HSE_CONFIG(RCC_OscInitStruct->HSEState);
 442              		.loc 1 437 7 is_stmt 1 view .LVU137
 443              		.loc 1 437 7 view .LVU138
 444 0024 6368     		ldr	r3, [r4, #4]
 445              	.LVL32:
 446              		.loc 1 437 7 is_stmt 0 view .LVU139
 447 0026 B3F5803F 		cmp	r3, #65536
 448 002a 3FD0     		beq	.L145
 449              		.loc 1 437 7 is_stmt 1 discriminator 2 view .LVU140
 450 002c 002B     		cmp	r3, #0
 451 002e 53D1     		bne	.L42
 452              		.loc 1 437 7 discriminator 3 view .LVU141
 453 0030 8C4B     		ldr	r3, .L166
 454 0032 1A68     		ldr	r2, [r3]
 455 0034 22F48032 		bic	r2, r2, #65536
 456 0038 1A60     		str	r2, [r3]
 457              		.loc 1 437 7 view .LVU142
 458              		.loc 1 437 7 is_stmt 0 discriminator 3 view .LVU143
 459 003a 1A68     		ldr	r2, [r3]
 460 003c 22F48022 		bic	r2, r2, #262144
 461 0040 1A60     		str	r2, [r3]
 462 0042 38E0     		b	.L41
 463              	.LVL33:
 464              	.L144:
 427:../../Drivers/STM32H7xx_HAL_Driver/Src/stm32h7xx_hal_rcc.c ****     {
 465              		.loc 1 427 108 discriminator 2 view .LVU144
 466 0044 02F00302 		and	r2, r2, #3
 467              	.LVL34:
 427:../../Drivers/STM32H7xx_HAL_Driver/Src/stm32h7xx_hal_rcc.c ****     {
 468              		.loc 1 427 88 discriminator 2 view .LVU145
 469 0048 022A     		cmp	r2, #2
 470 004a EBD1     		bne	.L39
 471              	.L38:
 429:../../Drivers/STM32H7xx_HAL_Driver/Src/stm32h7xx_hal_rcc.c ****       {
 472              		.loc 1 429 7 is_stmt 1 view .LVU146
 429:../../Drivers/STM32H7xx_HAL_Driver/Src/stm32h7xx_hal_rcc.c ****       {
ARM GAS  C:\Users\minis\AppData\Local\Temp\cczlSevg.s 			page 17


 473              		.loc 1 429 12 is_stmt 0 view .LVU147
 474 004c 854B     		ldr	r3, .L166
 475              	.LVL35:
 429:../../Drivers/STM32H7xx_HAL_Driver/Src/stm32h7xx_hal_rcc.c ****       {
 476              		.loc 1 429 12 view .LVU148
 477 004e 1B68     		ldr	r3, [r3]
 429:../../Drivers/STM32H7xx_HAL_Driver/Src/stm32h7xx_hal_rcc.c ****       {
 478              		.loc 1 429 10 view .LVU149
 479 0050 13F4003F 		tst	r3, #131072
 480 0054 03D0     		beq	.L37
 429:../../Drivers/STM32H7xx_HAL_Driver/Src/stm32h7xx_hal_rcc.c ****       {
 481              		.loc 1 429 76 discriminator 1 view .LVU150
 482 0056 6368     		ldr	r3, [r4, #4]
 429:../../Drivers/STM32H7xx_HAL_Driver/Src/stm32h7xx_hal_rcc.c ****       {
 483              		.loc 1 429 55 discriminator 1 view .LVU151
 484 0058 002B     		cmp	r3, #0
 485 005a 00F00F83 		beq	.L146
 486              	.LVL36:
 487              	.L37:
 429:../../Drivers/STM32H7xx_HAL_Driver/Src/stm32h7xx_hal_rcc.c ****       {
 488              		.loc 1 429 55 discriminator 1 view .LVU152
 489              	.LBE2:
 438:../../Drivers/STM32H7xx_HAL_Driver/Src/stm32h7xx_hal_rcc.c **** 
 439:../../Drivers/STM32H7xx_HAL_Driver/Src/stm32h7xx_hal_rcc.c ****       /* Check the HSE State */
 440:../../Drivers/STM32H7xx_HAL_Driver/Src/stm32h7xx_hal_rcc.c ****       if (RCC_OscInitStruct->HSEState != RCC_HSE_OFF)
 441:../../Drivers/STM32H7xx_HAL_Driver/Src/stm32h7xx_hal_rcc.c ****       {
 442:../../Drivers/STM32H7xx_HAL_Driver/Src/stm32h7xx_hal_rcc.c ****         /* Get Start Tick*/
 443:../../Drivers/STM32H7xx_HAL_Driver/Src/stm32h7xx_hal_rcc.c ****         tickstart = HAL_GetTick();
 444:../../Drivers/STM32H7xx_HAL_Driver/Src/stm32h7xx_hal_rcc.c **** 
 445:../../Drivers/STM32H7xx_HAL_Driver/Src/stm32h7xx_hal_rcc.c ****         /* Wait till HSE is ready */
 446:../../Drivers/STM32H7xx_HAL_Driver/Src/stm32h7xx_hal_rcc.c ****         while (__HAL_RCC_GET_FLAG(RCC_FLAG_HSERDY) == 0U)
 447:../../Drivers/STM32H7xx_HAL_Driver/Src/stm32h7xx_hal_rcc.c ****         {
 448:../../Drivers/STM32H7xx_HAL_Driver/Src/stm32h7xx_hal_rcc.c ****           if ((uint32_t)(HAL_GetTick() - tickstart) > HSE_TIMEOUT_VALUE)
 449:../../Drivers/STM32H7xx_HAL_Driver/Src/stm32h7xx_hal_rcc.c ****           {
 450:../../Drivers/STM32H7xx_HAL_Driver/Src/stm32h7xx_hal_rcc.c ****             return HAL_TIMEOUT;
 451:../../Drivers/STM32H7xx_HAL_Driver/Src/stm32h7xx_hal_rcc.c ****           }
 452:../../Drivers/STM32H7xx_HAL_Driver/Src/stm32h7xx_hal_rcc.c ****         }
 453:../../Drivers/STM32H7xx_HAL_Driver/Src/stm32h7xx_hal_rcc.c ****       }
 454:../../Drivers/STM32H7xx_HAL_Driver/Src/stm32h7xx_hal_rcc.c ****       else
 455:../../Drivers/STM32H7xx_HAL_Driver/Src/stm32h7xx_hal_rcc.c ****       {
 456:../../Drivers/STM32H7xx_HAL_Driver/Src/stm32h7xx_hal_rcc.c ****         /* Get Start Tick*/
 457:../../Drivers/STM32H7xx_HAL_Driver/Src/stm32h7xx_hal_rcc.c ****         tickstart = HAL_GetTick();
 458:../../Drivers/STM32H7xx_HAL_Driver/Src/stm32h7xx_hal_rcc.c **** 
 459:../../Drivers/STM32H7xx_HAL_Driver/Src/stm32h7xx_hal_rcc.c ****         /* Wait till HSE is disabled */
 460:../../Drivers/STM32H7xx_HAL_Driver/Src/stm32h7xx_hal_rcc.c ****         while (__HAL_RCC_GET_FLAG(RCC_FLAG_HSERDY) != 0U)
 461:../../Drivers/STM32H7xx_HAL_Driver/Src/stm32h7xx_hal_rcc.c ****         {
 462:../../Drivers/STM32H7xx_HAL_Driver/Src/stm32h7xx_hal_rcc.c ****           if ((uint32_t)(HAL_GetTick() - tickstart) > HSE_TIMEOUT_VALUE)
 463:../../Drivers/STM32H7xx_HAL_Driver/Src/stm32h7xx_hal_rcc.c ****           {
 464:../../Drivers/STM32H7xx_HAL_Driver/Src/stm32h7xx_hal_rcc.c ****             return HAL_TIMEOUT;
 465:../../Drivers/STM32H7xx_HAL_Driver/Src/stm32h7xx_hal_rcc.c ****           }
 466:../../Drivers/STM32H7xx_HAL_Driver/Src/stm32h7xx_hal_rcc.c ****         }
 467:../../Drivers/STM32H7xx_HAL_Driver/Src/stm32h7xx_hal_rcc.c ****       }
 468:../../Drivers/STM32H7xx_HAL_Driver/Src/stm32h7xx_hal_rcc.c ****     }
 469:../../Drivers/STM32H7xx_HAL_Driver/Src/stm32h7xx_hal_rcc.c ****   }
 470:../../Drivers/STM32H7xx_HAL_Driver/Src/stm32h7xx_hal_rcc.c ****   /*----------------------------- HSI Configuration --------------------------*/
 471:../../Drivers/STM32H7xx_HAL_Driver/Src/stm32h7xx_hal_rcc.c ****   if (((RCC_OscInitStruct->OscillatorType) & RCC_OSCILLATORTYPE_HSI) == RCC_OSCILLATORTYPE_HSI)
 490              		.loc 1 471 3 is_stmt 1 view .LVU153
ARM GAS  C:\Users\minis\AppData\Local\Temp\cczlSevg.s 			page 18


 491              		.loc 1 471 26 is_stmt 0 view .LVU154
 492 005e 2368     		ldr	r3, [r4]
 493              		.loc 1 471 6 view .LVU155
 494 0060 13F0020F 		tst	r3, #2
 495 0064 00F0A180 		beq	.L49
 496              	.LBB3:
 472:../../Drivers/STM32H7xx_HAL_Driver/Src/stm32h7xx_hal_rcc.c ****   {
 473:../../Drivers/STM32H7xx_HAL_Driver/Src/stm32h7xx_hal_rcc.c ****     /* Check the parameters */
 474:../../Drivers/STM32H7xx_HAL_Driver/Src/stm32h7xx_hal_rcc.c ****     assert_param(IS_RCC_HSI(RCC_OscInitStruct->HSIState));
 497              		.loc 1 474 5 is_stmt 1 view .LVU156
 475:../../Drivers/STM32H7xx_HAL_Driver/Src/stm32h7xx_hal_rcc.c ****     assert_param(IS_RCC_HSICALIBRATION_VALUE(RCC_OscInitStruct->HSICalibrationValue));
 498              		.loc 1 475 5 view .LVU157
 476:../../Drivers/STM32H7xx_HAL_Driver/Src/stm32h7xx_hal_rcc.c **** 
 477:../../Drivers/STM32H7xx_HAL_Driver/Src/stm32h7xx_hal_rcc.c ****     /* When the HSI is used as system clock it will not be disabled */
 478:../../Drivers/STM32H7xx_HAL_Driver/Src/stm32h7xx_hal_rcc.c ****     const uint32_t temp_sysclksrc = __HAL_RCC_GET_SYSCLK_SOURCE();
 499              		.loc 1 478 5 view .LVU158
 500              		.loc 1 478 37 is_stmt 0 view .LVU159
 501 0068 7E4A     		ldr	r2, .L166
 502 006a 1369     		ldr	r3, [r2, #16]
 503              	.LVL37:
 479:../../Drivers/STM32H7xx_HAL_Driver/Src/stm32h7xx_hal_rcc.c ****     const uint32_t temp_pllckselr = RCC->PLLCKSELR;
 504              		.loc 1 479 5 is_stmt 1 view .LVU160
 505              		.loc 1 479 20 is_stmt 0 view .LVU161
 506 006c 926A     		ldr	r2, [r2, #40]
 507              	.LVL38:
 480:../../Drivers/STM32H7xx_HAL_Driver/Src/stm32h7xx_hal_rcc.c ****     if ((temp_sysclksrc == RCC_CFGR_SWS_HSI) || ((temp_sysclksrc == RCC_CFGR_SWS_PLL1) && ((temp_pl
 508              		.loc 1 480 5 is_stmt 1 view .LVU162
 509              		.loc 1 480 8 is_stmt 0 view .LVU163
 510 006e 13F03803 		ands	r3, r3, #56
 511              	.LVL39:
 512              		.loc 1 480 8 view .LVU164
 513 0072 5AD0     		beq	.L50
 514              		.loc 1 480 46 discriminator 1 view .LVU165
 515 0074 182B     		cmp	r3, #24
 516 0076 55D0     		beq	.L147
 517              	.L51:
 481:../../Drivers/STM32H7xx_HAL_Driver/Src/stm32h7xx_hal_rcc.c ****     {
 482:../../Drivers/STM32H7xx_HAL_Driver/Src/stm32h7xx_hal_rcc.c ****       /* When HSI is used as system clock it will not be disabled */
 483:../../Drivers/STM32H7xx_HAL_Driver/Src/stm32h7xx_hal_rcc.c ****       if ((__HAL_RCC_GET_FLAG(RCC_FLAG_HSIRDY) != 0U) && (RCC_OscInitStruct->HSIState == RCC_HSI_OF
 484:../../Drivers/STM32H7xx_HAL_Driver/Src/stm32h7xx_hal_rcc.c ****       {
 485:../../Drivers/STM32H7xx_HAL_Driver/Src/stm32h7xx_hal_rcc.c ****         return HAL_ERROR;
 486:../../Drivers/STM32H7xx_HAL_Driver/Src/stm32h7xx_hal_rcc.c ****       }
 487:../../Drivers/STM32H7xx_HAL_Driver/Src/stm32h7xx_hal_rcc.c ****       /* Otherwise, only HSI division and calibration are allowed */
 488:../../Drivers/STM32H7xx_HAL_Driver/Src/stm32h7xx_hal_rcc.c ****       else
 489:../../Drivers/STM32H7xx_HAL_Driver/Src/stm32h7xx_hal_rcc.c ****       {
 490:../../Drivers/STM32H7xx_HAL_Driver/Src/stm32h7xx_hal_rcc.c ****         /* Enable the Internal High Speed oscillator (HSI, HSIDIV2, HSIDIV4, or HSIDIV8) */
 491:../../Drivers/STM32H7xx_HAL_Driver/Src/stm32h7xx_hal_rcc.c ****         __HAL_RCC_HSI_CONFIG(RCC_OscInitStruct->HSIState);
 492:../../Drivers/STM32H7xx_HAL_Driver/Src/stm32h7xx_hal_rcc.c **** 
 493:../../Drivers/STM32H7xx_HAL_Driver/Src/stm32h7xx_hal_rcc.c ****         /* Get Start Tick*/
 494:../../Drivers/STM32H7xx_HAL_Driver/Src/stm32h7xx_hal_rcc.c ****         tickstart = HAL_GetTick();
 495:../../Drivers/STM32H7xx_HAL_Driver/Src/stm32h7xx_hal_rcc.c **** 
 496:../../Drivers/STM32H7xx_HAL_Driver/Src/stm32h7xx_hal_rcc.c ****         /* Wait till HSI is ready */
 497:../../Drivers/STM32H7xx_HAL_Driver/Src/stm32h7xx_hal_rcc.c ****         while (__HAL_RCC_GET_FLAG(RCC_FLAG_HSIRDY) == 0U)
 498:../../Drivers/STM32H7xx_HAL_Driver/Src/stm32h7xx_hal_rcc.c ****         {
 499:../../Drivers/STM32H7xx_HAL_Driver/Src/stm32h7xx_hal_rcc.c ****           if ((uint32_t)(HAL_GetTick() - tickstart) > HSI_TIMEOUT_VALUE)
 500:../../Drivers/STM32H7xx_HAL_Driver/Src/stm32h7xx_hal_rcc.c ****           {
 501:../../Drivers/STM32H7xx_HAL_Driver/Src/stm32h7xx_hal_rcc.c ****             return HAL_TIMEOUT;
ARM GAS  C:\Users\minis\AppData\Local\Temp\cczlSevg.s 			page 19


 502:../../Drivers/STM32H7xx_HAL_Driver/Src/stm32h7xx_hal_rcc.c ****           }
 503:../../Drivers/STM32H7xx_HAL_Driver/Src/stm32h7xx_hal_rcc.c ****         }
 504:../../Drivers/STM32H7xx_HAL_Driver/Src/stm32h7xx_hal_rcc.c ****         /* Adjusts the Internal High Speed oscillator (HSI) calibration value.*/
 505:../../Drivers/STM32H7xx_HAL_Driver/Src/stm32h7xx_hal_rcc.c ****         __HAL_RCC_HSI_CALIBRATIONVALUE_ADJUST(RCC_OscInitStruct->HSICalibrationValue);
 506:../../Drivers/STM32H7xx_HAL_Driver/Src/stm32h7xx_hal_rcc.c ****       }
 507:../../Drivers/STM32H7xx_HAL_Driver/Src/stm32h7xx_hal_rcc.c ****     }
 508:../../Drivers/STM32H7xx_HAL_Driver/Src/stm32h7xx_hal_rcc.c **** 
 509:../../Drivers/STM32H7xx_HAL_Driver/Src/stm32h7xx_hal_rcc.c ****     else
 510:../../Drivers/STM32H7xx_HAL_Driver/Src/stm32h7xx_hal_rcc.c ****     {
 511:../../Drivers/STM32H7xx_HAL_Driver/Src/stm32h7xx_hal_rcc.c ****       /* Check the HSI State */
 512:../../Drivers/STM32H7xx_HAL_Driver/Src/stm32h7xx_hal_rcc.c ****       if ((RCC_OscInitStruct->HSIState) != RCC_HSI_OFF)
 518              		.loc 1 512 7 is_stmt 1 view .LVU166
 519              		.loc 1 512 29 is_stmt 0 view .LVU167
 520 0078 E368     		ldr	r3, [r4, #12]
 521              	.LVL40:
 522              		.loc 1 512 10 view .LVU168
 523 007a 002B     		cmp	r3, #0
 524 007c 00F0DE80 		beq	.L57
 513:../../Drivers/STM32H7xx_HAL_Driver/Src/stm32h7xx_hal_rcc.c ****       {
 514:../../Drivers/STM32H7xx_HAL_Driver/Src/stm32h7xx_hal_rcc.c ****         /* Enable the Internal High Speed oscillator (HSI, HSIDIV2,HSIDIV4, or HSIDIV8) */
 515:../../Drivers/STM32H7xx_HAL_Driver/Src/stm32h7xx_hal_rcc.c ****         __HAL_RCC_HSI_CONFIG(RCC_OscInitStruct->HSIState);
 525              		.loc 1 515 9 is_stmt 1 view .LVU169
 526 0080 7849     		ldr	r1, .L166
 527 0082 0A68     		ldr	r2, [r1]
 528              	.LVL41:
 529              		.loc 1 515 9 is_stmt 0 view .LVU170
 530 0084 22F01902 		bic	r2, r2, #25
 531 0088 1343     		orrs	r3, r3, r2
 532 008a 0B60     		str	r3, [r1]
 516:../../Drivers/STM32H7xx_HAL_Driver/Src/stm32h7xx_hal_rcc.c **** 
 517:../../Drivers/STM32H7xx_HAL_Driver/Src/stm32h7xx_hal_rcc.c ****         /* Get Start Tick*/
 518:../../Drivers/STM32H7xx_HAL_Driver/Src/stm32h7xx_hal_rcc.c ****         tickstart = HAL_GetTick();
 533              		.loc 1 518 9 is_stmt 1 view .LVU171
 534              		.loc 1 518 21 is_stmt 0 view .LVU172
 535 008c FFF7FEFF 		bl	HAL_GetTick
 536              	.LVL42:
 537 0090 0546     		mov	r5, r0
 538              	.LVL43:
 519:../../Drivers/STM32H7xx_HAL_Driver/Src/stm32h7xx_hal_rcc.c **** 
 520:../../Drivers/STM32H7xx_HAL_Driver/Src/stm32h7xx_hal_rcc.c ****         /* Wait till HSI is ready */
 521:../../Drivers/STM32H7xx_HAL_Driver/Src/stm32h7xx_hal_rcc.c ****         while (__HAL_RCC_GET_FLAG(RCC_FLAG_HSIRDY) == 0U)
 539              		.loc 1 521 9 is_stmt 1 view .LVU173
 540              	.L58:
 541              		.loc 1 521 52 view .LVU174
 542              		.loc 1 521 16 is_stmt 0 view .LVU175
 543 0092 744B     		ldr	r3, .L166
 544 0094 1B68     		ldr	r3, [r3]
 545              		.loc 1 521 52 view .LVU176
 546 0096 13F0040F 		tst	r3, #4
 547 009a 40F0AD80 		bne	.L148
 522:../../Drivers/STM32H7xx_HAL_Driver/Src/stm32h7xx_hal_rcc.c ****         {
 523:../../Drivers/STM32H7xx_HAL_Driver/Src/stm32h7xx_hal_rcc.c ****           if ((HAL_GetTick() - tickstart) > HSI_TIMEOUT_VALUE)
 548              		.loc 1 523 11 is_stmt 1 view .LVU177
 549              		.loc 1 523 16 is_stmt 0 view .LVU178
 550 009e FFF7FEFF 		bl	HAL_GetTick
 551              	.LVL44:
 552              		.loc 1 523 30 discriminator 1 view .LVU179
ARM GAS  C:\Users\minis\AppData\Local\Temp\cczlSevg.s 			page 20


 553 00a2 401B     		subs	r0, r0, r5
 554              		.loc 1 523 14 discriminator 1 view .LVU180
 555 00a4 0228     		cmp	r0, #2
 556 00a6 F4D9     		bls	.L58
 524:../../Drivers/STM32H7xx_HAL_Driver/Src/stm32h7xx_hal_rcc.c ****           {
 525:../../Drivers/STM32H7xx_HAL_Driver/Src/stm32h7xx_hal_rcc.c ****             return HAL_TIMEOUT;
 557              		.loc 1 525 20 view .LVU181
 558 00a8 0320     		movs	r0, #3
 559 00aa EEE2     		b	.L36
 560              	.LVL45:
 561              	.L145:
 562              		.loc 1 525 20 view .LVU182
 563              	.LBE3:
 564              	.LBB4:
 437:../../Drivers/STM32H7xx_HAL_Driver/Src/stm32h7xx_hal_rcc.c **** 
 565              		.loc 1 437 7 is_stmt 1 discriminator 1 view .LVU183
 566 00ac 6D4A     		ldr	r2, .L166
 567 00ae 1368     		ldr	r3, [r2]
 568 00b0 43F48033 		orr	r3, r3, #65536
 569 00b4 1360     		str	r3, [r2]
 570              	.L41:
 437:../../Drivers/STM32H7xx_HAL_Driver/Src/stm32h7xx_hal_rcc.c **** 
 571              		.loc 1 437 7 view .LVU184
 440:../../Drivers/STM32H7xx_HAL_Driver/Src/stm32h7xx_hal_rcc.c ****       {
 572              		.loc 1 440 7 view .LVU185
 440:../../Drivers/STM32H7xx_HAL_Driver/Src/stm32h7xx_hal_rcc.c ****       {
 573              		.loc 1 440 28 is_stmt 0 view .LVU186
 574 00b6 6368     		ldr	r3, [r4, #4]
 440:../../Drivers/STM32H7xx_HAL_Driver/Src/stm32h7xx_hal_rcc.c ****       {
 575              		.loc 1 440 10 view .LVU187
 576 00b8 2BB3     		cbz	r3, .L44
 443:../../Drivers/STM32H7xx_HAL_Driver/Src/stm32h7xx_hal_rcc.c **** 
 577              		.loc 1 443 9 is_stmt 1 view .LVU188
 443:../../Drivers/STM32H7xx_HAL_Driver/Src/stm32h7xx_hal_rcc.c **** 
 578              		.loc 1 443 21 is_stmt 0 view .LVU189
 579 00ba FFF7FEFF 		bl	HAL_GetTick
 580              	.LVL46:
 443:../../Drivers/STM32H7xx_HAL_Driver/Src/stm32h7xx_hal_rcc.c **** 
 581              		.loc 1 443 21 view .LVU190
 582 00be 0546     		mov	r5, r0
 583              	.LVL47:
 446:../../Drivers/STM32H7xx_HAL_Driver/Src/stm32h7xx_hal_rcc.c ****         {
 584              		.loc 1 446 9 is_stmt 1 view .LVU191
 585              	.L45:
 446:../../Drivers/STM32H7xx_HAL_Driver/Src/stm32h7xx_hal_rcc.c ****         {
 586              		.loc 1 446 52 view .LVU192
 446:../../Drivers/STM32H7xx_HAL_Driver/Src/stm32h7xx_hal_rcc.c ****         {
 587              		.loc 1 446 16 is_stmt 0 view .LVU193
 588 00c0 684B     		ldr	r3, .L166
 589 00c2 1B68     		ldr	r3, [r3]
 446:../../Drivers/STM32H7xx_HAL_Driver/Src/stm32h7xx_hal_rcc.c ****         {
 590              		.loc 1 446 52 view .LVU194
 591 00c4 13F4003F 		tst	r3, #131072
 592 00c8 C9D1     		bne	.L37
 448:../../Drivers/STM32H7xx_HAL_Driver/Src/stm32h7xx_hal_rcc.c ****           {
 593              		.loc 1 448 11 is_stmt 1 view .LVU195
 448:../../Drivers/STM32H7xx_HAL_Driver/Src/stm32h7xx_hal_rcc.c ****           {
ARM GAS  C:\Users\minis\AppData\Local\Temp\cczlSevg.s 			page 21


 594              		.loc 1 448 26 is_stmt 0 view .LVU196
 595 00ca FFF7FEFF 		bl	HAL_GetTick
 596              	.LVL48:
 448:../../Drivers/STM32H7xx_HAL_Driver/Src/stm32h7xx_hal_rcc.c ****           {
 597              		.loc 1 448 40 discriminator 1 view .LVU197
 598 00ce 401B     		subs	r0, r0, r5
 448:../../Drivers/STM32H7xx_HAL_Driver/Src/stm32h7xx_hal_rcc.c ****           {
 599              		.loc 1 448 14 discriminator 1 view .LVU198
 600 00d0 6428     		cmp	r0, #100
 601 00d2 F5D9     		bls	.L45
 450:../../Drivers/STM32H7xx_HAL_Driver/Src/stm32h7xx_hal_rcc.c ****           }
 602              		.loc 1 450 20 view .LVU199
 603 00d4 0320     		movs	r0, #3
 604 00d6 D8E2     		b	.L36
 605              	.LVL49:
 606              	.L42:
 437:../../Drivers/STM32H7xx_HAL_Driver/Src/stm32h7xx_hal_rcc.c **** 
 607              		.loc 1 437 7 is_stmt 1 discriminator 4 view .LVU200
 608 00d8 B3F5A02F 		cmp	r3, #327680
 609 00dc 09D0     		beq	.L149
 437:../../Drivers/STM32H7xx_HAL_Driver/Src/stm32h7xx_hal_rcc.c **** 
 610              		.loc 1 437 7 discriminator 6 view .LVU201
 611 00de 614B     		ldr	r3, .L166
 612 00e0 1A68     		ldr	r2, [r3]
 613 00e2 22F48032 		bic	r2, r2, #65536
 614 00e6 1A60     		str	r2, [r3]
 437:../../Drivers/STM32H7xx_HAL_Driver/Src/stm32h7xx_hal_rcc.c **** 
 615              		.loc 1 437 7 view .LVU202
 437:../../Drivers/STM32H7xx_HAL_Driver/Src/stm32h7xx_hal_rcc.c **** 
 616              		.loc 1 437 7 is_stmt 0 discriminator 6 view .LVU203
 617 00e8 1A68     		ldr	r2, [r3]
 618 00ea 22F48022 		bic	r2, r2, #262144
 619 00ee 1A60     		str	r2, [r3]
 620 00f0 E1E7     		b	.L41
 621              	.L149:
 437:../../Drivers/STM32H7xx_HAL_Driver/Src/stm32h7xx_hal_rcc.c **** 
 622              		.loc 1 437 7 is_stmt 1 discriminator 5 view .LVU204
 623 00f2 5C4B     		ldr	r3, .L166
 624 00f4 1A68     		ldr	r2, [r3]
 625 00f6 42F48022 		orr	r2, r2, #262144
 626 00fa 1A60     		str	r2, [r3]
 437:../../Drivers/STM32H7xx_HAL_Driver/Src/stm32h7xx_hal_rcc.c **** 
 627              		.loc 1 437 7 view .LVU205
 437:../../Drivers/STM32H7xx_HAL_Driver/Src/stm32h7xx_hal_rcc.c **** 
 628              		.loc 1 437 7 is_stmt 0 discriminator 5 view .LVU206
 629 00fc 1A68     		ldr	r2, [r3]
 630 00fe 42F48032 		orr	r2, r2, #65536
 631 0102 1A60     		str	r2, [r3]
 632 0104 D7E7     		b	.L41
 633              	.L44:
 457:../../Drivers/STM32H7xx_HAL_Driver/Src/stm32h7xx_hal_rcc.c **** 
 634              		.loc 1 457 9 is_stmt 1 view .LVU207
 457:../../Drivers/STM32H7xx_HAL_Driver/Src/stm32h7xx_hal_rcc.c **** 
 635              		.loc 1 457 21 is_stmt 0 view .LVU208
 636 0106 FFF7FEFF 		bl	HAL_GetTick
 637              	.LVL50:
 457:../../Drivers/STM32H7xx_HAL_Driver/Src/stm32h7xx_hal_rcc.c **** 
ARM GAS  C:\Users\minis\AppData\Local\Temp\cczlSevg.s 			page 22


 638              		.loc 1 457 21 view .LVU209
 639 010a 0546     		mov	r5, r0
 640              	.LVL51:
 460:../../Drivers/STM32H7xx_HAL_Driver/Src/stm32h7xx_hal_rcc.c ****         {
 641              		.loc 1 460 9 is_stmt 1 view .LVU210
 642              	.L47:
 460:../../Drivers/STM32H7xx_HAL_Driver/Src/stm32h7xx_hal_rcc.c ****         {
 643              		.loc 1 460 52 view .LVU211
 460:../../Drivers/STM32H7xx_HAL_Driver/Src/stm32h7xx_hal_rcc.c ****         {
 644              		.loc 1 460 16 is_stmt 0 view .LVU212
 645 010c 554B     		ldr	r3, .L166
 646 010e 1B68     		ldr	r3, [r3]
 460:../../Drivers/STM32H7xx_HAL_Driver/Src/stm32h7xx_hal_rcc.c ****         {
 647              		.loc 1 460 52 view .LVU213
 648 0110 13F4003F 		tst	r3, #131072
 649 0114 A3D0     		beq	.L37
 462:../../Drivers/STM32H7xx_HAL_Driver/Src/stm32h7xx_hal_rcc.c ****           {
 650              		.loc 1 462 11 is_stmt 1 view .LVU214
 462:../../Drivers/STM32H7xx_HAL_Driver/Src/stm32h7xx_hal_rcc.c ****           {
 651              		.loc 1 462 26 is_stmt 0 view .LVU215
 652 0116 FFF7FEFF 		bl	HAL_GetTick
 653              	.LVL52:
 462:../../Drivers/STM32H7xx_HAL_Driver/Src/stm32h7xx_hal_rcc.c ****           {
 654              		.loc 1 462 40 discriminator 1 view .LVU216
 655 011a 401B     		subs	r0, r0, r5
 462:../../Drivers/STM32H7xx_HAL_Driver/Src/stm32h7xx_hal_rcc.c ****           {
 656              		.loc 1 462 14 discriminator 1 view .LVU217
 657 011c 6428     		cmp	r0, #100
 658 011e F5D9     		bls	.L47
 464:../../Drivers/STM32H7xx_HAL_Driver/Src/stm32h7xx_hal_rcc.c ****           }
 659              		.loc 1 464 20 view .LVU218
 660 0120 0320     		movs	r0, #3
 661 0122 B2E2     		b	.L36
 662              	.LVL53:
 663              	.L147:
 464:../../Drivers/STM32H7xx_HAL_Driver/Src/stm32h7xx_hal_rcc.c ****           }
 664              		.loc 1 464 20 view .LVU219
 665              	.LBE4:
 666              	.LBB5:
 480:../../Drivers/STM32H7xx_HAL_Driver/Src/stm32h7xx_hal_rcc.c ****     {
 667              		.loc 1 480 88 discriminator 2 view .LVU220
 668 0124 12F0030F 		tst	r2, #3
 669 0128 A6D1     		bne	.L51
 670              	.L50:
 483:../../Drivers/STM32H7xx_HAL_Driver/Src/stm32h7xx_hal_rcc.c ****       {
 671              		.loc 1 483 7 is_stmt 1 view .LVU221
 483:../../Drivers/STM32H7xx_HAL_Driver/Src/stm32h7xx_hal_rcc.c ****       {
 672              		.loc 1 483 12 is_stmt 0 view .LVU222
 673 012a 4E4B     		ldr	r3, .L166
 674              	.LVL54:
 483:../../Drivers/STM32H7xx_HAL_Driver/Src/stm32h7xx_hal_rcc.c ****       {
 675              		.loc 1 483 12 view .LVU223
 676 012c 1B68     		ldr	r3, [r3]
 483:../../Drivers/STM32H7xx_HAL_Driver/Src/stm32h7xx_hal_rcc.c ****       {
 677              		.loc 1 483 10 view .LVU224
 678 012e 13F0040F 		tst	r3, #4
 679 0132 03D0     		beq	.L52
ARM GAS  C:\Users\minis\AppData\Local\Temp\cczlSevg.s 			page 23


 483:../../Drivers/STM32H7xx_HAL_Driver/Src/stm32h7xx_hal_rcc.c ****       {
 680              		.loc 1 483 76 discriminator 1 view .LVU225
 681 0134 E368     		ldr	r3, [r4, #12]
 483:../../Drivers/STM32H7xx_HAL_Driver/Src/stm32h7xx_hal_rcc.c ****       {
 682              		.loc 1 483 55 discriminator 1 view .LVU226
 683 0136 002B     		cmp	r3, #0
 684 0138 00F0A282 		beq	.L114
 685              	.L52:
 491:../../Drivers/STM32H7xx_HAL_Driver/Src/stm32h7xx_hal_rcc.c **** 
 686              		.loc 1 491 9 is_stmt 1 view .LVU227
 687 013c 494A     		ldr	r2, .L166
 688              	.LVL55:
 491:../../Drivers/STM32H7xx_HAL_Driver/Src/stm32h7xx_hal_rcc.c **** 
 689              		.loc 1 491 9 is_stmt 0 view .LVU228
 690 013e 1368     		ldr	r3, [r2]
 691 0140 23F01903 		bic	r3, r3, #25
 692 0144 E168     		ldr	r1, [r4, #12]
 693 0146 0B43     		orrs	r3, r3, r1
 694 0148 1360     		str	r3, [r2]
 494:../../Drivers/STM32H7xx_HAL_Driver/Src/stm32h7xx_hal_rcc.c **** 
 695              		.loc 1 494 9 is_stmt 1 view .LVU229
 494:../../Drivers/STM32H7xx_HAL_Driver/Src/stm32h7xx_hal_rcc.c **** 
 696              		.loc 1 494 21 is_stmt 0 view .LVU230
 697 014a FFF7FEFF 		bl	HAL_GetTick
 698              	.LVL56:
 699 014e 0546     		mov	r5, r0
 700              	.LVL57:
 497:../../Drivers/STM32H7xx_HAL_Driver/Src/stm32h7xx_hal_rcc.c ****         {
 701              		.loc 1 497 9 is_stmt 1 view .LVU231
 702              	.L53:
 497:../../Drivers/STM32H7xx_HAL_Driver/Src/stm32h7xx_hal_rcc.c ****         {
 703              		.loc 1 497 52 view .LVU232
 497:../../Drivers/STM32H7xx_HAL_Driver/Src/stm32h7xx_hal_rcc.c ****         {
 704              		.loc 1 497 16 is_stmt 0 view .LVU233
 705 0150 444B     		ldr	r3, .L166
 706 0152 1B68     		ldr	r3, [r3]
 497:../../Drivers/STM32H7xx_HAL_Driver/Src/stm32h7xx_hal_rcc.c ****         {
 707              		.loc 1 497 52 view .LVU234
 708 0154 13F0040F 		tst	r3, #4
 709 0158 06D1     		bne	.L150
 499:../../Drivers/STM32H7xx_HAL_Driver/Src/stm32h7xx_hal_rcc.c ****           {
 710              		.loc 1 499 11 is_stmt 1 view .LVU235
 499:../../Drivers/STM32H7xx_HAL_Driver/Src/stm32h7xx_hal_rcc.c ****           {
 711              		.loc 1 499 26 is_stmt 0 view .LVU236
 712 015a FFF7FEFF 		bl	HAL_GetTick
 713              	.LVL58:
 499:../../Drivers/STM32H7xx_HAL_Driver/Src/stm32h7xx_hal_rcc.c ****           {
 714              		.loc 1 499 40 discriminator 1 view .LVU237
 715 015e 401B     		subs	r0, r0, r5
 499:../../Drivers/STM32H7xx_HAL_Driver/Src/stm32h7xx_hal_rcc.c ****           {
 716              		.loc 1 499 14 discriminator 1 view .LVU238
 717 0160 0228     		cmp	r0, #2
 718 0162 F5D9     		bls	.L53
 501:../../Drivers/STM32H7xx_HAL_Driver/Src/stm32h7xx_hal_rcc.c ****           }
 719              		.loc 1 501 20 view .LVU239
 720 0164 0320     		movs	r0, #3
 721 0166 90E2     		b	.L36
ARM GAS  C:\Users\minis\AppData\Local\Temp\cczlSevg.s 			page 24


 722              	.L150:
 505:../../Drivers/STM32H7xx_HAL_Driver/Src/stm32h7xx_hal_rcc.c ****       }
 723              		.loc 1 505 9 is_stmt 1 view .LVU240
 505:../../Drivers/STM32H7xx_HAL_Driver/Src/stm32h7xx_hal_rcc.c ****       }
 724              		.loc 1 505 9 view .LVU241
 725 0168 FFF7FEFF 		bl	HAL_GetREVID
 726              	.LVL59:
 505:../../Drivers/STM32H7xx_HAL_Driver/Src/stm32h7xx_hal_rcc.c ****       }
 727              		.loc 1 505 9 is_stmt 0 discriminator 1 view .LVU242
 728 016c 41F20303 		movw	r3, #4099
 729 0170 9842     		cmp	r0, r3
 730 0172 12D8     		bhi	.L55
 505:../../Drivers/STM32H7xx_HAL_Driver/Src/stm32h7xx_hal_rcc.c ****       }
 731              		.loc 1 505 9 is_stmt 1 discriminator 1 view .LVU243
 732 0174 2269     		ldr	r2, [r4, #16]
 733 0176 402A     		cmp	r2, #64
 734 0178 07D0     		beq	.L151
 505:../../Drivers/STM32H7xx_HAL_Driver/Src/stm32h7xx_hal_rcc.c ****       }
 735              		.loc 1 505 9 discriminator 4 view .LVU244
 736 017a 3A49     		ldr	r1, .L166
 737 017c 4B68     		ldr	r3, [r1, #4]
 738 017e 23F47C33 		bic	r3, r3, #258048
 739 0182 43EA0233 		orr	r3, r3, r2, lsl #12
 740 0186 4B60     		str	r3, [r1, #4]
 741 0188 0FE0     		b	.L49
 742              	.L151:
 505:../../Drivers/STM32H7xx_HAL_Driver/Src/stm32h7xx_hal_rcc.c ****       }
 743              		.loc 1 505 9 discriminator 3 view .LVU245
 744 018a 364A     		ldr	r2, .L166
 745 018c 5368     		ldr	r3, [r2, #4]
 746 018e 23F47C33 		bic	r3, r3, #258048
 747 0192 43F40033 		orr	r3, r3, #131072
 748 0196 5360     		str	r3, [r2, #4]
 749 0198 07E0     		b	.L49
 750              	.L55:
 505:../../Drivers/STM32H7xx_HAL_Driver/Src/stm32h7xx_hal_rcc.c ****       }
 751              		.loc 1 505 9 discriminator 2 view .LVU246
 752 019a 324A     		ldr	r2, .L166
 753 019c 5368     		ldr	r3, [r2, #4]
 754 019e 23F0FE43 		bic	r3, r3, #2130706432
 755 01a2 2169     		ldr	r1, [r4, #16]
 756 01a4 43EA0163 		orr	r3, r3, r1, lsl #24
 757 01a8 5360     		str	r3, [r2, #4]
 758              	.LVL60:
 759              	.L49:
 505:../../Drivers/STM32H7xx_HAL_Driver/Src/stm32h7xx_hal_rcc.c ****       }
 760              		.loc 1 505 9 is_stmt 0 discriminator 2 view .LVU247
 761              	.LBE5:
 526:../../Drivers/STM32H7xx_HAL_Driver/Src/stm32h7xx_hal_rcc.c ****           }
 527:../../Drivers/STM32H7xx_HAL_Driver/Src/stm32h7xx_hal_rcc.c ****         }
 528:../../Drivers/STM32H7xx_HAL_Driver/Src/stm32h7xx_hal_rcc.c **** 
 529:../../Drivers/STM32H7xx_HAL_Driver/Src/stm32h7xx_hal_rcc.c ****         /* Adjusts the Internal High Speed oscillator (HSI) calibration value.*/
 530:../../Drivers/STM32H7xx_HAL_Driver/Src/stm32h7xx_hal_rcc.c ****         __HAL_RCC_HSI_CALIBRATIONVALUE_ADJUST(RCC_OscInitStruct->HSICalibrationValue);
 531:../../Drivers/STM32H7xx_HAL_Driver/Src/stm32h7xx_hal_rcc.c ****       }
 532:../../Drivers/STM32H7xx_HAL_Driver/Src/stm32h7xx_hal_rcc.c ****       else
 533:../../Drivers/STM32H7xx_HAL_Driver/Src/stm32h7xx_hal_rcc.c ****       {
 534:../../Drivers/STM32H7xx_HAL_Driver/Src/stm32h7xx_hal_rcc.c ****         /* Disable the Internal High Speed oscillator (HSI). */
ARM GAS  C:\Users\minis\AppData\Local\Temp\cczlSevg.s 			page 25


 535:../../Drivers/STM32H7xx_HAL_Driver/Src/stm32h7xx_hal_rcc.c ****         __HAL_RCC_HSI_DISABLE();
 536:../../Drivers/STM32H7xx_HAL_Driver/Src/stm32h7xx_hal_rcc.c **** 
 537:../../Drivers/STM32H7xx_HAL_Driver/Src/stm32h7xx_hal_rcc.c ****         /* Get Start Tick*/
 538:../../Drivers/STM32H7xx_HAL_Driver/Src/stm32h7xx_hal_rcc.c ****         tickstart = HAL_GetTick();
 539:../../Drivers/STM32H7xx_HAL_Driver/Src/stm32h7xx_hal_rcc.c **** 
 540:../../Drivers/STM32H7xx_HAL_Driver/Src/stm32h7xx_hal_rcc.c ****         /* Wait till HSI is disabled */
 541:../../Drivers/STM32H7xx_HAL_Driver/Src/stm32h7xx_hal_rcc.c ****         while (__HAL_RCC_GET_FLAG(RCC_FLAG_HSIRDY) != 0U)
 542:../../Drivers/STM32H7xx_HAL_Driver/Src/stm32h7xx_hal_rcc.c ****         {
 543:../../Drivers/STM32H7xx_HAL_Driver/Src/stm32h7xx_hal_rcc.c ****           if ((HAL_GetTick() - tickstart) > HSI_TIMEOUT_VALUE)
 544:../../Drivers/STM32H7xx_HAL_Driver/Src/stm32h7xx_hal_rcc.c ****           {
 545:../../Drivers/STM32H7xx_HAL_Driver/Src/stm32h7xx_hal_rcc.c ****             return HAL_TIMEOUT;
 546:../../Drivers/STM32H7xx_HAL_Driver/Src/stm32h7xx_hal_rcc.c ****           }
 547:../../Drivers/STM32H7xx_HAL_Driver/Src/stm32h7xx_hal_rcc.c ****         }
 548:../../Drivers/STM32H7xx_HAL_Driver/Src/stm32h7xx_hal_rcc.c ****       }
 549:../../Drivers/STM32H7xx_HAL_Driver/Src/stm32h7xx_hal_rcc.c ****     }
 550:../../Drivers/STM32H7xx_HAL_Driver/Src/stm32h7xx_hal_rcc.c ****   }
 551:../../Drivers/STM32H7xx_HAL_Driver/Src/stm32h7xx_hal_rcc.c ****   /*----------------------------- CSI Configuration --------------------------*/
 552:../../Drivers/STM32H7xx_HAL_Driver/Src/stm32h7xx_hal_rcc.c ****   if (((RCC_OscInitStruct->OscillatorType) & RCC_OSCILLATORTYPE_CSI) == RCC_OSCILLATORTYPE_CSI)
 762              		.loc 1 552 3 is_stmt 1 view .LVU248
 763              		.loc 1 552 26 is_stmt 0 view .LVU249
 764 01aa 2368     		ldr	r3, [r4]
 765              		.loc 1 552 6 view .LVU250
 766 01ac 13F0100F 		tst	r3, #16
 767 01b0 00F08880 		beq	.L64
 768              	.LBB6:
 553:../../Drivers/STM32H7xx_HAL_Driver/Src/stm32h7xx_hal_rcc.c ****   {
 554:../../Drivers/STM32H7xx_HAL_Driver/Src/stm32h7xx_hal_rcc.c ****     /* Check the parameters */
 555:../../Drivers/STM32H7xx_HAL_Driver/Src/stm32h7xx_hal_rcc.c ****     assert_param(IS_RCC_CSI(RCC_OscInitStruct->CSIState));
 769              		.loc 1 555 5 is_stmt 1 view .LVU251
 556:../../Drivers/STM32H7xx_HAL_Driver/Src/stm32h7xx_hal_rcc.c ****     assert_param(IS_RCC_CSICALIBRATION_VALUE(RCC_OscInitStruct->CSICalibrationValue));
 770              		.loc 1 556 5 view .LVU252
 557:../../Drivers/STM32H7xx_HAL_Driver/Src/stm32h7xx_hal_rcc.c **** 
 558:../../Drivers/STM32H7xx_HAL_Driver/Src/stm32h7xx_hal_rcc.c ****     /* When the CSI is used as system clock it will not disabled */
 559:../../Drivers/STM32H7xx_HAL_Driver/Src/stm32h7xx_hal_rcc.c ****     const uint32_t temp_sysclksrc = __HAL_RCC_GET_SYSCLK_SOURCE();
 771              		.loc 1 559 5 view .LVU253
 772              		.loc 1 559 37 is_stmt 0 view .LVU254
 773 01b4 2B4A     		ldr	r2, .L166
 774 01b6 1369     		ldr	r3, [r2, #16]
 775              		.loc 1 559 20 view .LVU255
 776 01b8 03F03803 		and	r3, r3, #56
 777              	.LVL61:
 560:../../Drivers/STM32H7xx_HAL_Driver/Src/stm32h7xx_hal_rcc.c ****     const uint32_t temp_pllckselr = RCC->PLLCKSELR;
 778              		.loc 1 560 5 is_stmt 1 view .LVU256
 779              		.loc 1 560 20 is_stmt 0 view .LVU257
 780 01bc 926A     		ldr	r2, [r2, #40]
 781              	.LVL62:
 561:../../Drivers/STM32H7xx_HAL_Driver/Src/stm32h7xx_hal_rcc.c ****     if ((temp_sysclksrc == RCC_CFGR_SWS_CSI) || ((temp_sysclksrc == RCC_CFGR_SWS_PLL1) && ((temp_pl
 782              		.loc 1 561 5 is_stmt 1 view .LVU258
 783              		.loc 1 561 8 is_stmt 0 view .LVU259
 784 01be 082B     		cmp	r3, #8
 785 01c0 56D0     		beq	.L65
 786              		.loc 1 561 46 discriminator 1 view .LVU260
 787 01c2 182B     		cmp	r3, #24
 788 01c4 50D0     		beq	.L152
 789              	.LVL63:
 790              	.L66:
 562:../../Drivers/STM32H7xx_HAL_Driver/Src/stm32h7xx_hal_rcc.c ****     {
ARM GAS  C:\Users\minis\AppData\Local\Temp\cczlSevg.s 			page 26


 563:../../Drivers/STM32H7xx_HAL_Driver/Src/stm32h7xx_hal_rcc.c ****       /* When CSI is used as system clock it will not disabled */
 564:../../Drivers/STM32H7xx_HAL_Driver/Src/stm32h7xx_hal_rcc.c ****       if ((__HAL_RCC_GET_FLAG(RCC_FLAG_CSIRDY) != 0U) && (RCC_OscInitStruct->CSIState != RCC_CSI_ON
 565:../../Drivers/STM32H7xx_HAL_Driver/Src/stm32h7xx_hal_rcc.c ****       {
 566:../../Drivers/STM32H7xx_HAL_Driver/Src/stm32h7xx_hal_rcc.c ****         return HAL_ERROR;
 567:../../Drivers/STM32H7xx_HAL_Driver/Src/stm32h7xx_hal_rcc.c ****       }
 568:../../Drivers/STM32H7xx_HAL_Driver/Src/stm32h7xx_hal_rcc.c ****       /* Otherwise, just the calibration is allowed */
 569:../../Drivers/STM32H7xx_HAL_Driver/Src/stm32h7xx_hal_rcc.c ****       else
 570:../../Drivers/STM32H7xx_HAL_Driver/Src/stm32h7xx_hal_rcc.c ****       {
 571:../../Drivers/STM32H7xx_HAL_Driver/Src/stm32h7xx_hal_rcc.c ****         /* Adjusts the Internal High Speed oscillator (CSI) calibration value.*/
 572:../../Drivers/STM32H7xx_HAL_Driver/Src/stm32h7xx_hal_rcc.c ****         __HAL_RCC_CSI_CALIBRATIONVALUE_ADJUST(RCC_OscInitStruct->CSICalibrationValue);
 573:../../Drivers/STM32H7xx_HAL_Driver/Src/stm32h7xx_hal_rcc.c ****       }
 574:../../Drivers/STM32H7xx_HAL_Driver/Src/stm32h7xx_hal_rcc.c ****     }
 575:../../Drivers/STM32H7xx_HAL_Driver/Src/stm32h7xx_hal_rcc.c ****     else
 576:../../Drivers/STM32H7xx_HAL_Driver/Src/stm32h7xx_hal_rcc.c ****     {
 577:../../Drivers/STM32H7xx_HAL_Driver/Src/stm32h7xx_hal_rcc.c ****       /* Check the CSI State */
 578:../../Drivers/STM32H7xx_HAL_Driver/Src/stm32h7xx_hal_rcc.c ****       if ((RCC_OscInitStruct->CSIState) != RCC_CSI_OFF)
 791              		.loc 1 578 7 is_stmt 1 view .LVU261
 792              		.loc 1 578 29 is_stmt 0 view .LVU262
 793 01c6 E369     		ldr	r3, [r4, #28]
 794              	.LVL64:
 795              		.loc 1 578 10 view .LVU263
 796 01c8 002B     		cmp	r3, #0
 797 01ca 00F0B880 		beq	.L70
 579:../../Drivers/STM32H7xx_HAL_Driver/Src/stm32h7xx_hal_rcc.c ****       {
 580:../../Drivers/STM32H7xx_HAL_Driver/Src/stm32h7xx_hal_rcc.c ****         /* Enable the Internal High Speed oscillator (CSI). */
 581:../../Drivers/STM32H7xx_HAL_Driver/Src/stm32h7xx_hal_rcc.c ****         __HAL_RCC_CSI_ENABLE();
 798              		.loc 1 581 9 is_stmt 1 view .LVU264
 799 01ce 254A     		ldr	r2, .L166
 800 01d0 1368     		ldr	r3, [r2]
 801 01d2 43F08003 		orr	r3, r3, #128
 802 01d6 1360     		str	r3, [r2]
 582:../../Drivers/STM32H7xx_HAL_Driver/Src/stm32h7xx_hal_rcc.c **** 
 583:../../Drivers/STM32H7xx_HAL_Driver/Src/stm32h7xx_hal_rcc.c ****         /* Get Start Tick*/
 584:../../Drivers/STM32H7xx_HAL_Driver/Src/stm32h7xx_hal_rcc.c ****         tickstart = HAL_GetTick();
 803              		.loc 1 584 9 view .LVU265
 804              		.loc 1 584 21 is_stmt 0 view .LVU266
 805 01d8 FFF7FEFF 		bl	HAL_GetTick
 806              	.LVL65:
 807 01dc 0546     		mov	r5, r0
 808              	.LVL66:
 585:../../Drivers/STM32H7xx_HAL_Driver/Src/stm32h7xx_hal_rcc.c **** 
 586:../../Drivers/STM32H7xx_HAL_Driver/Src/stm32h7xx_hal_rcc.c ****         /* Wait till CSI is ready */
 587:../../Drivers/STM32H7xx_HAL_Driver/Src/stm32h7xx_hal_rcc.c ****         while (__HAL_RCC_GET_FLAG(RCC_FLAG_CSIRDY) == 0U)
 809              		.loc 1 587 9 is_stmt 1 view .LVU267
 810              	.L71:
 811              		.loc 1 587 52 view .LVU268
 812              		.loc 1 587 16 is_stmt 0 view .LVU269
 813 01de 214B     		ldr	r3, .L166
 814 01e0 1B68     		ldr	r3, [r3]
 815              		.loc 1 587 52 view .LVU270
 816 01e2 13F4807F 		tst	r3, #256
 817 01e6 40F08880 		bne	.L153
 588:../../Drivers/STM32H7xx_HAL_Driver/Src/stm32h7xx_hal_rcc.c ****         {
 589:../../Drivers/STM32H7xx_HAL_Driver/Src/stm32h7xx_hal_rcc.c ****           if ((HAL_GetTick() - tickstart) > CSI_TIMEOUT_VALUE)
 818              		.loc 1 589 11 is_stmt 1 view .LVU271
 819              		.loc 1 589 16 is_stmt 0 view .LVU272
 820 01ea FFF7FEFF 		bl	HAL_GetTick
ARM GAS  C:\Users\minis\AppData\Local\Temp\cczlSevg.s 			page 27


 821              	.LVL67:
 822              		.loc 1 589 30 discriminator 1 view .LVU273
 823 01ee 401B     		subs	r0, r0, r5
 824              		.loc 1 589 14 discriminator 1 view .LVU274
 825 01f0 0228     		cmp	r0, #2
 826 01f2 F4D9     		bls	.L71
 590:../../Drivers/STM32H7xx_HAL_Driver/Src/stm32h7xx_hal_rcc.c ****           {
 591:../../Drivers/STM32H7xx_HAL_Driver/Src/stm32h7xx_hal_rcc.c ****             return HAL_TIMEOUT;
 827              		.loc 1 591 20 view .LVU275
 828 01f4 0320     		movs	r0, #3
 829 01f6 48E2     		b	.L36
 830              	.LVL68:
 831              	.L148:
 832              		.loc 1 591 20 view .LVU276
 833              	.LBE6:
 834              	.LBB7:
 530:../../Drivers/STM32H7xx_HAL_Driver/Src/stm32h7xx_hal_rcc.c ****       }
 835              		.loc 1 530 9 is_stmt 1 view .LVU277
 530:../../Drivers/STM32H7xx_HAL_Driver/Src/stm32h7xx_hal_rcc.c ****       }
 836              		.loc 1 530 9 view .LVU278
 837 01f8 FFF7FEFF 		bl	HAL_GetREVID
 838              	.LVL69:
 530:../../Drivers/STM32H7xx_HAL_Driver/Src/stm32h7xx_hal_rcc.c ****       }
 839              		.loc 1 530 9 is_stmt 0 discriminator 1 view .LVU279
 840 01fc 41F20303 		movw	r3, #4099
 841 0200 9842     		cmp	r0, r3
 842 0202 12D8     		bhi	.L60
 530:../../Drivers/STM32H7xx_HAL_Driver/Src/stm32h7xx_hal_rcc.c ****       }
 843              		.loc 1 530 9 is_stmt 1 discriminator 1 view .LVU280
 844 0204 2269     		ldr	r2, [r4, #16]
 845 0206 402A     		cmp	r2, #64
 846 0208 07D0     		beq	.L154
 530:../../Drivers/STM32H7xx_HAL_Driver/Src/stm32h7xx_hal_rcc.c ****       }
 847              		.loc 1 530 9 discriminator 4 view .LVU281
 848 020a 1649     		ldr	r1, .L166
 849 020c 4B68     		ldr	r3, [r1, #4]
 850 020e 23F47C33 		bic	r3, r3, #258048
 851 0212 43EA0233 		orr	r3, r3, r2, lsl #12
 852 0216 4B60     		str	r3, [r1, #4]
 853 0218 C7E7     		b	.L49
 854              	.L154:
 530:../../Drivers/STM32H7xx_HAL_Driver/Src/stm32h7xx_hal_rcc.c ****       }
 855              		.loc 1 530 9 discriminator 3 view .LVU282
 856 021a 124A     		ldr	r2, .L166
 857 021c 5368     		ldr	r3, [r2, #4]
 858 021e 23F47C33 		bic	r3, r3, #258048
 859 0222 43F40033 		orr	r3, r3, #131072
 860 0226 5360     		str	r3, [r2, #4]
 861 0228 BFE7     		b	.L49
 862              	.L60:
 530:../../Drivers/STM32H7xx_HAL_Driver/Src/stm32h7xx_hal_rcc.c ****       }
 863              		.loc 1 530 9 discriminator 2 view .LVU283
 864 022a 0E4A     		ldr	r2, .L166
 865 022c 5368     		ldr	r3, [r2, #4]
 866 022e 23F0FE43 		bic	r3, r3, #2130706432
 867 0232 2169     		ldr	r1, [r4, #16]
 868 0234 43EA0163 		orr	r3, r3, r1, lsl #24
ARM GAS  C:\Users\minis\AppData\Local\Temp\cczlSevg.s 			page 28


 869 0238 5360     		str	r3, [r2, #4]
 870 023a B6E7     		b	.L49
 871              	.LVL70:
 872              	.L57:
 535:../../Drivers/STM32H7xx_HAL_Driver/Src/stm32h7xx_hal_rcc.c **** 
 873              		.loc 1 535 9 view .LVU284
 874 023c 094A     		ldr	r2, .L166
 875              	.LVL71:
 535:../../Drivers/STM32H7xx_HAL_Driver/Src/stm32h7xx_hal_rcc.c **** 
 876              		.loc 1 535 9 is_stmt 0 view .LVU285
 877 023e 1368     		ldr	r3, [r2]
 878 0240 23F00103 		bic	r3, r3, #1
 879 0244 1360     		str	r3, [r2]
 538:../../Drivers/STM32H7xx_HAL_Driver/Src/stm32h7xx_hal_rcc.c **** 
 880              		.loc 1 538 9 is_stmt 1 view .LVU286
 538:../../Drivers/STM32H7xx_HAL_Driver/Src/stm32h7xx_hal_rcc.c **** 
 881              		.loc 1 538 21 is_stmt 0 view .LVU287
 882 0246 FFF7FEFF 		bl	HAL_GetTick
 883              	.LVL72:
 884 024a 0546     		mov	r5, r0
 885              	.LVL73:
 541:../../Drivers/STM32H7xx_HAL_Driver/Src/stm32h7xx_hal_rcc.c ****         {
 886              		.loc 1 541 9 is_stmt 1 view .LVU288
 887              	.L62:
 541:../../Drivers/STM32H7xx_HAL_Driver/Src/stm32h7xx_hal_rcc.c ****         {
 888              		.loc 1 541 52 view .LVU289
 541:../../Drivers/STM32H7xx_HAL_Driver/Src/stm32h7xx_hal_rcc.c ****         {
 889              		.loc 1 541 16 is_stmt 0 view .LVU290
 890 024c 054B     		ldr	r3, .L166
 891 024e 1B68     		ldr	r3, [r3]
 541:../../Drivers/STM32H7xx_HAL_Driver/Src/stm32h7xx_hal_rcc.c ****         {
 892              		.loc 1 541 52 view .LVU291
 893 0250 13F0040F 		tst	r3, #4
 894 0254 A9D0     		beq	.L49
 543:../../Drivers/STM32H7xx_HAL_Driver/Src/stm32h7xx_hal_rcc.c ****           {
 895              		.loc 1 543 11 is_stmt 1 view .LVU292
 543:../../Drivers/STM32H7xx_HAL_Driver/Src/stm32h7xx_hal_rcc.c ****           {
 896              		.loc 1 543 16 is_stmt 0 view .LVU293
 897 0256 FFF7FEFF 		bl	HAL_GetTick
 898              	.LVL74:
 543:../../Drivers/STM32H7xx_HAL_Driver/Src/stm32h7xx_hal_rcc.c ****           {
 899              		.loc 1 543 30 discriminator 1 view .LVU294
 900 025a 401B     		subs	r0, r0, r5
 543:../../Drivers/STM32H7xx_HAL_Driver/Src/stm32h7xx_hal_rcc.c ****           {
 901              		.loc 1 543 14 discriminator 1 view .LVU295
 902 025c 0228     		cmp	r0, #2
 903 025e F5D9     		bls	.L62
 545:../../Drivers/STM32H7xx_HAL_Driver/Src/stm32h7xx_hal_rcc.c ****           }
 904              		.loc 1 545 20 view .LVU296
 905 0260 0320     		movs	r0, #3
 906 0262 12E2     		b	.L36
 907              	.L167:
 908              		.align	2
 909              	.L166:
 910 0264 00440258 		.word	1476543488
 911              	.LVL75:
 912              	.L152:
ARM GAS  C:\Users\minis\AppData\Local\Temp\cczlSevg.s 			page 29


 545:../../Drivers/STM32H7xx_HAL_Driver/Src/stm32h7xx_hal_rcc.c ****           }
 913              		.loc 1 545 20 view .LVU297
 914              	.LBE7:
 915              	.LBB8:
 561:../../Drivers/STM32H7xx_HAL_Driver/Src/stm32h7xx_hal_rcc.c ****     {
 916              		.loc 1 561 108 discriminator 2 view .LVU298
 917 0268 02F00302 		and	r2, r2, #3
 918              	.LVL76:
 561:../../Drivers/STM32H7xx_HAL_Driver/Src/stm32h7xx_hal_rcc.c ****     {
 919              		.loc 1 561 88 discriminator 2 view .LVU299
 920 026c 012A     		cmp	r2, #1
 921 026e AAD1     		bne	.L66
 922              	.L65:
 564:../../Drivers/STM32H7xx_HAL_Driver/Src/stm32h7xx_hal_rcc.c ****       {
 923              		.loc 1 564 7 is_stmt 1 view .LVU300
 564:../../Drivers/STM32H7xx_HAL_Driver/Src/stm32h7xx_hal_rcc.c ****       {
 924              		.loc 1 564 12 is_stmt 0 view .LVU301
 925 0270 A14B     		ldr	r3, .L168
 926              	.LVL77:
 564:../../Drivers/STM32H7xx_HAL_Driver/Src/stm32h7xx_hal_rcc.c ****       {
 927              		.loc 1 564 12 view .LVU302
 928 0272 1B68     		ldr	r3, [r3]
 564:../../Drivers/STM32H7xx_HAL_Driver/Src/stm32h7xx_hal_rcc.c ****       {
 929              		.loc 1 564 10 view .LVU303
 930 0274 13F4807F 		tst	r3, #256
 931 0278 03D0     		beq	.L67
 564:../../Drivers/STM32H7xx_HAL_Driver/Src/stm32h7xx_hal_rcc.c ****       {
 932              		.loc 1 564 76 discriminator 1 view .LVU304
 933 027a E369     		ldr	r3, [r4, #28]
 564:../../Drivers/STM32H7xx_HAL_Driver/Src/stm32h7xx_hal_rcc.c ****       {
 934              		.loc 1 564 55 discriminator 1 view .LVU305
 935 027c 802B     		cmp	r3, #128
 936 027e 40F00182 		bne	.L118
 937              	.L67:
 572:../../Drivers/STM32H7xx_HAL_Driver/Src/stm32h7xx_hal_rcc.c ****       }
 938              		.loc 1 572 9 is_stmt 1 view .LVU306
 572:../../Drivers/STM32H7xx_HAL_Driver/Src/stm32h7xx_hal_rcc.c ****       }
 939              		.loc 1 572 9 view .LVU307
 940 0282 FFF7FEFF 		bl	HAL_GetREVID
 941              	.LVL78:
 572:../../Drivers/STM32H7xx_HAL_Driver/Src/stm32h7xx_hal_rcc.c ****       }
 942              		.loc 1 572 9 is_stmt 0 discriminator 1 view .LVU308
 943 0286 41F20303 		movw	r3, #4099
 944 028a 9842     		cmp	r0, r3
 945 028c 12D8     		bhi	.L68
 572:../../Drivers/STM32H7xx_HAL_Driver/Src/stm32h7xx_hal_rcc.c ****       }
 946              		.loc 1 572 9 is_stmt 1 discriminator 1 view .LVU309
 947 028e 226A     		ldr	r2, [r4, #32]
 948 0290 202A     		cmp	r2, #32
 949 0292 07D0     		beq	.L155
 572:../../Drivers/STM32H7xx_HAL_Driver/Src/stm32h7xx_hal_rcc.c ****       }
 950              		.loc 1 572 9 discriminator 4 view .LVU310
 951 0294 9849     		ldr	r1, .L168
 952 0296 4B68     		ldr	r3, [r1, #4]
 953 0298 23F0F843 		bic	r3, r3, #2080374784
 954 029c 43EA8263 		orr	r3, r3, r2, lsl #26
 955 02a0 4B60     		str	r3, [r1, #4]
ARM GAS  C:\Users\minis\AppData\Local\Temp\cczlSevg.s 			page 30


 956 02a2 0FE0     		b	.L64
 957              	.L155:
 572:../../Drivers/STM32H7xx_HAL_Driver/Src/stm32h7xx_hal_rcc.c ****       }
 958              		.loc 1 572 9 discriminator 3 view .LVU311
 959 02a4 944A     		ldr	r2, .L168
 960 02a6 5368     		ldr	r3, [r2, #4]
 961 02a8 23F0F843 		bic	r3, r3, #2080374784
 962 02ac 43F08043 		orr	r3, r3, #1073741824
 963 02b0 5360     		str	r3, [r2, #4]
 964 02b2 07E0     		b	.L64
 965              	.L68:
 572:../../Drivers/STM32H7xx_HAL_Driver/Src/stm32h7xx_hal_rcc.c ****       }
 966              		.loc 1 572 9 discriminator 2 view .LVU312
 967 02b4 904A     		ldr	r2, .L168
 968 02b6 D368     		ldr	r3, [r2, #12]
 969 02b8 23F07C53 		bic	r3, r3, #1056964608
 970 02bc 216A     		ldr	r1, [r4, #32]
 971 02be 43EA0163 		orr	r3, r3, r1, lsl #24
 972 02c2 D360     		str	r3, [r2, #12]
 973              	.LVL79:
 974              	.L64:
 572:../../Drivers/STM32H7xx_HAL_Driver/Src/stm32h7xx_hal_rcc.c ****       }
 975              		.loc 1 572 9 is_stmt 0 discriminator 2 view .LVU313
 976              	.LBE8:
 592:../../Drivers/STM32H7xx_HAL_Driver/Src/stm32h7xx_hal_rcc.c ****           }
 593:../../Drivers/STM32H7xx_HAL_Driver/Src/stm32h7xx_hal_rcc.c ****         }
 594:../../Drivers/STM32H7xx_HAL_Driver/Src/stm32h7xx_hal_rcc.c **** 
 595:../../Drivers/STM32H7xx_HAL_Driver/Src/stm32h7xx_hal_rcc.c ****         /* Adjusts the Internal High Speed oscillator (CSI) calibration value.*/
 596:../../Drivers/STM32H7xx_HAL_Driver/Src/stm32h7xx_hal_rcc.c ****         __HAL_RCC_CSI_CALIBRATIONVALUE_ADJUST(RCC_OscInitStruct->CSICalibrationValue);
 597:../../Drivers/STM32H7xx_HAL_Driver/Src/stm32h7xx_hal_rcc.c ****       }
 598:../../Drivers/STM32H7xx_HAL_Driver/Src/stm32h7xx_hal_rcc.c ****       else
 599:../../Drivers/STM32H7xx_HAL_Driver/Src/stm32h7xx_hal_rcc.c ****       {
 600:../../Drivers/STM32H7xx_HAL_Driver/Src/stm32h7xx_hal_rcc.c ****         /* Disable the Internal High Speed oscillator (CSI). */
 601:../../Drivers/STM32H7xx_HAL_Driver/Src/stm32h7xx_hal_rcc.c ****         __HAL_RCC_CSI_DISABLE();
 602:../../Drivers/STM32H7xx_HAL_Driver/Src/stm32h7xx_hal_rcc.c **** 
 603:../../Drivers/STM32H7xx_HAL_Driver/Src/stm32h7xx_hal_rcc.c ****         /* Get Start Tick*/
 604:../../Drivers/STM32H7xx_HAL_Driver/Src/stm32h7xx_hal_rcc.c ****         tickstart = HAL_GetTick();
 605:../../Drivers/STM32H7xx_HAL_Driver/Src/stm32h7xx_hal_rcc.c **** 
 606:../../Drivers/STM32H7xx_HAL_Driver/Src/stm32h7xx_hal_rcc.c ****         /* Wait till CSI is disabled */
 607:../../Drivers/STM32H7xx_HAL_Driver/Src/stm32h7xx_hal_rcc.c ****         while (__HAL_RCC_GET_FLAG(RCC_FLAG_CSIRDY) != 0U)
 608:../../Drivers/STM32H7xx_HAL_Driver/Src/stm32h7xx_hal_rcc.c ****         {
 609:../../Drivers/STM32H7xx_HAL_Driver/Src/stm32h7xx_hal_rcc.c ****           if ((HAL_GetTick() - tickstart) > CSI_TIMEOUT_VALUE)
 610:../../Drivers/STM32H7xx_HAL_Driver/Src/stm32h7xx_hal_rcc.c ****           {
 611:../../Drivers/STM32H7xx_HAL_Driver/Src/stm32h7xx_hal_rcc.c ****             return HAL_TIMEOUT;
 612:../../Drivers/STM32H7xx_HAL_Driver/Src/stm32h7xx_hal_rcc.c ****           }
 613:../../Drivers/STM32H7xx_HAL_Driver/Src/stm32h7xx_hal_rcc.c ****         }
 614:../../Drivers/STM32H7xx_HAL_Driver/Src/stm32h7xx_hal_rcc.c ****       }
 615:../../Drivers/STM32H7xx_HAL_Driver/Src/stm32h7xx_hal_rcc.c ****     }
 616:../../Drivers/STM32H7xx_HAL_Driver/Src/stm32h7xx_hal_rcc.c ****   }
 617:../../Drivers/STM32H7xx_HAL_Driver/Src/stm32h7xx_hal_rcc.c ****   /*------------------------------ LSI Configuration -------------------------*/
 618:../../Drivers/STM32H7xx_HAL_Driver/Src/stm32h7xx_hal_rcc.c ****   if (((RCC_OscInitStruct->OscillatorType) & RCC_OSCILLATORTYPE_LSI) == RCC_OSCILLATORTYPE_LSI)
 977              		.loc 1 618 3 is_stmt 1 view .LVU314
 978              		.loc 1 618 26 is_stmt 0 view .LVU315
 979 02c4 2368     		ldr	r3, [r4]
 980              		.loc 1 618 6 view .LVU316
 981 02c6 13F0080F 		tst	r3, #8
 982 02ca 60D0     		beq	.L77
ARM GAS  C:\Users\minis\AppData\Local\Temp\cczlSevg.s 			page 31


 619:../../Drivers/STM32H7xx_HAL_Driver/Src/stm32h7xx_hal_rcc.c ****   {
 620:../../Drivers/STM32H7xx_HAL_Driver/Src/stm32h7xx_hal_rcc.c ****     /* Check the parameters */
 621:../../Drivers/STM32H7xx_HAL_Driver/Src/stm32h7xx_hal_rcc.c ****     assert_param(IS_RCC_LSI(RCC_OscInitStruct->LSIState));
 983              		.loc 1 621 5 is_stmt 1 view .LVU317
 622:../../Drivers/STM32H7xx_HAL_Driver/Src/stm32h7xx_hal_rcc.c **** 
 623:../../Drivers/STM32H7xx_HAL_Driver/Src/stm32h7xx_hal_rcc.c ****     /* Check the LSI State */
 624:../../Drivers/STM32H7xx_HAL_Driver/Src/stm32h7xx_hal_rcc.c ****     if ((RCC_OscInitStruct->LSIState) != RCC_LSI_OFF)
 984              		.loc 1 624 5 view .LVU318
 985              		.loc 1 624 27 is_stmt 0 view .LVU319
 986 02cc 6369     		ldr	r3, [r4, #20]
 987              		.loc 1 624 8 view .LVU320
 988 02ce 002B     		cmp	r3, #0
 989 02d0 49D0     		beq	.L78
 625:../../Drivers/STM32H7xx_HAL_Driver/Src/stm32h7xx_hal_rcc.c ****     {
 626:../../Drivers/STM32H7xx_HAL_Driver/Src/stm32h7xx_hal_rcc.c ****       /* Enable the Internal Low Speed oscillator (LSI). */
 627:../../Drivers/STM32H7xx_HAL_Driver/Src/stm32h7xx_hal_rcc.c ****       __HAL_RCC_LSI_ENABLE();
 990              		.loc 1 627 7 is_stmt 1 view .LVU321
 991 02d2 894A     		ldr	r2, .L168
 992 02d4 536F     		ldr	r3, [r2, #116]
 993 02d6 43F00103 		orr	r3, r3, #1
 994 02da 5367     		str	r3, [r2, #116]
 628:../../Drivers/STM32H7xx_HAL_Driver/Src/stm32h7xx_hal_rcc.c **** 
 629:../../Drivers/STM32H7xx_HAL_Driver/Src/stm32h7xx_hal_rcc.c ****       /* Get Start Tick*/
 630:../../Drivers/STM32H7xx_HAL_Driver/Src/stm32h7xx_hal_rcc.c ****       tickstart = HAL_GetTick();
 995              		.loc 1 630 7 view .LVU322
 996              		.loc 1 630 19 is_stmt 0 view .LVU323
 997 02dc FFF7FEFF 		bl	HAL_GetTick
 998              	.LVL80:
 999 02e0 0546     		mov	r5, r0
 1000              	.LVL81:
 631:../../Drivers/STM32H7xx_HAL_Driver/Src/stm32h7xx_hal_rcc.c **** 
 632:../../Drivers/STM32H7xx_HAL_Driver/Src/stm32h7xx_hal_rcc.c ****       /* Wait till LSI is ready */
 633:../../Drivers/STM32H7xx_HAL_Driver/Src/stm32h7xx_hal_rcc.c ****       while (__HAL_RCC_GET_FLAG(RCC_FLAG_LSIRDY) == 0U)
 1001              		.loc 1 633 7 is_stmt 1 view .LVU324
 1002              	.L79:
 1003              		.loc 1 633 50 view .LVU325
 1004              		.loc 1 633 14 is_stmt 0 view .LVU326
 1005 02e2 854B     		ldr	r3, .L168
 1006 02e4 5B6F     		ldr	r3, [r3, #116]
 1007              		.loc 1 633 50 view .LVU327
 1008 02e6 13F0020F 		tst	r3, #2
 1009 02ea 50D1     		bne	.L77
 634:../../Drivers/STM32H7xx_HAL_Driver/Src/stm32h7xx_hal_rcc.c ****       {
 635:../../Drivers/STM32H7xx_HAL_Driver/Src/stm32h7xx_hal_rcc.c ****         if ((HAL_GetTick() - tickstart) > LSI_TIMEOUT_VALUE)
 1010              		.loc 1 635 9 is_stmt 1 view .LVU328
 1011              		.loc 1 635 14 is_stmt 0 view .LVU329
 1012 02ec FFF7FEFF 		bl	HAL_GetTick
 1013              	.LVL82:
 1014              		.loc 1 635 28 discriminator 1 view .LVU330
 1015 02f0 401B     		subs	r0, r0, r5
 1016              		.loc 1 635 12 discriminator 1 view .LVU331
 1017 02f2 0228     		cmp	r0, #2
 1018 02f4 F5D9     		bls	.L79
 636:../../Drivers/STM32H7xx_HAL_Driver/Src/stm32h7xx_hal_rcc.c ****         {
 637:../../Drivers/STM32H7xx_HAL_Driver/Src/stm32h7xx_hal_rcc.c ****           return HAL_TIMEOUT;
 1019              		.loc 1 637 18 view .LVU332
 1020 02f6 0320     		movs	r0, #3
ARM GAS  C:\Users\minis\AppData\Local\Temp\cczlSevg.s 			page 32


 1021 02f8 C7E1     		b	.L36
 1022              	.LVL83:
 1023              	.L153:
 1024              	.LBB9:
 596:../../Drivers/STM32H7xx_HAL_Driver/Src/stm32h7xx_hal_rcc.c ****       }
 1025              		.loc 1 596 9 is_stmt 1 view .LVU333
 596:../../Drivers/STM32H7xx_HAL_Driver/Src/stm32h7xx_hal_rcc.c ****       }
 1026              		.loc 1 596 9 view .LVU334
 1027 02fa FFF7FEFF 		bl	HAL_GetREVID
 1028              	.LVL84:
 596:../../Drivers/STM32H7xx_HAL_Driver/Src/stm32h7xx_hal_rcc.c ****       }
 1029              		.loc 1 596 9 is_stmt 0 discriminator 1 view .LVU335
 1030 02fe 41F20303 		movw	r3, #4099
 1031 0302 9842     		cmp	r0, r3
 1032 0304 12D8     		bhi	.L73
 596:../../Drivers/STM32H7xx_HAL_Driver/Src/stm32h7xx_hal_rcc.c ****       }
 1033              		.loc 1 596 9 is_stmt 1 discriminator 1 view .LVU336
 1034 0306 226A     		ldr	r2, [r4, #32]
 1035 0308 202A     		cmp	r2, #32
 1036 030a 07D0     		beq	.L156
 596:../../Drivers/STM32H7xx_HAL_Driver/Src/stm32h7xx_hal_rcc.c ****       }
 1037              		.loc 1 596 9 discriminator 4 view .LVU337
 1038 030c 7A49     		ldr	r1, .L168
 1039 030e 4B68     		ldr	r3, [r1, #4]
 1040 0310 23F0F843 		bic	r3, r3, #2080374784
 1041 0314 43EA8263 		orr	r3, r3, r2, lsl #26
 1042 0318 4B60     		str	r3, [r1, #4]
 1043 031a D3E7     		b	.L64
 1044              	.L156:
 596:../../Drivers/STM32H7xx_HAL_Driver/Src/stm32h7xx_hal_rcc.c ****       }
 1045              		.loc 1 596 9 discriminator 3 view .LVU338
 1046 031c 764A     		ldr	r2, .L168
 1047 031e 5368     		ldr	r3, [r2, #4]
 1048 0320 23F0F843 		bic	r3, r3, #2080374784
 1049 0324 43F08043 		orr	r3, r3, #1073741824
 1050 0328 5360     		str	r3, [r2, #4]
 1051 032a CBE7     		b	.L64
 1052              	.L73:
 596:../../Drivers/STM32H7xx_HAL_Driver/Src/stm32h7xx_hal_rcc.c ****       }
 1053              		.loc 1 596 9 discriminator 2 view .LVU339
 1054 032c 724A     		ldr	r2, .L168
 1055 032e D368     		ldr	r3, [r2, #12]
 1056 0330 23F07C53 		bic	r3, r3, #1056964608
 1057 0334 216A     		ldr	r1, [r4, #32]
 1058 0336 43EA0163 		orr	r3, r3, r1, lsl #24
 1059 033a D360     		str	r3, [r2, #12]
 1060 033c C2E7     		b	.L64
 1061              	.LVL85:
 1062              	.L70:
 601:../../Drivers/STM32H7xx_HAL_Driver/Src/stm32h7xx_hal_rcc.c **** 
 1063              		.loc 1 601 9 view .LVU340
 1064 033e 6E4A     		ldr	r2, .L168
 1065 0340 1368     		ldr	r3, [r2]
 1066 0342 23F08003 		bic	r3, r3, #128
 1067 0346 1360     		str	r3, [r2]
 604:../../Drivers/STM32H7xx_HAL_Driver/Src/stm32h7xx_hal_rcc.c **** 
 1068              		.loc 1 604 9 view .LVU341
ARM GAS  C:\Users\minis\AppData\Local\Temp\cczlSevg.s 			page 33


 604:../../Drivers/STM32H7xx_HAL_Driver/Src/stm32h7xx_hal_rcc.c **** 
 1069              		.loc 1 604 21 is_stmt 0 view .LVU342
 1070 0348 FFF7FEFF 		bl	HAL_GetTick
 1071              	.LVL86:
 1072 034c 0546     		mov	r5, r0
 1073              	.LVL87:
 607:../../Drivers/STM32H7xx_HAL_Driver/Src/stm32h7xx_hal_rcc.c ****         {
 1074              		.loc 1 607 9 is_stmt 1 view .LVU343
 1075              	.L75:
 607:../../Drivers/STM32H7xx_HAL_Driver/Src/stm32h7xx_hal_rcc.c ****         {
 1076              		.loc 1 607 52 view .LVU344
 607:../../Drivers/STM32H7xx_HAL_Driver/Src/stm32h7xx_hal_rcc.c ****         {
 1077              		.loc 1 607 16 is_stmt 0 view .LVU345
 1078 034e 6A4B     		ldr	r3, .L168
 1079 0350 1B68     		ldr	r3, [r3]
 607:../../Drivers/STM32H7xx_HAL_Driver/Src/stm32h7xx_hal_rcc.c ****         {
 1080              		.loc 1 607 52 view .LVU346
 1081 0352 13F4807F 		tst	r3, #256
 1082 0356 B5D0     		beq	.L64
 609:../../Drivers/STM32H7xx_HAL_Driver/Src/stm32h7xx_hal_rcc.c ****           {
 1083              		.loc 1 609 11 is_stmt 1 view .LVU347
 609:../../Drivers/STM32H7xx_HAL_Driver/Src/stm32h7xx_hal_rcc.c ****           {
 1084              		.loc 1 609 16 is_stmt 0 view .LVU348
 1085 0358 FFF7FEFF 		bl	HAL_GetTick
 1086              	.LVL88:
 609:../../Drivers/STM32H7xx_HAL_Driver/Src/stm32h7xx_hal_rcc.c ****           {
 1087              		.loc 1 609 30 discriminator 1 view .LVU349
 1088 035c 401B     		subs	r0, r0, r5
 609:../../Drivers/STM32H7xx_HAL_Driver/Src/stm32h7xx_hal_rcc.c ****           {
 1089              		.loc 1 609 14 discriminator 1 view .LVU350
 1090 035e 0228     		cmp	r0, #2
 1091 0360 F5D9     		bls	.L75
 611:../../Drivers/STM32H7xx_HAL_Driver/Src/stm32h7xx_hal_rcc.c ****           }
 1092              		.loc 1 611 20 view .LVU351
 1093 0362 0320     		movs	r0, #3
 1094 0364 91E1     		b	.L36
 1095              	.LVL89:
 1096              	.L78:
 611:../../Drivers/STM32H7xx_HAL_Driver/Src/stm32h7xx_hal_rcc.c ****           }
 1097              		.loc 1 611 20 view .LVU352
 1098              	.LBE9:
 638:../../Drivers/STM32H7xx_HAL_Driver/Src/stm32h7xx_hal_rcc.c ****         }
 639:../../Drivers/STM32H7xx_HAL_Driver/Src/stm32h7xx_hal_rcc.c ****       }
 640:../../Drivers/STM32H7xx_HAL_Driver/Src/stm32h7xx_hal_rcc.c ****     }
 641:../../Drivers/STM32H7xx_HAL_Driver/Src/stm32h7xx_hal_rcc.c ****     else
 642:../../Drivers/STM32H7xx_HAL_Driver/Src/stm32h7xx_hal_rcc.c ****     {
 643:../../Drivers/STM32H7xx_HAL_Driver/Src/stm32h7xx_hal_rcc.c ****       /* Disable the Internal Low Speed oscillator (LSI). */
 644:../../Drivers/STM32H7xx_HAL_Driver/Src/stm32h7xx_hal_rcc.c ****       __HAL_RCC_LSI_DISABLE();
 1099              		.loc 1 644 7 is_stmt 1 view .LVU353
 1100 0366 644A     		ldr	r2, .L168
 1101 0368 536F     		ldr	r3, [r2, #116]
 1102 036a 23F00103 		bic	r3, r3, #1
 1103 036e 5367     		str	r3, [r2, #116]
 645:../../Drivers/STM32H7xx_HAL_Driver/Src/stm32h7xx_hal_rcc.c **** 
 646:../../Drivers/STM32H7xx_HAL_Driver/Src/stm32h7xx_hal_rcc.c ****       /* Get Start Tick*/
 647:../../Drivers/STM32H7xx_HAL_Driver/Src/stm32h7xx_hal_rcc.c ****       tickstart = HAL_GetTick();
 1104              		.loc 1 647 7 view .LVU354
ARM GAS  C:\Users\minis\AppData\Local\Temp\cczlSevg.s 			page 34


 1105              		.loc 1 647 19 is_stmt 0 view .LVU355
 1106 0370 FFF7FEFF 		bl	HAL_GetTick
 1107              	.LVL90:
 1108 0374 0546     		mov	r5, r0
 1109              	.LVL91:
 648:../../Drivers/STM32H7xx_HAL_Driver/Src/stm32h7xx_hal_rcc.c **** 
 649:../../Drivers/STM32H7xx_HAL_Driver/Src/stm32h7xx_hal_rcc.c ****       /* Wait till LSI is ready */
 650:../../Drivers/STM32H7xx_HAL_Driver/Src/stm32h7xx_hal_rcc.c ****       while (__HAL_RCC_GET_FLAG(RCC_FLAG_LSIRDY) != 0U)
 1110              		.loc 1 650 7 is_stmt 1 view .LVU356
 1111              	.L81:
 1112              		.loc 1 650 50 view .LVU357
 1113              		.loc 1 650 14 is_stmt 0 view .LVU358
 1114 0376 604B     		ldr	r3, .L168
 1115 0378 5B6F     		ldr	r3, [r3, #116]
 1116              		.loc 1 650 50 view .LVU359
 1117 037a 13F0020F 		tst	r3, #2
 1118 037e 06D0     		beq	.L77
 651:../../Drivers/STM32H7xx_HAL_Driver/Src/stm32h7xx_hal_rcc.c ****       {
 652:../../Drivers/STM32H7xx_HAL_Driver/Src/stm32h7xx_hal_rcc.c ****         if ((HAL_GetTick() - tickstart) > LSI_TIMEOUT_VALUE)
 1119              		.loc 1 652 9 is_stmt 1 view .LVU360
 1120              		.loc 1 652 14 is_stmt 0 view .LVU361
 1121 0380 FFF7FEFF 		bl	HAL_GetTick
 1122              	.LVL92:
 1123              		.loc 1 652 28 discriminator 1 view .LVU362
 1124 0384 401B     		subs	r0, r0, r5
 1125              		.loc 1 652 12 discriminator 1 view .LVU363
 1126 0386 0228     		cmp	r0, #2
 1127 0388 F5D9     		bls	.L81
 653:../../Drivers/STM32H7xx_HAL_Driver/Src/stm32h7xx_hal_rcc.c ****         {
 654:../../Drivers/STM32H7xx_HAL_Driver/Src/stm32h7xx_hal_rcc.c ****           return HAL_TIMEOUT;
 1128              		.loc 1 654 18 view .LVU364
 1129 038a 0320     		movs	r0, #3
 1130 038c 7DE1     		b	.L36
 1131              	.LVL93:
 1132              	.L77:
 655:../../Drivers/STM32H7xx_HAL_Driver/Src/stm32h7xx_hal_rcc.c ****         }
 656:../../Drivers/STM32H7xx_HAL_Driver/Src/stm32h7xx_hal_rcc.c ****       }
 657:../../Drivers/STM32H7xx_HAL_Driver/Src/stm32h7xx_hal_rcc.c ****     }
 658:../../Drivers/STM32H7xx_HAL_Driver/Src/stm32h7xx_hal_rcc.c ****   }
 659:../../Drivers/STM32H7xx_HAL_Driver/Src/stm32h7xx_hal_rcc.c **** 
 660:../../Drivers/STM32H7xx_HAL_Driver/Src/stm32h7xx_hal_rcc.c ****   /*------------------------------ HSI48 Configuration -------------------------*/
 661:../../Drivers/STM32H7xx_HAL_Driver/Src/stm32h7xx_hal_rcc.c ****   if (((RCC_OscInitStruct->OscillatorType) & RCC_OSCILLATORTYPE_HSI48) == RCC_OSCILLATORTYPE_HSI48)
 1133              		.loc 1 661 3 is_stmt 1 view .LVU365
 1134              		.loc 1 661 26 is_stmt 0 view .LVU366
 1135 038e 2368     		ldr	r3, [r4]
 1136              		.loc 1 661 6 view .LVU367
 1137 0390 13F0200F 		tst	r3, #32
 1138 0394 29D0     		beq	.L83
 662:../../Drivers/STM32H7xx_HAL_Driver/Src/stm32h7xx_hal_rcc.c ****   {
 663:../../Drivers/STM32H7xx_HAL_Driver/Src/stm32h7xx_hal_rcc.c ****     /* Check the parameters */
 664:../../Drivers/STM32H7xx_HAL_Driver/Src/stm32h7xx_hal_rcc.c ****     assert_param(IS_RCC_HSI48(RCC_OscInitStruct->HSI48State));
 1139              		.loc 1 664 5 is_stmt 1 view .LVU368
 665:../../Drivers/STM32H7xx_HAL_Driver/Src/stm32h7xx_hal_rcc.c **** 
 666:../../Drivers/STM32H7xx_HAL_Driver/Src/stm32h7xx_hal_rcc.c ****     /* Check the HSI48 State */
 667:../../Drivers/STM32H7xx_HAL_Driver/Src/stm32h7xx_hal_rcc.c ****     if ((RCC_OscInitStruct->HSI48State) != RCC_HSI48_OFF)
 1140              		.loc 1 667 5 view .LVU369
 1141              		.loc 1 667 27 is_stmt 0 view .LVU370
ARM GAS  C:\Users\minis\AppData\Local\Temp\cczlSevg.s 			page 35


 1142 0396 A369     		ldr	r3, [r4, #24]
 1143              		.loc 1 667 8 view .LVU371
 1144 0398 9BB1     		cbz	r3, .L84
 668:../../Drivers/STM32H7xx_HAL_Driver/Src/stm32h7xx_hal_rcc.c ****     {
 669:../../Drivers/STM32H7xx_HAL_Driver/Src/stm32h7xx_hal_rcc.c ****       /* Enable the Internal Low Speed oscillator (HSI48). */
 670:../../Drivers/STM32H7xx_HAL_Driver/Src/stm32h7xx_hal_rcc.c ****       __HAL_RCC_HSI48_ENABLE();
 1145              		.loc 1 670 7 is_stmt 1 view .LVU372
 1146 039a 574A     		ldr	r2, .L168
 1147 039c 1368     		ldr	r3, [r2]
 1148 039e 43F48053 		orr	r3, r3, #4096
 1149 03a2 1360     		str	r3, [r2]
 1150              		.loc 1 670 31 view .LVU373
 671:../../Drivers/STM32H7xx_HAL_Driver/Src/stm32h7xx_hal_rcc.c **** 
 672:../../Drivers/STM32H7xx_HAL_Driver/Src/stm32h7xx_hal_rcc.c ****       /* Get time-out */
 673:../../Drivers/STM32H7xx_HAL_Driver/Src/stm32h7xx_hal_rcc.c ****       tickstart = HAL_GetTick();
 1151              		.loc 1 673 7 view .LVU374
 1152              		.loc 1 673 19 is_stmt 0 view .LVU375
 1153 03a4 FFF7FEFF 		bl	HAL_GetTick
 1154              	.LVL94:
 1155 03a8 0546     		mov	r5, r0
 1156              	.LVL95:
 674:../../Drivers/STM32H7xx_HAL_Driver/Src/stm32h7xx_hal_rcc.c **** 
 675:../../Drivers/STM32H7xx_HAL_Driver/Src/stm32h7xx_hal_rcc.c ****       /* Wait till HSI48 is ready */
 676:../../Drivers/STM32H7xx_HAL_Driver/Src/stm32h7xx_hal_rcc.c ****       while (__HAL_RCC_GET_FLAG(RCC_FLAG_HSI48RDY) == 0U)
 1157              		.loc 1 676 7 is_stmt 1 view .LVU376
 1158              	.L85:
 1159              		.loc 1 676 52 view .LVU377
 1160              		.loc 1 676 14 is_stmt 0 view .LVU378
 1161 03aa 534B     		ldr	r3, .L168
 1162 03ac 1B68     		ldr	r3, [r3]
 1163              		.loc 1 676 52 view .LVU379
 1164 03ae 13F4005F 		tst	r3, #8192
 1165 03b2 1AD1     		bne	.L83
 677:../../Drivers/STM32H7xx_HAL_Driver/Src/stm32h7xx_hal_rcc.c ****       {
 678:../../Drivers/STM32H7xx_HAL_Driver/Src/stm32h7xx_hal_rcc.c ****         if ((HAL_GetTick() - tickstart) > HSI48_TIMEOUT_VALUE)
 1166              		.loc 1 678 9 is_stmt 1 view .LVU380
 1167              		.loc 1 678 14 is_stmt 0 view .LVU381
 1168 03b4 FFF7FEFF 		bl	HAL_GetTick
 1169              	.LVL96:
 1170              		.loc 1 678 28 discriminator 1 view .LVU382
 1171 03b8 401B     		subs	r0, r0, r5
 1172              		.loc 1 678 12 discriminator 1 view .LVU383
 1173 03ba 0228     		cmp	r0, #2
 1174 03bc F5D9     		bls	.L85
 679:../../Drivers/STM32H7xx_HAL_Driver/Src/stm32h7xx_hal_rcc.c ****         {
 680:../../Drivers/STM32H7xx_HAL_Driver/Src/stm32h7xx_hal_rcc.c ****           return HAL_TIMEOUT;
 1175              		.loc 1 680 18 view .LVU384
 1176 03be 0320     		movs	r0, #3
 1177 03c0 63E1     		b	.L36
 1178              	.LVL97:
 1179              	.L84:
 681:../../Drivers/STM32H7xx_HAL_Driver/Src/stm32h7xx_hal_rcc.c ****         }
 682:../../Drivers/STM32H7xx_HAL_Driver/Src/stm32h7xx_hal_rcc.c ****       }
 683:../../Drivers/STM32H7xx_HAL_Driver/Src/stm32h7xx_hal_rcc.c ****     }
 684:../../Drivers/STM32H7xx_HAL_Driver/Src/stm32h7xx_hal_rcc.c ****     else
 685:../../Drivers/STM32H7xx_HAL_Driver/Src/stm32h7xx_hal_rcc.c ****     {
 686:../../Drivers/STM32H7xx_HAL_Driver/Src/stm32h7xx_hal_rcc.c ****       /* Disable the Internal Low Speed oscillator (HSI48). */
ARM GAS  C:\Users\minis\AppData\Local\Temp\cczlSevg.s 			page 36


 687:../../Drivers/STM32H7xx_HAL_Driver/Src/stm32h7xx_hal_rcc.c ****       __HAL_RCC_HSI48_DISABLE();
 1180              		.loc 1 687 7 is_stmt 1 view .LVU385
 1181 03c2 4D4A     		ldr	r2, .L168
 1182 03c4 1368     		ldr	r3, [r2]
 1183 03c6 23F48053 		bic	r3, r3, #4096
 1184 03ca 1360     		str	r3, [r2]
 1185              		.loc 1 687 32 view .LVU386
 688:../../Drivers/STM32H7xx_HAL_Driver/Src/stm32h7xx_hal_rcc.c **** 
 689:../../Drivers/STM32H7xx_HAL_Driver/Src/stm32h7xx_hal_rcc.c ****       /* Get time-out */
 690:../../Drivers/STM32H7xx_HAL_Driver/Src/stm32h7xx_hal_rcc.c ****       tickstart = HAL_GetTick();
 1186              		.loc 1 690 7 view .LVU387
 1187              		.loc 1 690 19 is_stmt 0 view .LVU388
 1188 03cc FFF7FEFF 		bl	HAL_GetTick
 1189              	.LVL98:
 1190 03d0 0546     		mov	r5, r0
 1191              	.LVL99:
 691:../../Drivers/STM32H7xx_HAL_Driver/Src/stm32h7xx_hal_rcc.c **** 
 692:../../Drivers/STM32H7xx_HAL_Driver/Src/stm32h7xx_hal_rcc.c ****       /* Wait till HSI48 is ready */
 693:../../Drivers/STM32H7xx_HAL_Driver/Src/stm32h7xx_hal_rcc.c ****       while (__HAL_RCC_GET_FLAG(RCC_FLAG_HSI48RDY) != 0U)
 1192              		.loc 1 693 7 is_stmt 1 view .LVU389
 1193              	.L87:
 1194              		.loc 1 693 52 view .LVU390
 1195              		.loc 1 693 14 is_stmt 0 view .LVU391
 1196 03d2 494B     		ldr	r3, .L168
 1197 03d4 1B68     		ldr	r3, [r3]
 1198              		.loc 1 693 52 view .LVU392
 1199 03d6 13F4005F 		tst	r3, #8192
 1200 03da 06D0     		beq	.L83
 694:../../Drivers/STM32H7xx_HAL_Driver/Src/stm32h7xx_hal_rcc.c ****       {
 695:../../Drivers/STM32H7xx_HAL_Driver/Src/stm32h7xx_hal_rcc.c ****         if ((HAL_GetTick() - tickstart) > HSI48_TIMEOUT_VALUE)
 1201              		.loc 1 695 9 is_stmt 1 view .LVU393
 1202              		.loc 1 695 14 is_stmt 0 view .LVU394
 1203 03dc FFF7FEFF 		bl	HAL_GetTick
 1204              	.LVL100:
 1205              		.loc 1 695 28 discriminator 1 view .LVU395
 1206 03e0 401B     		subs	r0, r0, r5
 1207              		.loc 1 695 12 discriminator 1 view .LVU396
 1208 03e2 0228     		cmp	r0, #2
 1209 03e4 F5D9     		bls	.L87
 696:../../Drivers/STM32H7xx_HAL_Driver/Src/stm32h7xx_hal_rcc.c ****         {
 697:../../Drivers/STM32H7xx_HAL_Driver/Src/stm32h7xx_hal_rcc.c ****           return HAL_TIMEOUT;
 1210              		.loc 1 697 18 view .LVU397
 1211 03e6 0320     		movs	r0, #3
 1212 03e8 4FE1     		b	.L36
 1213              	.LVL101:
 1214              	.L83:
 698:../../Drivers/STM32H7xx_HAL_Driver/Src/stm32h7xx_hal_rcc.c ****         }
 699:../../Drivers/STM32H7xx_HAL_Driver/Src/stm32h7xx_hal_rcc.c ****       }
 700:../../Drivers/STM32H7xx_HAL_Driver/Src/stm32h7xx_hal_rcc.c ****     }
 701:../../Drivers/STM32H7xx_HAL_Driver/Src/stm32h7xx_hal_rcc.c ****   }
 702:../../Drivers/STM32H7xx_HAL_Driver/Src/stm32h7xx_hal_rcc.c ****   /*------------------------------ LSE Configuration -------------------------*/
 703:../../Drivers/STM32H7xx_HAL_Driver/Src/stm32h7xx_hal_rcc.c ****   if (((RCC_OscInitStruct->OscillatorType) & RCC_OSCILLATORTYPE_LSE) == RCC_OSCILLATORTYPE_LSE)
 1215              		.loc 1 703 3 is_stmt 1 view .LVU398
 1216              		.loc 1 703 26 is_stmt 0 view .LVU399
 1217 03ea 2368     		ldr	r3, [r4]
 1218              		.loc 1 703 6 view .LVU400
 1219 03ec 13F0040F 		tst	r3, #4
ARM GAS  C:\Users\minis\AppData\Local\Temp\cczlSevg.s 			page 37


 1220 03f0 21D1     		bne	.L157
 1221              	.L89:
 704:../../Drivers/STM32H7xx_HAL_Driver/Src/stm32h7xx_hal_rcc.c ****   {
 705:../../Drivers/STM32H7xx_HAL_Driver/Src/stm32h7xx_hal_rcc.c ****     /* Check the parameters */
 706:../../Drivers/STM32H7xx_HAL_Driver/Src/stm32h7xx_hal_rcc.c ****     assert_param(IS_RCC_LSE(RCC_OscInitStruct->LSEState));
 707:../../Drivers/STM32H7xx_HAL_Driver/Src/stm32h7xx_hal_rcc.c **** 
 708:../../Drivers/STM32H7xx_HAL_Driver/Src/stm32h7xx_hal_rcc.c ****     /* Enable write access to Backup domain */
 709:../../Drivers/STM32H7xx_HAL_Driver/Src/stm32h7xx_hal_rcc.c ****     PWR->CR1 |= PWR_CR1_DBP;
 710:../../Drivers/STM32H7xx_HAL_Driver/Src/stm32h7xx_hal_rcc.c **** 
 711:../../Drivers/STM32H7xx_HAL_Driver/Src/stm32h7xx_hal_rcc.c ****     /* Wait for Backup domain Write protection disable */
 712:../../Drivers/STM32H7xx_HAL_Driver/Src/stm32h7xx_hal_rcc.c ****     tickstart = HAL_GetTick();
 713:../../Drivers/STM32H7xx_HAL_Driver/Src/stm32h7xx_hal_rcc.c **** 
 714:../../Drivers/STM32H7xx_HAL_Driver/Src/stm32h7xx_hal_rcc.c ****     while ((PWR->CR1 & PWR_CR1_DBP) == 0U)
 715:../../Drivers/STM32H7xx_HAL_Driver/Src/stm32h7xx_hal_rcc.c ****     {
 716:../../Drivers/STM32H7xx_HAL_Driver/Src/stm32h7xx_hal_rcc.c ****       if ((HAL_GetTick() - tickstart) > RCC_DBP_TIMEOUT_VALUE)
 717:../../Drivers/STM32H7xx_HAL_Driver/Src/stm32h7xx_hal_rcc.c ****       {
 718:../../Drivers/STM32H7xx_HAL_Driver/Src/stm32h7xx_hal_rcc.c ****         return HAL_TIMEOUT;
 719:../../Drivers/STM32H7xx_HAL_Driver/Src/stm32h7xx_hal_rcc.c ****       }
 720:../../Drivers/STM32H7xx_HAL_Driver/Src/stm32h7xx_hal_rcc.c ****     }
 721:../../Drivers/STM32H7xx_HAL_Driver/Src/stm32h7xx_hal_rcc.c **** 
 722:../../Drivers/STM32H7xx_HAL_Driver/Src/stm32h7xx_hal_rcc.c ****     /* Set the new LSE configuration -----------------------------------------*/
 723:../../Drivers/STM32H7xx_HAL_Driver/Src/stm32h7xx_hal_rcc.c ****     __HAL_RCC_LSE_CONFIG(RCC_OscInitStruct->LSEState);
 724:../../Drivers/STM32H7xx_HAL_Driver/Src/stm32h7xx_hal_rcc.c ****     /* Check the LSE State */
 725:../../Drivers/STM32H7xx_HAL_Driver/Src/stm32h7xx_hal_rcc.c ****     if ((RCC_OscInitStruct->LSEState) != RCC_LSE_OFF)
 726:../../Drivers/STM32H7xx_HAL_Driver/Src/stm32h7xx_hal_rcc.c ****     {
 727:../../Drivers/STM32H7xx_HAL_Driver/Src/stm32h7xx_hal_rcc.c ****       /* Get Start Tick*/
 728:../../Drivers/STM32H7xx_HAL_Driver/Src/stm32h7xx_hal_rcc.c ****       tickstart = HAL_GetTick();
 729:../../Drivers/STM32H7xx_HAL_Driver/Src/stm32h7xx_hal_rcc.c **** 
 730:../../Drivers/STM32H7xx_HAL_Driver/Src/stm32h7xx_hal_rcc.c ****       /* Wait till LSE is ready */
 731:../../Drivers/STM32H7xx_HAL_Driver/Src/stm32h7xx_hal_rcc.c ****       while (__HAL_RCC_GET_FLAG(RCC_FLAG_LSERDY) == 0U)
 732:../../Drivers/STM32H7xx_HAL_Driver/Src/stm32h7xx_hal_rcc.c ****       {
 733:../../Drivers/STM32H7xx_HAL_Driver/Src/stm32h7xx_hal_rcc.c ****         if ((HAL_GetTick() - tickstart) > RCC_LSE_TIMEOUT_VALUE)
 734:../../Drivers/STM32H7xx_HAL_Driver/Src/stm32h7xx_hal_rcc.c ****         {
 735:../../Drivers/STM32H7xx_HAL_Driver/Src/stm32h7xx_hal_rcc.c ****           return HAL_TIMEOUT;
 736:../../Drivers/STM32H7xx_HAL_Driver/Src/stm32h7xx_hal_rcc.c ****         }
 737:../../Drivers/STM32H7xx_HAL_Driver/Src/stm32h7xx_hal_rcc.c ****       }
 738:../../Drivers/STM32H7xx_HAL_Driver/Src/stm32h7xx_hal_rcc.c ****     }
 739:../../Drivers/STM32H7xx_HAL_Driver/Src/stm32h7xx_hal_rcc.c ****     else
 740:../../Drivers/STM32H7xx_HAL_Driver/Src/stm32h7xx_hal_rcc.c ****     {
 741:../../Drivers/STM32H7xx_HAL_Driver/Src/stm32h7xx_hal_rcc.c ****       /* Get Start Tick*/
 742:../../Drivers/STM32H7xx_HAL_Driver/Src/stm32h7xx_hal_rcc.c ****       tickstart = HAL_GetTick();
 743:../../Drivers/STM32H7xx_HAL_Driver/Src/stm32h7xx_hal_rcc.c **** 
 744:../../Drivers/STM32H7xx_HAL_Driver/Src/stm32h7xx_hal_rcc.c ****       /* Wait till LSE is disabled */
 745:../../Drivers/STM32H7xx_HAL_Driver/Src/stm32h7xx_hal_rcc.c ****       while (__HAL_RCC_GET_FLAG(RCC_FLAG_LSERDY) != 0U)
 746:../../Drivers/STM32H7xx_HAL_Driver/Src/stm32h7xx_hal_rcc.c ****       {
 747:../../Drivers/STM32H7xx_HAL_Driver/Src/stm32h7xx_hal_rcc.c ****         if ((HAL_GetTick() - tickstart) > RCC_LSE_TIMEOUT_VALUE)
 748:../../Drivers/STM32H7xx_HAL_Driver/Src/stm32h7xx_hal_rcc.c ****         {
 749:../../Drivers/STM32H7xx_HAL_Driver/Src/stm32h7xx_hal_rcc.c ****           return HAL_TIMEOUT;
 750:../../Drivers/STM32H7xx_HAL_Driver/Src/stm32h7xx_hal_rcc.c ****         }
 751:../../Drivers/STM32H7xx_HAL_Driver/Src/stm32h7xx_hal_rcc.c ****       }
 752:../../Drivers/STM32H7xx_HAL_Driver/Src/stm32h7xx_hal_rcc.c ****     }
 753:../../Drivers/STM32H7xx_HAL_Driver/Src/stm32h7xx_hal_rcc.c ****   }
 754:../../Drivers/STM32H7xx_HAL_Driver/Src/stm32h7xx_hal_rcc.c ****   /*-------------------------------- PLL Configuration -----------------------*/
 755:../../Drivers/STM32H7xx_HAL_Driver/Src/stm32h7xx_hal_rcc.c ****   /* Check the parameters */
 756:../../Drivers/STM32H7xx_HAL_Driver/Src/stm32h7xx_hal_rcc.c ****   assert_param(IS_RCC_PLL(RCC_OscInitStruct->PLL.PLLState));
 1222              		.loc 1 756 3 is_stmt 1 view .LVU401
 757:../../Drivers/STM32H7xx_HAL_Driver/Src/stm32h7xx_hal_rcc.c ****   if ((RCC_OscInitStruct->PLL.PLLState) != RCC_PLL_NONE)
ARM GAS  C:\Users\minis\AppData\Local\Temp\cczlSevg.s 			page 38


 1223              		.loc 1 757 3 view .LVU402
 1224              		.loc 1 757 30 is_stmt 0 view .LVU403
 1225 03f2 636A     		ldr	r3, [r4, #36]
 1226              		.loc 1 757 6 view .LVU404
 1227 03f4 002B     		cmp	r3, #0
 1228 03f6 00F04781 		beq	.L128
 758:../../Drivers/STM32H7xx_HAL_Driver/Src/stm32h7xx_hal_rcc.c ****   {
 759:../../Drivers/STM32H7xx_HAL_Driver/Src/stm32h7xx_hal_rcc.c ****     /* Check if the PLL is used as system clock or not */
 760:../../Drivers/STM32H7xx_HAL_Driver/Src/stm32h7xx_hal_rcc.c ****     if (__HAL_RCC_GET_SYSCLK_SOURCE() != RCC_CFGR_SWS_PLL1)
 1229              		.loc 1 760 5 is_stmt 1 view .LVU405
 1230              		.loc 1 760 9 is_stmt 0 view .LVU406
 1231 03fa 3F4A     		ldr	r2, .L168
 1232 03fc 1269     		ldr	r2, [r2, #16]
 1233 03fe 02F03802 		and	r2, r2, #56
 1234              		.loc 1 760 8 view .LVU407
 1235 0402 182A     		cmp	r2, #24
 1236 0404 00F0EE80 		beq	.L101
 761:../../Drivers/STM32H7xx_HAL_Driver/Src/stm32h7xx_hal_rcc.c ****     {
 762:../../Drivers/STM32H7xx_HAL_Driver/Src/stm32h7xx_hal_rcc.c ****       if ((RCC_OscInitStruct->PLL.PLLState) == RCC_PLL_ON)
 1237              		.loc 1 762 7 is_stmt 1 view .LVU408
 1238              		.loc 1 762 10 is_stmt 0 view .LVU409
 1239 0408 022B     		cmp	r3, #2
 1240 040a 79D0     		beq	.L158
 763:../../Drivers/STM32H7xx_HAL_Driver/Src/stm32h7xx_hal_rcc.c ****       {
 764:../../Drivers/STM32H7xx_HAL_Driver/Src/stm32h7xx_hal_rcc.c ****         /* Check the parameters */
 765:../../Drivers/STM32H7xx_HAL_Driver/Src/stm32h7xx_hal_rcc.c ****         assert_param(IS_RCC_PLLSOURCE(RCC_OscInitStruct->PLL.PLLSource));
 766:../../Drivers/STM32H7xx_HAL_Driver/Src/stm32h7xx_hal_rcc.c ****         assert_param(IS_RCC_PLLRGE_VALUE(RCC_OscInitStruct->PLL.PLLRGE));
 767:../../Drivers/STM32H7xx_HAL_Driver/Src/stm32h7xx_hal_rcc.c ****         assert_param(IS_RCC_PLLVCO_VALUE(RCC_OscInitStruct->PLL.PLLVCOSEL));
 768:../../Drivers/STM32H7xx_HAL_Driver/Src/stm32h7xx_hal_rcc.c ****         assert_param(IS_RCC_PLLM_VALUE(RCC_OscInitStruct->PLL.PLLM));
 769:../../Drivers/STM32H7xx_HAL_Driver/Src/stm32h7xx_hal_rcc.c ****         assert_param(IS_RCC_PLLN_VALUE(RCC_OscInitStruct->PLL.PLLN));
 770:../../Drivers/STM32H7xx_HAL_Driver/Src/stm32h7xx_hal_rcc.c ****         assert_param(IS_RCC_PLLP_VALUE(RCC_OscInitStruct->PLL.PLLP));
 771:../../Drivers/STM32H7xx_HAL_Driver/Src/stm32h7xx_hal_rcc.c ****         assert_param(IS_RCC_PLLQ_VALUE(RCC_OscInitStruct->PLL.PLLQ));
 772:../../Drivers/STM32H7xx_HAL_Driver/Src/stm32h7xx_hal_rcc.c ****         assert_param(IS_RCC_PLLR_VALUE(RCC_OscInitStruct->PLL.PLLR));
 773:../../Drivers/STM32H7xx_HAL_Driver/Src/stm32h7xx_hal_rcc.c ****         assert_param(IS_RCC_PLLFRACN_VALUE(RCC_OscInitStruct->PLL.PLLFRACN));
 774:../../Drivers/STM32H7xx_HAL_Driver/Src/stm32h7xx_hal_rcc.c **** 
 775:../../Drivers/STM32H7xx_HAL_Driver/Src/stm32h7xx_hal_rcc.c ****         /* Disable the main PLL. */
 776:../../Drivers/STM32H7xx_HAL_Driver/Src/stm32h7xx_hal_rcc.c ****         __HAL_RCC_PLL_DISABLE();
 777:../../Drivers/STM32H7xx_HAL_Driver/Src/stm32h7xx_hal_rcc.c **** 
 778:../../Drivers/STM32H7xx_HAL_Driver/Src/stm32h7xx_hal_rcc.c ****         /* Get Start Tick*/
 779:../../Drivers/STM32H7xx_HAL_Driver/Src/stm32h7xx_hal_rcc.c ****         tickstart = HAL_GetTick();
 780:../../Drivers/STM32H7xx_HAL_Driver/Src/stm32h7xx_hal_rcc.c **** 
 781:../../Drivers/STM32H7xx_HAL_Driver/Src/stm32h7xx_hal_rcc.c ****         /* Wait till PLL is disabled */
 782:../../Drivers/STM32H7xx_HAL_Driver/Src/stm32h7xx_hal_rcc.c ****         while (__HAL_RCC_GET_FLAG(RCC_FLAG_PLLRDY) != 0U)
 783:../../Drivers/STM32H7xx_HAL_Driver/Src/stm32h7xx_hal_rcc.c ****         {
 784:../../Drivers/STM32H7xx_HAL_Driver/Src/stm32h7xx_hal_rcc.c ****           if ((HAL_GetTick() - tickstart) > PLL_TIMEOUT_VALUE)
 785:../../Drivers/STM32H7xx_HAL_Driver/Src/stm32h7xx_hal_rcc.c ****           {
 786:../../Drivers/STM32H7xx_HAL_Driver/Src/stm32h7xx_hal_rcc.c ****             return HAL_TIMEOUT;
 787:../../Drivers/STM32H7xx_HAL_Driver/Src/stm32h7xx_hal_rcc.c ****           }
 788:../../Drivers/STM32H7xx_HAL_Driver/Src/stm32h7xx_hal_rcc.c ****         }
 789:../../Drivers/STM32H7xx_HAL_Driver/Src/stm32h7xx_hal_rcc.c **** 
 790:../../Drivers/STM32H7xx_HAL_Driver/Src/stm32h7xx_hal_rcc.c ****         /* Configure the main PLL clock source, multiplication and division factors. */
 791:../../Drivers/STM32H7xx_HAL_Driver/Src/stm32h7xx_hal_rcc.c ****         __HAL_RCC_PLL_CONFIG(RCC_OscInitStruct->PLL.PLLSource,
 792:../../Drivers/STM32H7xx_HAL_Driver/Src/stm32h7xx_hal_rcc.c ****                              RCC_OscInitStruct->PLL.PLLM,
 793:../../Drivers/STM32H7xx_HAL_Driver/Src/stm32h7xx_hal_rcc.c ****                              RCC_OscInitStruct->PLL.PLLN,
 794:../../Drivers/STM32H7xx_HAL_Driver/Src/stm32h7xx_hal_rcc.c ****                              RCC_OscInitStruct->PLL.PLLP,
 795:../../Drivers/STM32H7xx_HAL_Driver/Src/stm32h7xx_hal_rcc.c ****                              RCC_OscInitStruct->PLL.PLLQ,
 796:../../Drivers/STM32H7xx_HAL_Driver/Src/stm32h7xx_hal_rcc.c ****                              RCC_OscInitStruct->PLL.PLLR);
ARM GAS  C:\Users\minis\AppData\Local\Temp\cczlSevg.s 			page 39


 797:../../Drivers/STM32H7xx_HAL_Driver/Src/stm32h7xx_hal_rcc.c **** 
 798:../../Drivers/STM32H7xx_HAL_Driver/Src/stm32h7xx_hal_rcc.c ****         /* Disable PLLFRACN . */
 799:../../Drivers/STM32H7xx_HAL_Driver/Src/stm32h7xx_hal_rcc.c ****         __HAL_RCC_PLLFRACN_DISABLE();
 800:../../Drivers/STM32H7xx_HAL_Driver/Src/stm32h7xx_hal_rcc.c **** 
 801:../../Drivers/STM32H7xx_HAL_Driver/Src/stm32h7xx_hal_rcc.c ****         /* Configure PLL PLL1FRACN */
 802:../../Drivers/STM32H7xx_HAL_Driver/Src/stm32h7xx_hal_rcc.c ****         __HAL_RCC_PLLFRACN_CONFIG(RCC_OscInitStruct->PLL.PLLFRACN);
 803:../../Drivers/STM32H7xx_HAL_Driver/Src/stm32h7xx_hal_rcc.c **** 
 804:../../Drivers/STM32H7xx_HAL_Driver/Src/stm32h7xx_hal_rcc.c ****         /* Select PLL1 input reference frequency range: VCI */
 805:../../Drivers/STM32H7xx_HAL_Driver/Src/stm32h7xx_hal_rcc.c ****         __HAL_RCC_PLL_VCIRANGE(RCC_OscInitStruct->PLL.PLLRGE) ;
 806:../../Drivers/STM32H7xx_HAL_Driver/Src/stm32h7xx_hal_rcc.c **** 
 807:../../Drivers/STM32H7xx_HAL_Driver/Src/stm32h7xx_hal_rcc.c ****         /* Select PLL1 output frequency range : VCO */
 808:../../Drivers/STM32H7xx_HAL_Driver/Src/stm32h7xx_hal_rcc.c ****         __HAL_RCC_PLL_VCORANGE(RCC_OscInitStruct->PLL.PLLVCOSEL) ;
 809:../../Drivers/STM32H7xx_HAL_Driver/Src/stm32h7xx_hal_rcc.c **** 
 810:../../Drivers/STM32H7xx_HAL_Driver/Src/stm32h7xx_hal_rcc.c ****         /* Enable PLL System Clock output. */
 811:../../Drivers/STM32H7xx_HAL_Driver/Src/stm32h7xx_hal_rcc.c ****         __HAL_RCC_PLLCLKOUT_ENABLE(RCC_PLL1_DIVP);
 812:../../Drivers/STM32H7xx_HAL_Driver/Src/stm32h7xx_hal_rcc.c **** 
 813:../../Drivers/STM32H7xx_HAL_Driver/Src/stm32h7xx_hal_rcc.c ****         /* Enable PLL1Q Clock output. */
 814:../../Drivers/STM32H7xx_HAL_Driver/Src/stm32h7xx_hal_rcc.c ****         __HAL_RCC_PLLCLKOUT_ENABLE(RCC_PLL1_DIVQ);
 815:../../Drivers/STM32H7xx_HAL_Driver/Src/stm32h7xx_hal_rcc.c **** 
 816:../../Drivers/STM32H7xx_HAL_Driver/Src/stm32h7xx_hal_rcc.c ****         /* Enable PLL1R  Clock output. */
 817:../../Drivers/STM32H7xx_HAL_Driver/Src/stm32h7xx_hal_rcc.c ****         __HAL_RCC_PLLCLKOUT_ENABLE(RCC_PLL1_DIVR);
 818:../../Drivers/STM32H7xx_HAL_Driver/Src/stm32h7xx_hal_rcc.c **** 
 819:../../Drivers/STM32H7xx_HAL_Driver/Src/stm32h7xx_hal_rcc.c ****         /* Enable PLL1FRACN . */
 820:../../Drivers/STM32H7xx_HAL_Driver/Src/stm32h7xx_hal_rcc.c ****         __HAL_RCC_PLLFRACN_ENABLE();
 821:../../Drivers/STM32H7xx_HAL_Driver/Src/stm32h7xx_hal_rcc.c **** 
 822:../../Drivers/STM32H7xx_HAL_Driver/Src/stm32h7xx_hal_rcc.c ****         /* Enable the main PLL. */
 823:../../Drivers/STM32H7xx_HAL_Driver/Src/stm32h7xx_hal_rcc.c ****         __HAL_RCC_PLL_ENABLE();
 824:../../Drivers/STM32H7xx_HAL_Driver/Src/stm32h7xx_hal_rcc.c **** 
 825:../../Drivers/STM32H7xx_HAL_Driver/Src/stm32h7xx_hal_rcc.c ****         /* Get Start Tick*/
 826:../../Drivers/STM32H7xx_HAL_Driver/Src/stm32h7xx_hal_rcc.c ****         tickstart = HAL_GetTick();
 827:../../Drivers/STM32H7xx_HAL_Driver/Src/stm32h7xx_hal_rcc.c **** 
 828:../../Drivers/STM32H7xx_HAL_Driver/Src/stm32h7xx_hal_rcc.c ****         /* Wait till PLL is ready */
 829:../../Drivers/STM32H7xx_HAL_Driver/Src/stm32h7xx_hal_rcc.c ****         while (__HAL_RCC_GET_FLAG(RCC_FLAG_PLLRDY) == 0U)
 830:../../Drivers/STM32H7xx_HAL_Driver/Src/stm32h7xx_hal_rcc.c ****         {
 831:../../Drivers/STM32H7xx_HAL_Driver/Src/stm32h7xx_hal_rcc.c ****           if ((HAL_GetTick() - tickstart) > PLL_TIMEOUT_VALUE)
 832:../../Drivers/STM32H7xx_HAL_Driver/Src/stm32h7xx_hal_rcc.c ****           {
 833:../../Drivers/STM32H7xx_HAL_Driver/Src/stm32h7xx_hal_rcc.c ****             return HAL_TIMEOUT;
 834:../../Drivers/STM32H7xx_HAL_Driver/Src/stm32h7xx_hal_rcc.c ****           }
 835:../../Drivers/STM32H7xx_HAL_Driver/Src/stm32h7xx_hal_rcc.c ****         }
 836:../../Drivers/STM32H7xx_HAL_Driver/Src/stm32h7xx_hal_rcc.c ****       }
 837:../../Drivers/STM32H7xx_HAL_Driver/Src/stm32h7xx_hal_rcc.c ****       else
 838:../../Drivers/STM32H7xx_HAL_Driver/Src/stm32h7xx_hal_rcc.c ****       {
 839:../../Drivers/STM32H7xx_HAL_Driver/Src/stm32h7xx_hal_rcc.c ****         /* Disable the main PLL. */
 840:../../Drivers/STM32H7xx_HAL_Driver/Src/stm32h7xx_hal_rcc.c ****         __HAL_RCC_PLL_DISABLE();
 1241              		.loc 1 840 9 is_stmt 1 view .LVU410
 1242 040c 3A4A     		ldr	r2, .L168
 1243 040e 1368     		ldr	r3, [r2]
 1244 0410 23F08073 		bic	r3, r3, #16777216
 1245 0414 1360     		str	r3, [r2]
 841:../../Drivers/STM32H7xx_HAL_Driver/Src/stm32h7xx_hal_rcc.c **** 
 842:../../Drivers/STM32H7xx_HAL_Driver/Src/stm32h7xx_hal_rcc.c ****         /* Get Start Tick*/
 843:../../Drivers/STM32H7xx_HAL_Driver/Src/stm32h7xx_hal_rcc.c ****         tickstart = HAL_GetTick();
 1246              		.loc 1 843 9 view .LVU411
 1247              		.loc 1 843 21 is_stmt 0 view .LVU412
 1248 0416 FFF7FEFF 		bl	HAL_GetTick
 1249              	.LVL102:
 1250 041a 0446     		mov	r4, r0
ARM GAS  C:\Users\minis\AppData\Local\Temp\cczlSevg.s 			page 40


 1251              	.LVL103:
 844:../../Drivers/STM32H7xx_HAL_Driver/Src/stm32h7xx_hal_rcc.c **** 
 845:../../Drivers/STM32H7xx_HAL_Driver/Src/stm32h7xx_hal_rcc.c ****         /* Wait till PLL is disabled */
 846:../../Drivers/STM32H7xx_HAL_Driver/Src/stm32h7xx_hal_rcc.c ****         while (__HAL_RCC_GET_FLAG(RCC_FLAG_PLLRDY) != 0U)
 1252              		.loc 1 846 9 is_stmt 1 view .LVU413
 1253              	.L107:
 1254              		.loc 1 846 52 view .LVU414
 1255              		.loc 1 846 16 is_stmt 0 view .LVU415
 1256 041c 364B     		ldr	r3, .L168
 1257 041e 1B68     		ldr	r3, [r3]
 1258              		.loc 1 846 52 view .LVU416
 1259 0420 13F0007F 		tst	r3, #33554432
 1260 0424 00F0DC80 		beq	.L159
 847:../../Drivers/STM32H7xx_HAL_Driver/Src/stm32h7xx_hal_rcc.c ****         {
 848:../../Drivers/STM32H7xx_HAL_Driver/Src/stm32h7xx_hal_rcc.c ****           if ((HAL_GetTick() - tickstart) > PLL_TIMEOUT_VALUE)
 1261              		.loc 1 848 11 is_stmt 1 view .LVU417
 1262              		.loc 1 848 16 is_stmt 0 view .LVU418
 1263 0428 FFF7FEFF 		bl	HAL_GetTick
 1264              	.LVL104:
 1265              		.loc 1 848 30 discriminator 1 view .LVU419
 1266 042c 001B     		subs	r0, r0, r4
 1267              		.loc 1 848 14 discriminator 1 view .LVU420
 1268 042e 0228     		cmp	r0, #2
 1269 0430 F4D9     		bls	.L107
 849:../../Drivers/STM32H7xx_HAL_Driver/Src/stm32h7xx_hal_rcc.c ****           {
 850:../../Drivers/STM32H7xx_HAL_Driver/Src/stm32h7xx_hal_rcc.c ****             return HAL_TIMEOUT;
 1270              		.loc 1 850 20 view .LVU421
 1271 0432 0320     		movs	r0, #3
 1272 0434 29E1     		b	.L36
 1273              	.LVL105:
 1274              	.L157:
 706:../../Drivers/STM32H7xx_HAL_Driver/Src/stm32h7xx_hal_rcc.c **** 
 1275              		.loc 1 706 5 is_stmt 1 view .LVU422
 709:../../Drivers/STM32H7xx_HAL_Driver/Src/stm32h7xx_hal_rcc.c **** 
 1276              		.loc 1 709 5 view .LVU423
 709:../../Drivers/STM32H7xx_HAL_Driver/Src/stm32h7xx_hal_rcc.c **** 
 1277              		.loc 1 709 8 is_stmt 0 view .LVU424
 1278 0436 314A     		ldr	r2, .L168+4
 1279 0438 1368     		ldr	r3, [r2]
 709:../../Drivers/STM32H7xx_HAL_Driver/Src/stm32h7xx_hal_rcc.c **** 
 1280              		.loc 1 709 14 view .LVU425
 1281 043a 43F48073 		orr	r3, r3, #256
 1282 043e 1360     		str	r3, [r2]
 712:../../Drivers/STM32H7xx_HAL_Driver/Src/stm32h7xx_hal_rcc.c **** 
 1283              		.loc 1 712 5 is_stmt 1 view .LVU426
 712:../../Drivers/STM32H7xx_HAL_Driver/Src/stm32h7xx_hal_rcc.c **** 
 1284              		.loc 1 712 17 is_stmt 0 view .LVU427
 1285 0440 FFF7FEFF 		bl	HAL_GetTick
 1286              	.LVL106:
 1287 0444 0546     		mov	r5, r0
 1288              	.LVL107:
 714:../../Drivers/STM32H7xx_HAL_Driver/Src/stm32h7xx_hal_rcc.c ****     {
 1289              		.loc 1 714 5 is_stmt 1 view .LVU428
 1290              	.L90:
 714:../../Drivers/STM32H7xx_HAL_Driver/Src/stm32h7xx_hal_rcc.c ****     {
 1291              		.loc 1 714 37 view .LVU429
 714:../../Drivers/STM32H7xx_HAL_Driver/Src/stm32h7xx_hal_rcc.c ****     {
ARM GAS  C:\Users\minis\AppData\Local\Temp\cczlSevg.s 			page 41


 1292              		.loc 1 714 16 is_stmt 0 view .LVU430
 1293 0446 2D4B     		ldr	r3, .L168+4
 1294 0448 1B68     		ldr	r3, [r3]
 714:../../Drivers/STM32H7xx_HAL_Driver/Src/stm32h7xx_hal_rcc.c ****     {
 1295              		.loc 1 714 37 view .LVU431
 1296 044a 13F4807F 		tst	r3, #256
 1297 044e 06D1     		bne	.L160
 716:../../Drivers/STM32H7xx_HAL_Driver/Src/stm32h7xx_hal_rcc.c ****       {
 1298              		.loc 1 716 7 is_stmt 1 view .LVU432
 716:../../Drivers/STM32H7xx_HAL_Driver/Src/stm32h7xx_hal_rcc.c ****       {
 1299              		.loc 1 716 12 is_stmt 0 view .LVU433
 1300 0450 FFF7FEFF 		bl	HAL_GetTick
 1301              	.LVL108:
 716:../../Drivers/STM32H7xx_HAL_Driver/Src/stm32h7xx_hal_rcc.c ****       {
 1302              		.loc 1 716 26 discriminator 1 view .LVU434
 1303 0454 401B     		subs	r0, r0, r5
 716:../../Drivers/STM32H7xx_HAL_Driver/Src/stm32h7xx_hal_rcc.c ****       {
 1304              		.loc 1 716 10 discriminator 1 view .LVU435
 1305 0456 6428     		cmp	r0, #100
 1306 0458 F5D9     		bls	.L90
 718:../../Drivers/STM32H7xx_HAL_Driver/Src/stm32h7xx_hal_rcc.c ****       }
 1307              		.loc 1 718 16 view .LVU436
 1308 045a 0320     		movs	r0, #3
 1309 045c 15E1     		b	.L36
 1310              	.L160:
 723:../../Drivers/STM32H7xx_HAL_Driver/Src/stm32h7xx_hal_rcc.c ****     /* Check the LSE State */
 1311              		.loc 1 723 5 is_stmt 1 view .LVU437
 723:../../Drivers/STM32H7xx_HAL_Driver/Src/stm32h7xx_hal_rcc.c ****     /* Check the LSE State */
 1312              		.loc 1 723 5 view .LVU438
 1313 045e A368     		ldr	r3, [r4, #8]
 1314 0460 012B     		cmp	r3, #1
 1315 0462 0AD0     		beq	.L161
 723:../../Drivers/STM32H7xx_HAL_Driver/Src/stm32h7xx_hal_rcc.c ****     /* Check the LSE State */
 1316              		.loc 1 723 5 discriminator 2 view .LVU439
 1317 0464 0BBB     		cbnz	r3, .L94
 723:../../Drivers/STM32H7xx_HAL_Driver/Src/stm32h7xx_hal_rcc.c ****     /* Check the LSE State */
 1318              		.loc 1 723 5 discriminator 3 view .LVU440
 1319 0466 244B     		ldr	r3, .L168
 1320 0468 1A6F     		ldr	r2, [r3, #112]
 1321 046a 22F00102 		bic	r2, r2, #1
 1322 046e 1A67     		str	r2, [r3, #112]
 723:../../Drivers/STM32H7xx_HAL_Driver/Src/stm32h7xx_hal_rcc.c ****     /* Check the LSE State */
 1323              		.loc 1 723 5 view .LVU441
 723:../../Drivers/STM32H7xx_HAL_Driver/Src/stm32h7xx_hal_rcc.c ****     /* Check the LSE State */
 1324              		.loc 1 723 5 is_stmt 0 discriminator 3 view .LVU442
 1325 0470 1A6F     		ldr	r2, [r3, #112]
 1326 0472 22F00402 		bic	r2, r2, #4
 1327 0476 1A67     		str	r2, [r3, #112]
 1328 0478 04E0     		b	.L93
 1329              	.L161:
 723:../../Drivers/STM32H7xx_HAL_Driver/Src/stm32h7xx_hal_rcc.c ****     /* Check the LSE State */
 1330              		.loc 1 723 5 is_stmt 1 discriminator 1 view .LVU443
 1331 047a 1F4A     		ldr	r2, .L168
 1332 047c 136F     		ldr	r3, [r2, #112]
 1333 047e 43F00103 		orr	r3, r3, #1
 1334 0482 1367     		str	r3, [r2, #112]
 1335              	.L93:
ARM GAS  C:\Users\minis\AppData\Local\Temp\cczlSevg.s 			page 42


 723:../../Drivers/STM32H7xx_HAL_Driver/Src/stm32h7xx_hal_rcc.c ****     /* Check the LSE State */
 1336              		.loc 1 723 5 view .LVU444
 725:../../Drivers/STM32H7xx_HAL_Driver/Src/stm32h7xx_hal_rcc.c ****     {
 1337              		.loc 1 725 5 view .LVU445
 725:../../Drivers/STM32H7xx_HAL_Driver/Src/stm32h7xx_hal_rcc.c ****     {
 1338              		.loc 1 725 27 is_stmt 0 view .LVU446
 1339 0484 A368     		ldr	r3, [r4, #8]
 725:../../Drivers/STM32H7xx_HAL_Driver/Src/stm32h7xx_hal_rcc.c ****     {
 1340              		.loc 1 725 8 view .LVU447
 1341 0486 33B3     		cbz	r3, .L96
 728:../../Drivers/STM32H7xx_HAL_Driver/Src/stm32h7xx_hal_rcc.c **** 
 1342              		.loc 1 728 7 is_stmt 1 view .LVU448
 728:../../Drivers/STM32H7xx_HAL_Driver/Src/stm32h7xx_hal_rcc.c **** 
 1343              		.loc 1 728 19 is_stmt 0 view .LVU449
 1344 0488 FFF7FEFF 		bl	HAL_GetTick
 1345              	.LVL109:
 1346 048c 0546     		mov	r5, r0
 1347              	.LVL110:
 731:../../Drivers/STM32H7xx_HAL_Driver/Src/stm32h7xx_hal_rcc.c ****       {
 1348              		.loc 1 731 7 is_stmt 1 view .LVU450
 1349              	.L97:
 731:../../Drivers/STM32H7xx_HAL_Driver/Src/stm32h7xx_hal_rcc.c ****       {
 1350              		.loc 1 731 50 view .LVU451
 731:../../Drivers/STM32H7xx_HAL_Driver/Src/stm32h7xx_hal_rcc.c ****       {
 1351              		.loc 1 731 14 is_stmt 0 view .LVU452
 1352 048e 1A4B     		ldr	r3, .L168
 1353 0490 1B6F     		ldr	r3, [r3, #112]
 731:../../Drivers/STM32H7xx_HAL_Driver/Src/stm32h7xx_hal_rcc.c ****       {
 1354              		.loc 1 731 50 view .LVU453
 1355 0492 13F0020F 		tst	r3, #2
 1356 0496 ACD1     		bne	.L89
 733:../../Drivers/STM32H7xx_HAL_Driver/Src/stm32h7xx_hal_rcc.c ****         {
 1357              		.loc 1 733 9 is_stmt 1 view .LVU454
 733:../../Drivers/STM32H7xx_HAL_Driver/Src/stm32h7xx_hal_rcc.c ****         {
 1358              		.loc 1 733 14 is_stmt 0 view .LVU455
 1359 0498 FFF7FEFF 		bl	HAL_GetTick
 1360              	.LVL111:
 733:../../Drivers/STM32H7xx_HAL_Driver/Src/stm32h7xx_hal_rcc.c ****         {
 1361              		.loc 1 733 28 discriminator 1 view .LVU456
 1362 049c 401B     		subs	r0, r0, r5
 733:../../Drivers/STM32H7xx_HAL_Driver/Src/stm32h7xx_hal_rcc.c ****         {
 1363              		.loc 1 733 12 discriminator 1 view .LVU457
 1364 049e 41F28833 		movw	r3, #5000
 1365 04a2 9842     		cmp	r0, r3
 1366 04a4 F3D9     		bls	.L97
 735:../../Drivers/STM32H7xx_HAL_Driver/Src/stm32h7xx_hal_rcc.c ****         }
 1367              		.loc 1 735 18 view .LVU458
 1368 04a6 0320     		movs	r0, #3
 1369 04a8 EFE0     		b	.L36
 1370              	.L94:
 723:../../Drivers/STM32H7xx_HAL_Driver/Src/stm32h7xx_hal_rcc.c ****     /* Check the LSE State */
 1371              		.loc 1 723 5 is_stmt 1 discriminator 4 view .LVU459
 1372 04aa 052B     		cmp	r3, #5
 1373 04ac 09D0     		beq	.L162
 723:../../Drivers/STM32H7xx_HAL_Driver/Src/stm32h7xx_hal_rcc.c ****     /* Check the LSE State */
 1374              		.loc 1 723 5 discriminator 6 view .LVU460
 1375 04ae 124B     		ldr	r3, .L168
ARM GAS  C:\Users\minis\AppData\Local\Temp\cczlSevg.s 			page 43


 1376 04b0 1A6F     		ldr	r2, [r3, #112]
 1377 04b2 22F00102 		bic	r2, r2, #1
 1378 04b6 1A67     		str	r2, [r3, #112]
 723:../../Drivers/STM32H7xx_HAL_Driver/Src/stm32h7xx_hal_rcc.c ****     /* Check the LSE State */
 1379              		.loc 1 723 5 view .LVU461
 723:../../Drivers/STM32H7xx_HAL_Driver/Src/stm32h7xx_hal_rcc.c ****     /* Check the LSE State */
 1380              		.loc 1 723 5 is_stmt 0 discriminator 6 view .LVU462
 1381 04b8 1A6F     		ldr	r2, [r3, #112]
 1382 04ba 22F00402 		bic	r2, r2, #4
 1383 04be 1A67     		str	r2, [r3, #112]
 1384 04c0 E0E7     		b	.L93
 1385              	.L162:
 723:../../Drivers/STM32H7xx_HAL_Driver/Src/stm32h7xx_hal_rcc.c ****     /* Check the LSE State */
 1386              		.loc 1 723 5 is_stmt 1 discriminator 5 view .LVU463
 1387 04c2 0D4B     		ldr	r3, .L168
 1388 04c4 1A6F     		ldr	r2, [r3, #112]
 1389 04c6 42F00402 		orr	r2, r2, #4
 1390 04ca 1A67     		str	r2, [r3, #112]
 723:../../Drivers/STM32H7xx_HAL_Driver/Src/stm32h7xx_hal_rcc.c ****     /* Check the LSE State */
 1391              		.loc 1 723 5 view .LVU464
 723:../../Drivers/STM32H7xx_HAL_Driver/Src/stm32h7xx_hal_rcc.c ****     /* Check the LSE State */
 1392              		.loc 1 723 5 is_stmt 0 discriminator 5 view .LVU465
 1393 04cc 1A6F     		ldr	r2, [r3, #112]
 1394 04ce 42F00102 		orr	r2, r2, #1
 1395 04d2 1A67     		str	r2, [r3, #112]
 1396 04d4 D6E7     		b	.L93
 1397              	.L96:
 742:../../Drivers/STM32H7xx_HAL_Driver/Src/stm32h7xx_hal_rcc.c **** 
 1398              		.loc 1 742 7 is_stmt 1 view .LVU466
 742:../../Drivers/STM32H7xx_HAL_Driver/Src/stm32h7xx_hal_rcc.c **** 
 1399              		.loc 1 742 19 is_stmt 0 view .LVU467
 1400 04d6 FFF7FEFF 		bl	HAL_GetTick
 1401              	.LVL112:
 1402 04da 0546     		mov	r5, r0
 1403              	.LVL113:
 745:../../Drivers/STM32H7xx_HAL_Driver/Src/stm32h7xx_hal_rcc.c ****       {
 1404              		.loc 1 745 7 is_stmt 1 view .LVU468
 1405              	.L99:
 745:../../Drivers/STM32H7xx_HAL_Driver/Src/stm32h7xx_hal_rcc.c ****       {
 1406              		.loc 1 745 50 view .LVU469
 745:../../Drivers/STM32H7xx_HAL_Driver/Src/stm32h7xx_hal_rcc.c ****       {
 1407              		.loc 1 745 14 is_stmt 0 view .LVU470
 1408 04dc 064B     		ldr	r3, .L168
 1409 04de 1B6F     		ldr	r3, [r3, #112]
 745:../../Drivers/STM32H7xx_HAL_Driver/Src/stm32h7xx_hal_rcc.c ****       {
 1410              		.loc 1 745 50 view .LVU471
 1411 04e0 13F0020F 		tst	r3, #2
 1412 04e4 85D0     		beq	.L89
 747:../../Drivers/STM32H7xx_HAL_Driver/Src/stm32h7xx_hal_rcc.c ****         {
 1413              		.loc 1 747 9 is_stmt 1 view .LVU472
 747:../../Drivers/STM32H7xx_HAL_Driver/Src/stm32h7xx_hal_rcc.c ****         {
 1414              		.loc 1 747 14 is_stmt 0 view .LVU473
 1415 04e6 FFF7FEFF 		bl	HAL_GetTick
 1416              	.LVL114:
 747:../../Drivers/STM32H7xx_HAL_Driver/Src/stm32h7xx_hal_rcc.c ****         {
 1417              		.loc 1 747 28 discriminator 1 view .LVU474
 1418 04ea 401B     		subs	r0, r0, r5
ARM GAS  C:\Users\minis\AppData\Local\Temp\cczlSevg.s 			page 44


 747:../../Drivers/STM32H7xx_HAL_Driver/Src/stm32h7xx_hal_rcc.c ****         {
 1419              		.loc 1 747 12 discriminator 1 view .LVU475
 1420 04ec 41F28833 		movw	r3, #5000
 1421 04f0 9842     		cmp	r0, r3
 1422 04f2 F3D9     		bls	.L99
 749:../../Drivers/STM32H7xx_HAL_Driver/Src/stm32h7xx_hal_rcc.c ****         }
 1423              		.loc 1 749 18 view .LVU476
 1424 04f4 0320     		movs	r0, #3
 1425 04f6 C8E0     		b	.L36
 1426              	.L169:
 1427              		.align	2
 1428              	.L168:
 1429 04f8 00440258 		.word	1476543488
 1430 04fc 00480258 		.word	1476544512
 1431              	.LVL115:
 1432              	.L158:
 765:../../Drivers/STM32H7xx_HAL_Driver/Src/stm32h7xx_hal_rcc.c ****         assert_param(IS_RCC_PLLRGE_VALUE(RCC_OscInitStruct->PLL.PLLRGE));
 1433              		.loc 1 765 9 is_stmt 1 view .LVU477
 766:../../Drivers/STM32H7xx_HAL_Driver/Src/stm32h7xx_hal_rcc.c ****         assert_param(IS_RCC_PLLVCO_VALUE(RCC_OscInitStruct->PLL.PLLVCOSEL));
 1434              		.loc 1 766 9 view .LVU478
 767:../../Drivers/STM32H7xx_HAL_Driver/Src/stm32h7xx_hal_rcc.c ****         assert_param(IS_RCC_PLLM_VALUE(RCC_OscInitStruct->PLL.PLLM));
 1435              		.loc 1 767 9 view .LVU479
 768:../../Drivers/STM32H7xx_HAL_Driver/Src/stm32h7xx_hal_rcc.c ****         assert_param(IS_RCC_PLLN_VALUE(RCC_OscInitStruct->PLL.PLLN));
 1436              		.loc 1 768 9 view .LVU480
 769:../../Drivers/STM32H7xx_HAL_Driver/Src/stm32h7xx_hal_rcc.c ****         assert_param(IS_RCC_PLLP_VALUE(RCC_OscInitStruct->PLL.PLLP));
 1437              		.loc 1 769 9 view .LVU481
 770:../../Drivers/STM32H7xx_HAL_Driver/Src/stm32h7xx_hal_rcc.c ****         assert_param(IS_RCC_PLLQ_VALUE(RCC_OscInitStruct->PLL.PLLQ));
 1438              		.loc 1 770 9 view .LVU482
 771:../../Drivers/STM32H7xx_HAL_Driver/Src/stm32h7xx_hal_rcc.c ****         assert_param(IS_RCC_PLLR_VALUE(RCC_OscInitStruct->PLL.PLLR));
 1439              		.loc 1 771 9 view .LVU483
 772:../../Drivers/STM32H7xx_HAL_Driver/Src/stm32h7xx_hal_rcc.c ****         assert_param(IS_RCC_PLLFRACN_VALUE(RCC_OscInitStruct->PLL.PLLFRACN));
 1440              		.loc 1 772 9 view .LVU484
 773:../../Drivers/STM32H7xx_HAL_Driver/Src/stm32h7xx_hal_rcc.c **** 
 1441              		.loc 1 773 9 view .LVU485
 776:../../Drivers/STM32H7xx_HAL_Driver/Src/stm32h7xx_hal_rcc.c **** 
 1442              		.loc 1 776 9 view .LVU486
 1443 0500 694A     		ldr	r2, .L170
 1444 0502 1368     		ldr	r3, [r2]
 1445 0504 23F08073 		bic	r3, r3, #16777216
 1446 0508 1360     		str	r3, [r2]
 779:../../Drivers/STM32H7xx_HAL_Driver/Src/stm32h7xx_hal_rcc.c **** 
 1447              		.loc 1 779 9 view .LVU487
 779:../../Drivers/STM32H7xx_HAL_Driver/Src/stm32h7xx_hal_rcc.c **** 
 1448              		.loc 1 779 21 is_stmt 0 view .LVU488
 1449 050a FFF7FEFF 		bl	HAL_GetTick
 1450              	.LVL116:
 1451 050e 0546     		mov	r5, r0
 1452              	.LVL117:
 782:../../Drivers/STM32H7xx_HAL_Driver/Src/stm32h7xx_hal_rcc.c ****         {
 1453              		.loc 1 782 9 is_stmt 1 view .LVU489
 1454              	.L103:
 782:../../Drivers/STM32H7xx_HAL_Driver/Src/stm32h7xx_hal_rcc.c ****         {
 1455              		.loc 1 782 52 view .LVU490
 782:../../Drivers/STM32H7xx_HAL_Driver/Src/stm32h7xx_hal_rcc.c ****         {
 1456              		.loc 1 782 16 is_stmt 0 view .LVU491
 1457 0510 654B     		ldr	r3, .L170
 1458 0512 1B68     		ldr	r3, [r3]
ARM GAS  C:\Users\minis\AppData\Local\Temp\cczlSevg.s 			page 45


 782:../../Drivers/STM32H7xx_HAL_Driver/Src/stm32h7xx_hal_rcc.c ****         {
 1459              		.loc 1 782 52 view .LVU492
 1460 0514 13F0007F 		tst	r3, #33554432
 1461 0518 06D0     		beq	.L163
 784:../../Drivers/STM32H7xx_HAL_Driver/Src/stm32h7xx_hal_rcc.c ****           {
 1462              		.loc 1 784 11 is_stmt 1 view .LVU493
 784:../../Drivers/STM32H7xx_HAL_Driver/Src/stm32h7xx_hal_rcc.c ****           {
 1463              		.loc 1 784 16 is_stmt 0 view .LVU494
 1464 051a FFF7FEFF 		bl	HAL_GetTick
 1465              	.LVL118:
 784:../../Drivers/STM32H7xx_HAL_Driver/Src/stm32h7xx_hal_rcc.c ****           {
 1466              		.loc 1 784 30 discriminator 1 view .LVU495
 1467 051e 401B     		subs	r0, r0, r5
 784:../../Drivers/STM32H7xx_HAL_Driver/Src/stm32h7xx_hal_rcc.c ****           {
 1468              		.loc 1 784 14 discriminator 1 view .LVU496
 1469 0520 0228     		cmp	r0, #2
 1470 0522 F5D9     		bls	.L103
 786:../../Drivers/STM32H7xx_HAL_Driver/Src/stm32h7xx_hal_rcc.c ****           }
 1471              		.loc 1 786 20 view .LVU497
 1472 0524 0320     		movs	r0, #3
 1473 0526 B0E0     		b	.L36
 1474              	.L163:
 791:../../Drivers/STM32H7xx_HAL_Driver/Src/stm32h7xx_hal_rcc.c ****                              RCC_OscInitStruct->PLL.PLLM,
 1475              		.loc 1 791 9 is_stmt 1 view .LVU498
 791:../../Drivers/STM32H7xx_HAL_Driver/Src/stm32h7xx_hal_rcc.c ****                              RCC_OscInitStruct->PLL.PLLM,
 1476              		.loc 1 791 9 view .LVU499
 1477 0528 5F4B     		ldr	r3, .L170
 1478 052a 996A     		ldr	r1, [r3, #40]
 1479 052c 5F4A     		ldr	r2, .L170+4
 1480 052e 0A40     		ands	r2, r2, r1
 1481 0530 A16A     		ldr	r1, [r4, #40]
 1482 0532 E06A     		ldr	r0, [r4, #44]
 1483 0534 41EA0011 		orr	r1, r1, r0, lsl #4
 1484 0538 0A43     		orrs	r2, r2, r1
 1485 053a 9A62     		str	r2, [r3, #40]
 791:../../Drivers/STM32H7xx_HAL_Driver/Src/stm32h7xx_hal_rcc.c ****                              RCC_OscInitStruct->PLL.PLLM,
 1486              		.loc 1 791 9 view .LVU500
 1487 053c 226B     		ldr	r2, [r4, #48]
 1488 053e 013A     		subs	r2, r2, #1
 1489 0540 C2F30802 		ubfx	r2, r2, #0, #9
 1490 0544 616B     		ldr	r1, [r4, #52]
 1491 0546 0139     		subs	r1, r1, #1
 1492 0548 4902     		lsls	r1, r1, #9
 1493 054a 89B2     		uxth	r1, r1
 1494 054c 0A43     		orrs	r2, r2, r1
 1495 054e A16B     		ldr	r1, [r4, #56]
 1496 0550 0139     		subs	r1, r1, #1
 1497 0552 0904     		lsls	r1, r1, #16
 1498 0554 01F4FE01 		and	r1, r1, #8323072
 1499 0558 0A43     		orrs	r2, r2, r1
 1500 055a E16B     		ldr	r1, [r4, #60]
 1501 055c 0139     		subs	r1, r1, #1
 1502 055e 0906     		lsls	r1, r1, #24
 1503 0560 01F0FE41 		and	r1, r1, #2130706432
 1504 0564 0A43     		orrs	r2, r2, r1
 1505 0566 1A63     		str	r2, [r3, #48]
 791:../../Drivers/STM32H7xx_HAL_Driver/Src/stm32h7xx_hal_rcc.c ****                              RCC_OscInitStruct->PLL.PLLM,
ARM GAS  C:\Users\minis\AppData\Local\Temp\cczlSevg.s 			page 46


 1506              		.loc 1 791 9 view .LVU501
 799:../../Drivers/STM32H7xx_HAL_Driver/Src/stm32h7xx_hal_rcc.c **** 
 1507              		.loc 1 799 9 view .LVU502
 1508 0568 DA6A     		ldr	r2, [r3, #44]
 1509 056a 22F00102 		bic	r2, r2, #1
 1510 056e DA62     		str	r2, [r3, #44]
 802:../../Drivers/STM32H7xx_HAL_Driver/Src/stm32h7xx_hal_rcc.c **** 
 1511              		.loc 1 802 9 view .LVU503
 1512 0570 5A6B     		ldr	r2, [r3, #52]
 1513 0572 6FF3CF02 		bfc	r2, #3, #13
 1514 0576 A16C     		ldr	r1, [r4, #72]
 1515 0578 42EAC102 		orr	r2, r2, r1, lsl #3
 1516 057c 5A63     		str	r2, [r3, #52]
 805:../../Drivers/STM32H7xx_HAL_Driver/Src/stm32h7xx_hal_rcc.c **** 
 1517              		.loc 1 805 9 view .LVU504
 1518 057e DA6A     		ldr	r2, [r3, #44]
 1519 0580 22F00C02 		bic	r2, r2, #12
 1520 0584 216C     		ldr	r1, [r4, #64]
 1521 0586 0A43     		orrs	r2, r2, r1
 1522 0588 DA62     		str	r2, [r3, #44]
 808:../../Drivers/STM32H7xx_HAL_Driver/Src/stm32h7xx_hal_rcc.c **** 
 1523              		.loc 1 808 9 view .LVU505
 1524 058a DA6A     		ldr	r2, [r3, #44]
 1525 058c 22F00202 		bic	r2, r2, #2
 1526 0590 616C     		ldr	r1, [r4, #68]
 1527 0592 0A43     		orrs	r2, r2, r1
 1528 0594 DA62     		str	r2, [r3, #44]
 811:../../Drivers/STM32H7xx_HAL_Driver/Src/stm32h7xx_hal_rcc.c **** 
 1529              		.loc 1 811 9 view .LVU506
 1530 0596 DA6A     		ldr	r2, [r3, #44]
 1531 0598 42F48032 		orr	r2, r2, #65536
 1532 059c DA62     		str	r2, [r3, #44]
 814:../../Drivers/STM32H7xx_HAL_Driver/Src/stm32h7xx_hal_rcc.c **** 
 1533              		.loc 1 814 9 view .LVU507
 1534 059e DA6A     		ldr	r2, [r3, #44]
 1535 05a0 42F40032 		orr	r2, r2, #131072
 1536 05a4 DA62     		str	r2, [r3, #44]
 817:../../Drivers/STM32H7xx_HAL_Driver/Src/stm32h7xx_hal_rcc.c **** 
 1537              		.loc 1 817 9 view .LVU508
 1538 05a6 DA6A     		ldr	r2, [r3, #44]
 1539 05a8 42F48022 		orr	r2, r2, #262144
 1540 05ac DA62     		str	r2, [r3, #44]
 820:../../Drivers/STM32H7xx_HAL_Driver/Src/stm32h7xx_hal_rcc.c **** 
 1541              		.loc 1 820 9 view .LVU509
 1542 05ae DA6A     		ldr	r2, [r3, #44]
 1543 05b0 42F00102 		orr	r2, r2, #1
 1544 05b4 DA62     		str	r2, [r3, #44]
 823:../../Drivers/STM32H7xx_HAL_Driver/Src/stm32h7xx_hal_rcc.c **** 
 1545              		.loc 1 823 9 view .LVU510
 1546 05b6 1A68     		ldr	r2, [r3]
 1547 05b8 42F08072 		orr	r2, r2, #16777216
 1548 05bc 1A60     		str	r2, [r3]
 826:../../Drivers/STM32H7xx_HAL_Driver/Src/stm32h7xx_hal_rcc.c **** 
 1549              		.loc 1 826 9 view .LVU511
 826:../../Drivers/STM32H7xx_HAL_Driver/Src/stm32h7xx_hal_rcc.c **** 
 1550              		.loc 1 826 21 is_stmt 0 view .LVU512
 1551 05be FFF7FEFF 		bl	HAL_GetTick
ARM GAS  C:\Users\minis\AppData\Local\Temp\cczlSevg.s 			page 47


 1552              	.LVL119:
 1553 05c2 0446     		mov	r4, r0
 1554              	.LVL120:
 829:../../Drivers/STM32H7xx_HAL_Driver/Src/stm32h7xx_hal_rcc.c ****         {
 1555              		.loc 1 829 9 is_stmt 1 view .LVU513
 1556              	.L105:
 829:../../Drivers/STM32H7xx_HAL_Driver/Src/stm32h7xx_hal_rcc.c ****         {
 1557              		.loc 1 829 52 view .LVU514
 829:../../Drivers/STM32H7xx_HAL_Driver/Src/stm32h7xx_hal_rcc.c ****         {
 1558              		.loc 1 829 16 is_stmt 0 view .LVU515
 1559 05c4 384B     		ldr	r3, .L170
 1560 05c6 1B68     		ldr	r3, [r3]
 829:../../Drivers/STM32H7xx_HAL_Driver/Src/stm32h7xx_hal_rcc.c ****         {
 1561              		.loc 1 829 52 view .LVU516
 1562 05c8 13F0007F 		tst	r3, #33554432
 1563 05cc 06D1     		bne	.L164
 831:../../Drivers/STM32H7xx_HAL_Driver/Src/stm32h7xx_hal_rcc.c ****           {
 1564              		.loc 1 831 11 is_stmt 1 view .LVU517
 831:../../Drivers/STM32H7xx_HAL_Driver/Src/stm32h7xx_hal_rcc.c ****           {
 1565              		.loc 1 831 16 is_stmt 0 view .LVU518
 1566 05ce FFF7FEFF 		bl	HAL_GetTick
 1567              	.LVL121:
 831:../../Drivers/STM32H7xx_HAL_Driver/Src/stm32h7xx_hal_rcc.c ****           {
 1568              		.loc 1 831 30 discriminator 1 view .LVU519
 1569 05d2 001B     		subs	r0, r0, r4
 831:../../Drivers/STM32H7xx_HAL_Driver/Src/stm32h7xx_hal_rcc.c ****           {
 1570              		.loc 1 831 14 discriminator 1 view .LVU520
 1571 05d4 0228     		cmp	r0, #2
 1572 05d6 F5D9     		bls	.L105
 833:../../Drivers/STM32H7xx_HAL_Driver/Src/stm32h7xx_hal_rcc.c ****           }
 1573              		.loc 1 833 20 view .LVU521
 1574 05d8 0320     		movs	r0, #3
 1575 05da 56E0     		b	.L36
 1576              	.L164:
 851:../../Drivers/STM32H7xx_HAL_Driver/Src/stm32h7xx_hal_rcc.c ****           }
 852:../../Drivers/STM32H7xx_HAL_Driver/Src/stm32h7xx_hal_rcc.c ****         }
 853:../../Drivers/STM32H7xx_HAL_Driver/Src/stm32h7xx_hal_rcc.c ****       }
 854:../../Drivers/STM32H7xx_HAL_Driver/Src/stm32h7xx_hal_rcc.c ****     }
 855:../../Drivers/STM32H7xx_HAL_Driver/Src/stm32h7xx_hal_rcc.c ****     else
 856:../../Drivers/STM32H7xx_HAL_Driver/Src/stm32h7xx_hal_rcc.c ****     {
 857:../../Drivers/STM32H7xx_HAL_Driver/Src/stm32h7xx_hal_rcc.c ****       /* Do not return HAL_ERROR if request repeats the current configuration */
 858:../../Drivers/STM32H7xx_HAL_Driver/Src/stm32h7xx_hal_rcc.c ****       temp1_pllckcfg = RCC->PLLCKSELR;
 859:../../Drivers/STM32H7xx_HAL_Driver/Src/stm32h7xx_hal_rcc.c ****       temp2_pllckcfg = RCC->PLL1DIVR;
 860:../../Drivers/STM32H7xx_HAL_Driver/Src/stm32h7xx_hal_rcc.c ****       if (((RCC_OscInitStruct->PLL.PLLState) == RCC_PLL_OFF) ||
 861:../../Drivers/STM32H7xx_HAL_Driver/Src/stm32h7xx_hal_rcc.c ****           (READ_BIT(temp1_pllckcfg, RCC_PLLCKSELR_PLLSRC) != RCC_OscInitStruct->PLL.PLLSource) ||
 862:../../Drivers/STM32H7xx_HAL_Driver/Src/stm32h7xx_hal_rcc.c ****           ((READ_BIT(temp1_pllckcfg, RCC_PLLCKSELR_DIVM1) >> RCC_PLLCKSELR_DIVM1_Pos) != RCC_OscIni
 863:../../Drivers/STM32H7xx_HAL_Driver/Src/stm32h7xx_hal_rcc.c ****           (READ_BIT(temp2_pllckcfg, RCC_PLL1DIVR_N1) != (RCC_OscInitStruct->PLL.PLLN - 1U)) ||
 864:../../Drivers/STM32H7xx_HAL_Driver/Src/stm32h7xx_hal_rcc.c ****           ((READ_BIT(temp2_pllckcfg, RCC_PLL1DIVR_P1) >> RCC_PLL1DIVR_P1_Pos) != (RCC_OscInitStruct
 865:../../Drivers/STM32H7xx_HAL_Driver/Src/stm32h7xx_hal_rcc.c ****           ((READ_BIT(temp2_pllckcfg, RCC_PLL1DIVR_Q1) >> RCC_PLL1DIVR_Q1_Pos) != (RCC_OscInitStruct
 866:../../Drivers/STM32H7xx_HAL_Driver/Src/stm32h7xx_hal_rcc.c ****           ((READ_BIT(temp2_pllckcfg, RCC_PLL1DIVR_R1) >> RCC_PLL1DIVR_R1_Pos) != (RCC_OscInitStruct
 867:../../Drivers/STM32H7xx_HAL_Driver/Src/stm32h7xx_hal_rcc.c ****       {
 868:../../Drivers/STM32H7xx_HAL_Driver/Src/stm32h7xx_hal_rcc.c ****         return HAL_ERROR;
 869:../../Drivers/STM32H7xx_HAL_Driver/Src/stm32h7xx_hal_rcc.c ****       }
 870:../../Drivers/STM32H7xx_HAL_Driver/Src/stm32h7xx_hal_rcc.c ****       else
 871:../../Drivers/STM32H7xx_HAL_Driver/Src/stm32h7xx_hal_rcc.c ****       {
 872:../../Drivers/STM32H7xx_HAL_Driver/Src/stm32h7xx_hal_rcc.c ****         /* Check if only fractional part needs to be updated  */
 873:../../Drivers/STM32H7xx_HAL_Driver/Src/stm32h7xx_hal_rcc.c ****         temp1_pllckcfg = ((RCC->PLL1FRACR & RCC_PLL1FRACR_FRACN1) >> RCC_PLL1FRACR_FRACN1_Pos);
ARM GAS  C:\Users\minis\AppData\Local\Temp\cczlSevg.s 			page 48


 874:../../Drivers/STM32H7xx_HAL_Driver/Src/stm32h7xx_hal_rcc.c ****         if (RCC_OscInitStruct->PLL.PLLFRACN != temp1_pllckcfg)
 875:../../Drivers/STM32H7xx_HAL_Driver/Src/stm32h7xx_hal_rcc.c ****         {
 876:../../Drivers/STM32H7xx_HAL_Driver/Src/stm32h7xx_hal_rcc.c ****           assert_param(IS_RCC_PLLFRACN_VALUE(RCC_OscInitStruct->PLL.PLLFRACN));
 877:../../Drivers/STM32H7xx_HAL_Driver/Src/stm32h7xx_hal_rcc.c ****           /* Disable PLL1FRACEN */
 878:../../Drivers/STM32H7xx_HAL_Driver/Src/stm32h7xx_hal_rcc.c ****           __HAL_RCC_PLLFRACN_DISABLE();
 879:../../Drivers/STM32H7xx_HAL_Driver/Src/stm32h7xx_hal_rcc.c ****           /* Get Start Tick*/
 880:../../Drivers/STM32H7xx_HAL_Driver/Src/stm32h7xx_hal_rcc.c ****           tickstart = HAL_GetTick();
 881:../../Drivers/STM32H7xx_HAL_Driver/Src/stm32h7xx_hal_rcc.c ****           /* Wait at least 2 CK_REF (PLL input source divided by M) period to make sure next latche
 882:../../Drivers/STM32H7xx_HAL_Driver/Src/stm32h7xx_hal_rcc.c ****           while ((HAL_GetTick() - tickstart) < PLL_FRAC_TIMEOUT_VALUE)
 883:../../Drivers/STM32H7xx_HAL_Driver/Src/stm32h7xx_hal_rcc.c ****           {
 884:../../Drivers/STM32H7xx_HAL_Driver/Src/stm32h7xx_hal_rcc.c ****           }
 885:../../Drivers/STM32H7xx_HAL_Driver/Src/stm32h7xx_hal_rcc.c ****           /* Configure PLL1 PLL1FRACN */
 886:../../Drivers/STM32H7xx_HAL_Driver/Src/stm32h7xx_hal_rcc.c ****           __HAL_RCC_PLLFRACN_CONFIG(RCC_OscInitStruct->PLL.PLLFRACN);
 887:../../Drivers/STM32H7xx_HAL_Driver/Src/stm32h7xx_hal_rcc.c ****           /* Enable PLL1FRACEN to latch new value. */
 888:../../Drivers/STM32H7xx_HAL_Driver/Src/stm32h7xx_hal_rcc.c ****           __HAL_RCC_PLLFRACN_ENABLE();
 889:../../Drivers/STM32H7xx_HAL_Driver/Src/stm32h7xx_hal_rcc.c ****         }
 890:../../Drivers/STM32H7xx_HAL_Driver/Src/stm32h7xx_hal_rcc.c ****       }
 891:../../Drivers/STM32H7xx_HAL_Driver/Src/stm32h7xx_hal_rcc.c ****     }
 892:../../Drivers/STM32H7xx_HAL_Driver/Src/stm32h7xx_hal_rcc.c ****   }
 893:../../Drivers/STM32H7xx_HAL_Driver/Src/stm32h7xx_hal_rcc.c ****   return HAL_OK;
 1577              		.loc 1 893 10 view .LVU522
 1578 05dc 0020     		movs	r0, #0
 1579 05de 54E0     		b	.L36
 1580              	.L159:
 1581              		.loc 1 893 10 view .LVU523
 1582 05e0 0020     		movs	r0, #0
 1583 05e2 52E0     		b	.L36
 1584              	.LVL122:
 1585              	.L101:
 858:../../Drivers/STM32H7xx_HAL_Driver/Src/stm32h7xx_hal_rcc.c ****       temp2_pllckcfg = RCC->PLL1DIVR;
 1586              		.loc 1 858 7 is_stmt 1 view .LVU524
 858:../../Drivers/STM32H7xx_HAL_Driver/Src/stm32h7xx_hal_rcc.c ****       temp2_pllckcfg = RCC->PLL1DIVR;
 1587              		.loc 1 858 22 is_stmt 0 view .LVU525
 1588 05e4 304A     		ldr	r2, .L170
 1589 05e6 916A     		ldr	r1, [r2, #40]
 1590              	.LVL123:
 859:../../Drivers/STM32H7xx_HAL_Driver/Src/stm32h7xx_hal_rcc.c ****       if (((RCC_OscInitStruct->PLL.PLLState) == RCC_PLL_OFF) ||
 1591              		.loc 1 859 7 is_stmt 1 view .LVU526
 859:../../Drivers/STM32H7xx_HAL_Driver/Src/stm32h7xx_hal_rcc.c ****       if (((RCC_OscInitStruct->PLL.PLLState) == RCC_PLL_OFF) ||
 1592              		.loc 1 859 22 is_stmt 0 view .LVU527
 1593 05e8 106B     		ldr	r0, [r2, #48]
 1594              	.LVL124:
 860:../../Drivers/STM32H7xx_HAL_Driver/Src/stm32h7xx_hal_rcc.c ****           (READ_BIT(temp1_pllckcfg, RCC_PLLCKSELR_PLLSRC) != RCC_OscInitStruct->PLL.PLLSource) ||
 1595              		.loc 1 860 7 is_stmt 1 view .LVU528
 860:../../Drivers/STM32H7xx_HAL_Driver/Src/stm32h7xx_hal_rcc.c ****           (READ_BIT(temp1_pllckcfg, RCC_PLLCKSELR_PLLSRC) != RCC_OscInitStruct->PLL.PLLSource) ||
 1596              		.loc 1 860 10 is_stmt 0 view .LVU529
 1597 05ea 012B     		cmp	r3, #1
 1598 05ec 4ED0     		beq	.L132
 861:../../Drivers/STM32H7xx_HAL_Driver/Src/stm32h7xx_hal_rcc.c ****           ((READ_BIT(temp1_pllckcfg, RCC_PLLCKSELR_DIVM1) >> RCC_PLLCKSELR_DIVM1_Pos) != RCC_OscIni
 1599              		.loc 1 861 12 view .LVU530
 1600 05ee 01F00303 		and	r3, r1, #3
 861:../../Drivers/STM32H7xx_HAL_Driver/Src/stm32h7xx_hal_rcc.c ****           ((READ_BIT(temp1_pllckcfg, RCC_PLLCKSELR_DIVM1) >> RCC_PLLCKSELR_DIVM1_Pos) != RCC_OscIni
 1601              		.loc 1 861 84 view .LVU531
 1602 05f2 A26A     		ldr	r2, [r4, #40]
 860:../../Drivers/STM32H7xx_HAL_Driver/Src/stm32h7xx_hal_rcc.c ****           (READ_BIT(temp1_pllckcfg, RCC_PLLCKSELR_PLLSRC) != RCC_OscInitStruct->PLL.PLLSource) ||
 1603              		.loc 1 860 62 discriminator 1 view .LVU532
 1604 05f4 9342     		cmp	r3, r2
ARM GAS  C:\Users\minis\AppData\Local\Temp\cczlSevg.s 			page 49


 1605 05f6 4BD1     		bne	.L133
 862:../../Drivers/STM32H7xx_HAL_Driver/Src/stm32h7xx_hal_rcc.c ****           (READ_BIT(temp2_pllckcfg, RCC_PLL1DIVR_N1) != (RCC_OscInitStruct->PLL.PLLN - 1U)) ||
 1606              		.loc 1 862 59 view .LVU533
 1607 05f8 C1F30511 		ubfx	r1, r1, #4, #6
 1608              	.LVL125:
 862:../../Drivers/STM32H7xx_HAL_Driver/Src/stm32h7xx_hal_rcc.c ****           (READ_BIT(temp2_pllckcfg, RCC_PLL1DIVR_N1) != (RCC_OscInitStruct->PLL.PLLN - 1U)) ||
 1609              		.loc 1 862 112 view .LVU534
 1610 05fc E36A     		ldr	r3, [r4, #44]
 861:../../Drivers/STM32H7xx_HAL_Driver/Src/stm32h7xx_hal_rcc.c ****           ((READ_BIT(temp1_pllckcfg, RCC_PLLCKSELR_DIVM1) >> RCC_PLLCKSELR_DIVM1_Pos) != RCC_OscIni
 1611              		.loc 1 861 96 view .LVU535
 1612 05fe 9942     		cmp	r1, r3
 1613 0600 48D1     		bne	.L134
 863:../../Drivers/STM32H7xx_HAL_Driver/Src/stm32h7xx_hal_rcc.c ****           ((READ_BIT(temp2_pllckcfg, RCC_PLL1DIVR_P1) >> RCC_PLL1DIVR_P1_Pos) != (RCC_OscInitStruct
 1614              		.loc 1 863 12 view .LVU536
 1615 0602 C0F30802 		ubfx	r2, r0, #0, #9
 863:../../Drivers/STM32H7xx_HAL_Driver/Src/stm32h7xx_hal_rcc.c ****           ((READ_BIT(temp2_pllckcfg, RCC_PLL1DIVR_P1) >> RCC_PLL1DIVR_P1_Pos) != (RCC_OscInitStruct
 1616              		.loc 1 863 80 view .LVU537
 1617 0606 236B     		ldr	r3, [r4, #48]
 863:../../Drivers/STM32H7xx_HAL_Driver/Src/stm32h7xx_hal_rcc.c ****           ((READ_BIT(temp2_pllckcfg, RCC_PLL1DIVR_P1) >> RCC_PLL1DIVR_P1_Pos) != (RCC_OscInitStruct
 1618              		.loc 1 863 86 view .LVU538
 1619 0608 013B     		subs	r3, r3, #1
 862:../../Drivers/STM32H7xx_HAL_Driver/Src/stm32h7xx_hal_rcc.c ****           (READ_BIT(temp2_pllckcfg, RCC_PLL1DIVR_N1) != (RCC_OscInitStruct->PLL.PLLN - 1U)) ||
 1620              		.loc 1 862 119 view .LVU539
 1621 060a 9A42     		cmp	r2, r3
 1622 060c 44D1     		bne	.L135
 864:../../Drivers/STM32H7xx_HAL_Driver/Src/stm32h7xx_hal_rcc.c ****           ((READ_BIT(temp2_pllckcfg, RCC_PLL1DIVR_Q1) >> RCC_PLL1DIVR_Q1_Pos) != (RCC_OscInitStruct
 1623              		.loc 1 864 55 view .LVU540
 1624 060e C0F34622 		ubfx	r2, r0, #9, #7
 864:../../Drivers/STM32H7xx_HAL_Driver/Src/stm32h7xx_hal_rcc.c ****           ((READ_BIT(temp2_pllckcfg, RCC_PLL1DIVR_Q1) >> RCC_PLL1DIVR_Q1_Pos) != (RCC_OscInitStruct
 1625              		.loc 1 864 105 view .LVU541
 1626 0612 636B     		ldr	r3, [r4, #52]
 864:../../Drivers/STM32H7xx_HAL_Driver/Src/stm32h7xx_hal_rcc.c ****           ((READ_BIT(temp2_pllckcfg, RCC_PLL1DIVR_Q1) >> RCC_PLL1DIVR_Q1_Pos) != (RCC_OscInitStruct
 1627              		.loc 1 864 111 view .LVU542
 1628 0614 013B     		subs	r3, r3, #1
 863:../../Drivers/STM32H7xx_HAL_Driver/Src/stm32h7xx_hal_rcc.c ****           ((READ_BIT(temp2_pllckcfg, RCC_PLL1DIVR_P1) >> RCC_PLL1DIVR_P1_Pos) != (RCC_OscInitStruct
 1629              		.loc 1 863 93 view .LVU543
 1630 0616 9A42     		cmp	r2, r3
 1631 0618 40D1     		bne	.L136
 865:../../Drivers/STM32H7xx_HAL_Driver/Src/stm32h7xx_hal_rcc.c ****           ((READ_BIT(temp2_pllckcfg, RCC_PLL1DIVR_R1) >> RCC_PLL1DIVR_R1_Pos) != (RCC_OscInitStruct
 1632              		.loc 1 865 55 view .LVU544
 1633 061a C0F30642 		ubfx	r2, r0, #16, #7
 865:../../Drivers/STM32H7xx_HAL_Driver/Src/stm32h7xx_hal_rcc.c ****           ((READ_BIT(temp2_pllckcfg, RCC_PLL1DIVR_R1) >> RCC_PLL1DIVR_R1_Pos) != (RCC_OscInitStruct
 1634              		.loc 1 865 105 view .LVU545
 1635 061e A36B     		ldr	r3, [r4, #56]
 865:../../Drivers/STM32H7xx_HAL_Driver/Src/stm32h7xx_hal_rcc.c ****           ((READ_BIT(temp2_pllckcfg, RCC_PLL1DIVR_R1) >> RCC_PLL1DIVR_R1_Pos) != (RCC_OscInitStruct
 1636              		.loc 1 865 111 view .LVU546
 1637 0620 013B     		subs	r3, r3, #1
 864:../../Drivers/STM32H7xx_HAL_Driver/Src/stm32h7xx_hal_rcc.c ****           ((READ_BIT(temp2_pllckcfg, RCC_PLL1DIVR_Q1) >> RCC_PLL1DIVR_Q1_Pos) != (RCC_OscInitStruct
 1638              		.loc 1 864 118 view .LVU547
 1639 0622 9A42     		cmp	r2, r3
 1640 0624 3CD1     		bne	.L137
 866:../../Drivers/STM32H7xx_HAL_Driver/Src/stm32h7xx_hal_rcc.c ****       {
 1641              		.loc 1 866 55 view .LVU548
 1642 0626 C0F30660 		ubfx	r0, r0, #24, #7
 1643              	.LVL126:
 866:../../Drivers/STM32H7xx_HAL_Driver/Src/stm32h7xx_hal_rcc.c ****       {
 1644              		.loc 1 866 105 view .LVU549
ARM GAS  C:\Users\minis\AppData\Local\Temp\cczlSevg.s 			page 50


 1645 062a E36B     		ldr	r3, [r4, #60]
 866:../../Drivers/STM32H7xx_HAL_Driver/Src/stm32h7xx_hal_rcc.c ****       {
 1646              		.loc 1 866 111 view .LVU550
 1647 062c 013B     		subs	r3, r3, #1
 865:../../Drivers/STM32H7xx_HAL_Driver/Src/stm32h7xx_hal_rcc.c ****           ((READ_BIT(temp2_pllckcfg, RCC_PLL1DIVR_R1) >> RCC_PLL1DIVR_R1_Pos) != (RCC_OscInitStruct
 1648              		.loc 1 865 118 view .LVU551
 1649 062e 9842     		cmp	r0, r3
 1650 0630 38D1     		bne	.L138
 873:../../Drivers/STM32H7xx_HAL_Driver/Src/stm32h7xx_hal_rcc.c ****         if (RCC_OscInitStruct->PLL.PLLFRACN != temp1_pllckcfg)
 1651              		.loc 1 873 9 is_stmt 1 view .LVU552
 873:../../Drivers/STM32H7xx_HAL_Driver/Src/stm32h7xx_hal_rcc.c ****         if (RCC_OscInitStruct->PLL.PLLFRACN != temp1_pllckcfg)
 1652              		.loc 1 873 31 is_stmt 0 view .LVU553
 1653 0632 1D4B     		ldr	r3, .L170
 1654 0634 5B6B     		ldr	r3, [r3, #52]
 873:../../Drivers/STM32H7xx_HAL_Driver/Src/stm32h7xx_hal_rcc.c ****         if (RCC_OscInitStruct->PLL.PLLFRACN != temp1_pllckcfg)
 1655              		.loc 1 873 24 view .LVU554
 1656 0636 C3F3CC03 		ubfx	r3, r3, #3, #13
 1657              	.LVL127:
 874:../../Drivers/STM32H7xx_HAL_Driver/Src/stm32h7xx_hal_rcc.c ****         {
 1658              		.loc 1 874 9 is_stmt 1 view .LVU555
 874:../../Drivers/STM32H7xx_HAL_Driver/Src/stm32h7xx_hal_rcc.c ****         {
 1659              		.loc 1 874 35 is_stmt 0 view .LVU556
 1660 063a A26C     		ldr	r2, [r4, #72]
 874:../../Drivers/STM32H7xx_HAL_Driver/Src/stm32h7xx_hal_rcc.c ****         {
 1661              		.loc 1 874 12 view .LVU557
 1662 063c 9A42     		cmp	r2, r3
 1663 063e 01D1     		bne	.L165
 1664              		.loc 1 893 10 view .LVU558
 1665 0640 0020     		movs	r0, #0
 1666 0642 22E0     		b	.L36
 1667              	.L165:
 876:../../Drivers/STM32H7xx_HAL_Driver/Src/stm32h7xx_hal_rcc.c ****           /* Disable PLL1FRACEN */
 1668              		.loc 1 876 11 is_stmt 1 view .LVU559
 878:../../Drivers/STM32H7xx_HAL_Driver/Src/stm32h7xx_hal_rcc.c ****           /* Get Start Tick*/
 1669              		.loc 1 878 11 view .LVU560
 1670 0644 184A     		ldr	r2, .L170
 1671 0646 D36A     		ldr	r3, [r2, #44]
 1672              	.LVL128:
 878:../../Drivers/STM32H7xx_HAL_Driver/Src/stm32h7xx_hal_rcc.c ****           /* Get Start Tick*/
 1673              		.loc 1 878 11 is_stmt 0 view .LVU561
 1674 0648 23F00103 		bic	r3, r3, #1
 1675 064c D362     		str	r3, [r2, #44]
 880:../../Drivers/STM32H7xx_HAL_Driver/Src/stm32h7xx_hal_rcc.c ****           /* Wait at least 2 CK_REF (PLL input source divided by M) period to make sure next latche
 1676              		.loc 1 880 11 is_stmt 1 view .LVU562
 880:../../Drivers/STM32H7xx_HAL_Driver/Src/stm32h7xx_hal_rcc.c ****           /* Wait at least 2 CK_REF (PLL input source divided by M) period to make sure next latche
 1677              		.loc 1 880 23 is_stmt 0 view .LVU563
 1678 064e FFF7FEFF 		bl	HAL_GetTick
 1679              	.LVL129:
 1680 0652 0546     		mov	r5, r0
 1681              	.LVL130:
 882:../../Drivers/STM32H7xx_HAL_Driver/Src/stm32h7xx_hal_rcc.c ****           {
 1682              		.loc 1 882 11 is_stmt 1 view .LVU564
 1683              	.L109:
 884:../../Drivers/STM32H7xx_HAL_Driver/Src/stm32h7xx_hal_rcc.c ****           /* Configure PLL1 PLL1FRACN */
 1684              		.loc 1 884 11 view .LVU565
 882:../../Drivers/STM32H7xx_HAL_Driver/Src/stm32h7xx_hal_rcc.c ****           {
 1685              		.loc 1 882 46 discriminator 1 view .LVU566
ARM GAS  C:\Users\minis\AppData\Local\Temp\cczlSevg.s 			page 51


 882:../../Drivers/STM32H7xx_HAL_Driver/Src/stm32h7xx_hal_rcc.c ****           {
 1686              		.loc 1 882 19 is_stmt 0 discriminator 1 view .LVU567
 1687 0654 FFF7FEFF 		bl	HAL_GetTick
 1688              	.LVL131:
 882:../../Drivers/STM32H7xx_HAL_Driver/Src/stm32h7xx_hal_rcc.c ****           {
 1689              		.loc 1 882 46 discriminator 1 view .LVU568
 1690 0658 A842     		cmp	r0, r5
 1691 065a FBD0     		beq	.L109
 886:../../Drivers/STM32H7xx_HAL_Driver/Src/stm32h7xx_hal_rcc.c ****           /* Enable PLL1FRACEN to latch new value. */
 1692              		.loc 1 886 11 is_stmt 1 view .LVU569
 1693 065c 124A     		ldr	r2, .L170
 1694 065e 536B     		ldr	r3, [r2, #52]
 1695 0660 6FF3CF03 		bfc	r3, #3, #13
 1696 0664 A16C     		ldr	r1, [r4, #72]
 1697 0666 43EAC103 		orr	r3, r3, r1, lsl #3
 1698 066a 5363     		str	r3, [r2, #52]
 888:../../Drivers/STM32H7xx_HAL_Driver/Src/stm32h7xx_hal_rcc.c ****         }
 1699              		.loc 1 888 11 view .LVU570
 1700 066c D36A     		ldr	r3, [r2, #44]
 1701 066e 43F00103 		orr	r3, r3, #1
 1702 0672 D362     		str	r3, [r2, #44]
 1703              		.loc 1 893 10 is_stmt 0 view .LVU571
 1704 0674 0020     		movs	r0, #0
 1705 0676 08E0     		b	.L36
 1706              	.LVL132:
 1707              	.L110:
 1708              	.LCFI2:
 1709              		.cfi_def_cfa_offset 0
 1710              		.cfi_restore 3
 1711              		.cfi_restore 4
 1712              		.cfi_restore 5
 1713              		.cfi_restore 14
 413:../../Drivers/STM32H7xx_HAL_Driver/Src/stm32h7xx_hal_rcc.c ****   }
 1714              		.loc 1 413 12 view .LVU572
 1715 0678 0120     		movs	r0, #1
 1716              	.LVL133:
 894:../../Drivers/STM32H7xx_HAL_Driver/Src/stm32h7xx_hal_rcc.c **** }
 1717              		.loc 1 894 1 view .LVU573
 1718 067a 7047     		bx	lr
 1719              	.LVL134:
 1720              	.L146:
 1721              	.LCFI3:
 1722              		.cfi_def_cfa_offset 16
 1723              		.cfi_offset 3, -16
 1724              		.cfi_offset 4, -12
 1725              		.cfi_offset 5, -8
 1726              		.cfi_offset 14, -4
 1727              	.LBB10:
 431:../../Drivers/STM32H7xx_HAL_Driver/Src/stm32h7xx_hal_rcc.c ****       }
 1728              		.loc 1 431 16 view .LVU574
 1729 067c 0120     		movs	r0, #1
 1730              	.LVL135:
 431:../../Drivers/STM32H7xx_HAL_Driver/Src/stm32h7xx_hal_rcc.c ****       }
 1731              		.loc 1 431 16 view .LVU575
 1732 067e 04E0     		b	.L36
 1733              	.LVL136:
 1734              	.L114:
ARM GAS  C:\Users\minis\AppData\Local\Temp\cczlSevg.s 			page 52


 431:../../Drivers/STM32H7xx_HAL_Driver/Src/stm32h7xx_hal_rcc.c ****       }
 1735              		.loc 1 431 16 view .LVU576
 1736              	.LBE10:
 1737              	.LBB11:
 485:../../Drivers/STM32H7xx_HAL_Driver/Src/stm32h7xx_hal_rcc.c ****       }
 1738              		.loc 1 485 16 view .LVU577
 1739 0680 0120     		movs	r0, #1
 1740 0682 02E0     		b	.L36
 1741              	.LVL137:
 1742              	.L118:
 485:../../Drivers/STM32H7xx_HAL_Driver/Src/stm32h7xx_hal_rcc.c ****       }
 1743              		.loc 1 485 16 view .LVU578
 1744              	.LBE11:
 1745              	.LBB12:
 566:../../Drivers/STM32H7xx_HAL_Driver/Src/stm32h7xx_hal_rcc.c ****       }
 1746              		.loc 1 566 16 view .LVU579
 1747 0684 0120     		movs	r0, #1
 1748 0686 00E0     		b	.L36
 1749              	.LVL138:
 1750              	.L128:
 566:../../Drivers/STM32H7xx_HAL_Driver/Src/stm32h7xx_hal_rcc.c ****       }
 1751              		.loc 1 566 16 view .LVU580
 1752              	.LBE12:
 893:../../Drivers/STM32H7xx_HAL_Driver/Src/stm32h7xx_hal_rcc.c **** }
 1753              		.loc 1 893 10 view .LVU581
 1754 0688 0020     		movs	r0, #0
 1755              	.LVL139:
 1756              	.L36:
 1757              		.loc 1 894 1 view .LVU582
 1758 068a 38BD     		pop	{r3, r4, r5, pc}
 1759              	.LVL140:
 1760              	.L132:
 868:../../Drivers/STM32H7xx_HAL_Driver/Src/stm32h7xx_hal_rcc.c ****       }
 1761              		.loc 1 868 16 view .LVU583
 1762 068c 0120     		movs	r0, #1
 1763              	.LVL141:
 868:../../Drivers/STM32H7xx_HAL_Driver/Src/stm32h7xx_hal_rcc.c ****       }
 1764              		.loc 1 868 16 view .LVU584
 1765 068e FCE7     		b	.L36
 1766              	.LVL142:
 1767              	.L133:
 868:../../Drivers/STM32H7xx_HAL_Driver/Src/stm32h7xx_hal_rcc.c ****       }
 1768              		.loc 1 868 16 view .LVU585
 1769 0690 0120     		movs	r0, #1
 1770              	.LVL143:
 868:../../Drivers/STM32H7xx_HAL_Driver/Src/stm32h7xx_hal_rcc.c ****       }
 1771              		.loc 1 868 16 view .LVU586
 1772 0692 FAE7     		b	.L36
 1773              	.LVL144:
 1774              	.L134:
 868:../../Drivers/STM32H7xx_HAL_Driver/Src/stm32h7xx_hal_rcc.c ****       }
 1775              		.loc 1 868 16 view .LVU587
 1776 0694 0120     		movs	r0, #1
 1777              	.LVL145:
 868:../../Drivers/STM32H7xx_HAL_Driver/Src/stm32h7xx_hal_rcc.c ****       }
 1778              		.loc 1 868 16 view .LVU588
 1779 0696 F8E7     		b	.L36
ARM GAS  C:\Users\minis\AppData\Local\Temp\cczlSevg.s 			page 53


 1780              	.LVL146:
 1781              	.L135:
 868:../../Drivers/STM32H7xx_HAL_Driver/Src/stm32h7xx_hal_rcc.c ****       }
 1782              		.loc 1 868 16 view .LVU589
 1783 0698 0120     		movs	r0, #1
 1784              	.LVL147:
 868:../../Drivers/STM32H7xx_HAL_Driver/Src/stm32h7xx_hal_rcc.c ****       }
 1785              		.loc 1 868 16 view .LVU590
 1786 069a F6E7     		b	.L36
 1787              	.LVL148:
 1788              	.L136:
 868:../../Drivers/STM32H7xx_HAL_Driver/Src/stm32h7xx_hal_rcc.c ****       }
 1789              		.loc 1 868 16 view .LVU591
 1790 069c 0120     		movs	r0, #1
 1791              	.LVL149:
 868:../../Drivers/STM32H7xx_HAL_Driver/Src/stm32h7xx_hal_rcc.c ****       }
 1792              		.loc 1 868 16 view .LVU592
 1793 069e F4E7     		b	.L36
 1794              	.LVL150:
 1795              	.L137:
 868:../../Drivers/STM32H7xx_HAL_Driver/Src/stm32h7xx_hal_rcc.c ****       }
 1796              		.loc 1 868 16 view .LVU593
 1797 06a0 0120     		movs	r0, #1
 1798              	.LVL151:
 868:../../Drivers/STM32H7xx_HAL_Driver/Src/stm32h7xx_hal_rcc.c ****       }
 1799              		.loc 1 868 16 view .LVU594
 1800 06a2 F2E7     		b	.L36
 1801              	.L138:
 1802 06a4 0120     		movs	r0, #1
 1803 06a6 F0E7     		b	.L36
 1804              	.L171:
 1805              		.align	2
 1806              	.L170:
 1807 06a8 00440258 		.word	1476543488
 1808 06ac 0CFCFFFF 		.word	-1012
 1809              		.cfi_endproc
 1810              	.LFE145:
 1812              		.section	.text.HAL_RCC_MCOConfig,"ax",%progbits
 1813              		.align	1
 1814              		.global	HAL_RCC_MCOConfig
 1815              		.syntax unified
 1816              		.thumb
 1817              		.thumb_func
 1819              	HAL_RCC_MCOConfig:
 1820              	.LVL152:
 1821              	.LFB147:
 895:../../Drivers/STM32H7xx_HAL_Driver/Src/stm32h7xx_hal_rcc.c **** 
 896:../../Drivers/STM32H7xx_HAL_Driver/Src/stm32h7xx_hal_rcc.c **** /**
 897:../../Drivers/STM32H7xx_HAL_Driver/Src/stm32h7xx_hal_rcc.c ****   * @brief  Initializes the CPU, AHB and APB buses clocks according to the specified
 898:../../Drivers/STM32H7xx_HAL_Driver/Src/stm32h7xx_hal_rcc.c ****   *         parameters in the RCC_ClkInitStruct.
 899:../../Drivers/STM32H7xx_HAL_Driver/Src/stm32h7xx_hal_rcc.c ****   * @param  RCC_ClkInitStruct: pointer to an RCC_OscInitTypeDef structure that
 900:../../Drivers/STM32H7xx_HAL_Driver/Src/stm32h7xx_hal_rcc.c ****   *         contains the configuration information for the RCC peripheral.
 901:../../Drivers/STM32H7xx_HAL_Driver/Src/stm32h7xx_hal_rcc.c ****   * @param  FLatency: FLASH Latency, this parameter depend on device selected
 902:../../Drivers/STM32H7xx_HAL_Driver/Src/stm32h7xx_hal_rcc.c ****   *
 903:../../Drivers/STM32H7xx_HAL_Driver/Src/stm32h7xx_hal_rcc.c ****   * @note   The SystemCoreClock CMSIS variable is used to store System Core Clock Frequency
 904:../../Drivers/STM32H7xx_HAL_Driver/Src/stm32h7xx_hal_rcc.c ****   *         and updated by HAL_InitTick() function called within this function
 905:../../Drivers/STM32H7xx_HAL_Driver/Src/stm32h7xx_hal_rcc.c ****   *
ARM GAS  C:\Users\minis\AppData\Local\Temp\cczlSevg.s 			page 54


 906:../../Drivers/STM32H7xx_HAL_Driver/Src/stm32h7xx_hal_rcc.c ****   * @note   The HSI is used (enabled by hardware) as system clock source after
 907:../../Drivers/STM32H7xx_HAL_Driver/Src/stm32h7xx_hal_rcc.c ****   *         start-up from Reset, wake-up from STOP and STANDBY mode, or in case
 908:../../Drivers/STM32H7xx_HAL_Driver/Src/stm32h7xx_hal_rcc.c ****   *         of failure of the HSE used directly or indirectly as system clock
 909:../../Drivers/STM32H7xx_HAL_Driver/Src/stm32h7xx_hal_rcc.c ****   *         (if the Clock Security System CSS is enabled).
 910:../../Drivers/STM32H7xx_HAL_Driver/Src/stm32h7xx_hal_rcc.c ****   *
 911:../../Drivers/STM32H7xx_HAL_Driver/Src/stm32h7xx_hal_rcc.c ****   * @note   A switch from one clock source to another occurs only if the target
 912:../../Drivers/STM32H7xx_HAL_Driver/Src/stm32h7xx_hal_rcc.c ****   *         clock source is ready (clock stable after start-up delay or PLL locked).
 913:../../Drivers/STM32H7xx_HAL_Driver/Src/stm32h7xx_hal_rcc.c ****   *         If a clock source which is not yet ready is selected, the switch will
 914:../../Drivers/STM32H7xx_HAL_Driver/Src/stm32h7xx_hal_rcc.c ****   *         occur when the clock source will be ready.
 915:../../Drivers/STM32H7xx_HAL_Driver/Src/stm32h7xx_hal_rcc.c ****   *         You can use HAL_RCC_GetClockConfig() function to know which clock is
 916:../../Drivers/STM32H7xx_HAL_Driver/Src/stm32h7xx_hal_rcc.c ****   *         currently used as system clock source.
 917:../../Drivers/STM32H7xx_HAL_Driver/Src/stm32h7xx_hal_rcc.c ****   * @note   Depending on the device voltage range, the software has to set correctly
 918:../../Drivers/STM32H7xx_HAL_Driver/Src/stm32h7xx_hal_rcc.c ****   *         D1CPRE[3:0] bits to ensure that  Domain1 core clock not exceed the maximum allowed freq
 919:../../Drivers/STM32H7xx_HAL_Driver/Src/stm32h7xx_hal_rcc.c ****   *         (for more details refer to section above "Initialization/de-initialization functions")
 920:../../Drivers/STM32H7xx_HAL_Driver/Src/stm32h7xx_hal_rcc.c ****   * @retval None
 921:../../Drivers/STM32H7xx_HAL_Driver/Src/stm32h7xx_hal_rcc.c ****   */
 922:../../Drivers/STM32H7xx_HAL_Driver/Src/stm32h7xx_hal_rcc.c **** HAL_StatusTypeDef HAL_RCC_ClockConfig(const RCC_ClkInitTypeDef  *RCC_ClkInitStruct, uint32_t FLaten
 923:../../Drivers/STM32H7xx_HAL_Driver/Src/stm32h7xx_hal_rcc.c **** {
 924:../../Drivers/STM32H7xx_HAL_Driver/Src/stm32h7xx_hal_rcc.c ****   HAL_StatusTypeDef halstatus;
 925:../../Drivers/STM32H7xx_HAL_Driver/Src/stm32h7xx_hal_rcc.c ****   uint32_t tickstart;
 926:../../Drivers/STM32H7xx_HAL_Driver/Src/stm32h7xx_hal_rcc.c ****   uint32_t common_system_clock;
 927:../../Drivers/STM32H7xx_HAL_Driver/Src/stm32h7xx_hal_rcc.c **** 
 928:../../Drivers/STM32H7xx_HAL_Driver/Src/stm32h7xx_hal_rcc.c ****   /* Check Null pointer */
 929:../../Drivers/STM32H7xx_HAL_Driver/Src/stm32h7xx_hal_rcc.c ****   if (RCC_ClkInitStruct == NULL)
 930:../../Drivers/STM32H7xx_HAL_Driver/Src/stm32h7xx_hal_rcc.c ****   {
 931:../../Drivers/STM32H7xx_HAL_Driver/Src/stm32h7xx_hal_rcc.c ****     return HAL_ERROR;
 932:../../Drivers/STM32H7xx_HAL_Driver/Src/stm32h7xx_hal_rcc.c ****   }
 933:../../Drivers/STM32H7xx_HAL_Driver/Src/stm32h7xx_hal_rcc.c **** 
 934:../../Drivers/STM32H7xx_HAL_Driver/Src/stm32h7xx_hal_rcc.c ****   /* Check the parameters */
 935:../../Drivers/STM32H7xx_HAL_Driver/Src/stm32h7xx_hal_rcc.c ****   assert_param(IS_RCC_CLOCKTYPE(RCC_ClkInitStruct->ClockType));
 936:../../Drivers/STM32H7xx_HAL_Driver/Src/stm32h7xx_hal_rcc.c ****   assert_param(IS_FLASH_LATENCY(FLatency));
 937:../../Drivers/STM32H7xx_HAL_Driver/Src/stm32h7xx_hal_rcc.c **** 
 938:../../Drivers/STM32H7xx_HAL_Driver/Src/stm32h7xx_hal_rcc.c ****   /* To correctly read data from FLASH memory, the number of wait states (LATENCY)
 939:../../Drivers/STM32H7xx_HAL_Driver/Src/stm32h7xx_hal_rcc.c ****     must be correctly programmed according to the frequency of the CPU clock
 940:../../Drivers/STM32H7xx_HAL_Driver/Src/stm32h7xx_hal_rcc.c ****     (HCLK) and the supply voltage of the device. */
 941:../../Drivers/STM32H7xx_HAL_Driver/Src/stm32h7xx_hal_rcc.c **** 
 942:../../Drivers/STM32H7xx_HAL_Driver/Src/stm32h7xx_hal_rcc.c ****   /* Increasing the CPU frequency */
 943:../../Drivers/STM32H7xx_HAL_Driver/Src/stm32h7xx_hal_rcc.c ****   if (FLatency > __HAL_FLASH_GET_LATENCY())
 944:../../Drivers/STM32H7xx_HAL_Driver/Src/stm32h7xx_hal_rcc.c ****   {
 945:../../Drivers/STM32H7xx_HAL_Driver/Src/stm32h7xx_hal_rcc.c ****     /* Program the new number of wait states to the LATENCY bits in the FLASH_ACR register */
 946:../../Drivers/STM32H7xx_HAL_Driver/Src/stm32h7xx_hal_rcc.c ****     __HAL_FLASH_SET_LATENCY(FLatency);
 947:../../Drivers/STM32H7xx_HAL_Driver/Src/stm32h7xx_hal_rcc.c **** 
 948:../../Drivers/STM32H7xx_HAL_Driver/Src/stm32h7xx_hal_rcc.c ****     /* Check that the new number of wait states is taken into account to access the Flash
 949:../../Drivers/STM32H7xx_HAL_Driver/Src/stm32h7xx_hal_rcc.c ****     memory by reading the FLASH_ACR register */
 950:../../Drivers/STM32H7xx_HAL_Driver/Src/stm32h7xx_hal_rcc.c ****     if (__HAL_FLASH_GET_LATENCY() != FLatency)
 951:../../Drivers/STM32H7xx_HAL_Driver/Src/stm32h7xx_hal_rcc.c ****     {
 952:../../Drivers/STM32H7xx_HAL_Driver/Src/stm32h7xx_hal_rcc.c ****       return HAL_ERROR;
 953:../../Drivers/STM32H7xx_HAL_Driver/Src/stm32h7xx_hal_rcc.c ****     }
 954:../../Drivers/STM32H7xx_HAL_Driver/Src/stm32h7xx_hal_rcc.c **** 
 955:../../Drivers/STM32H7xx_HAL_Driver/Src/stm32h7xx_hal_rcc.c ****   }
 956:../../Drivers/STM32H7xx_HAL_Driver/Src/stm32h7xx_hal_rcc.c **** 
 957:../../Drivers/STM32H7xx_HAL_Driver/Src/stm32h7xx_hal_rcc.c ****   /* Increasing the BUS frequency divider */
 958:../../Drivers/STM32H7xx_HAL_Driver/Src/stm32h7xx_hal_rcc.c ****   /*-------------------------- D1PCLK1/CDPCLK1 Configuration ---------------------------*/
 959:../../Drivers/STM32H7xx_HAL_Driver/Src/stm32h7xx_hal_rcc.c ****   if (((RCC_ClkInitStruct->ClockType) & RCC_CLOCKTYPE_D1PCLK1) == RCC_CLOCKTYPE_D1PCLK1)
 960:../../Drivers/STM32H7xx_HAL_Driver/Src/stm32h7xx_hal_rcc.c ****   {
 961:../../Drivers/STM32H7xx_HAL_Driver/Src/stm32h7xx_hal_rcc.c **** #if defined (RCC_D1CFGR_D1PPRE)
 962:../../Drivers/STM32H7xx_HAL_Driver/Src/stm32h7xx_hal_rcc.c ****     if ((RCC_ClkInitStruct->APB3CLKDivider) > (RCC->D1CFGR & RCC_D1CFGR_D1PPRE))
ARM GAS  C:\Users\minis\AppData\Local\Temp\cczlSevg.s 			page 55


 963:../../Drivers/STM32H7xx_HAL_Driver/Src/stm32h7xx_hal_rcc.c ****     {
 964:../../Drivers/STM32H7xx_HAL_Driver/Src/stm32h7xx_hal_rcc.c ****       assert_param(IS_RCC_D1PCLK1(RCC_ClkInitStruct->APB3CLKDivider));
 965:../../Drivers/STM32H7xx_HAL_Driver/Src/stm32h7xx_hal_rcc.c ****       MODIFY_REG(RCC->D1CFGR, RCC_D1CFGR_D1PPRE, RCC_ClkInitStruct->APB3CLKDivider);
 966:../../Drivers/STM32H7xx_HAL_Driver/Src/stm32h7xx_hal_rcc.c ****     }
 967:../../Drivers/STM32H7xx_HAL_Driver/Src/stm32h7xx_hal_rcc.c **** #else
 968:../../Drivers/STM32H7xx_HAL_Driver/Src/stm32h7xx_hal_rcc.c ****     if ((RCC_ClkInitStruct->APB3CLKDivider) > (RCC->CDCFGR1 & RCC_CDCFGR1_CDPPRE))
 969:../../Drivers/STM32H7xx_HAL_Driver/Src/stm32h7xx_hal_rcc.c ****     {
 970:../../Drivers/STM32H7xx_HAL_Driver/Src/stm32h7xx_hal_rcc.c ****       assert_param(IS_RCC_CDPCLK1(RCC_ClkInitStruct->APB3CLKDivider));
 971:../../Drivers/STM32H7xx_HAL_Driver/Src/stm32h7xx_hal_rcc.c ****       MODIFY_REG(RCC->CDCFGR1, RCC_CDCFGR1_CDPPRE, RCC_ClkInitStruct->APB3CLKDivider);
 972:../../Drivers/STM32H7xx_HAL_Driver/Src/stm32h7xx_hal_rcc.c ****     }
 973:../../Drivers/STM32H7xx_HAL_Driver/Src/stm32h7xx_hal_rcc.c **** #endif
 974:../../Drivers/STM32H7xx_HAL_Driver/Src/stm32h7xx_hal_rcc.c ****   }
 975:../../Drivers/STM32H7xx_HAL_Driver/Src/stm32h7xx_hal_rcc.c **** 
 976:../../Drivers/STM32H7xx_HAL_Driver/Src/stm32h7xx_hal_rcc.c ****   /*-------------------------- PCLK1 Configuration ---------------------------*/
 977:../../Drivers/STM32H7xx_HAL_Driver/Src/stm32h7xx_hal_rcc.c ****   if (((RCC_ClkInitStruct->ClockType) & RCC_CLOCKTYPE_PCLK1) == RCC_CLOCKTYPE_PCLK1)
 978:../../Drivers/STM32H7xx_HAL_Driver/Src/stm32h7xx_hal_rcc.c ****   {
 979:../../Drivers/STM32H7xx_HAL_Driver/Src/stm32h7xx_hal_rcc.c **** #if defined (RCC_D2CFGR_D2PPRE1)
 980:../../Drivers/STM32H7xx_HAL_Driver/Src/stm32h7xx_hal_rcc.c ****     if ((RCC_ClkInitStruct->APB1CLKDivider) > (RCC->D2CFGR & RCC_D2CFGR_D2PPRE1))
 981:../../Drivers/STM32H7xx_HAL_Driver/Src/stm32h7xx_hal_rcc.c ****     {
 982:../../Drivers/STM32H7xx_HAL_Driver/Src/stm32h7xx_hal_rcc.c ****       assert_param(IS_RCC_PCLK1(RCC_ClkInitStruct->APB1CLKDivider));
 983:../../Drivers/STM32H7xx_HAL_Driver/Src/stm32h7xx_hal_rcc.c ****       MODIFY_REG(RCC->D2CFGR, RCC_D2CFGR_D2PPRE1, (RCC_ClkInitStruct->APB1CLKDivider));
 984:../../Drivers/STM32H7xx_HAL_Driver/Src/stm32h7xx_hal_rcc.c ****     }
 985:../../Drivers/STM32H7xx_HAL_Driver/Src/stm32h7xx_hal_rcc.c **** #else
 986:../../Drivers/STM32H7xx_HAL_Driver/Src/stm32h7xx_hal_rcc.c ****     if ((RCC_ClkInitStruct->APB1CLKDivider) > (RCC->CDCFGR2 & RCC_CDCFGR2_CDPPRE1))
 987:../../Drivers/STM32H7xx_HAL_Driver/Src/stm32h7xx_hal_rcc.c ****     {
 988:../../Drivers/STM32H7xx_HAL_Driver/Src/stm32h7xx_hal_rcc.c ****       assert_param(IS_RCC_PCLK1(RCC_ClkInitStruct->APB1CLKDivider));
 989:../../Drivers/STM32H7xx_HAL_Driver/Src/stm32h7xx_hal_rcc.c ****       MODIFY_REG(RCC->CDCFGR2, RCC_CDCFGR2_CDPPRE1, (RCC_ClkInitStruct->APB1CLKDivider));
 990:../../Drivers/STM32H7xx_HAL_Driver/Src/stm32h7xx_hal_rcc.c ****     }
 991:../../Drivers/STM32H7xx_HAL_Driver/Src/stm32h7xx_hal_rcc.c **** #endif
 992:../../Drivers/STM32H7xx_HAL_Driver/Src/stm32h7xx_hal_rcc.c ****   }
 993:../../Drivers/STM32H7xx_HAL_Driver/Src/stm32h7xx_hal_rcc.c ****   /*-------------------------- PCLK2 Configuration ---------------------------*/
 994:../../Drivers/STM32H7xx_HAL_Driver/Src/stm32h7xx_hal_rcc.c ****   if (((RCC_ClkInitStruct->ClockType) & RCC_CLOCKTYPE_PCLK2) == RCC_CLOCKTYPE_PCLK2)
 995:../../Drivers/STM32H7xx_HAL_Driver/Src/stm32h7xx_hal_rcc.c ****   {
 996:../../Drivers/STM32H7xx_HAL_Driver/Src/stm32h7xx_hal_rcc.c **** #if defined(RCC_D2CFGR_D2PPRE2)
 997:../../Drivers/STM32H7xx_HAL_Driver/Src/stm32h7xx_hal_rcc.c ****     if ((RCC_ClkInitStruct->APB2CLKDivider) > (RCC->D2CFGR & RCC_D2CFGR_D2PPRE2))
 998:../../Drivers/STM32H7xx_HAL_Driver/Src/stm32h7xx_hal_rcc.c ****     {
 999:../../Drivers/STM32H7xx_HAL_Driver/Src/stm32h7xx_hal_rcc.c ****       assert_param(IS_RCC_PCLK2(RCC_ClkInitStruct->APB2CLKDivider));
1000:../../Drivers/STM32H7xx_HAL_Driver/Src/stm32h7xx_hal_rcc.c ****       MODIFY_REG(RCC->D2CFGR, RCC_D2CFGR_D2PPRE2, (RCC_ClkInitStruct->APB2CLKDivider));
1001:../../Drivers/STM32H7xx_HAL_Driver/Src/stm32h7xx_hal_rcc.c ****     }
1002:../../Drivers/STM32H7xx_HAL_Driver/Src/stm32h7xx_hal_rcc.c **** #else
1003:../../Drivers/STM32H7xx_HAL_Driver/Src/stm32h7xx_hal_rcc.c ****     if ((RCC_ClkInitStruct->APB2CLKDivider) > (RCC->CDCFGR2 & RCC_CDCFGR2_CDPPRE2))
1004:../../Drivers/STM32H7xx_HAL_Driver/Src/stm32h7xx_hal_rcc.c ****     {
1005:../../Drivers/STM32H7xx_HAL_Driver/Src/stm32h7xx_hal_rcc.c ****       assert_param(IS_RCC_PCLK2(RCC_ClkInitStruct->APB2CLKDivider));
1006:../../Drivers/STM32H7xx_HAL_Driver/Src/stm32h7xx_hal_rcc.c ****       MODIFY_REG(RCC->CDCFGR2, RCC_CDCFGR2_CDPPRE2, (RCC_ClkInitStruct->APB2CLKDivider));
1007:../../Drivers/STM32H7xx_HAL_Driver/Src/stm32h7xx_hal_rcc.c ****     }
1008:../../Drivers/STM32H7xx_HAL_Driver/Src/stm32h7xx_hal_rcc.c **** #endif
1009:../../Drivers/STM32H7xx_HAL_Driver/Src/stm32h7xx_hal_rcc.c ****   }
1010:../../Drivers/STM32H7xx_HAL_Driver/Src/stm32h7xx_hal_rcc.c **** 
1011:../../Drivers/STM32H7xx_HAL_Driver/Src/stm32h7xx_hal_rcc.c ****   /*-------------------------- D3PCLK1 Configuration ---------------------------*/
1012:../../Drivers/STM32H7xx_HAL_Driver/Src/stm32h7xx_hal_rcc.c ****   if (((RCC_ClkInitStruct->ClockType) & RCC_CLOCKTYPE_D3PCLK1) == RCC_CLOCKTYPE_D3PCLK1)
1013:../../Drivers/STM32H7xx_HAL_Driver/Src/stm32h7xx_hal_rcc.c ****   {
1014:../../Drivers/STM32H7xx_HAL_Driver/Src/stm32h7xx_hal_rcc.c **** #if defined(RCC_D3CFGR_D3PPRE)
1015:../../Drivers/STM32H7xx_HAL_Driver/Src/stm32h7xx_hal_rcc.c ****     if ((RCC_ClkInitStruct->APB4CLKDivider) > (RCC->D3CFGR & RCC_D3CFGR_D3PPRE))
1016:../../Drivers/STM32H7xx_HAL_Driver/Src/stm32h7xx_hal_rcc.c ****     {
1017:../../Drivers/STM32H7xx_HAL_Driver/Src/stm32h7xx_hal_rcc.c ****       assert_param(IS_RCC_D3PCLK1(RCC_ClkInitStruct->APB4CLKDivider));
1018:../../Drivers/STM32H7xx_HAL_Driver/Src/stm32h7xx_hal_rcc.c ****       MODIFY_REG(RCC->D3CFGR, RCC_D3CFGR_D3PPRE, (RCC_ClkInitStruct->APB4CLKDivider));
1019:../../Drivers/STM32H7xx_HAL_Driver/Src/stm32h7xx_hal_rcc.c ****     }
ARM GAS  C:\Users\minis\AppData\Local\Temp\cczlSevg.s 			page 56


1020:../../Drivers/STM32H7xx_HAL_Driver/Src/stm32h7xx_hal_rcc.c **** #else
1021:../../Drivers/STM32H7xx_HAL_Driver/Src/stm32h7xx_hal_rcc.c ****     if ((RCC_ClkInitStruct->APB4CLKDivider) > (RCC->SRDCFGR & RCC_SRDCFGR_SRDPPRE))
1022:../../Drivers/STM32H7xx_HAL_Driver/Src/stm32h7xx_hal_rcc.c ****     {
1023:../../Drivers/STM32H7xx_HAL_Driver/Src/stm32h7xx_hal_rcc.c ****       assert_param(IS_RCC_D3PCLK1(RCC_ClkInitStruct->APB4CLKDivider));
1024:../../Drivers/STM32H7xx_HAL_Driver/Src/stm32h7xx_hal_rcc.c ****       MODIFY_REG(RCC->SRDCFGR, RCC_SRDCFGR_SRDPPRE, (RCC_ClkInitStruct->APB4CLKDivider));
1025:../../Drivers/STM32H7xx_HAL_Driver/Src/stm32h7xx_hal_rcc.c ****     }
1026:../../Drivers/STM32H7xx_HAL_Driver/Src/stm32h7xx_hal_rcc.c **** #endif
1027:../../Drivers/STM32H7xx_HAL_Driver/Src/stm32h7xx_hal_rcc.c ****   }
1028:../../Drivers/STM32H7xx_HAL_Driver/Src/stm32h7xx_hal_rcc.c **** 
1029:../../Drivers/STM32H7xx_HAL_Driver/Src/stm32h7xx_hal_rcc.c ****   /*-------------------------- HCLK Configuration --------------------------*/
1030:../../Drivers/STM32H7xx_HAL_Driver/Src/stm32h7xx_hal_rcc.c ****   if (((RCC_ClkInitStruct->ClockType) & RCC_CLOCKTYPE_HCLK) == RCC_CLOCKTYPE_HCLK)
1031:../../Drivers/STM32H7xx_HAL_Driver/Src/stm32h7xx_hal_rcc.c ****   {
1032:../../Drivers/STM32H7xx_HAL_Driver/Src/stm32h7xx_hal_rcc.c **** #if defined (RCC_D1CFGR_HPRE)
1033:../../Drivers/STM32H7xx_HAL_Driver/Src/stm32h7xx_hal_rcc.c ****     if ((RCC_ClkInitStruct->AHBCLKDivider) > (RCC->D1CFGR & RCC_D1CFGR_HPRE))
1034:../../Drivers/STM32H7xx_HAL_Driver/Src/stm32h7xx_hal_rcc.c ****     {
1035:../../Drivers/STM32H7xx_HAL_Driver/Src/stm32h7xx_hal_rcc.c ****       /* Set the new HCLK clock divider */
1036:../../Drivers/STM32H7xx_HAL_Driver/Src/stm32h7xx_hal_rcc.c ****       assert_param(IS_RCC_HCLK(RCC_ClkInitStruct->AHBCLKDivider));
1037:../../Drivers/STM32H7xx_HAL_Driver/Src/stm32h7xx_hal_rcc.c ****       MODIFY_REG(RCC->D1CFGR, RCC_D1CFGR_HPRE, RCC_ClkInitStruct->AHBCLKDivider);
1038:../../Drivers/STM32H7xx_HAL_Driver/Src/stm32h7xx_hal_rcc.c ****     }
1039:../../Drivers/STM32H7xx_HAL_Driver/Src/stm32h7xx_hal_rcc.c **** #else
1040:../../Drivers/STM32H7xx_HAL_Driver/Src/stm32h7xx_hal_rcc.c ****     if ((RCC_ClkInitStruct->AHBCLKDivider) > (RCC->CDCFGR1 & RCC_CDCFGR1_HPRE))
1041:../../Drivers/STM32H7xx_HAL_Driver/Src/stm32h7xx_hal_rcc.c ****     {
1042:../../Drivers/STM32H7xx_HAL_Driver/Src/stm32h7xx_hal_rcc.c ****       /* Set the new HCLK clock divider */
1043:../../Drivers/STM32H7xx_HAL_Driver/Src/stm32h7xx_hal_rcc.c ****       assert_param(IS_RCC_HCLK(RCC_ClkInitStruct->AHBCLKDivider));
1044:../../Drivers/STM32H7xx_HAL_Driver/Src/stm32h7xx_hal_rcc.c ****       MODIFY_REG(RCC->CDCFGR1, RCC_CDCFGR1_HPRE, RCC_ClkInitStruct->AHBCLKDivider);
1045:../../Drivers/STM32H7xx_HAL_Driver/Src/stm32h7xx_hal_rcc.c ****     }
1046:../../Drivers/STM32H7xx_HAL_Driver/Src/stm32h7xx_hal_rcc.c **** #endif
1047:../../Drivers/STM32H7xx_HAL_Driver/Src/stm32h7xx_hal_rcc.c ****   }
1048:../../Drivers/STM32H7xx_HAL_Driver/Src/stm32h7xx_hal_rcc.c **** 
1049:../../Drivers/STM32H7xx_HAL_Driver/Src/stm32h7xx_hal_rcc.c ****   /*------------------------- SYSCLK Configuration -------------------------*/
1050:../../Drivers/STM32H7xx_HAL_Driver/Src/stm32h7xx_hal_rcc.c ****   if (((RCC_ClkInitStruct->ClockType) & RCC_CLOCKTYPE_SYSCLK) == RCC_CLOCKTYPE_SYSCLK)
1051:../../Drivers/STM32H7xx_HAL_Driver/Src/stm32h7xx_hal_rcc.c ****   {
1052:../../Drivers/STM32H7xx_HAL_Driver/Src/stm32h7xx_hal_rcc.c ****     assert_param(IS_RCC_SYSCLK(RCC_ClkInitStruct->SYSCLKDivider));
1053:../../Drivers/STM32H7xx_HAL_Driver/Src/stm32h7xx_hal_rcc.c ****     assert_param(IS_RCC_SYSCLKSOURCE(RCC_ClkInitStruct->SYSCLKSource));
1054:../../Drivers/STM32H7xx_HAL_Driver/Src/stm32h7xx_hal_rcc.c **** #if defined(RCC_D1CFGR_D1CPRE)
1055:../../Drivers/STM32H7xx_HAL_Driver/Src/stm32h7xx_hal_rcc.c ****     MODIFY_REG(RCC->D1CFGR, RCC_D1CFGR_D1CPRE, RCC_ClkInitStruct->SYSCLKDivider);
1056:../../Drivers/STM32H7xx_HAL_Driver/Src/stm32h7xx_hal_rcc.c **** #else
1057:../../Drivers/STM32H7xx_HAL_Driver/Src/stm32h7xx_hal_rcc.c ****     MODIFY_REG(RCC->CDCFGR1, RCC_CDCFGR1_CDCPRE, RCC_ClkInitStruct->SYSCLKDivider);
1058:../../Drivers/STM32H7xx_HAL_Driver/Src/stm32h7xx_hal_rcc.c **** #endif
1059:../../Drivers/STM32H7xx_HAL_Driver/Src/stm32h7xx_hal_rcc.c ****     /* HSE is selected as System Clock Source */
1060:../../Drivers/STM32H7xx_HAL_Driver/Src/stm32h7xx_hal_rcc.c ****     if (RCC_ClkInitStruct->SYSCLKSource == RCC_SYSCLKSOURCE_HSE)
1061:../../Drivers/STM32H7xx_HAL_Driver/Src/stm32h7xx_hal_rcc.c ****     {
1062:../../Drivers/STM32H7xx_HAL_Driver/Src/stm32h7xx_hal_rcc.c ****       /* Check the HSE ready flag */
1063:../../Drivers/STM32H7xx_HAL_Driver/Src/stm32h7xx_hal_rcc.c ****       if (__HAL_RCC_GET_FLAG(RCC_FLAG_HSERDY) == 0U)
1064:../../Drivers/STM32H7xx_HAL_Driver/Src/stm32h7xx_hal_rcc.c ****       {
1065:../../Drivers/STM32H7xx_HAL_Driver/Src/stm32h7xx_hal_rcc.c ****         return HAL_ERROR;
1066:../../Drivers/STM32H7xx_HAL_Driver/Src/stm32h7xx_hal_rcc.c ****       }
1067:../../Drivers/STM32H7xx_HAL_Driver/Src/stm32h7xx_hal_rcc.c ****     }
1068:../../Drivers/STM32H7xx_HAL_Driver/Src/stm32h7xx_hal_rcc.c ****     /* PLL is selected as System Clock Source */
1069:../../Drivers/STM32H7xx_HAL_Driver/Src/stm32h7xx_hal_rcc.c ****     else if (RCC_ClkInitStruct->SYSCLKSource == RCC_SYSCLKSOURCE_PLLCLK)
1070:../../Drivers/STM32H7xx_HAL_Driver/Src/stm32h7xx_hal_rcc.c ****     {
1071:../../Drivers/STM32H7xx_HAL_Driver/Src/stm32h7xx_hal_rcc.c ****       /* Check the PLL ready flag */
1072:../../Drivers/STM32H7xx_HAL_Driver/Src/stm32h7xx_hal_rcc.c ****       if (__HAL_RCC_GET_FLAG(RCC_FLAG_PLLRDY) == 0U)
1073:../../Drivers/STM32H7xx_HAL_Driver/Src/stm32h7xx_hal_rcc.c ****       {
1074:../../Drivers/STM32H7xx_HAL_Driver/Src/stm32h7xx_hal_rcc.c ****         return HAL_ERROR;
1075:../../Drivers/STM32H7xx_HAL_Driver/Src/stm32h7xx_hal_rcc.c ****       }
1076:../../Drivers/STM32H7xx_HAL_Driver/Src/stm32h7xx_hal_rcc.c ****     }
ARM GAS  C:\Users\minis\AppData\Local\Temp\cczlSevg.s 			page 57


1077:../../Drivers/STM32H7xx_HAL_Driver/Src/stm32h7xx_hal_rcc.c ****     /* CSI is selected as System Clock Source */
1078:../../Drivers/STM32H7xx_HAL_Driver/Src/stm32h7xx_hal_rcc.c ****     else if (RCC_ClkInitStruct->SYSCLKSource == RCC_SYSCLKSOURCE_CSI)
1079:../../Drivers/STM32H7xx_HAL_Driver/Src/stm32h7xx_hal_rcc.c ****     {
1080:../../Drivers/STM32H7xx_HAL_Driver/Src/stm32h7xx_hal_rcc.c ****       /* Check the PLL ready flag */
1081:../../Drivers/STM32H7xx_HAL_Driver/Src/stm32h7xx_hal_rcc.c ****       if (__HAL_RCC_GET_FLAG(RCC_FLAG_CSIRDY) == 0U)
1082:../../Drivers/STM32H7xx_HAL_Driver/Src/stm32h7xx_hal_rcc.c ****       {
1083:../../Drivers/STM32H7xx_HAL_Driver/Src/stm32h7xx_hal_rcc.c ****         return HAL_ERROR;
1084:../../Drivers/STM32H7xx_HAL_Driver/Src/stm32h7xx_hal_rcc.c ****       }
1085:../../Drivers/STM32H7xx_HAL_Driver/Src/stm32h7xx_hal_rcc.c ****     }
1086:../../Drivers/STM32H7xx_HAL_Driver/Src/stm32h7xx_hal_rcc.c ****     /* HSI is selected as System Clock Source */
1087:../../Drivers/STM32H7xx_HAL_Driver/Src/stm32h7xx_hal_rcc.c ****     else
1088:../../Drivers/STM32H7xx_HAL_Driver/Src/stm32h7xx_hal_rcc.c ****     {
1089:../../Drivers/STM32H7xx_HAL_Driver/Src/stm32h7xx_hal_rcc.c ****       /* Check the HSI ready flag */
1090:../../Drivers/STM32H7xx_HAL_Driver/Src/stm32h7xx_hal_rcc.c ****       if (__HAL_RCC_GET_FLAG(RCC_FLAG_HSIRDY) == 0U)
1091:../../Drivers/STM32H7xx_HAL_Driver/Src/stm32h7xx_hal_rcc.c ****       {
1092:../../Drivers/STM32H7xx_HAL_Driver/Src/stm32h7xx_hal_rcc.c ****         return HAL_ERROR;
1093:../../Drivers/STM32H7xx_HAL_Driver/Src/stm32h7xx_hal_rcc.c ****       }
1094:../../Drivers/STM32H7xx_HAL_Driver/Src/stm32h7xx_hal_rcc.c ****     }
1095:../../Drivers/STM32H7xx_HAL_Driver/Src/stm32h7xx_hal_rcc.c ****     MODIFY_REG(RCC->CFGR, RCC_CFGR_SW, RCC_ClkInitStruct->SYSCLKSource);
1096:../../Drivers/STM32H7xx_HAL_Driver/Src/stm32h7xx_hal_rcc.c **** 
1097:../../Drivers/STM32H7xx_HAL_Driver/Src/stm32h7xx_hal_rcc.c ****     /* Get Start Tick*/
1098:../../Drivers/STM32H7xx_HAL_Driver/Src/stm32h7xx_hal_rcc.c ****     tickstart = HAL_GetTick();
1099:../../Drivers/STM32H7xx_HAL_Driver/Src/stm32h7xx_hal_rcc.c **** 
1100:../../Drivers/STM32H7xx_HAL_Driver/Src/stm32h7xx_hal_rcc.c ****     while (__HAL_RCC_GET_SYSCLK_SOURCE() != (RCC_ClkInitStruct->SYSCLKSource << RCC_CFGR_SWS_Pos))
1101:../../Drivers/STM32H7xx_HAL_Driver/Src/stm32h7xx_hal_rcc.c ****     {
1102:../../Drivers/STM32H7xx_HAL_Driver/Src/stm32h7xx_hal_rcc.c ****       if ((HAL_GetTick() - tickstart) > CLOCKSWITCH_TIMEOUT_VALUE)
1103:../../Drivers/STM32H7xx_HAL_Driver/Src/stm32h7xx_hal_rcc.c ****       {
1104:../../Drivers/STM32H7xx_HAL_Driver/Src/stm32h7xx_hal_rcc.c ****         return HAL_TIMEOUT;
1105:../../Drivers/STM32H7xx_HAL_Driver/Src/stm32h7xx_hal_rcc.c ****       }
1106:../../Drivers/STM32H7xx_HAL_Driver/Src/stm32h7xx_hal_rcc.c ****     }
1107:../../Drivers/STM32H7xx_HAL_Driver/Src/stm32h7xx_hal_rcc.c **** 
1108:../../Drivers/STM32H7xx_HAL_Driver/Src/stm32h7xx_hal_rcc.c ****   }
1109:../../Drivers/STM32H7xx_HAL_Driver/Src/stm32h7xx_hal_rcc.c **** 
1110:../../Drivers/STM32H7xx_HAL_Driver/Src/stm32h7xx_hal_rcc.c ****   /* Decreasing the BUS frequency divider */
1111:../../Drivers/STM32H7xx_HAL_Driver/Src/stm32h7xx_hal_rcc.c ****   /*-------------------------- HCLK Configuration --------------------------*/
1112:../../Drivers/STM32H7xx_HAL_Driver/Src/stm32h7xx_hal_rcc.c ****   if (((RCC_ClkInitStruct->ClockType) & RCC_CLOCKTYPE_HCLK) == RCC_CLOCKTYPE_HCLK)
1113:../../Drivers/STM32H7xx_HAL_Driver/Src/stm32h7xx_hal_rcc.c ****   {
1114:../../Drivers/STM32H7xx_HAL_Driver/Src/stm32h7xx_hal_rcc.c **** #if defined(RCC_D1CFGR_HPRE)
1115:../../Drivers/STM32H7xx_HAL_Driver/Src/stm32h7xx_hal_rcc.c ****     if ((RCC_ClkInitStruct->AHBCLKDivider) < (RCC->D1CFGR & RCC_D1CFGR_HPRE))
1116:../../Drivers/STM32H7xx_HAL_Driver/Src/stm32h7xx_hal_rcc.c ****     {
1117:../../Drivers/STM32H7xx_HAL_Driver/Src/stm32h7xx_hal_rcc.c ****       /* Set the new HCLK clock divider */
1118:../../Drivers/STM32H7xx_HAL_Driver/Src/stm32h7xx_hal_rcc.c ****       assert_param(IS_RCC_HCLK(RCC_ClkInitStruct->AHBCLKDivider));
1119:../../Drivers/STM32H7xx_HAL_Driver/Src/stm32h7xx_hal_rcc.c ****       MODIFY_REG(RCC->D1CFGR, RCC_D1CFGR_HPRE, RCC_ClkInitStruct->AHBCLKDivider);
1120:../../Drivers/STM32H7xx_HAL_Driver/Src/stm32h7xx_hal_rcc.c ****     }
1121:../../Drivers/STM32H7xx_HAL_Driver/Src/stm32h7xx_hal_rcc.c **** #else
1122:../../Drivers/STM32H7xx_HAL_Driver/Src/stm32h7xx_hal_rcc.c ****     if ((RCC_ClkInitStruct->AHBCLKDivider) < (RCC->CDCFGR1 & RCC_CDCFGR1_HPRE))
1123:../../Drivers/STM32H7xx_HAL_Driver/Src/stm32h7xx_hal_rcc.c ****     {
1124:../../Drivers/STM32H7xx_HAL_Driver/Src/stm32h7xx_hal_rcc.c ****       /* Set the new HCLK clock divider */
1125:../../Drivers/STM32H7xx_HAL_Driver/Src/stm32h7xx_hal_rcc.c ****       assert_param(IS_RCC_HCLK(RCC_ClkInitStruct->AHBCLKDivider));
1126:../../Drivers/STM32H7xx_HAL_Driver/Src/stm32h7xx_hal_rcc.c ****       MODIFY_REG(RCC->CDCFGR1, RCC_CDCFGR1_HPRE, RCC_ClkInitStruct->AHBCLKDivider);
1127:../../Drivers/STM32H7xx_HAL_Driver/Src/stm32h7xx_hal_rcc.c ****     }
1128:../../Drivers/STM32H7xx_HAL_Driver/Src/stm32h7xx_hal_rcc.c **** #endif
1129:../../Drivers/STM32H7xx_HAL_Driver/Src/stm32h7xx_hal_rcc.c ****   }
1130:../../Drivers/STM32H7xx_HAL_Driver/Src/stm32h7xx_hal_rcc.c **** 
1131:../../Drivers/STM32H7xx_HAL_Driver/Src/stm32h7xx_hal_rcc.c ****   /* Decreasing the number of wait states because of lower CPU frequency */
1132:../../Drivers/STM32H7xx_HAL_Driver/Src/stm32h7xx_hal_rcc.c ****   if (FLatency < __HAL_FLASH_GET_LATENCY())
1133:../../Drivers/STM32H7xx_HAL_Driver/Src/stm32h7xx_hal_rcc.c ****   {
ARM GAS  C:\Users\minis\AppData\Local\Temp\cczlSevg.s 			page 58


1134:../../Drivers/STM32H7xx_HAL_Driver/Src/stm32h7xx_hal_rcc.c ****     /* Program the new number of wait states to the LATENCY bits in the FLASH_ACR register */
1135:../../Drivers/STM32H7xx_HAL_Driver/Src/stm32h7xx_hal_rcc.c ****     __HAL_FLASH_SET_LATENCY(FLatency);
1136:../../Drivers/STM32H7xx_HAL_Driver/Src/stm32h7xx_hal_rcc.c **** 
1137:../../Drivers/STM32H7xx_HAL_Driver/Src/stm32h7xx_hal_rcc.c ****     /* Check that the new number of wait states is taken into account to access the Flash
1138:../../Drivers/STM32H7xx_HAL_Driver/Src/stm32h7xx_hal_rcc.c ****     memory by reading the FLASH_ACR register */
1139:../../Drivers/STM32H7xx_HAL_Driver/Src/stm32h7xx_hal_rcc.c ****     if (__HAL_FLASH_GET_LATENCY() != FLatency)
1140:../../Drivers/STM32H7xx_HAL_Driver/Src/stm32h7xx_hal_rcc.c ****     {
1141:../../Drivers/STM32H7xx_HAL_Driver/Src/stm32h7xx_hal_rcc.c ****       return HAL_ERROR;
1142:../../Drivers/STM32H7xx_HAL_Driver/Src/stm32h7xx_hal_rcc.c ****     }
1143:../../Drivers/STM32H7xx_HAL_Driver/Src/stm32h7xx_hal_rcc.c ****   }
1144:../../Drivers/STM32H7xx_HAL_Driver/Src/stm32h7xx_hal_rcc.c **** 
1145:../../Drivers/STM32H7xx_HAL_Driver/Src/stm32h7xx_hal_rcc.c ****   /*-------------------------- D1PCLK1/CDPCLK Configuration ---------------------------*/
1146:../../Drivers/STM32H7xx_HAL_Driver/Src/stm32h7xx_hal_rcc.c ****   if (((RCC_ClkInitStruct->ClockType) & RCC_CLOCKTYPE_D1PCLK1) == RCC_CLOCKTYPE_D1PCLK1)
1147:../../Drivers/STM32H7xx_HAL_Driver/Src/stm32h7xx_hal_rcc.c ****   {
1148:../../Drivers/STM32H7xx_HAL_Driver/Src/stm32h7xx_hal_rcc.c **** #if defined(RCC_D1CFGR_D1PPRE)
1149:../../Drivers/STM32H7xx_HAL_Driver/Src/stm32h7xx_hal_rcc.c ****     if ((RCC_ClkInitStruct->APB3CLKDivider) < (RCC->D1CFGR & RCC_D1CFGR_D1PPRE))
1150:../../Drivers/STM32H7xx_HAL_Driver/Src/stm32h7xx_hal_rcc.c ****     {
1151:../../Drivers/STM32H7xx_HAL_Driver/Src/stm32h7xx_hal_rcc.c ****       assert_param(IS_RCC_D1PCLK1(RCC_ClkInitStruct->APB3CLKDivider));
1152:../../Drivers/STM32H7xx_HAL_Driver/Src/stm32h7xx_hal_rcc.c ****       MODIFY_REG(RCC->D1CFGR, RCC_D1CFGR_D1PPRE, RCC_ClkInitStruct->APB3CLKDivider);
1153:../../Drivers/STM32H7xx_HAL_Driver/Src/stm32h7xx_hal_rcc.c ****     }
1154:../../Drivers/STM32H7xx_HAL_Driver/Src/stm32h7xx_hal_rcc.c **** #else
1155:../../Drivers/STM32H7xx_HAL_Driver/Src/stm32h7xx_hal_rcc.c ****     if ((RCC_ClkInitStruct->APB3CLKDivider) < (RCC->CDCFGR1 & RCC_CDCFGR1_CDPPRE))
1156:../../Drivers/STM32H7xx_HAL_Driver/Src/stm32h7xx_hal_rcc.c ****     {
1157:../../Drivers/STM32H7xx_HAL_Driver/Src/stm32h7xx_hal_rcc.c ****       assert_param(IS_RCC_CDPCLK1(RCC_ClkInitStruct->APB3CLKDivider));
1158:../../Drivers/STM32H7xx_HAL_Driver/Src/stm32h7xx_hal_rcc.c ****       MODIFY_REG(RCC->CDCFGR1, RCC_CDCFGR1_CDPPRE, RCC_ClkInitStruct->APB3CLKDivider);
1159:../../Drivers/STM32H7xx_HAL_Driver/Src/stm32h7xx_hal_rcc.c ****     }
1160:../../Drivers/STM32H7xx_HAL_Driver/Src/stm32h7xx_hal_rcc.c **** #endif
1161:../../Drivers/STM32H7xx_HAL_Driver/Src/stm32h7xx_hal_rcc.c ****   }
1162:../../Drivers/STM32H7xx_HAL_Driver/Src/stm32h7xx_hal_rcc.c **** 
1163:../../Drivers/STM32H7xx_HAL_Driver/Src/stm32h7xx_hal_rcc.c ****   /*-------------------------- PCLK1 Configuration ---------------------------*/
1164:../../Drivers/STM32H7xx_HAL_Driver/Src/stm32h7xx_hal_rcc.c ****   if (((RCC_ClkInitStruct->ClockType) & RCC_CLOCKTYPE_PCLK1) == RCC_CLOCKTYPE_PCLK1)
1165:../../Drivers/STM32H7xx_HAL_Driver/Src/stm32h7xx_hal_rcc.c ****   {
1166:../../Drivers/STM32H7xx_HAL_Driver/Src/stm32h7xx_hal_rcc.c **** #if defined(RCC_D2CFGR_D2PPRE1)
1167:../../Drivers/STM32H7xx_HAL_Driver/Src/stm32h7xx_hal_rcc.c ****     if ((RCC_ClkInitStruct->APB1CLKDivider) < (RCC->D2CFGR & RCC_D2CFGR_D2PPRE1))
1168:../../Drivers/STM32H7xx_HAL_Driver/Src/stm32h7xx_hal_rcc.c ****     {
1169:../../Drivers/STM32H7xx_HAL_Driver/Src/stm32h7xx_hal_rcc.c ****       assert_param(IS_RCC_PCLK1(RCC_ClkInitStruct->APB1CLKDivider));
1170:../../Drivers/STM32H7xx_HAL_Driver/Src/stm32h7xx_hal_rcc.c ****       MODIFY_REG(RCC->D2CFGR, RCC_D2CFGR_D2PPRE1, (RCC_ClkInitStruct->APB1CLKDivider));
1171:../../Drivers/STM32H7xx_HAL_Driver/Src/stm32h7xx_hal_rcc.c ****     }
1172:../../Drivers/STM32H7xx_HAL_Driver/Src/stm32h7xx_hal_rcc.c **** #else
1173:../../Drivers/STM32H7xx_HAL_Driver/Src/stm32h7xx_hal_rcc.c ****     if ((RCC_ClkInitStruct->APB1CLKDivider) < (RCC->CDCFGR2 & RCC_CDCFGR2_CDPPRE1))
1174:../../Drivers/STM32H7xx_HAL_Driver/Src/stm32h7xx_hal_rcc.c ****     {
1175:../../Drivers/STM32H7xx_HAL_Driver/Src/stm32h7xx_hal_rcc.c ****       assert_param(IS_RCC_PCLK1(RCC_ClkInitStruct->APB1CLKDivider));
1176:../../Drivers/STM32H7xx_HAL_Driver/Src/stm32h7xx_hal_rcc.c ****       MODIFY_REG(RCC->CDCFGR2, RCC_CDCFGR2_CDPPRE1, (RCC_ClkInitStruct->APB1CLKDivider));
1177:../../Drivers/STM32H7xx_HAL_Driver/Src/stm32h7xx_hal_rcc.c ****     }
1178:../../Drivers/STM32H7xx_HAL_Driver/Src/stm32h7xx_hal_rcc.c **** #endif
1179:../../Drivers/STM32H7xx_HAL_Driver/Src/stm32h7xx_hal_rcc.c ****   }
1180:../../Drivers/STM32H7xx_HAL_Driver/Src/stm32h7xx_hal_rcc.c **** 
1181:../../Drivers/STM32H7xx_HAL_Driver/Src/stm32h7xx_hal_rcc.c ****   /*-------------------------- PCLK2 Configuration ---------------------------*/
1182:../../Drivers/STM32H7xx_HAL_Driver/Src/stm32h7xx_hal_rcc.c ****   if (((RCC_ClkInitStruct->ClockType) & RCC_CLOCKTYPE_PCLK2) == RCC_CLOCKTYPE_PCLK2)
1183:../../Drivers/STM32H7xx_HAL_Driver/Src/stm32h7xx_hal_rcc.c ****   {
1184:../../Drivers/STM32H7xx_HAL_Driver/Src/stm32h7xx_hal_rcc.c **** #if defined (RCC_D2CFGR_D2PPRE2)
1185:../../Drivers/STM32H7xx_HAL_Driver/Src/stm32h7xx_hal_rcc.c ****     if ((RCC_ClkInitStruct->APB2CLKDivider) < (RCC->D2CFGR & RCC_D2CFGR_D2PPRE2))
1186:../../Drivers/STM32H7xx_HAL_Driver/Src/stm32h7xx_hal_rcc.c ****     {
1187:../../Drivers/STM32H7xx_HAL_Driver/Src/stm32h7xx_hal_rcc.c ****       assert_param(IS_RCC_PCLK2(RCC_ClkInitStruct->APB2CLKDivider));
1188:../../Drivers/STM32H7xx_HAL_Driver/Src/stm32h7xx_hal_rcc.c ****       MODIFY_REG(RCC->D2CFGR, RCC_D2CFGR_D2PPRE2, (RCC_ClkInitStruct->APB2CLKDivider));
1189:../../Drivers/STM32H7xx_HAL_Driver/Src/stm32h7xx_hal_rcc.c ****     }
1190:../../Drivers/STM32H7xx_HAL_Driver/Src/stm32h7xx_hal_rcc.c **** #else
ARM GAS  C:\Users\minis\AppData\Local\Temp\cczlSevg.s 			page 59


1191:../../Drivers/STM32H7xx_HAL_Driver/Src/stm32h7xx_hal_rcc.c ****     if ((RCC_ClkInitStruct->APB2CLKDivider) < (RCC->CDCFGR2 & RCC_CDCFGR2_CDPPRE2))
1192:../../Drivers/STM32H7xx_HAL_Driver/Src/stm32h7xx_hal_rcc.c ****     {
1193:../../Drivers/STM32H7xx_HAL_Driver/Src/stm32h7xx_hal_rcc.c ****       assert_param(IS_RCC_PCLK2(RCC_ClkInitStruct->APB2CLKDivider));
1194:../../Drivers/STM32H7xx_HAL_Driver/Src/stm32h7xx_hal_rcc.c ****       MODIFY_REG(RCC->CDCFGR2, RCC_CDCFGR2_CDPPRE2, (RCC_ClkInitStruct->APB2CLKDivider));
1195:../../Drivers/STM32H7xx_HAL_Driver/Src/stm32h7xx_hal_rcc.c ****     }
1196:../../Drivers/STM32H7xx_HAL_Driver/Src/stm32h7xx_hal_rcc.c **** #endif
1197:../../Drivers/STM32H7xx_HAL_Driver/Src/stm32h7xx_hal_rcc.c ****   }
1198:../../Drivers/STM32H7xx_HAL_Driver/Src/stm32h7xx_hal_rcc.c **** 
1199:../../Drivers/STM32H7xx_HAL_Driver/Src/stm32h7xx_hal_rcc.c ****   /*-------------------------- D3PCLK1/SRDPCLK1 Configuration ---------------------------*/
1200:../../Drivers/STM32H7xx_HAL_Driver/Src/stm32h7xx_hal_rcc.c ****   if (((RCC_ClkInitStruct->ClockType) & RCC_CLOCKTYPE_D3PCLK1) == RCC_CLOCKTYPE_D3PCLK1)
1201:../../Drivers/STM32H7xx_HAL_Driver/Src/stm32h7xx_hal_rcc.c ****   {
1202:../../Drivers/STM32H7xx_HAL_Driver/Src/stm32h7xx_hal_rcc.c **** #if defined(RCC_D3CFGR_D3PPRE)
1203:../../Drivers/STM32H7xx_HAL_Driver/Src/stm32h7xx_hal_rcc.c ****     if ((RCC_ClkInitStruct->APB4CLKDivider) < (RCC->D3CFGR & RCC_D3CFGR_D3PPRE))
1204:../../Drivers/STM32H7xx_HAL_Driver/Src/stm32h7xx_hal_rcc.c ****     {
1205:../../Drivers/STM32H7xx_HAL_Driver/Src/stm32h7xx_hal_rcc.c ****       assert_param(IS_RCC_D3PCLK1(RCC_ClkInitStruct->APB4CLKDivider));
1206:../../Drivers/STM32H7xx_HAL_Driver/Src/stm32h7xx_hal_rcc.c ****       MODIFY_REG(RCC->D3CFGR, RCC_D3CFGR_D3PPRE, (RCC_ClkInitStruct->APB4CLKDivider));
1207:../../Drivers/STM32H7xx_HAL_Driver/Src/stm32h7xx_hal_rcc.c ****     }
1208:../../Drivers/STM32H7xx_HAL_Driver/Src/stm32h7xx_hal_rcc.c **** #else
1209:../../Drivers/STM32H7xx_HAL_Driver/Src/stm32h7xx_hal_rcc.c ****     if ((RCC_ClkInitStruct->APB4CLKDivider) < (RCC->SRDCFGR & RCC_SRDCFGR_SRDPPRE))
1210:../../Drivers/STM32H7xx_HAL_Driver/Src/stm32h7xx_hal_rcc.c ****     {
1211:../../Drivers/STM32H7xx_HAL_Driver/Src/stm32h7xx_hal_rcc.c ****       assert_param(IS_RCC_SRDPCLK1(RCC_ClkInitStruct->APB4CLKDivider));
1212:../../Drivers/STM32H7xx_HAL_Driver/Src/stm32h7xx_hal_rcc.c ****       MODIFY_REG(RCC->SRDCFGR, RCC_SRDCFGR_SRDPPRE, (RCC_ClkInitStruct->APB4CLKDivider));
1213:../../Drivers/STM32H7xx_HAL_Driver/Src/stm32h7xx_hal_rcc.c ****     }
1214:../../Drivers/STM32H7xx_HAL_Driver/Src/stm32h7xx_hal_rcc.c **** #endif
1215:../../Drivers/STM32H7xx_HAL_Driver/Src/stm32h7xx_hal_rcc.c ****   }
1216:../../Drivers/STM32H7xx_HAL_Driver/Src/stm32h7xx_hal_rcc.c **** 
1217:../../Drivers/STM32H7xx_HAL_Driver/Src/stm32h7xx_hal_rcc.c ****   /* Update the SystemCoreClock global variable */
1218:../../Drivers/STM32H7xx_HAL_Driver/Src/stm32h7xx_hal_rcc.c **** #if defined(RCC_D1CFGR_D1CPRE)
1219:../../Drivers/STM32H7xx_HAL_Driver/Src/stm32h7xx_hal_rcc.c ****   common_system_clock = HAL_RCC_GetSysClockFreq() >> ((D1CorePrescTable[(RCC->D1CFGR & RCC_D1CFGR_D
1220:../../Drivers/STM32H7xx_HAL_Driver/Src/stm32h7xx_hal_rcc.c **** #else
1221:../../Drivers/STM32H7xx_HAL_Driver/Src/stm32h7xx_hal_rcc.c ****   common_system_clock = HAL_RCC_GetSysClockFreq() >> ((D1CorePrescTable[(RCC->CDCFGR1 & RCC_CDCFGR1
1222:../../Drivers/STM32H7xx_HAL_Driver/Src/stm32h7xx_hal_rcc.c **** #endif
1223:../../Drivers/STM32H7xx_HAL_Driver/Src/stm32h7xx_hal_rcc.c **** 
1224:../../Drivers/STM32H7xx_HAL_Driver/Src/stm32h7xx_hal_rcc.c **** #if defined(RCC_D1CFGR_HPRE)
1225:../../Drivers/STM32H7xx_HAL_Driver/Src/stm32h7xx_hal_rcc.c ****   SystemD2Clock = (common_system_clock >> ((D1CorePrescTable[(RCC->D1CFGR & RCC_D1CFGR_HPRE) >> RCC
1226:../../Drivers/STM32H7xx_HAL_Driver/Src/stm32h7xx_hal_rcc.c **** #else
1227:../../Drivers/STM32H7xx_HAL_Driver/Src/stm32h7xx_hal_rcc.c ****   SystemD2Clock = (common_system_clock >> ((D1CorePrescTable[(RCC->CDCFGR1 & RCC_CDCFGR1_HPRE) >> R
1228:../../Drivers/STM32H7xx_HAL_Driver/Src/stm32h7xx_hal_rcc.c **** #endif
1229:../../Drivers/STM32H7xx_HAL_Driver/Src/stm32h7xx_hal_rcc.c **** 
1230:../../Drivers/STM32H7xx_HAL_Driver/Src/stm32h7xx_hal_rcc.c **** #if defined(DUAL_CORE) && defined(CORE_CM4)
1231:../../Drivers/STM32H7xx_HAL_Driver/Src/stm32h7xx_hal_rcc.c ****   SystemCoreClock = SystemD2Clock;
1232:../../Drivers/STM32H7xx_HAL_Driver/Src/stm32h7xx_hal_rcc.c **** #else
1233:../../Drivers/STM32H7xx_HAL_Driver/Src/stm32h7xx_hal_rcc.c ****   SystemCoreClock = common_system_clock;
1234:../../Drivers/STM32H7xx_HAL_Driver/Src/stm32h7xx_hal_rcc.c **** #endif /* DUAL_CORE && CORE_CM4 */
1235:../../Drivers/STM32H7xx_HAL_Driver/Src/stm32h7xx_hal_rcc.c **** 
1236:../../Drivers/STM32H7xx_HAL_Driver/Src/stm32h7xx_hal_rcc.c ****   /* Configure the source of time base considering new system clocks settings*/
1237:../../Drivers/STM32H7xx_HAL_Driver/Src/stm32h7xx_hal_rcc.c ****   halstatus = HAL_InitTick(uwTickPrio);
1238:../../Drivers/STM32H7xx_HAL_Driver/Src/stm32h7xx_hal_rcc.c **** 
1239:../../Drivers/STM32H7xx_HAL_Driver/Src/stm32h7xx_hal_rcc.c ****   return halstatus;
1240:../../Drivers/STM32H7xx_HAL_Driver/Src/stm32h7xx_hal_rcc.c **** }
1241:../../Drivers/STM32H7xx_HAL_Driver/Src/stm32h7xx_hal_rcc.c **** 
1242:../../Drivers/STM32H7xx_HAL_Driver/Src/stm32h7xx_hal_rcc.c **** /**
1243:../../Drivers/STM32H7xx_HAL_Driver/Src/stm32h7xx_hal_rcc.c ****   * @}
1244:../../Drivers/STM32H7xx_HAL_Driver/Src/stm32h7xx_hal_rcc.c ****   */
1245:../../Drivers/STM32H7xx_HAL_Driver/Src/stm32h7xx_hal_rcc.c **** 
1246:../../Drivers/STM32H7xx_HAL_Driver/Src/stm32h7xx_hal_rcc.c **** /** @defgroup RCC_Exported_Functions_Group2 Peripheral Control functions
1247:../../Drivers/STM32H7xx_HAL_Driver/Src/stm32h7xx_hal_rcc.c ****  *  @brief   RCC clocks control functions
ARM GAS  C:\Users\minis\AppData\Local\Temp\cczlSevg.s 			page 60


1248:../../Drivers/STM32H7xx_HAL_Driver/Src/stm32h7xx_hal_rcc.c ****  *
1249:../../Drivers/STM32H7xx_HAL_Driver/Src/stm32h7xx_hal_rcc.c **** @verbatim
1250:../../Drivers/STM32H7xx_HAL_Driver/Src/stm32h7xx_hal_rcc.c ****  ===============================================================================
1251:../../Drivers/STM32H7xx_HAL_Driver/Src/stm32h7xx_hal_rcc.c ****                       ##### Peripheral Control functions #####
1252:../../Drivers/STM32H7xx_HAL_Driver/Src/stm32h7xx_hal_rcc.c ****  ===============================================================================
1253:../../Drivers/STM32H7xx_HAL_Driver/Src/stm32h7xx_hal_rcc.c ****     [..]
1254:../../Drivers/STM32H7xx_HAL_Driver/Src/stm32h7xx_hal_rcc.c ****     This subsection provides a set of functions allowing to control the RCC Clocks
1255:../../Drivers/STM32H7xx_HAL_Driver/Src/stm32h7xx_hal_rcc.c ****     frequencies.
1256:../../Drivers/STM32H7xx_HAL_Driver/Src/stm32h7xx_hal_rcc.c **** 
1257:../../Drivers/STM32H7xx_HAL_Driver/Src/stm32h7xx_hal_rcc.c **** @endverbatim
1258:../../Drivers/STM32H7xx_HAL_Driver/Src/stm32h7xx_hal_rcc.c ****   * @{
1259:../../Drivers/STM32H7xx_HAL_Driver/Src/stm32h7xx_hal_rcc.c ****   */
1260:../../Drivers/STM32H7xx_HAL_Driver/Src/stm32h7xx_hal_rcc.c **** 
1261:../../Drivers/STM32H7xx_HAL_Driver/Src/stm32h7xx_hal_rcc.c **** /**
1262:../../Drivers/STM32H7xx_HAL_Driver/Src/stm32h7xx_hal_rcc.c ****   * @brief  Selects the clock source to output on MCO1 pin(PA8) or on MCO2 pin(PC9).
1263:../../Drivers/STM32H7xx_HAL_Driver/Src/stm32h7xx_hal_rcc.c ****   * @note   PA8/PC9 should be configured in alternate function mode.
1264:../../Drivers/STM32H7xx_HAL_Driver/Src/stm32h7xx_hal_rcc.c ****   * @param  RCC_MCOx: specifies the output direction for the clock source.
1265:../../Drivers/STM32H7xx_HAL_Driver/Src/stm32h7xx_hal_rcc.c ****   *          This parameter can be one of the following values:
1266:../../Drivers/STM32H7xx_HAL_Driver/Src/stm32h7xx_hal_rcc.c ****   *            @arg RCC_MCO1: Clock source to output on MCO1 pin(PA8).
1267:../../Drivers/STM32H7xx_HAL_Driver/Src/stm32h7xx_hal_rcc.c ****   *            @arg RCC_MCO2: Clock source to output on MCO2 pin(PC9).
1268:../../Drivers/STM32H7xx_HAL_Driver/Src/stm32h7xx_hal_rcc.c ****   * @param  RCC_MCOSource: specifies the clock source to output.
1269:../../Drivers/STM32H7xx_HAL_Driver/Src/stm32h7xx_hal_rcc.c ****   *          This parameter can be one of the following values:
1270:../../Drivers/STM32H7xx_HAL_Driver/Src/stm32h7xx_hal_rcc.c ****   *            @arg RCC_MCO1SOURCE_HSI: HSI clock selected as MCO1 source
1271:../../Drivers/STM32H7xx_HAL_Driver/Src/stm32h7xx_hal_rcc.c ****   *            @arg RCC_MCO1SOURCE_LSE: LSE clock selected as MCO1 source
1272:../../Drivers/STM32H7xx_HAL_Driver/Src/stm32h7xx_hal_rcc.c ****   *            @arg RCC_MCO1SOURCE_HSE: HSE clock selected as MCO1 source
1273:../../Drivers/STM32H7xx_HAL_Driver/Src/stm32h7xx_hal_rcc.c ****   *            @arg RCC_MCO1SOURCE_PLL1QCLK:  PLL1Q clock selected as MCO1 source
1274:../../Drivers/STM32H7xx_HAL_Driver/Src/stm32h7xx_hal_rcc.c ****   *            @arg RCC_MCO1SOURCE_HSI48: HSI48 (48MHZ) selected as MCO1 source
1275:../../Drivers/STM32H7xx_HAL_Driver/Src/stm32h7xx_hal_rcc.c ****   *            @arg RCC_MCO2SOURCE_SYSCLK: System clock (SYSCLK) selected as MCO2 source
1276:../../Drivers/STM32H7xx_HAL_Driver/Src/stm32h7xx_hal_rcc.c ****   *            @arg RCC_MCO2SOURCE_PLL2PCLK: PLL2P clock selected as MCO2 source
1277:../../Drivers/STM32H7xx_HAL_Driver/Src/stm32h7xx_hal_rcc.c ****   *            @arg RCC_MCO2SOURCE_HSE: HSE clock selected as MCO2 source
1278:../../Drivers/STM32H7xx_HAL_Driver/Src/stm32h7xx_hal_rcc.c ****   *            @arg RCC_MCO2SOURCE_PLLCLK:  PLL1P clock selected as MCO2 source
1279:../../Drivers/STM32H7xx_HAL_Driver/Src/stm32h7xx_hal_rcc.c ****   *            @arg RCC_MCO2SOURCE_CSICLK:  CSI clock selected as MCO2 source
1280:../../Drivers/STM32H7xx_HAL_Driver/Src/stm32h7xx_hal_rcc.c ****   *            @arg RCC_MCO2SOURCE_LSICLK:  LSI clock selected as MCO2 source
1281:../../Drivers/STM32H7xx_HAL_Driver/Src/stm32h7xx_hal_rcc.c ****   * @param  RCC_MCODiv: specifies the MCOx pre-scaler.
1282:../../Drivers/STM32H7xx_HAL_Driver/Src/stm32h7xx_hal_rcc.c ****   *          This parameter can be one of the following values:
1283:../../Drivers/STM32H7xx_HAL_Driver/Src/stm32h7xx_hal_rcc.c ****   *            @arg RCC_MCODIV_1 up to RCC_MCODIV_15  : divider applied to MCOx clock
1284:../../Drivers/STM32H7xx_HAL_Driver/Src/stm32h7xx_hal_rcc.c ****   * @retval None
1285:../../Drivers/STM32H7xx_HAL_Driver/Src/stm32h7xx_hal_rcc.c ****   */
1286:../../Drivers/STM32H7xx_HAL_Driver/Src/stm32h7xx_hal_rcc.c **** void HAL_RCC_MCOConfig(uint32_t RCC_MCOx, uint32_t RCC_MCOSource, uint32_t RCC_MCODiv)
1287:../../Drivers/STM32H7xx_HAL_Driver/Src/stm32h7xx_hal_rcc.c **** {
 1822              		.loc 1 1287 1 is_stmt 1 view -0
 1823              		.cfi_startproc
 1824              		@ args = 0, pretend = 0, frame = 32
 1825              		@ frame_needed = 0, uses_anonymous_args = 0
 1826              		.loc 1 1287 1 is_stmt 0 view .LVU596
 1827 0000 70B5     		push	{r4, r5, r6, lr}
 1828              	.LCFI4:
 1829              		.cfi_def_cfa_offset 16
 1830              		.cfi_offset 4, -16
 1831              		.cfi_offset 5, -12
 1832              		.cfi_offset 6, -8
 1833              		.cfi_offset 14, -4
 1834 0002 88B0     		sub	sp, sp, #32
 1835              	.LCFI5:
 1836              		.cfi_def_cfa_offset 48
 1837 0004 0C46     		mov	r4, r1
 1838 0006 1546     		mov	r5, r2
ARM GAS  C:\Users\minis\AppData\Local\Temp\cczlSevg.s 			page 61


1288:../../Drivers/STM32H7xx_HAL_Driver/Src/stm32h7xx_hal_rcc.c ****   GPIO_InitTypeDef GPIO_InitStruct;
 1839              		.loc 1 1288 3 is_stmt 1 view .LVU597
1289:../../Drivers/STM32H7xx_HAL_Driver/Src/stm32h7xx_hal_rcc.c ****   /* Check the parameters */
1290:../../Drivers/STM32H7xx_HAL_Driver/Src/stm32h7xx_hal_rcc.c ****   assert_param(IS_RCC_MCO(RCC_MCOx));
 1840              		.loc 1 1290 3 view .LVU598
1291:../../Drivers/STM32H7xx_HAL_Driver/Src/stm32h7xx_hal_rcc.c ****   assert_param(IS_RCC_MCODIV(RCC_MCODiv));
 1841              		.loc 1 1291 3 view .LVU599
1292:../../Drivers/STM32H7xx_HAL_Driver/Src/stm32h7xx_hal_rcc.c ****   /* RCC_MCO1 */
1293:../../Drivers/STM32H7xx_HAL_Driver/Src/stm32h7xx_hal_rcc.c ****   if (RCC_MCOx == RCC_MCO1)
 1842              		.loc 1 1293 3 view .LVU600
 1843              		.loc 1 1293 6 is_stmt 0 view .LVU601
 1844 0008 10BB     		cbnz	r0, .L173
1294:../../Drivers/STM32H7xx_HAL_Driver/Src/stm32h7xx_hal_rcc.c ****   {
1295:../../Drivers/STM32H7xx_HAL_Driver/Src/stm32h7xx_hal_rcc.c ****     assert_param(IS_RCC_MCO1SOURCE(RCC_MCOSource));
 1845              		.loc 1 1295 5 is_stmt 1 view .LVU602
1296:../../Drivers/STM32H7xx_HAL_Driver/Src/stm32h7xx_hal_rcc.c **** 
1297:../../Drivers/STM32H7xx_HAL_Driver/Src/stm32h7xx_hal_rcc.c ****     /* MCO1 Clock Enable */
1298:../../Drivers/STM32H7xx_HAL_Driver/Src/stm32h7xx_hal_rcc.c ****     MCO1_CLK_ENABLE();
 1846              		.loc 1 1298 5 view .LVU603
 1847              	.LBB13:
 1848              		.loc 1 1298 5 view .LVU604
 1849              		.loc 1 1298 5 view .LVU605
 1850 000a 234E     		ldr	r6, .L176
 1851 000c D6F8E030 		ldr	r3, [r6, #224]
 1852 0010 43F00103 		orr	r3, r3, #1
 1853 0014 C6F8E030 		str	r3, [r6, #224]
 1854              		.loc 1 1298 5 view .LVU606
 1855 0018 D6F8E030 		ldr	r3, [r6, #224]
 1856 001c 03F00103 		and	r3, r3, #1
 1857 0020 0193     		str	r3, [sp, #4]
 1858              		.loc 1 1298 5 view .LVU607
 1859 0022 019B     		ldr	r3, [sp, #4]
 1860              	.LBE13:
 1861              		.loc 1 1298 5 view .LVU608
1299:../../Drivers/STM32H7xx_HAL_Driver/Src/stm32h7xx_hal_rcc.c **** 
1300:../../Drivers/STM32H7xx_HAL_Driver/Src/stm32h7xx_hal_rcc.c ****     /* Configure the MCO1 pin in alternate function mode */
1301:../../Drivers/STM32H7xx_HAL_Driver/Src/stm32h7xx_hal_rcc.c ****     GPIO_InitStruct.Pin = MCO1_PIN;
 1862              		.loc 1 1301 5 view .LVU609
 1863              		.loc 1 1301 25 is_stmt 0 view .LVU610
 1864 0024 4FF48073 		mov	r3, #256
 1865 0028 0393     		str	r3, [sp, #12]
1302:../../Drivers/STM32H7xx_HAL_Driver/Src/stm32h7xx_hal_rcc.c ****     GPIO_InitStruct.Mode = GPIO_MODE_AF_PP;
 1866              		.loc 1 1302 5 is_stmt 1 view .LVU611
 1867              		.loc 1 1302 26 is_stmt 0 view .LVU612
 1868 002a 0223     		movs	r3, #2
 1869 002c 0493     		str	r3, [sp, #16]
1303:../../Drivers/STM32H7xx_HAL_Driver/Src/stm32h7xx_hal_rcc.c ****     GPIO_InitStruct.Speed = GPIO_SPEED_FREQ_VERY_HIGH;
 1870              		.loc 1 1303 5 is_stmt 1 view .LVU613
 1871              		.loc 1 1303 27 is_stmt 0 view .LVU614
 1872 002e 0323     		movs	r3, #3
 1873 0030 0693     		str	r3, [sp, #24]
1304:../../Drivers/STM32H7xx_HAL_Driver/Src/stm32h7xx_hal_rcc.c ****     GPIO_InitStruct.Pull = GPIO_NOPULL;
 1874              		.loc 1 1304 5 is_stmt 1 view .LVU615
 1875              		.loc 1 1304 26 is_stmt 0 view .LVU616
 1876 0032 0023     		movs	r3, #0
 1877 0034 0593     		str	r3, [sp, #20]
1305:../../Drivers/STM32H7xx_HAL_Driver/Src/stm32h7xx_hal_rcc.c ****     GPIO_InitStruct.Alternate = GPIO_AF0_MCO;
ARM GAS  C:\Users\minis\AppData\Local\Temp\cczlSevg.s 			page 62


 1878              		.loc 1 1305 5 is_stmt 1 view .LVU617
 1879              		.loc 1 1305 31 is_stmt 0 view .LVU618
 1880 0036 0793     		str	r3, [sp, #28]
1306:../../Drivers/STM32H7xx_HAL_Driver/Src/stm32h7xx_hal_rcc.c ****     HAL_GPIO_Init(MCO1_GPIO_PORT, &GPIO_InitStruct);
 1881              		.loc 1 1306 5 is_stmt 1 view .LVU619
 1882 0038 03A9     		add	r1, sp, #12
 1883              	.LVL153:
 1884              		.loc 1 1306 5 is_stmt 0 view .LVU620
 1885 003a 1848     		ldr	r0, .L176+4
 1886              	.LVL154:
 1887              		.loc 1 1306 5 view .LVU621
 1888 003c FFF7FEFF 		bl	HAL_GPIO_Init
 1889              	.LVL155:
1307:../../Drivers/STM32H7xx_HAL_Driver/Src/stm32h7xx_hal_rcc.c **** 
1308:../../Drivers/STM32H7xx_HAL_Driver/Src/stm32h7xx_hal_rcc.c ****     /* Mask MCO1 and MCO1PRE[3:0] bits then Select MCO1 clock source and pre-scaler */
1309:../../Drivers/STM32H7xx_HAL_Driver/Src/stm32h7xx_hal_rcc.c ****     MODIFY_REG(RCC->CFGR, (RCC_CFGR_MCO1 | RCC_CFGR_MCO1PRE), (RCC_MCOSource | RCC_MCODiv));
 1890              		.loc 1 1309 5 is_stmt 1 view .LVU622
 1891 0040 3369     		ldr	r3, [r6, #16]
 1892 0042 23F0FE73 		bic	r3, r3, #33292288
 1893 0046 2543     		orrs	r5, r5, r4
 1894              	.LVL156:
 1895              		.loc 1 1309 5 is_stmt 0 view .LVU623
 1896 0048 1D43     		orrs	r5, r5, r3
 1897 004a 3561     		str	r5, [r6, #16]
 1898              	.LVL157:
 1899              	.L172:
1310:../../Drivers/STM32H7xx_HAL_Driver/Src/stm32h7xx_hal_rcc.c ****   }
1311:../../Drivers/STM32H7xx_HAL_Driver/Src/stm32h7xx_hal_rcc.c ****   else
1312:../../Drivers/STM32H7xx_HAL_Driver/Src/stm32h7xx_hal_rcc.c ****   {
1313:../../Drivers/STM32H7xx_HAL_Driver/Src/stm32h7xx_hal_rcc.c ****     assert_param(IS_RCC_MCO2SOURCE(RCC_MCOSource));
1314:../../Drivers/STM32H7xx_HAL_Driver/Src/stm32h7xx_hal_rcc.c **** 
1315:../../Drivers/STM32H7xx_HAL_Driver/Src/stm32h7xx_hal_rcc.c ****     /* MCO2 Clock Enable */
1316:../../Drivers/STM32H7xx_HAL_Driver/Src/stm32h7xx_hal_rcc.c ****     MCO2_CLK_ENABLE();
1317:../../Drivers/STM32H7xx_HAL_Driver/Src/stm32h7xx_hal_rcc.c **** 
1318:../../Drivers/STM32H7xx_HAL_Driver/Src/stm32h7xx_hal_rcc.c ****     /* Configure the MCO2 pin in alternate function mode */
1319:../../Drivers/STM32H7xx_HAL_Driver/Src/stm32h7xx_hal_rcc.c ****     GPIO_InitStruct.Pin = MCO2_PIN;
1320:../../Drivers/STM32H7xx_HAL_Driver/Src/stm32h7xx_hal_rcc.c ****     GPIO_InitStruct.Mode = GPIO_MODE_AF_PP;
1321:../../Drivers/STM32H7xx_HAL_Driver/Src/stm32h7xx_hal_rcc.c ****     GPIO_InitStruct.Speed = GPIO_SPEED_FREQ_VERY_HIGH;
1322:../../Drivers/STM32H7xx_HAL_Driver/Src/stm32h7xx_hal_rcc.c ****     GPIO_InitStruct.Pull = GPIO_NOPULL;
1323:../../Drivers/STM32H7xx_HAL_Driver/Src/stm32h7xx_hal_rcc.c ****     GPIO_InitStruct.Alternate = GPIO_AF0_MCO;
1324:../../Drivers/STM32H7xx_HAL_Driver/Src/stm32h7xx_hal_rcc.c ****     HAL_GPIO_Init(MCO2_GPIO_PORT, &GPIO_InitStruct);
1325:../../Drivers/STM32H7xx_HAL_Driver/Src/stm32h7xx_hal_rcc.c **** 
1326:../../Drivers/STM32H7xx_HAL_Driver/Src/stm32h7xx_hal_rcc.c ****     /* Mask MCO2 and MCO2PRE[3:0] bits then Select MCO2 clock source and pre-scaler */
1327:../../Drivers/STM32H7xx_HAL_Driver/Src/stm32h7xx_hal_rcc.c ****     MODIFY_REG(RCC->CFGR, (RCC_CFGR_MCO2 | RCC_CFGR_MCO2PRE), (RCC_MCOSource | (RCC_MCODiv << 7U)))
1328:../../Drivers/STM32H7xx_HAL_Driver/Src/stm32h7xx_hal_rcc.c ****   }
1329:../../Drivers/STM32H7xx_HAL_Driver/Src/stm32h7xx_hal_rcc.c **** }
 1900              		.loc 1 1329 1 view .LVU624
 1901 004c 08B0     		add	sp, sp, #32
 1902              	.LCFI6:
 1903              		.cfi_remember_state
 1904              		.cfi_def_cfa_offset 16
 1905              		@ sp needed
 1906 004e 70BD     		pop	{r4, r5, r6, pc}
 1907              	.LVL158:
 1908              	.L173:
 1909              	.LCFI7:
 1910              		.cfi_restore_state
ARM GAS  C:\Users\minis\AppData\Local\Temp\cczlSevg.s 			page 63


1313:../../Drivers/STM32H7xx_HAL_Driver/Src/stm32h7xx_hal_rcc.c **** 
 1911              		.loc 1 1313 5 is_stmt 1 view .LVU625
1316:../../Drivers/STM32H7xx_HAL_Driver/Src/stm32h7xx_hal_rcc.c **** 
 1912              		.loc 1 1316 5 view .LVU626
 1913              	.LBB14:
1316:../../Drivers/STM32H7xx_HAL_Driver/Src/stm32h7xx_hal_rcc.c **** 
 1914              		.loc 1 1316 5 view .LVU627
1316:../../Drivers/STM32H7xx_HAL_Driver/Src/stm32h7xx_hal_rcc.c **** 
 1915              		.loc 1 1316 5 view .LVU628
 1916 0050 114E     		ldr	r6, .L176
 1917 0052 D6F8E030 		ldr	r3, [r6, #224]
 1918 0056 43F00403 		orr	r3, r3, #4
 1919 005a C6F8E030 		str	r3, [r6, #224]
1316:../../Drivers/STM32H7xx_HAL_Driver/Src/stm32h7xx_hal_rcc.c **** 
 1920              		.loc 1 1316 5 view .LVU629
 1921 005e D6F8E030 		ldr	r3, [r6, #224]
 1922 0062 03F00403 		and	r3, r3, #4
 1923 0066 0293     		str	r3, [sp, #8]
1316:../../Drivers/STM32H7xx_HAL_Driver/Src/stm32h7xx_hal_rcc.c **** 
 1924              		.loc 1 1316 5 view .LVU630
 1925 0068 029B     		ldr	r3, [sp, #8]
 1926              	.LBE14:
1316:../../Drivers/STM32H7xx_HAL_Driver/Src/stm32h7xx_hal_rcc.c **** 
 1927              		.loc 1 1316 5 view .LVU631
1319:../../Drivers/STM32H7xx_HAL_Driver/Src/stm32h7xx_hal_rcc.c ****     GPIO_InitStruct.Mode = GPIO_MODE_AF_PP;
 1928              		.loc 1 1319 5 view .LVU632
1319:../../Drivers/STM32H7xx_HAL_Driver/Src/stm32h7xx_hal_rcc.c ****     GPIO_InitStruct.Mode = GPIO_MODE_AF_PP;
 1929              		.loc 1 1319 25 is_stmt 0 view .LVU633
 1930 006a 4FF40073 		mov	r3, #512
 1931 006e 0393     		str	r3, [sp, #12]
1320:../../Drivers/STM32H7xx_HAL_Driver/Src/stm32h7xx_hal_rcc.c ****     GPIO_InitStruct.Speed = GPIO_SPEED_FREQ_VERY_HIGH;
 1932              		.loc 1 1320 5 is_stmt 1 view .LVU634
1320:../../Drivers/STM32H7xx_HAL_Driver/Src/stm32h7xx_hal_rcc.c ****     GPIO_InitStruct.Speed = GPIO_SPEED_FREQ_VERY_HIGH;
 1933              		.loc 1 1320 26 is_stmt 0 view .LVU635
 1934 0070 0223     		movs	r3, #2
 1935 0072 0493     		str	r3, [sp, #16]
1321:../../Drivers/STM32H7xx_HAL_Driver/Src/stm32h7xx_hal_rcc.c ****     GPIO_InitStruct.Pull = GPIO_NOPULL;
 1936              		.loc 1 1321 5 is_stmt 1 view .LVU636
1321:../../Drivers/STM32H7xx_HAL_Driver/Src/stm32h7xx_hal_rcc.c ****     GPIO_InitStruct.Pull = GPIO_NOPULL;
 1937              		.loc 1 1321 27 is_stmt 0 view .LVU637
 1938 0074 0323     		movs	r3, #3
 1939 0076 0693     		str	r3, [sp, #24]
1322:../../Drivers/STM32H7xx_HAL_Driver/Src/stm32h7xx_hal_rcc.c ****     GPIO_InitStruct.Alternate = GPIO_AF0_MCO;
 1940              		.loc 1 1322 5 is_stmt 1 view .LVU638
1322:../../Drivers/STM32H7xx_HAL_Driver/Src/stm32h7xx_hal_rcc.c ****     GPIO_InitStruct.Alternate = GPIO_AF0_MCO;
 1941              		.loc 1 1322 26 is_stmt 0 view .LVU639
 1942 0078 0023     		movs	r3, #0
 1943 007a 0593     		str	r3, [sp, #20]
1323:../../Drivers/STM32H7xx_HAL_Driver/Src/stm32h7xx_hal_rcc.c ****     HAL_GPIO_Init(MCO2_GPIO_PORT, &GPIO_InitStruct);
 1944              		.loc 1 1323 5 is_stmt 1 view .LVU640
1323:../../Drivers/STM32H7xx_HAL_Driver/Src/stm32h7xx_hal_rcc.c ****     HAL_GPIO_Init(MCO2_GPIO_PORT, &GPIO_InitStruct);
 1945              		.loc 1 1323 31 is_stmt 0 view .LVU641
 1946 007c 0793     		str	r3, [sp, #28]
1324:../../Drivers/STM32H7xx_HAL_Driver/Src/stm32h7xx_hal_rcc.c **** 
 1947              		.loc 1 1324 5 is_stmt 1 view .LVU642
 1948 007e 03A9     		add	r1, sp, #12
 1949              	.LVL159:
ARM GAS  C:\Users\minis\AppData\Local\Temp\cczlSevg.s 			page 64


1324:../../Drivers/STM32H7xx_HAL_Driver/Src/stm32h7xx_hal_rcc.c **** 
 1950              		.loc 1 1324 5 is_stmt 0 view .LVU643
 1951 0080 0748     		ldr	r0, .L176+8
 1952              	.LVL160:
1324:../../Drivers/STM32H7xx_HAL_Driver/Src/stm32h7xx_hal_rcc.c **** 
 1953              		.loc 1 1324 5 view .LVU644
 1954 0082 FFF7FEFF 		bl	HAL_GPIO_Init
 1955              	.LVL161:
1327:../../Drivers/STM32H7xx_HAL_Driver/Src/stm32h7xx_hal_rcc.c ****   }
 1956              		.loc 1 1327 5 is_stmt 1 view .LVU645
 1957 0086 3369     		ldr	r3, [r6, #16]
 1958 0088 23F07E43 		bic	r3, r3, #-33554432
 1959 008c 44EAC514 		orr	r4, r4, r5, lsl #7
 1960              	.LVL162:
1327:../../Drivers/STM32H7xx_HAL_Driver/Src/stm32h7xx_hal_rcc.c ****   }
 1961              		.loc 1 1327 5 is_stmt 0 view .LVU646
 1962 0090 1C43     		orrs	r4, r4, r3
 1963 0092 3461     		str	r4, [r6, #16]
 1964              		.loc 1 1329 1 view .LVU647
 1965 0094 DAE7     		b	.L172
 1966              	.L177:
 1967 0096 00BF     		.align	2
 1968              	.L176:
 1969 0098 00440258 		.word	1476543488
 1970 009c 00000258 		.word	1476526080
 1971 00a0 00080258 		.word	1476528128
 1972              		.cfi_endproc
 1973              	.LFE147:
 1975              		.section	.text.HAL_RCC_EnableCSS,"ax",%progbits
 1976              		.align	1
 1977              		.global	HAL_RCC_EnableCSS
 1978              		.syntax unified
 1979              		.thumb
 1980              		.thumb_func
 1982              	HAL_RCC_EnableCSS:
 1983              	.LFB148:
1330:../../Drivers/STM32H7xx_HAL_Driver/Src/stm32h7xx_hal_rcc.c **** 
1331:../../Drivers/STM32H7xx_HAL_Driver/Src/stm32h7xx_hal_rcc.c **** /**
1332:../../Drivers/STM32H7xx_HAL_Driver/Src/stm32h7xx_hal_rcc.c ****   * @brief  Enables the Clock Security System.
1333:../../Drivers/STM32H7xx_HAL_Driver/Src/stm32h7xx_hal_rcc.c ****   * @note   If a failure is detected on the HSE oscillator clock, this oscillator
1334:../../Drivers/STM32H7xx_HAL_Driver/Src/stm32h7xx_hal_rcc.c ****   *         is automatically disabled and an interrupt is generated to inform the
1335:../../Drivers/STM32H7xx_HAL_Driver/Src/stm32h7xx_hal_rcc.c ****   *         software about the failure (Clock Security System Interrupt, CSSI),
1336:../../Drivers/STM32H7xx_HAL_Driver/Src/stm32h7xx_hal_rcc.c ****   *         allowing the MCU to perform rescue operations. The CSSI is linked to
1337:../../Drivers/STM32H7xx_HAL_Driver/Src/stm32h7xx_hal_rcc.c ****   *         the Cortex-M NMI (Non-Mask-able Interrupt) exception vector.
1338:../../Drivers/STM32H7xx_HAL_Driver/Src/stm32h7xx_hal_rcc.c ****   * @retval None
1339:../../Drivers/STM32H7xx_HAL_Driver/Src/stm32h7xx_hal_rcc.c ****   */
1340:../../Drivers/STM32H7xx_HAL_Driver/Src/stm32h7xx_hal_rcc.c **** void HAL_RCC_EnableCSS(void)
1341:../../Drivers/STM32H7xx_HAL_Driver/Src/stm32h7xx_hal_rcc.c **** {
 1984              		.loc 1 1341 1 is_stmt 1 view -0
 1985              		.cfi_startproc
 1986              		@ args = 0, pretend = 0, frame = 0
 1987              		@ frame_needed = 0, uses_anonymous_args = 0
 1988              		@ link register save eliminated.
1342:../../Drivers/STM32H7xx_HAL_Driver/Src/stm32h7xx_hal_rcc.c ****   SET_BIT(RCC->CR, RCC_CR_CSSHSEON) ;
 1989              		.loc 1 1342 3 view .LVU649
 1990 0000 024A     		ldr	r2, .L179
 1991 0002 1368     		ldr	r3, [r2]
ARM GAS  C:\Users\minis\AppData\Local\Temp\cczlSevg.s 			page 65


 1992 0004 43F40023 		orr	r3, r3, #524288
 1993 0008 1360     		str	r3, [r2]
1343:../../Drivers/STM32H7xx_HAL_Driver/Src/stm32h7xx_hal_rcc.c **** }
 1994              		.loc 1 1343 1 is_stmt 0 view .LVU650
 1995 000a 7047     		bx	lr
 1996              	.L180:
 1997              		.align	2
 1998              	.L179:
 1999 000c 00440258 		.word	1476543488
 2000              		.cfi_endproc
 2001              	.LFE148:
 2003              		.section	.text.HAL_RCC_DisableCSS,"ax",%progbits
 2004              		.align	1
 2005              		.global	HAL_RCC_DisableCSS
 2006              		.syntax unified
 2007              		.thumb
 2008              		.thumb_func
 2010              	HAL_RCC_DisableCSS:
 2011              	.LFB149:
1344:../../Drivers/STM32H7xx_HAL_Driver/Src/stm32h7xx_hal_rcc.c **** 
1345:../../Drivers/STM32H7xx_HAL_Driver/Src/stm32h7xx_hal_rcc.c **** /**
1346:../../Drivers/STM32H7xx_HAL_Driver/Src/stm32h7xx_hal_rcc.c ****   * @brief  Disables the Clock Security System.
1347:../../Drivers/STM32H7xx_HAL_Driver/Src/stm32h7xx_hal_rcc.c ****   * @retval None
1348:../../Drivers/STM32H7xx_HAL_Driver/Src/stm32h7xx_hal_rcc.c ****   */
1349:../../Drivers/STM32H7xx_HAL_Driver/Src/stm32h7xx_hal_rcc.c **** void HAL_RCC_DisableCSS(void)
1350:../../Drivers/STM32H7xx_HAL_Driver/Src/stm32h7xx_hal_rcc.c **** {
 2012              		.loc 1 1350 1 is_stmt 1 view -0
 2013              		.cfi_startproc
 2014              		@ args = 0, pretend = 0, frame = 0
 2015              		@ frame_needed = 0, uses_anonymous_args = 0
 2016              		@ link register save eliminated.
1351:../../Drivers/STM32H7xx_HAL_Driver/Src/stm32h7xx_hal_rcc.c ****   CLEAR_BIT(RCC->CR, RCC_CR_CSSHSEON);
 2017              		.loc 1 1351 3 view .LVU652
 2018 0000 024A     		ldr	r2, .L182
 2019 0002 1368     		ldr	r3, [r2]
 2020 0004 23F40023 		bic	r3, r3, #524288
 2021 0008 1360     		str	r3, [r2]
1352:../../Drivers/STM32H7xx_HAL_Driver/Src/stm32h7xx_hal_rcc.c **** }
 2022              		.loc 1 1352 1 is_stmt 0 view .LVU653
 2023 000a 7047     		bx	lr
 2024              	.L183:
 2025              		.align	2
 2026              	.L182:
 2027 000c 00440258 		.word	1476543488
 2028              		.cfi_endproc
 2029              	.LFE149:
 2031              		.section	.text.HAL_RCC_GetSysClockFreq,"ax",%progbits
 2032              		.align	1
 2033              		.global	HAL_RCC_GetSysClockFreq
 2034              		.syntax unified
 2035              		.thumb
 2036              		.thumb_func
 2038              	HAL_RCC_GetSysClockFreq:
 2039              	.LFB150:
1353:../../Drivers/STM32H7xx_HAL_Driver/Src/stm32h7xx_hal_rcc.c **** 
1354:../../Drivers/STM32H7xx_HAL_Driver/Src/stm32h7xx_hal_rcc.c **** /**
1355:../../Drivers/STM32H7xx_HAL_Driver/Src/stm32h7xx_hal_rcc.c ****   * @brief  Returns the SYSCLK frequency
ARM GAS  C:\Users\minis\AppData\Local\Temp\cczlSevg.s 			page 66


1356:../../Drivers/STM32H7xx_HAL_Driver/Src/stm32h7xx_hal_rcc.c ****   *
1357:../../Drivers/STM32H7xx_HAL_Driver/Src/stm32h7xx_hal_rcc.c ****   * @note   The system frequency computed by this function is not the real
1358:../../Drivers/STM32H7xx_HAL_Driver/Src/stm32h7xx_hal_rcc.c ****   *         frequency in the chip. It is calculated based on the predefined
1359:../../Drivers/STM32H7xx_HAL_Driver/Src/stm32h7xx_hal_rcc.c ****   *         constant and the selected clock source:
1360:../../Drivers/STM32H7xx_HAL_Driver/Src/stm32h7xx_hal_rcc.c ****   * @note     If SYSCLK source is CSI, function returns values based on CSI_VALUE(*)
1361:../../Drivers/STM32H7xx_HAL_Driver/Src/stm32h7xx_hal_rcc.c ****   * @note     If SYSCLK source is HSI, function returns values based on HSI_VALUE(**)
1362:../../Drivers/STM32H7xx_HAL_Driver/Src/stm32h7xx_hal_rcc.c ****   * @note     If SYSCLK source is HSE, function returns values based on HSE_VALUE(***)
1363:../../Drivers/STM32H7xx_HAL_Driver/Src/stm32h7xx_hal_rcc.c ****   * @note     If SYSCLK source is PLL, function returns values based on CSI_VALUE(*),
1364:../../Drivers/STM32H7xx_HAL_Driver/Src/stm32h7xx_hal_rcc.c ****   *           HSI_VALUE(**) or HSE_VALUE(***) multiplied/divided by the PLL factors.
1365:../../Drivers/STM32H7xx_HAL_Driver/Src/stm32h7xx_hal_rcc.c ****   * @note     (*) CSI_VALUE is a constant defined in stm32h7xx_hal_conf.h file (default value
1366:../../Drivers/STM32H7xx_HAL_Driver/Src/stm32h7xx_hal_rcc.c ****   *               4 MHz) but the real value may vary depending on the variations
1367:../../Drivers/STM32H7xx_HAL_Driver/Src/stm32h7xx_hal_rcc.c ****   *               in voltage and temperature.
1368:../../Drivers/STM32H7xx_HAL_Driver/Src/stm32h7xx_hal_rcc.c ****   * @note     (**) HSI_VALUE is a constant defined in stm32h7xx_hal_conf.h file (default value
1369:../../Drivers/STM32H7xx_HAL_Driver/Src/stm32h7xx_hal_rcc.c ****   *               64 MHz) but the real value may vary depending on the variations
1370:../../Drivers/STM32H7xx_HAL_Driver/Src/stm32h7xx_hal_rcc.c ****   *               in voltage and temperature.
1371:../../Drivers/STM32H7xx_HAL_Driver/Src/stm32h7xx_hal_rcc.c ****   * @note     (***) HSE_VALUE is a constant defined in stm32h7xx_hal_conf.h file (default value
1372:../../Drivers/STM32H7xx_HAL_Driver/Src/stm32h7xx_hal_rcc.c ****   *                25 MHz), user has to ensure that HSE_VALUE is same as the real
1373:../../Drivers/STM32H7xx_HAL_Driver/Src/stm32h7xx_hal_rcc.c ****   *                frequency of the crystal used. Otherwise, this function may
1374:../../Drivers/STM32H7xx_HAL_Driver/Src/stm32h7xx_hal_rcc.c ****   *                have wrong result.
1375:../../Drivers/STM32H7xx_HAL_Driver/Src/stm32h7xx_hal_rcc.c ****   *
1376:../../Drivers/STM32H7xx_HAL_Driver/Src/stm32h7xx_hal_rcc.c ****   * @note   The result of this function could be not correct when using fractional
1377:../../Drivers/STM32H7xx_HAL_Driver/Src/stm32h7xx_hal_rcc.c ****   *         value for HSE crystal.
1378:../../Drivers/STM32H7xx_HAL_Driver/Src/stm32h7xx_hal_rcc.c ****   *
1379:../../Drivers/STM32H7xx_HAL_Driver/Src/stm32h7xx_hal_rcc.c ****   * @note   This function can be used by the user application to compute the
1380:../../Drivers/STM32H7xx_HAL_Driver/Src/stm32h7xx_hal_rcc.c ****   *         baud rate for the communication peripherals or configure other parameters.
1381:../../Drivers/STM32H7xx_HAL_Driver/Src/stm32h7xx_hal_rcc.c ****   *
1382:../../Drivers/STM32H7xx_HAL_Driver/Src/stm32h7xx_hal_rcc.c ****   * @note   Each time SYSCLK changes, this function must be called to update the
1383:../../Drivers/STM32H7xx_HAL_Driver/Src/stm32h7xx_hal_rcc.c ****   *         right SYSCLK value. Otherwise, any configuration based on this function will be incorre
1384:../../Drivers/STM32H7xx_HAL_Driver/Src/stm32h7xx_hal_rcc.c ****   *
1385:../../Drivers/STM32H7xx_HAL_Driver/Src/stm32h7xx_hal_rcc.c ****   *
1386:../../Drivers/STM32H7xx_HAL_Driver/Src/stm32h7xx_hal_rcc.c ****   * @retval SYSCLK frequency
1387:../../Drivers/STM32H7xx_HAL_Driver/Src/stm32h7xx_hal_rcc.c ****   */
1388:../../Drivers/STM32H7xx_HAL_Driver/Src/stm32h7xx_hal_rcc.c **** uint32_t HAL_RCC_GetSysClockFreq(void)
1389:../../Drivers/STM32H7xx_HAL_Driver/Src/stm32h7xx_hal_rcc.c **** {
 2040              		.loc 1 1389 1 is_stmt 1 view -0
 2041              		.cfi_startproc
 2042              		@ args = 0, pretend = 0, frame = 0
 2043              		@ frame_needed = 0, uses_anonymous_args = 0
 2044              		@ link register save eliminated.
1390:../../Drivers/STM32H7xx_HAL_Driver/Src/stm32h7xx_hal_rcc.c ****   uint32_t pllp, pllsource, pllm, pllfracen, hsivalue;
 2045              		.loc 1 1390 3 view .LVU655
1391:../../Drivers/STM32H7xx_HAL_Driver/Src/stm32h7xx_hal_rcc.c ****   float_t fracn1, pllvco;
 2046              		.loc 1 1391 3 view .LVU656
1392:../../Drivers/STM32H7xx_HAL_Driver/Src/stm32h7xx_hal_rcc.c ****   uint32_t sysclockfreq;
 2047              		.loc 1 1392 3 view .LVU657
1393:../../Drivers/STM32H7xx_HAL_Driver/Src/stm32h7xx_hal_rcc.c **** 
1394:../../Drivers/STM32H7xx_HAL_Driver/Src/stm32h7xx_hal_rcc.c ****   /* Get SYSCLK source -------------------------------------------------------*/
1395:../../Drivers/STM32H7xx_HAL_Driver/Src/stm32h7xx_hal_rcc.c **** 
1396:../../Drivers/STM32H7xx_HAL_Driver/Src/stm32h7xx_hal_rcc.c ****   switch (RCC->CFGR & RCC_CFGR_SWS)
 2048              		.loc 1 1396 3 view .LVU658
 2049              		.loc 1 1396 14 is_stmt 0 view .LVU659
 2050 0000 754B     		ldr	r3, .L198
 2051 0002 1B69     		ldr	r3, [r3, #16]
 2052              		.loc 1 1396 21 view .LVU660
 2053 0004 03F03803 		and	r3, r3, #56
 2054              		.loc 1 1396 3 view .LVU661
 2055 0008 102B     		cmp	r3, #16
ARM GAS  C:\Users\minis\AppData\Local\Temp\cczlSevg.s 			page 67


 2056 000a 00F0DE80 		beq	.L192
 2057 000e 182B     		cmp	r3, #24
 2058 0010 0FD0     		beq	.L186
 2059 0012 002B     		cmp	r3, #0
 2060 0014 40F0DB80 		bne	.L193
1397:../../Drivers/STM32H7xx_HAL_Driver/Src/stm32h7xx_hal_rcc.c ****   {
1398:../../Drivers/STM32H7xx_HAL_Driver/Src/stm32h7xx_hal_rcc.c ****     case RCC_CFGR_SWS_HSI:  /* HSI used as system clock source */
1399:../../Drivers/STM32H7xx_HAL_Driver/Src/stm32h7xx_hal_rcc.c **** 
1400:../../Drivers/STM32H7xx_HAL_Driver/Src/stm32h7xx_hal_rcc.c ****       if (__HAL_RCC_GET_FLAG(RCC_FLAG_HSIDIV) != 0U)
 2061              		.loc 1 1400 7 is_stmt 1 view .LVU662
 2062              		.loc 1 1400 11 is_stmt 0 view .LVU663
 2063 0018 6F4B     		ldr	r3, .L198
 2064 001a 1B68     		ldr	r3, [r3]
 2065              		.loc 1 1400 10 view .LVU664
 2066 001c 13F0200F 		tst	r3, #32
 2067 0020 00F0D780 		beq	.L194
1401:../../Drivers/STM32H7xx_HAL_Driver/Src/stm32h7xx_hal_rcc.c ****       {
1402:../../Drivers/STM32H7xx_HAL_Driver/Src/stm32h7xx_hal_rcc.c ****         sysclockfreq = (uint32_t)(HSI_VALUE >> (__HAL_RCC_GET_HSI_DIVIDER() >> 3));
 2068              		.loc 1 1402 9 is_stmt 1 view .LVU665
 2069              		.loc 1 1402 49 is_stmt 0 view .LVU666
 2070 0024 6C4B     		ldr	r3, .L198
 2071 0026 1B68     		ldr	r3, [r3]
 2072              		.loc 1 1402 77 view .LVU667
 2073 0028 C3F3C103 		ubfx	r3, r3, #3, #2
 2074              		.loc 1 1402 22 view .LVU668
 2075 002c 6B48     		ldr	r0, .L198+4
 2076 002e D840     		lsrs	r0, r0, r3
 2077              	.LVL163:
 2078              		.loc 1 1402 22 view .LVU669
 2079 0030 7047     		bx	lr
 2080              	.LVL164:
 2081              	.L186:
1389:../../Drivers/STM32H7xx_HAL_Driver/Src/stm32h7xx_hal_rcc.c ****   uint32_t pllp, pllsource, pllm, pllfracen, hsivalue;
 2082              		.loc 1 1389 1 view .LVU670
 2083 0032 10B4     		push	{r4}
 2084              	.LCFI8:
 2085              		.cfi_def_cfa_offset 4
 2086              		.cfi_offset 4, -4
1403:../../Drivers/STM32H7xx_HAL_Driver/Src/stm32h7xx_hal_rcc.c ****       }
1404:../../Drivers/STM32H7xx_HAL_Driver/Src/stm32h7xx_hal_rcc.c ****       else
1405:../../Drivers/STM32H7xx_HAL_Driver/Src/stm32h7xx_hal_rcc.c ****       {
1406:../../Drivers/STM32H7xx_HAL_Driver/Src/stm32h7xx_hal_rcc.c ****         sysclockfreq = (uint32_t) HSI_VALUE;
1407:../../Drivers/STM32H7xx_HAL_Driver/Src/stm32h7xx_hal_rcc.c ****       }
1408:../../Drivers/STM32H7xx_HAL_Driver/Src/stm32h7xx_hal_rcc.c **** 
1409:../../Drivers/STM32H7xx_HAL_Driver/Src/stm32h7xx_hal_rcc.c ****       break;
1410:../../Drivers/STM32H7xx_HAL_Driver/Src/stm32h7xx_hal_rcc.c **** 
1411:../../Drivers/STM32H7xx_HAL_Driver/Src/stm32h7xx_hal_rcc.c ****     case RCC_CFGR_SWS_CSI:  /* CSI used as system clock  source */
1412:../../Drivers/STM32H7xx_HAL_Driver/Src/stm32h7xx_hal_rcc.c ****       sysclockfreq = CSI_VALUE;
1413:../../Drivers/STM32H7xx_HAL_Driver/Src/stm32h7xx_hal_rcc.c ****       break;
1414:../../Drivers/STM32H7xx_HAL_Driver/Src/stm32h7xx_hal_rcc.c **** 
1415:../../Drivers/STM32H7xx_HAL_Driver/Src/stm32h7xx_hal_rcc.c ****     case RCC_CFGR_SWS_HSE:  /* HSE used as system clock  source */
1416:../../Drivers/STM32H7xx_HAL_Driver/Src/stm32h7xx_hal_rcc.c ****       sysclockfreq = HSE_VALUE;
1417:../../Drivers/STM32H7xx_HAL_Driver/Src/stm32h7xx_hal_rcc.c ****       break;
1418:../../Drivers/STM32H7xx_HAL_Driver/Src/stm32h7xx_hal_rcc.c **** 
1419:../../Drivers/STM32H7xx_HAL_Driver/Src/stm32h7xx_hal_rcc.c ****     case RCC_CFGR_SWS_PLL1:  /* PLL1 used as system clock  source */
1420:../../Drivers/STM32H7xx_HAL_Driver/Src/stm32h7xx_hal_rcc.c **** 
1421:../../Drivers/STM32H7xx_HAL_Driver/Src/stm32h7xx_hal_rcc.c ****       /* PLL_VCO = (HSE_VALUE or HSI_VALUE or CSI_VALUE/ PLLM) * PLLN
ARM GAS  C:\Users\minis\AppData\Local\Temp\cczlSevg.s 			page 68


1422:../../Drivers/STM32H7xx_HAL_Driver/Src/stm32h7xx_hal_rcc.c ****       SYSCLK = PLL_VCO / PLLR
1423:../../Drivers/STM32H7xx_HAL_Driver/Src/stm32h7xx_hal_rcc.c ****       */
1424:../../Drivers/STM32H7xx_HAL_Driver/Src/stm32h7xx_hal_rcc.c ****       pllsource = (RCC->PLLCKSELR & RCC_PLLCKSELR_PLLSRC);
 2087              		.loc 1 1424 7 is_stmt 1 view .LVU671
 2088              		.loc 1 1424 23 is_stmt 0 view .LVU672
 2089 0034 684B     		ldr	r3, .L198
 2090 0036 9A6A     		ldr	r2, [r3, #40]
 2091              		.loc 1 1424 17 view .LVU673
 2092 0038 02F00302 		and	r2, r2, #3
 2093              	.LVL165:
1425:../../Drivers/STM32H7xx_HAL_Driver/Src/stm32h7xx_hal_rcc.c ****       pllm = ((RCC->PLLCKSELR & RCC_PLLCKSELR_DIVM1) >> 4)  ;
 2094              		.loc 1 1425 7 is_stmt 1 view .LVU674
 2095              		.loc 1 1425 19 is_stmt 0 view .LVU675
 2096 003c 9C6A     		ldr	r4, [r3, #40]
 2097              		.loc 1 1425 12 view .LVU676
 2098 003e C4F30510 		ubfx	r0, r4, #4, #6
 2099              	.LVL166:
1426:../../Drivers/STM32H7xx_HAL_Driver/Src/stm32h7xx_hal_rcc.c ****       pllfracen = ((RCC-> PLLCFGR & RCC_PLLCFGR_PLL1FRACEN) >> RCC_PLLCFGR_PLL1FRACEN_Pos);
 2100              		.loc 1 1426 7 is_stmt 1 view .LVU677
 2101              		.loc 1 1426 24 is_stmt 0 view .LVU678
 2102 0042 D96A     		ldr	r1, [r3, #44]
 2103              		.loc 1 1426 17 view .LVU679
 2104 0044 01F00101 		and	r1, r1, #1
 2105              	.LVL167:
1427:../../Drivers/STM32H7xx_HAL_Driver/Src/stm32h7xx_hal_rcc.c ****       fracn1 = (float_t)(uint32_t)(pllfracen * ((RCC->PLL1FRACR & RCC_PLL1FRACR_FRACN1) >> 3));
 2106              		.loc 1 1427 7 is_stmt 1 view .LVU680
 2107              		.loc 1 1427 53 is_stmt 0 view .LVU681
 2108 0048 5B6B     		ldr	r3, [r3, #52]
 2109              		.loc 1 1427 89 view .LVU682
 2110 004a C3F3CC03 		ubfx	r3, r3, #3, #13
 2111              		.loc 1 1427 25 view .LVU683
 2112 004e 01FB03F3 		mul	r3, r1, r3
 2113              		.loc 1 1427 14 view .LVU684
 2114 0052 07EE903A 		vmov	s15, r3	@ int
 2115 0056 F8EE677A 		vcvt.f32.u32	s15, s15
 2116              	.LVL168:
1428:../../Drivers/STM32H7xx_HAL_Driver/Src/stm32h7xx_hal_rcc.c **** 
1429:../../Drivers/STM32H7xx_HAL_Driver/Src/stm32h7xx_hal_rcc.c ****       if (pllm != 0U)
 2117              		.loc 1 1429 7 is_stmt 1 view .LVU685
 2118              		.loc 1 1429 10 is_stmt 0 view .LVU686
 2119 005a 14F47C7F 		tst	r4, #1008
 2120 005e 77D0     		beq	.L184
1430:../../Drivers/STM32H7xx_HAL_Driver/Src/stm32h7xx_hal_rcc.c ****       {
1431:../../Drivers/STM32H7xx_HAL_Driver/Src/stm32h7xx_hal_rcc.c ****         switch (pllsource)
 2121              		.loc 1 1431 9 is_stmt 1 view .LVU687
 2122 0060 012A     		cmp	r2, #1
 2123 0062 4AD0     		beq	.L187
 2124 0064 022A     		cmp	r2, #2
 2125 0066 76D0     		beq	.L188
 2126 0068 002A     		cmp	r2, #0
 2127 006a 40F09180 		bne	.L189
1432:../../Drivers/STM32H7xx_HAL_Driver/Src/stm32h7xx_hal_rcc.c ****         {
1433:../../Drivers/STM32H7xx_HAL_Driver/Src/stm32h7xx_hal_rcc.c ****           case RCC_PLLSOURCE_HSI:  /* HSI used as PLL clock source */
1434:../../Drivers/STM32H7xx_HAL_Driver/Src/stm32h7xx_hal_rcc.c **** 
1435:../../Drivers/STM32H7xx_HAL_Driver/Src/stm32h7xx_hal_rcc.c ****             if (__HAL_RCC_GET_FLAG(RCC_FLAG_HSIDIV) != 0U)
 2128              		.loc 1 1435 13 view .LVU688
 2129              		.loc 1 1435 17 is_stmt 0 view .LVU689
ARM GAS  C:\Users\minis\AppData\Local\Temp\cczlSevg.s 			page 69


 2130 006e 5A4B     		ldr	r3, .L198
 2131 0070 1B68     		ldr	r3, [r3]
 2132              		.loc 1 1435 16 view .LVU690
 2133 0072 13F0200F 		tst	r3, #32
 2134 0076 23D0     		beq	.L190
1436:../../Drivers/STM32H7xx_HAL_Driver/Src/stm32h7xx_hal_rcc.c ****             {
1437:../../Drivers/STM32H7xx_HAL_Driver/Src/stm32h7xx_hal_rcc.c ****               hsivalue = (HSI_VALUE >> (__HAL_RCC_GET_HSI_DIVIDER() >> 3));
 2135              		.loc 1 1437 15 is_stmt 1 view .LVU691
 2136              		.loc 1 1437 41 is_stmt 0 view .LVU692
 2137 0078 5749     		ldr	r1, .L198
 2138              	.LVL169:
 2139              		.loc 1 1437 41 view .LVU693
 2140 007a 0A68     		ldr	r2, [r1]
 2141              	.LVL170:
 2142              		.loc 1 1437 69 view .LVU694
 2143 007c C2F3C102 		ubfx	r2, r2, #3, #2
 2144              		.loc 1 1437 24 view .LVU695
 2145 0080 564B     		ldr	r3, .L198+4
 2146 0082 D340     		lsrs	r3, r3, r2
 2147              	.LVL171:
1438:../../Drivers/STM32H7xx_HAL_Driver/Src/stm32h7xx_hal_rcc.c ****               pllvco = ((float_t)hsivalue / (float_t)pllm) * ((float_t)(uint32_t)(RCC->PLL1DIVR & R
 2148              		.loc 1 1438 15 is_stmt 1 view .LVU696
 2149              		.loc 1 1438 25 is_stmt 0 view .LVU697
 2150 0084 07EE103A 		vmov	s14, r3	@ int
 2151 0088 F8EE476A 		vcvt.f32.u32	s13, s14
 2152              		.loc 1 1438 45 view .LVU698
 2153 008c 07EE100A 		vmov	s14, r0	@ int
 2154 0090 B8EE476A 		vcvt.f32.u32	s12, s14
 2155              		.loc 1 1438 43 view .LVU699
 2156 0094 86EE867A 		vdiv.f32	s14, s13, s12
 2157              		.loc 1 1438 86 view .LVU700
 2158 0098 0B6B     		ldr	r3, [r1, #48]
 2159              	.LVL172:
 2160              		.loc 1 1438 72 view .LVU701
 2161 009a C3F30803 		ubfx	r3, r3, #0, #9
 2162              		.loc 1 1438 63 view .LVU702
 2163 009e 06EE903A 		vmov	s13, r3	@ int
 2164 00a2 F8EE666A 		vcvt.f32.u32	s13, s13
 2165              		.loc 1 1438 126 view .LVU703
 2166 00a6 9FED4E6A 		vldr.32	s12, .L198+8
 2167 00aa 67EE867A 		vmul.f32	s15, s15, s12
 2168              	.LVL173:
 2169              		.loc 1 1438 116 view .LVU704
 2170 00ae 76EEA77A 		vadd.f32	s15, s13, s15
 2171              		.loc 1 1438 145 view .LVU705
 2172 00b2 F7EE006A 		vmov.f32	s13, #1.0e+0
 2173 00b6 77EEA67A 		vadd.f32	s15, s15, s13
 2174              		.loc 1 1438 22 view .LVU706
 2175 00ba 27EE277A 		vmul.f32	s14, s14, s15
 2176              	.LVL174:
 2177              		.loc 1 1438 22 view .LVU707
 2178 00be 38E0     		b	.L191
 2179              	.LVL175:
 2180              	.L190:
1439:../../Drivers/STM32H7xx_HAL_Driver/Src/stm32h7xx_hal_rcc.c ****             }
1440:../../Drivers/STM32H7xx_HAL_Driver/Src/stm32h7xx_hal_rcc.c ****             else
1441:../../Drivers/STM32H7xx_HAL_Driver/Src/stm32h7xx_hal_rcc.c ****             {
ARM GAS  C:\Users\minis\AppData\Local\Temp\cczlSevg.s 			page 70


1442:../../Drivers/STM32H7xx_HAL_Driver/Src/stm32h7xx_hal_rcc.c ****               pllvco = ((float_t)HSI_VALUE / (float_t)pllm) * ((float_t)(uint32_t)(RCC->PLL1DIVR & 
 2181              		.loc 1 1442 15 is_stmt 1 view .LVU708
 2182              		.loc 1 1442 46 is_stmt 0 view .LVU709
 2183 00c0 07EE100A 		vmov	s14, r0	@ int
 2184 00c4 F8EE476A 		vcvt.f32.u32	s13, s14
 2185              		.loc 1 1442 44 view .LVU710
 2186 00c8 9FED466A 		vldr.32	s12, .L198+12
 2187 00cc 86EE267A 		vdiv.f32	s14, s12, s13
 2188              		.loc 1 1442 87 view .LVU711
 2189 00d0 414B     		ldr	r3, .L198
 2190 00d2 1B6B     		ldr	r3, [r3, #48]
 2191              		.loc 1 1442 73 view .LVU712
 2192 00d4 C3F30803 		ubfx	r3, r3, #0, #9
 2193              		.loc 1 1442 64 view .LVU713
 2194 00d8 06EE903A 		vmov	s13, r3	@ int
 2195 00dc F8EE666A 		vcvt.f32.u32	s13, s13
 2196              		.loc 1 1442 127 view .LVU714
 2197 00e0 9FED3F6A 		vldr.32	s12, .L198+8
 2198 00e4 67EE867A 		vmul.f32	s15, s15, s12
 2199              	.LVL176:
 2200              		.loc 1 1442 117 view .LVU715
 2201 00e8 76EEA77A 		vadd.f32	s15, s13, s15
 2202              		.loc 1 1442 146 view .LVU716
 2203 00ec F7EE006A 		vmov.f32	s13, #1.0e+0
 2204 00f0 77EEA67A 		vadd.f32	s15, s15, s13
 2205              		.loc 1 1442 22 view .LVU717
 2206 00f4 27EE277A 		vmul.f32	s14, s14, s15
 2207              	.LVL177:
 2208              		.loc 1 1442 22 view .LVU718
 2209 00f8 1BE0     		b	.L191
 2210              	.LVL178:
 2211              	.L187:
1443:../../Drivers/STM32H7xx_HAL_Driver/Src/stm32h7xx_hal_rcc.c ****             }
1444:../../Drivers/STM32H7xx_HAL_Driver/Src/stm32h7xx_hal_rcc.c ****             break;
1445:../../Drivers/STM32H7xx_HAL_Driver/Src/stm32h7xx_hal_rcc.c **** 
1446:../../Drivers/STM32H7xx_HAL_Driver/Src/stm32h7xx_hal_rcc.c ****           case RCC_PLLSOURCE_CSI:  /* CSI used as PLL clock source */
1447:../../Drivers/STM32H7xx_HAL_Driver/Src/stm32h7xx_hal_rcc.c ****             pllvco = ((float_t)CSI_VALUE / (float_t)pllm) * ((float_t)(uint32_t)(RCC->PLL1DIVR & RC
 2212              		.loc 1 1447 13 is_stmt 1 view .LVU719
 2213              		.loc 1 1447 44 is_stmt 0 view .LVU720
 2214 00fa 07EE100A 		vmov	s14, r0	@ int
 2215 00fe F8EE476A 		vcvt.f32.u32	s13, s14
 2216              		.loc 1 1447 42 view .LVU721
 2217 0102 9FED396A 		vldr.32	s12, .L198+16
 2218 0106 86EE267A 		vdiv.f32	s14, s12, s13
 2219              		.loc 1 1447 85 view .LVU722
 2220 010a 334B     		ldr	r3, .L198
 2221 010c 1B6B     		ldr	r3, [r3, #48]
 2222              		.loc 1 1447 71 view .LVU723
 2223 010e C3F30803 		ubfx	r3, r3, #0, #9
 2224              		.loc 1 1447 62 view .LVU724
 2225 0112 06EE903A 		vmov	s13, r3	@ int
 2226 0116 F8EE666A 		vcvt.f32.u32	s13, s13
 2227              		.loc 1 1447 125 view .LVU725
 2228 011a 9FED316A 		vldr.32	s12, .L198+8
 2229 011e 67EE867A 		vmul.f32	s15, s15, s12
 2230              	.LVL179:
 2231              		.loc 1 1447 115 view .LVU726
ARM GAS  C:\Users\minis\AppData\Local\Temp\cczlSevg.s 			page 71


 2232 0122 76EEA77A 		vadd.f32	s15, s13, s15
 2233              		.loc 1 1447 144 view .LVU727
 2234 0126 F7EE006A 		vmov.f32	s13, #1.0e+0
 2235 012a 77EEA67A 		vadd.f32	s15, s15, s13
 2236              		.loc 1 1447 20 view .LVU728
 2237 012e 27EE277A 		vmul.f32	s14, s14, s15
 2238              	.LVL180:
1448:../../Drivers/STM32H7xx_HAL_Driver/Src/stm32h7xx_hal_rcc.c ****             break;
 2239              		.loc 1 1448 13 is_stmt 1 view .LVU729
 2240              	.L191:
1449:../../Drivers/STM32H7xx_HAL_Driver/Src/stm32h7xx_hal_rcc.c **** 
1450:../../Drivers/STM32H7xx_HAL_Driver/Src/stm32h7xx_hal_rcc.c ****           case RCC_PLLSOURCE_HSE:  /* HSE used as PLL clock source */
1451:../../Drivers/STM32H7xx_HAL_Driver/Src/stm32h7xx_hal_rcc.c ****             pllvco = ((float_t)HSE_VALUE / (float_t)pllm) * ((float_t)(uint32_t)(RCC->PLL1DIVR & RC
1452:../../Drivers/STM32H7xx_HAL_Driver/Src/stm32h7xx_hal_rcc.c ****             break;
1453:../../Drivers/STM32H7xx_HAL_Driver/Src/stm32h7xx_hal_rcc.c **** 
1454:../../Drivers/STM32H7xx_HAL_Driver/Src/stm32h7xx_hal_rcc.c ****           default:
1455:../../Drivers/STM32H7xx_HAL_Driver/Src/stm32h7xx_hal_rcc.c ****             pllvco = ((float_t)CSI_VALUE / (float_t)pllm) * ((float_t)(uint32_t)(RCC->PLL1DIVR & RC
1456:../../Drivers/STM32H7xx_HAL_Driver/Src/stm32h7xx_hal_rcc.c ****             break;
1457:../../Drivers/STM32H7xx_HAL_Driver/Src/stm32h7xx_hal_rcc.c ****         }
1458:../../Drivers/STM32H7xx_HAL_Driver/Src/stm32h7xx_hal_rcc.c ****         pllp = (((RCC->PLL1DIVR & RCC_PLL1DIVR_P1) >> 9) + 1U) ;
 2241              		.loc 1 1458 9 view .LVU730
 2242              		.loc 1 1458 22 is_stmt 0 view .LVU731
 2243 0132 294B     		ldr	r3, .L198
 2244 0134 1B6B     		ldr	r3, [r3, #48]
 2245              		.loc 1 1458 52 view .LVU732
 2246 0136 C3F34623 		ubfx	r3, r3, #9, #7
 2247              		.loc 1 1458 14 view .LVU733
 2248 013a 0133     		adds	r3, r3, #1
 2249              	.LVL181:
1459:../../Drivers/STM32H7xx_HAL_Driver/Src/stm32h7xx_hal_rcc.c ****         sysclockfreq = (uint32_t)(float_t)(pllvco / (float_t)pllp);
 2250              		.loc 1 1459 9 is_stmt 1 view .LVU734
 2251              		.loc 1 1459 53 is_stmt 0 view .LVU735
 2252 013c 07EE903A 		vmov	s15, r3	@ int
 2253 0140 F8EE677A 		vcvt.f32.u32	s15, s15
 2254              		.loc 1 1459 34 view .LVU736
 2255 0144 C7EE276A 		vdiv.f32	s13, s14, s15
 2256              		.loc 1 1459 22 view .LVU737
 2257 0148 FCEEE67A 		vcvt.u32.f32	s15, s13
 2258 014c 17EE900A 		vmov	r0, s15	@ int
 2259              	.LVL182:
 2260              	.L184:
1460:../../Drivers/STM32H7xx_HAL_Driver/Src/stm32h7xx_hal_rcc.c ****       }
1461:../../Drivers/STM32H7xx_HAL_Driver/Src/stm32h7xx_hal_rcc.c ****       else
1462:../../Drivers/STM32H7xx_HAL_Driver/Src/stm32h7xx_hal_rcc.c ****       {
1463:../../Drivers/STM32H7xx_HAL_Driver/Src/stm32h7xx_hal_rcc.c ****         sysclockfreq = 0U;
1464:../../Drivers/STM32H7xx_HAL_Driver/Src/stm32h7xx_hal_rcc.c ****       }
1465:../../Drivers/STM32H7xx_HAL_Driver/Src/stm32h7xx_hal_rcc.c ****       break;
1466:../../Drivers/STM32H7xx_HAL_Driver/Src/stm32h7xx_hal_rcc.c **** 
1467:../../Drivers/STM32H7xx_HAL_Driver/Src/stm32h7xx_hal_rcc.c ****     default:
1468:../../Drivers/STM32H7xx_HAL_Driver/Src/stm32h7xx_hal_rcc.c ****       sysclockfreq = CSI_VALUE;
1469:../../Drivers/STM32H7xx_HAL_Driver/Src/stm32h7xx_hal_rcc.c ****       break;
1470:../../Drivers/STM32H7xx_HAL_Driver/Src/stm32h7xx_hal_rcc.c ****   }
1471:../../Drivers/STM32H7xx_HAL_Driver/Src/stm32h7xx_hal_rcc.c **** 
1472:../../Drivers/STM32H7xx_HAL_Driver/Src/stm32h7xx_hal_rcc.c ****   return sysclockfreq;
1473:../../Drivers/STM32H7xx_HAL_Driver/Src/stm32h7xx_hal_rcc.c **** }
 2261              		.loc 1 1473 1 view .LVU738
 2262 0150 5DF8044B 		ldr	r4, [sp], #4
ARM GAS  C:\Users\minis\AppData\Local\Temp\cczlSevg.s 			page 72


 2263              	.LCFI9:
 2264              		.cfi_remember_state
 2265              		.cfi_restore 4
 2266              		.cfi_def_cfa_offset 0
 2267              	.LVL183:
 2268              		.loc 1 1473 1 view .LVU739
 2269 0154 7047     		bx	lr
 2270              	.LVL184:
 2271              	.L188:
 2272              	.LCFI10:
 2273              		.cfi_restore_state
1451:../../Drivers/STM32H7xx_HAL_Driver/Src/stm32h7xx_hal_rcc.c ****             break;
 2274              		.loc 1 1451 13 is_stmt 1 view .LVU740
1451:../../Drivers/STM32H7xx_HAL_Driver/Src/stm32h7xx_hal_rcc.c ****             break;
 2275              		.loc 1 1451 44 is_stmt 0 view .LVU741
 2276 0156 07EE100A 		vmov	s14, r0	@ int
 2277 015a F8EE476A 		vcvt.f32.u32	s13, s14
1451:../../Drivers/STM32H7xx_HAL_Driver/Src/stm32h7xx_hal_rcc.c ****             break;
 2278              		.loc 1 1451 42 view .LVU742
 2279 015e 9FED236A 		vldr.32	s12, .L198+20
 2280 0162 86EE267A 		vdiv.f32	s14, s12, s13
1451:../../Drivers/STM32H7xx_HAL_Driver/Src/stm32h7xx_hal_rcc.c ****             break;
 2281              		.loc 1 1451 85 view .LVU743
 2282 0166 1C4B     		ldr	r3, .L198
 2283 0168 1B6B     		ldr	r3, [r3, #48]
1451:../../Drivers/STM32H7xx_HAL_Driver/Src/stm32h7xx_hal_rcc.c ****             break;
 2284              		.loc 1 1451 71 view .LVU744
 2285 016a C3F30803 		ubfx	r3, r3, #0, #9
1451:../../Drivers/STM32H7xx_HAL_Driver/Src/stm32h7xx_hal_rcc.c ****             break;
 2286              		.loc 1 1451 62 view .LVU745
 2287 016e 06EE903A 		vmov	s13, r3	@ int
 2288 0172 F8EE666A 		vcvt.f32.u32	s13, s13
1451:../../Drivers/STM32H7xx_HAL_Driver/Src/stm32h7xx_hal_rcc.c ****             break;
 2289              		.loc 1 1451 125 view .LVU746
 2290 0176 9FED1A6A 		vldr.32	s12, .L198+8
 2291 017a 67EE867A 		vmul.f32	s15, s15, s12
 2292              	.LVL185:
1451:../../Drivers/STM32H7xx_HAL_Driver/Src/stm32h7xx_hal_rcc.c ****             break;
 2293              		.loc 1 1451 115 view .LVU747
 2294 017e 76EEA77A 		vadd.f32	s15, s13, s15
1451:../../Drivers/STM32H7xx_HAL_Driver/Src/stm32h7xx_hal_rcc.c ****             break;
 2295              		.loc 1 1451 144 view .LVU748
 2296 0182 F7EE006A 		vmov.f32	s13, #1.0e+0
 2297 0186 77EEA67A 		vadd.f32	s15, s15, s13
1451:../../Drivers/STM32H7xx_HAL_Driver/Src/stm32h7xx_hal_rcc.c ****             break;
 2298              		.loc 1 1451 20 view .LVU749
 2299 018a 27EE277A 		vmul.f32	s14, s14, s15
 2300              	.LVL186:
1452:../../Drivers/STM32H7xx_HAL_Driver/Src/stm32h7xx_hal_rcc.c **** 
 2301              		.loc 1 1452 13 is_stmt 1 view .LVU750
 2302 018e D0E7     		b	.L191
 2303              	.LVL187:
 2304              	.L189:
1455:../../Drivers/STM32H7xx_HAL_Driver/Src/stm32h7xx_hal_rcc.c ****             break;
 2305              		.loc 1 1455 13 view .LVU751
1455:../../Drivers/STM32H7xx_HAL_Driver/Src/stm32h7xx_hal_rcc.c ****             break;
 2306              		.loc 1 1455 44 is_stmt 0 view .LVU752
ARM GAS  C:\Users\minis\AppData\Local\Temp\cczlSevg.s 			page 73


 2307 0190 07EE100A 		vmov	s14, r0	@ int
 2308 0194 F8EE476A 		vcvt.f32.u32	s13, s14
1455:../../Drivers/STM32H7xx_HAL_Driver/Src/stm32h7xx_hal_rcc.c ****             break;
 2309              		.loc 1 1455 42 view .LVU753
 2310 0198 9FED136A 		vldr.32	s12, .L198+16
 2311 019c 86EE267A 		vdiv.f32	s14, s12, s13
1455:../../Drivers/STM32H7xx_HAL_Driver/Src/stm32h7xx_hal_rcc.c ****             break;
 2312              		.loc 1 1455 85 view .LVU754
 2313 01a0 0D4B     		ldr	r3, .L198
 2314 01a2 1B6B     		ldr	r3, [r3, #48]
1455:../../Drivers/STM32H7xx_HAL_Driver/Src/stm32h7xx_hal_rcc.c ****             break;
 2315              		.loc 1 1455 71 view .LVU755
 2316 01a4 C3F30803 		ubfx	r3, r3, #0, #9
1455:../../Drivers/STM32H7xx_HAL_Driver/Src/stm32h7xx_hal_rcc.c ****             break;
 2317              		.loc 1 1455 62 view .LVU756
 2318 01a8 06EE903A 		vmov	s13, r3	@ int
 2319 01ac F8EE666A 		vcvt.f32.u32	s13, s13
1455:../../Drivers/STM32H7xx_HAL_Driver/Src/stm32h7xx_hal_rcc.c ****             break;
 2320              		.loc 1 1455 125 view .LVU757
 2321 01b0 9FED0B6A 		vldr.32	s12, .L198+8
 2322 01b4 67EE867A 		vmul.f32	s15, s15, s12
 2323              	.LVL188:
1455:../../Drivers/STM32H7xx_HAL_Driver/Src/stm32h7xx_hal_rcc.c ****             break;
 2324              		.loc 1 1455 115 view .LVU758
 2325 01b8 76EEA77A 		vadd.f32	s15, s13, s15
1455:../../Drivers/STM32H7xx_HAL_Driver/Src/stm32h7xx_hal_rcc.c ****             break;
 2326              		.loc 1 1455 144 view .LVU759
 2327 01bc F7EE006A 		vmov.f32	s13, #1.0e+0
 2328 01c0 77EEA67A 		vadd.f32	s15, s15, s13
1455:../../Drivers/STM32H7xx_HAL_Driver/Src/stm32h7xx_hal_rcc.c ****             break;
 2329              		.loc 1 1455 20 view .LVU760
 2330 01c4 27EE277A 		vmul.f32	s14, s14, s15
 2331              	.LVL189:
1456:../../Drivers/STM32H7xx_HAL_Driver/Src/stm32h7xx_hal_rcc.c ****         }
 2332              		.loc 1 1456 13 is_stmt 1 view .LVU761
 2333 01c8 B3E7     		b	.L191
 2334              	.LVL190:
 2335              	.L192:
 2336              	.LCFI11:
 2337              		.cfi_def_cfa_offset 0
 2338              		.cfi_restore 4
1416:../../Drivers/STM32H7xx_HAL_Driver/Src/stm32h7xx_hal_rcc.c ****       break;
 2339              		.loc 1 1416 20 is_stmt 0 view .LVU762
 2340 01ca 0948     		ldr	r0, .L198+24
 2341 01cc 7047     		bx	lr
 2342              	.L193:
1396:../../Drivers/STM32H7xx_HAL_Driver/Src/stm32h7xx_hal_rcc.c ****   {
 2343              		.loc 1 1396 3 view .LVU763
 2344 01ce 0948     		ldr	r0, .L198+28
 2345 01d0 7047     		bx	lr
 2346              	.L194:
1406:../../Drivers/STM32H7xx_HAL_Driver/Src/stm32h7xx_hal_rcc.c ****       }
 2347              		.loc 1 1406 22 view .LVU764
 2348 01d2 0248     		ldr	r0, .L198+4
 2349              	.LVL191:
1472:../../Drivers/STM32H7xx_HAL_Driver/Src/stm32h7xx_hal_rcc.c **** }
 2350              		.loc 1 1472 3 is_stmt 1 view .LVU765
ARM GAS  C:\Users\minis\AppData\Local\Temp\cczlSevg.s 			page 74


 2351              		.loc 1 1473 1 is_stmt 0 view .LVU766
 2352 01d4 7047     		bx	lr
 2353              	.L199:
 2354 01d6 00BF     		.align	2
 2355              	.L198:
 2356 01d8 00440258 		.word	1476543488
 2357 01dc 0090D003 		.word	64000000
 2358 01e0 00000039 		.word	956301312
 2359 01e4 0024744C 		.word	1282679808
 2360 01e8 0024744A 		.word	1249125376
 2361 01ec 20BCBE4B 		.word	1270791200
 2362 01f0 40787D01 		.word	25000000
 2363 01f4 00093D00 		.word	4000000
 2364              		.cfi_endproc
 2365              	.LFE150:
 2367              		.section	.text.HAL_RCC_ClockConfig,"ax",%progbits
 2368              		.align	1
 2369              		.global	HAL_RCC_ClockConfig
 2370              		.syntax unified
 2371              		.thumb
 2372              		.thumb_func
 2374              	HAL_RCC_ClockConfig:
 2375              	.LVL192:
 2376              	.LFB146:
 923:../../Drivers/STM32H7xx_HAL_Driver/Src/stm32h7xx_hal_rcc.c ****   HAL_StatusTypeDef halstatus;
 2377              		.loc 1 923 1 is_stmt 1 view -0
 2378              		.cfi_startproc
 2379              		@ args = 0, pretend = 0, frame = 0
 2380              		@ frame_needed = 0, uses_anonymous_args = 0
 924:../../Drivers/STM32H7xx_HAL_Driver/Src/stm32h7xx_hal_rcc.c ****   uint32_t tickstart;
 2381              		.loc 1 924 3 view .LVU768
 925:../../Drivers/STM32H7xx_HAL_Driver/Src/stm32h7xx_hal_rcc.c ****   uint32_t common_system_clock;
 2382              		.loc 1 925 3 view .LVU769
 926:../../Drivers/STM32H7xx_HAL_Driver/Src/stm32h7xx_hal_rcc.c **** 
 2383              		.loc 1 926 3 view .LVU770
 929:../../Drivers/STM32H7xx_HAL_Driver/Src/stm32h7xx_hal_rcc.c ****   {
 2384              		.loc 1 929 3 view .LVU771
 929:../../Drivers/STM32H7xx_HAL_Driver/Src/stm32h7xx_hal_rcc.c ****   {
 2385              		.loc 1 929 6 is_stmt 0 view .LVU772
 2386 0000 0028     		cmp	r0, #0
 2387 0002 00F03281 		beq	.L221
 923:../../Drivers/STM32H7xx_HAL_Driver/Src/stm32h7xx_hal_rcc.c ****   HAL_StatusTypeDef halstatus;
 2388              		.loc 1 923 1 view .LVU773
 2389 0006 70B5     		push	{r4, r5, r6, lr}
 2390              	.LCFI12:
 2391              		.cfi_def_cfa_offset 16
 2392              		.cfi_offset 4, -16
 2393              		.cfi_offset 5, -12
 2394              		.cfi_offset 6, -8
 2395              		.cfi_offset 14, -4
 2396 0008 0D46     		mov	r5, r1
 2397 000a 0446     		mov	r4, r0
 935:../../Drivers/STM32H7xx_HAL_Driver/Src/stm32h7xx_hal_rcc.c ****   assert_param(IS_FLASH_LATENCY(FLatency));
 2398              		.loc 1 935 3 is_stmt 1 view .LVU774
 936:../../Drivers/STM32H7xx_HAL_Driver/Src/stm32h7xx_hal_rcc.c **** 
 2399              		.loc 1 936 3 view .LVU775
 943:../../Drivers/STM32H7xx_HAL_Driver/Src/stm32h7xx_hal_rcc.c ****   {
ARM GAS  C:\Users\minis\AppData\Local\Temp\cczlSevg.s 			page 75


 2400              		.loc 1 943 3 view .LVU776
 943:../../Drivers/STM32H7xx_HAL_Driver/Src/stm32h7xx_hal_rcc.c ****   {
 2401              		.loc 1 943 18 is_stmt 0 view .LVU777
 2402 000c 9B4B     		ldr	r3, .L237
 2403 000e 1B68     		ldr	r3, [r3]
 2404 0010 03F00F03 		and	r3, r3, #15
 943:../../Drivers/STM32H7xx_HAL_Driver/Src/stm32h7xx_hal_rcc.c ****   {
 2405              		.loc 1 943 6 view .LVU778
 2406 0014 8B42     		cmp	r3, r1
 2407 0016 0BD2     		bcs	.L202
 946:../../Drivers/STM32H7xx_HAL_Driver/Src/stm32h7xx_hal_rcc.c **** 
 2408              		.loc 1 946 5 is_stmt 1 view .LVU779
 2409 0018 984A     		ldr	r2, .L237
 2410 001a 1368     		ldr	r3, [r2]
 2411 001c 23F00F03 		bic	r3, r3, #15
 2412 0020 0B43     		orrs	r3, r3, r1
 2413 0022 1360     		str	r3, [r2]
 950:../../Drivers/STM32H7xx_HAL_Driver/Src/stm32h7xx_hal_rcc.c ****     {
 2414              		.loc 1 950 5 view .LVU780
 950:../../Drivers/STM32H7xx_HAL_Driver/Src/stm32h7xx_hal_rcc.c ****     {
 2415              		.loc 1 950 9 is_stmt 0 view .LVU781
 2416 0024 1368     		ldr	r3, [r2]
 2417 0026 03F00F03 		and	r3, r3, #15
 950:../../Drivers/STM32H7xx_HAL_Driver/Src/stm32h7xx_hal_rcc.c ****     {
 2418              		.loc 1 950 8 view .LVU782
 2419 002a 8B42     		cmp	r3, r1
 2420 002c 40F01F81 		bne	.L222
 2421              	.L202:
 959:../../Drivers/STM32H7xx_HAL_Driver/Src/stm32h7xx_hal_rcc.c ****   {
 2422              		.loc 1 959 3 is_stmt 1 view .LVU783
 959:../../Drivers/STM32H7xx_HAL_Driver/Src/stm32h7xx_hal_rcc.c ****   {
 2423              		.loc 1 959 26 is_stmt 0 view .LVU784
 2424 0030 2368     		ldr	r3, [r4]
 959:../../Drivers/STM32H7xx_HAL_Driver/Src/stm32h7xx_hal_rcc.c ****   {
 2425              		.loc 1 959 6 view .LVU785
 2426 0032 13F0040F 		tst	r3, #4
 2427 0036 0CD0     		beq	.L203
 962:../../Drivers/STM32H7xx_HAL_Driver/Src/stm32h7xx_hal_rcc.c ****     {
 2428              		.loc 1 962 5 is_stmt 1 view .LVU786
 962:../../Drivers/STM32H7xx_HAL_Driver/Src/stm32h7xx_hal_rcc.c ****     {
 2429              		.loc 1 962 27 is_stmt 0 view .LVU787
 2430 0038 2269     		ldr	r2, [r4, #16]
 962:../../Drivers/STM32H7xx_HAL_Driver/Src/stm32h7xx_hal_rcc.c ****     {
 2431              		.loc 1 962 51 view .LVU788
 2432 003a 914B     		ldr	r3, .L237+4
 2433 003c 9B69     		ldr	r3, [r3, #24]
 962:../../Drivers/STM32H7xx_HAL_Driver/Src/stm32h7xx_hal_rcc.c ****     {
 2434              		.loc 1 962 60 view .LVU789
 2435 003e 03F07003 		and	r3, r3, #112
 962:../../Drivers/STM32H7xx_HAL_Driver/Src/stm32h7xx_hal_rcc.c ****     {
 2436              		.loc 1 962 8 view .LVU790
 2437 0042 9A42     		cmp	r2, r3
 2438 0044 05D9     		bls	.L203
 964:../../Drivers/STM32H7xx_HAL_Driver/Src/stm32h7xx_hal_rcc.c ****       MODIFY_REG(RCC->D1CFGR, RCC_D1CFGR_D1PPRE, RCC_ClkInitStruct->APB3CLKDivider);
 2439              		.loc 1 964 7 is_stmt 1 view .LVU791
 965:../../Drivers/STM32H7xx_HAL_Driver/Src/stm32h7xx_hal_rcc.c ****     }
 2440              		.loc 1 965 7 view .LVU792
ARM GAS  C:\Users\minis\AppData\Local\Temp\cczlSevg.s 			page 76


 2441 0046 8E49     		ldr	r1, .L237+4
 2442              	.LVL193:
 965:../../Drivers/STM32H7xx_HAL_Driver/Src/stm32h7xx_hal_rcc.c ****     }
 2443              		.loc 1 965 7 is_stmt 0 view .LVU793
 2444 0048 8B69     		ldr	r3, [r1, #24]
 2445 004a 23F07003 		bic	r3, r3, #112
 2446 004e 1A43     		orrs	r2, r2, r3
 2447 0050 8A61     		str	r2, [r1, #24]
 2448              	.L203:
 977:../../Drivers/STM32H7xx_HAL_Driver/Src/stm32h7xx_hal_rcc.c ****   {
 2449              		.loc 1 977 3 is_stmt 1 view .LVU794
 977:../../Drivers/STM32H7xx_HAL_Driver/Src/stm32h7xx_hal_rcc.c ****   {
 2450              		.loc 1 977 26 is_stmt 0 view .LVU795
 2451 0052 2368     		ldr	r3, [r4]
 977:../../Drivers/STM32H7xx_HAL_Driver/Src/stm32h7xx_hal_rcc.c ****   {
 2452              		.loc 1 977 6 view .LVU796
 2453 0054 13F0080F 		tst	r3, #8
 2454 0058 0CD0     		beq	.L204
 980:../../Drivers/STM32H7xx_HAL_Driver/Src/stm32h7xx_hal_rcc.c ****     {
 2455              		.loc 1 980 5 is_stmt 1 view .LVU797
 980:../../Drivers/STM32H7xx_HAL_Driver/Src/stm32h7xx_hal_rcc.c ****     {
 2456              		.loc 1 980 27 is_stmt 0 view .LVU798
 2457 005a 6269     		ldr	r2, [r4, #20]
 980:../../Drivers/STM32H7xx_HAL_Driver/Src/stm32h7xx_hal_rcc.c ****     {
 2458              		.loc 1 980 51 view .LVU799
 2459 005c 884B     		ldr	r3, .L237+4
 2460 005e DB69     		ldr	r3, [r3, #28]
 980:../../Drivers/STM32H7xx_HAL_Driver/Src/stm32h7xx_hal_rcc.c ****     {
 2461              		.loc 1 980 60 view .LVU800
 2462 0060 03F07003 		and	r3, r3, #112
 980:../../Drivers/STM32H7xx_HAL_Driver/Src/stm32h7xx_hal_rcc.c ****     {
 2463              		.loc 1 980 8 view .LVU801
 2464 0064 9A42     		cmp	r2, r3
 2465 0066 05D9     		bls	.L204
 982:../../Drivers/STM32H7xx_HAL_Driver/Src/stm32h7xx_hal_rcc.c ****       MODIFY_REG(RCC->D2CFGR, RCC_D2CFGR_D2PPRE1, (RCC_ClkInitStruct->APB1CLKDivider));
 2466              		.loc 1 982 7 is_stmt 1 view .LVU802
 983:../../Drivers/STM32H7xx_HAL_Driver/Src/stm32h7xx_hal_rcc.c ****     }
 2467              		.loc 1 983 7 view .LVU803
 2468 0068 8549     		ldr	r1, .L237+4
 2469 006a CB69     		ldr	r3, [r1, #28]
 2470 006c 23F07003 		bic	r3, r3, #112
 2471 0070 1A43     		orrs	r2, r2, r3
 2472 0072 CA61     		str	r2, [r1, #28]
 2473              	.L204:
 994:../../Drivers/STM32H7xx_HAL_Driver/Src/stm32h7xx_hal_rcc.c ****   {
 2474              		.loc 1 994 3 view .LVU804
 994:../../Drivers/STM32H7xx_HAL_Driver/Src/stm32h7xx_hal_rcc.c ****   {
 2475              		.loc 1 994 26 is_stmt 0 view .LVU805
 2476 0074 2368     		ldr	r3, [r4]
 994:../../Drivers/STM32H7xx_HAL_Driver/Src/stm32h7xx_hal_rcc.c ****   {
 2477              		.loc 1 994 6 view .LVU806
 2478 0076 13F0100F 		tst	r3, #16
 2479 007a 0CD0     		beq	.L205
 997:../../Drivers/STM32H7xx_HAL_Driver/Src/stm32h7xx_hal_rcc.c ****     {
 2480              		.loc 1 997 5 is_stmt 1 view .LVU807
 997:../../Drivers/STM32H7xx_HAL_Driver/Src/stm32h7xx_hal_rcc.c ****     {
 2481              		.loc 1 997 27 is_stmt 0 view .LVU808
ARM GAS  C:\Users\minis\AppData\Local\Temp\cczlSevg.s 			page 77


 2482 007c A269     		ldr	r2, [r4, #24]
 997:../../Drivers/STM32H7xx_HAL_Driver/Src/stm32h7xx_hal_rcc.c ****     {
 2483              		.loc 1 997 51 view .LVU809
 2484 007e 804B     		ldr	r3, .L237+4
 2485 0080 DB69     		ldr	r3, [r3, #28]
 997:../../Drivers/STM32H7xx_HAL_Driver/Src/stm32h7xx_hal_rcc.c ****     {
 2486              		.loc 1 997 60 view .LVU810
 2487 0082 03F4E063 		and	r3, r3, #1792
 997:../../Drivers/STM32H7xx_HAL_Driver/Src/stm32h7xx_hal_rcc.c ****     {
 2488              		.loc 1 997 8 view .LVU811
 2489 0086 9A42     		cmp	r2, r3
 2490 0088 05D9     		bls	.L205
 999:../../Drivers/STM32H7xx_HAL_Driver/Src/stm32h7xx_hal_rcc.c ****       MODIFY_REG(RCC->D2CFGR, RCC_D2CFGR_D2PPRE2, (RCC_ClkInitStruct->APB2CLKDivider));
 2491              		.loc 1 999 7 is_stmt 1 view .LVU812
1000:../../Drivers/STM32H7xx_HAL_Driver/Src/stm32h7xx_hal_rcc.c ****     }
 2492              		.loc 1 1000 7 view .LVU813
 2493 008a 7D49     		ldr	r1, .L237+4
 2494 008c CB69     		ldr	r3, [r1, #28]
 2495 008e 23F4E063 		bic	r3, r3, #1792
 2496 0092 1A43     		orrs	r2, r2, r3
 2497 0094 CA61     		str	r2, [r1, #28]
 2498              	.L205:
1012:../../Drivers/STM32H7xx_HAL_Driver/Src/stm32h7xx_hal_rcc.c ****   {
 2499              		.loc 1 1012 3 view .LVU814
1012:../../Drivers/STM32H7xx_HAL_Driver/Src/stm32h7xx_hal_rcc.c ****   {
 2500              		.loc 1 1012 26 is_stmt 0 view .LVU815
 2501 0096 2368     		ldr	r3, [r4]
1012:../../Drivers/STM32H7xx_HAL_Driver/Src/stm32h7xx_hal_rcc.c ****   {
 2502              		.loc 1 1012 6 view .LVU816
 2503 0098 13F0200F 		tst	r3, #32
 2504 009c 0CD0     		beq	.L206
1015:../../Drivers/STM32H7xx_HAL_Driver/Src/stm32h7xx_hal_rcc.c ****     {
 2505              		.loc 1 1015 5 is_stmt 1 view .LVU817
1015:../../Drivers/STM32H7xx_HAL_Driver/Src/stm32h7xx_hal_rcc.c ****     {
 2506              		.loc 1 1015 27 is_stmt 0 view .LVU818
 2507 009e E269     		ldr	r2, [r4, #28]
1015:../../Drivers/STM32H7xx_HAL_Driver/Src/stm32h7xx_hal_rcc.c ****     {
 2508              		.loc 1 1015 51 view .LVU819
 2509 00a0 774B     		ldr	r3, .L237+4
 2510 00a2 1B6A     		ldr	r3, [r3, #32]
1015:../../Drivers/STM32H7xx_HAL_Driver/Src/stm32h7xx_hal_rcc.c ****     {
 2511              		.loc 1 1015 60 view .LVU820
 2512 00a4 03F07003 		and	r3, r3, #112
1015:../../Drivers/STM32H7xx_HAL_Driver/Src/stm32h7xx_hal_rcc.c ****     {
 2513              		.loc 1 1015 8 view .LVU821
 2514 00a8 9A42     		cmp	r2, r3
 2515 00aa 05D9     		bls	.L206
1017:../../Drivers/STM32H7xx_HAL_Driver/Src/stm32h7xx_hal_rcc.c ****       MODIFY_REG(RCC->D3CFGR, RCC_D3CFGR_D3PPRE, (RCC_ClkInitStruct->APB4CLKDivider));
 2516              		.loc 1 1017 7 is_stmt 1 view .LVU822
1018:../../Drivers/STM32H7xx_HAL_Driver/Src/stm32h7xx_hal_rcc.c ****     }
 2517              		.loc 1 1018 7 view .LVU823
 2518 00ac 7449     		ldr	r1, .L237+4
 2519 00ae 0B6A     		ldr	r3, [r1, #32]
 2520 00b0 23F07003 		bic	r3, r3, #112
 2521 00b4 1A43     		orrs	r2, r2, r3
 2522 00b6 0A62     		str	r2, [r1, #32]
 2523              	.L206:
ARM GAS  C:\Users\minis\AppData\Local\Temp\cczlSevg.s 			page 78


1030:../../Drivers/STM32H7xx_HAL_Driver/Src/stm32h7xx_hal_rcc.c ****   {
 2524              		.loc 1 1030 3 view .LVU824
1030:../../Drivers/STM32H7xx_HAL_Driver/Src/stm32h7xx_hal_rcc.c ****   {
 2525              		.loc 1 1030 26 is_stmt 0 view .LVU825
 2526 00b8 2368     		ldr	r3, [r4]
1030:../../Drivers/STM32H7xx_HAL_Driver/Src/stm32h7xx_hal_rcc.c ****   {
 2527              		.loc 1 1030 6 view .LVU826
 2528 00ba 13F0020F 		tst	r3, #2
 2529 00be 0CD0     		beq	.L207
1033:../../Drivers/STM32H7xx_HAL_Driver/Src/stm32h7xx_hal_rcc.c ****     {
 2530              		.loc 1 1033 5 is_stmt 1 view .LVU827
1033:../../Drivers/STM32H7xx_HAL_Driver/Src/stm32h7xx_hal_rcc.c ****     {
 2531              		.loc 1 1033 27 is_stmt 0 view .LVU828
 2532 00c0 E268     		ldr	r2, [r4, #12]
1033:../../Drivers/STM32H7xx_HAL_Driver/Src/stm32h7xx_hal_rcc.c ****     {
 2533              		.loc 1 1033 50 view .LVU829
 2534 00c2 6F4B     		ldr	r3, .L237+4
 2535 00c4 9B69     		ldr	r3, [r3, #24]
1033:../../Drivers/STM32H7xx_HAL_Driver/Src/stm32h7xx_hal_rcc.c ****     {
 2536              		.loc 1 1033 59 view .LVU830
 2537 00c6 03F00F03 		and	r3, r3, #15
1033:../../Drivers/STM32H7xx_HAL_Driver/Src/stm32h7xx_hal_rcc.c ****     {
 2538              		.loc 1 1033 8 view .LVU831
 2539 00ca 9A42     		cmp	r2, r3
 2540 00cc 05D9     		bls	.L207
1036:../../Drivers/STM32H7xx_HAL_Driver/Src/stm32h7xx_hal_rcc.c ****       MODIFY_REG(RCC->D1CFGR, RCC_D1CFGR_HPRE, RCC_ClkInitStruct->AHBCLKDivider);
 2541              		.loc 1 1036 7 is_stmt 1 view .LVU832
1037:../../Drivers/STM32H7xx_HAL_Driver/Src/stm32h7xx_hal_rcc.c ****     }
 2542              		.loc 1 1037 7 view .LVU833
 2543 00ce 6C49     		ldr	r1, .L237+4
 2544 00d0 8B69     		ldr	r3, [r1, #24]
 2545 00d2 23F00F03 		bic	r3, r3, #15
 2546 00d6 1A43     		orrs	r2, r2, r3
 2547 00d8 8A61     		str	r2, [r1, #24]
 2548              	.L207:
1050:../../Drivers/STM32H7xx_HAL_Driver/Src/stm32h7xx_hal_rcc.c ****   {
 2549              		.loc 1 1050 3 view .LVU834
1050:../../Drivers/STM32H7xx_HAL_Driver/Src/stm32h7xx_hal_rcc.c ****   {
 2550              		.loc 1 1050 26 is_stmt 0 view .LVU835
 2551 00da 2368     		ldr	r3, [r4]
1050:../../Drivers/STM32H7xx_HAL_Driver/Src/stm32h7xx_hal_rcc.c ****   {
 2552              		.loc 1 1050 6 view .LVU836
 2553 00dc 13F0010F 		tst	r3, #1
 2554 00e0 41D0     		beq	.L208
1052:../../Drivers/STM32H7xx_HAL_Driver/Src/stm32h7xx_hal_rcc.c ****     assert_param(IS_RCC_SYSCLKSOURCE(RCC_ClkInitStruct->SYSCLKSource));
 2555              		.loc 1 1052 5 is_stmt 1 view .LVU837
1053:../../Drivers/STM32H7xx_HAL_Driver/Src/stm32h7xx_hal_rcc.c **** #if defined(RCC_D1CFGR_D1CPRE)
 2556              		.loc 1 1053 5 view .LVU838
1055:../../Drivers/STM32H7xx_HAL_Driver/Src/stm32h7xx_hal_rcc.c **** #else
 2557              		.loc 1 1055 5 view .LVU839
 2558 00e2 674A     		ldr	r2, .L237+4
 2559 00e4 9369     		ldr	r3, [r2, #24]
 2560 00e6 23F47063 		bic	r3, r3, #3840
 2561 00ea A168     		ldr	r1, [r4, #8]
 2562 00ec 0B43     		orrs	r3, r3, r1
 2563 00ee 9361     		str	r3, [r2, #24]
1060:../../Drivers/STM32H7xx_HAL_Driver/Src/stm32h7xx_hal_rcc.c ****     {
ARM GAS  C:\Users\minis\AppData\Local\Temp\cczlSevg.s 			page 79


 2564              		.loc 1 1060 5 view .LVU840
1060:../../Drivers/STM32H7xx_HAL_Driver/Src/stm32h7xx_hal_rcc.c ****     {
 2565              		.loc 1 1060 26 is_stmt 0 view .LVU841
 2566 00f0 6368     		ldr	r3, [r4, #4]
1060:../../Drivers/STM32H7xx_HAL_Driver/Src/stm32h7xx_hal_rcc.c ****     {
 2567              		.loc 1 1060 8 view .LVU842
 2568 00f2 022B     		cmp	r3, #2
 2569 00f4 0AD0     		beq	.L233
1069:../../Drivers/STM32H7xx_HAL_Driver/Src/stm32h7xx_hal_rcc.c ****     {
 2570              		.loc 1 1069 10 is_stmt 1 view .LVU843
1069:../../Drivers/STM32H7xx_HAL_Driver/Src/stm32h7xx_hal_rcc.c ****     {
 2571              		.loc 1 1069 13 is_stmt 0 view .LVU844
 2572 00f6 032B     		cmp	r3, #3
 2573 00f8 27D0     		beq	.L234
1078:../../Drivers/STM32H7xx_HAL_Driver/Src/stm32h7xx_hal_rcc.c ****     {
 2574              		.loc 1 1078 10 is_stmt 1 view .LVU845
1078:../../Drivers/STM32H7xx_HAL_Driver/Src/stm32h7xx_hal_rcc.c ****     {
 2575              		.loc 1 1078 13 is_stmt 0 view .LVU846
 2576 00fa 012B     		cmp	r3, #1
 2577 00fc 2CD0     		beq	.L235
1090:../../Drivers/STM32H7xx_HAL_Driver/Src/stm32h7xx_hal_rcc.c ****       {
 2578              		.loc 1 1090 7 is_stmt 1 view .LVU847
1090:../../Drivers/STM32H7xx_HAL_Driver/Src/stm32h7xx_hal_rcc.c ****       {
 2579              		.loc 1 1090 11 is_stmt 0 view .LVU848
 2580 00fe 604A     		ldr	r2, .L237+4
 2581 0100 1268     		ldr	r2, [r2]
1090:../../Drivers/STM32H7xx_HAL_Driver/Src/stm32h7xx_hal_rcc.c ****       {
 2582              		.loc 1 1090 10 view .LVU849
 2583 0102 12F0040F 		tst	r2, #4
 2584 0106 06D1     		bne	.L210
1092:../../Drivers/STM32H7xx_HAL_Driver/Src/stm32h7xx_hal_rcc.c ****       }
 2585              		.loc 1 1092 16 view .LVU850
 2586 0108 0120     		movs	r0, #1
 2587              	.LVL194:
1092:../../Drivers/STM32H7xx_HAL_Driver/Src/stm32h7xx_hal_rcc.c ****       }
 2588              		.loc 1 1092 16 view .LVU851
 2589 010a ADE0     		b	.L201
 2590              	.LVL195:
 2591              	.L233:
1063:../../Drivers/STM32H7xx_HAL_Driver/Src/stm32h7xx_hal_rcc.c ****       {
 2592              		.loc 1 1063 7 is_stmt 1 view .LVU852
1063:../../Drivers/STM32H7xx_HAL_Driver/Src/stm32h7xx_hal_rcc.c ****       {
 2593              		.loc 1 1063 11 is_stmt 0 view .LVU853
 2594 010c 1268     		ldr	r2, [r2]
1063:../../Drivers/STM32H7xx_HAL_Driver/Src/stm32h7xx_hal_rcc.c ****       {
 2595              		.loc 1 1063 10 view .LVU854
 2596 010e 12F4003F 		tst	r2, #131072
 2597 0112 00F0AE80 		beq	.L236
 2598              	.L210:
1095:../../Drivers/STM32H7xx_HAL_Driver/Src/stm32h7xx_hal_rcc.c **** 
 2599              		.loc 1 1095 5 is_stmt 1 view .LVU855
 2600 0116 5A49     		ldr	r1, .L237+4
 2601 0118 0A69     		ldr	r2, [r1, #16]
 2602 011a 22F00702 		bic	r2, r2, #7
 2603 011e 1343     		orrs	r3, r3, r2
 2604 0120 0B61     		str	r3, [r1, #16]
1098:../../Drivers/STM32H7xx_HAL_Driver/Src/stm32h7xx_hal_rcc.c **** 
ARM GAS  C:\Users\minis\AppData\Local\Temp\cczlSevg.s 			page 80


 2605              		.loc 1 1098 5 view .LVU856
1098:../../Drivers/STM32H7xx_HAL_Driver/Src/stm32h7xx_hal_rcc.c **** 
 2606              		.loc 1 1098 17 is_stmt 0 view .LVU857
 2607 0122 FFF7FEFF 		bl	HAL_GetTick
 2608              	.LVL196:
1098:../../Drivers/STM32H7xx_HAL_Driver/Src/stm32h7xx_hal_rcc.c **** 
 2609              		.loc 1 1098 17 view .LVU858
 2610 0126 0646     		mov	r6, r0
 2611              	.LVL197:
1100:../../Drivers/STM32H7xx_HAL_Driver/Src/stm32h7xx_hal_rcc.c ****     {
 2612              		.loc 1 1100 5 is_stmt 1 view .LVU859
 2613              	.L213:
1100:../../Drivers/STM32H7xx_HAL_Driver/Src/stm32h7xx_hal_rcc.c ****     {
 2614              		.loc 1 1100 42 view .LVU860
1100:../../Drivers/STM32H7xx_HAL_Driver/Src/stm32h7xx_hal_rcc.c ****     {
 2615              		.loc 1 1100 12 is_stmt 0 view .LVU861
 2616 0128 554B     		ldr	r3, .L237+4
 2617 012a 1B69     		ldr	r3, [r3, #16]
 2618 012c 03F03803 		and	r3, r3, #56
1100:../../Drivers/STM32H7xx_HAL_Driver/Src/stm32h7xx_hal_rcc.c ****     {
 2619              		.loc 1 1100 63 view .LVU862
 2620 0130 6268     		ldr	r2, [r4, #4]
1100:../../Drivers/STM32H7xx_HAL_Driver/Src/stm32h7xx_hal_rcc.c ****     {
 2621              		.loc 1 1100 42 view .LVU863
 2622 0132 B3EBC20F 		cmp	r3, r2, lsl #3
 2623 0136 16D0     		beq	.L208
1102:../../Drivers/STM32H7xx_HAL_Driver/Src/stm32h7xx_hal_rcc.c ****       {
 2624              		.loc 1 1102 7 is_stmt 1 view .LVU864
1102:../../Drivers/STM32H7xx_HAL_Driver/Src/stm32h7xx_hal_rcc.c ****       {
 2625              		.loc 1 1102 12 is_stmt 0 view .LVU865
 2626 0138 FFF7FEFF 		bl	HAL_GetTick
 2627              	.LVL198:
1102:../../Drivers/STM32H7xx_HAL_Driver/Src/stm32h7xx_hal_rcc.c ****       {
 2628              		.loc 1 1102 26 discriminator 1 view .LVU866
 2629 013c 801B     		subs	r0, r0, r6
1102:../../Drivers/STM32H7xx_HAL_Driver/Src/stm32h7xx_hal_rcc.c ****       {
 2630              		.loc 1 1102 10 discriminator 1 view .LVU867
 2631 013e 41F28833 		movw	r3, #5000
 2632 0142 9842     		cmp	r0, r3
 2633 0144 F0D9     		bls	.L213
1104:../../Drivers/STM32H7xx_HAL_Driver/Src/stm32h7xx_hal_rcc.c ****       }
 2634              		.loc 1 1104 16 view .LVU868
 2635 0146 0320     		movs	r0, #3
 2636 0148 8EE0     		b	.L201
 2637              	.LVL199:
 2638              	.L234:
1072:../../Drivers/STM32H7xx_HAL_Driver/Src/stm32h7xx_hal_rcc.c ****       {
 2639              		.loc 1 1072 7 is_stmt 1 view .LVU869
1072:../../Drivers/STM32H7xx_HAL_Driver/Src/stm32h7xx_hal_rcc.c ****       {
 2640              		.loc 1 1072 11 is_stmt 0 view .LVU870
 2641 014a 4D4A     		ldr	r2, .L237+4
 2642 014c 1268     		ldr	r2, [r2]
1072:../../Drivers/STM32H7xx_HAL_Driver/Src/stm32h7xx_hal_rcc.c ****       {
 2643              		.loc 1 1072 10 view .LVU871
 2644 014e 12F0007F 		tst	r2, #33554432
 2645 0152 E0D1     		bne	.L210
1074:../../Drivers/STM32H7xx_HAL_Driver/Src/stm32h7xx_hal_rcc.c ****       }
ARM GAS  C:\Users\minis\AppData\Local\Temp\cczlSevg.s 			page 81


 2646              		.loc 1 1074 16 view .LVU872
 2647 0154 0120     		movs	r0, #1
 2648              	.LVL200:
1074:../../Drivers/STM32H7xx_HAL_Driver/Src/stm32h7xx_hal_rcc.c ****       }
 2649              		.loc 1 1074 16 view .LVU873
 2650 0156 87E0     		b	.L201
 2651              	.LVL201:
 2652              	.L235:
1081:../../Drivers/STM32H7xx_HAL_Driver/Src/stm32h7xx_hal_rcc.c ****       {
 2653              		.loc 1 1081 7 is_stmt 1 view .LVU874
1081:../../Drivers/STM32H7xx_HAL_Driver/Src/stm32h7xx_hal_rcc.c ****       {
 2654              		.loc 1 1081 11 is_stmt 0 view .LVU875
 2655 0158 494A     		ldr	r2, .L237+4
 2656 015a 1268     		ldr	r2, [r2]
1081:../../Drivers/STM32H7xx_HAL_Driver/Src/stm32h7xx_hal_rcc.c ****       {
 2657              		.loc 1 1081 10 view .LVU876
 2658 015c 12F4807F 		tst	r2, #256
 2659 0160 D9D1     		bne	.L210
1083:../../Drivers/STM32H7xx_HAL_Driver/Src/stm32h7xx_hal_rcc.c ****       }
 2660              		.loc 1 1083 16 view .LVU877
 2661 0162 0120     		movs	r0, #1
 2662              	.LVL202:
1083:../../Drivers/STM32H7xx_HAL_Driver/Src/stm32h7xx_hal_rcc.c ****       }
 2663              		.loc 1 1083 16 view .LVU878
 2664 0164 80E0     		b	.L201
 2665              	.L208:
1112:../../Drivers/STM32H7xx_HAL_Driver/Src/stm32h7xx_hal_rcc.c ****   {
 2666              		.loc 1 1112 3 is_stmt 1 view .LVU879
1112:../../Drivers/STM32H7xx_HAL_Driver/Src/stm32h7xx_hal_rcc.c ****   {
 2667              		.loc 1 1112 26 is_stmt 0 view .LVU880
 2668 0166 2368     		ldr	r3, [r4]
1112:../../Drivers/STM32H7xx_HAL_Driver/Src/stm32h7xx_hal_rcc.c ****   {
 2669              		.loc 1 1112 6 view .LVU881
 2670 0168 13F0020F 		tst	r3, #2
 2671 016c 0CD0     		beq	.L215
1115:../../Drivers/STM32H7xx_HAL_Driver/Src/stm32h7xx_hal_rcc.c ****     {
 2672              		.loc 1 1115 5 is_stmt 1 view .LVU882
1115:../../Drivers/STM32H7xx_HAL_Driver/Src/stm32h7xx_hal_rcc.c ****     {
 2673              		.loc 1 1115 27 is_stmt 0 view .LVU883
 2674 016e E268     		ldr	r2, [r4, #12]
1115:../../Drivers/STM32H7xx_HAL_Driver/Src/stm32h7xx_hal_rcc.c ****     {
 2675              		.loc 1 1115 50 view .LVU884
 2676 0170 434B     		ldr	r3, .L237+4
 2677 0172 9B69     		ldr	r3, [r3, #24]
1115:../../Drivers/STM32H7xx_HAL_Driver/Src/stm32h7xx_hal_rcc.c ****     {
 2678              		.loc 1 1115 59 view .LVU885
 2679 0174 03F00F03 		and	r3, r3, #15
1115:../../Drivers/STM32H7xx_HAL_Driver/Src/stm32h7xx_hal_rcc.c ****     {
 2680              		.loc 1 1115 8 view .LVU886
 2681 0178 9A42     		cmp	r2, r3
 2682 017a 05D2     		bcs	.L215
1118:../../Drivers/STM32H7xx_HAL_Driver/Src/stm32h7xx_hal_rcc.c ****       MODIFY_REG(RCC->D1CFGR, RCC_D1CFGR_HPRE, RCC_ClkInitStruct->AHBCLKDivider);
 2683              		.loc 1 1118 7 is_stmt 1 view .LVU887
1119:../../Drivers/STM32H7xx_HAL_Driver/Src/stm32h7xx_hal_rcc.c ****     }
 2684              		.loc 1 1119 7 view .LVU888
 2685 017c 4049     		ldr	r1, .L237+4
 2686 017e 8B69     		ldr	r3, [r1, #24]
ARM GAS  C:\Users\minis\AppData\Local\Temp\cczlSevg.s 			page 82


 2687 0180 23F00F03 		bic	r3, r3, #15
 2688 0184 1A43     		orrs	r2, r2, r3
 2689 0186 8A61     		str	r2, [r1, #24]
 2690              	.L215:
1132:../../Drivers/STM32H7xx_HAL_Driver/Src/stm32h7xx_hal_rcc.c ****   {
 2691              		.loc 1 1132 3 view .LVU889
1132:../../Drivers/STM32H7xx_HAL_Driver/Src/stm32h7xx_hal_rcc.c ****   {
 2692              		.loc 1 1132 18 is_stmt 0 view .LVU890
 2693 0188 3C4B     		ldr	r3, .L237
 2694 018a 1B68     		ldr	r3, [r3]
 2695 018c 03F00F03 		and	r3, r3, #15
1132:../../Drivers/STM32H7xx_HAL_Driver/Src/stm32h7xx_hal_rcc.c ****   {
 2696              		.loc 1 1132 6 view .LVU891
 2697 0190 AB42     		cmp	r3, r5
 2698 0192 0AD9     		bls	.L216
1135:../../Drivers/STM32H7xx_HAL_Driver/Src/stm32h7xx_hal_rcc.c **** 
 2699              		.loc 1 1135 5 is_stmt 1 view .LVU892
 2700 0194 394A     		ldr	r2, .L237
 2701 0196 1368     		ldr	r3, [r2]
 2702 0198 23F00F03 		bic	r3, r3, #15
 2703 019c 2B43     		orrs	r3, r3, r5
 2704 019e 1360     		str	r3, [r2]
1139:../../Drivers/STM32H7xx_HAL_Driver/Src/stm32h7xx_hal_rcc.c ****     {
 2705              		.loc 1 1139 5 view .LVU893
1139:../../Drivers/STM32H7xx_HAL_Driver/Src/stm32h7xx_hal_rcc.c ****     {
 2706              		.loc 1 1139 9 is_stmt 0 view .LVU894
 2707 01a0 1368     		ldr	r3, [r2]
 2708 01a2 03F00F03 		and	r3, r3, #15
1139:../../Drivers/STM32H7xx_HAL_Driver/Src/stm32h7xx_hal_rcc.c ****     {
 2709              		.loc 1 1139 8 view .LVU895
 2710 01a6 AB42     		cmp	r3, r5
 2711 01a8 65D1     		bne	.L228
 2712              	.L216:
1146:../../Drivers/STM32H7xx_HAL_Driver/Src/stm32h7xx_hal_rcc.c ****   {
 2713              		.loc 1 1146 3 is_stmt 1 view .LVU896
1146:../../Drivers/STM32H7xx_HAL_Driver/Src/stm32h7xx_hal_rcc.c ****   {
 2714              		.loc 1 1146 26 is_stmt 0 view .LVU897
 2715 01aa 2368     		ldr	r3, [r4]
1146:../../Drivers/STM32H7xx_HAL_Driver/Src/stm32h7xx_hal_rcc.c ****   {
 2716              		.loc 1 1146 6 view .LVU898
 2717 01ac 13F0040F 		tst	r3, #4
 2718 01b0 0CD0     		beq	.L217
1149:../../Drivers/STM32H7xx_HAL_Driver/Src/stm32h7xx_hal_rcc.c ****     {
 2719              		.loc 1 1149 5 is_stmt 1 view .LVU899
1149:../../Drivers/STM32H7xx_HAL_Driver/Src/stm32h7xx_hal_rcc.c ****     {
 2720              		.loc 1 1149 27 is_stmt 0 view .LVU900
 2721 01b2 2269     		ldr	r2, [r4, #16]
1149:../../Drivers/STM32H7xx_HAL_Driver/Src/stm32h7xx_hal_rcc.c ****     {
 2722              		.loc 1 1149 51 view .LVU901
 2723 01b4 324B     		ldr	r3, .L237+4
 2724 01b6 9B69     		ldr	r3, [r3, #24]
1149:../../Drivers/STM32H7xx_HAL_Driver/Src/stm32h7xx_hal_rcc.c ****     {
 2725              		.loc 1 1149 60 view .LVU902
 2726 01b8 03F07003 		and	r3, r3, #112
1149:../../Drivers/STM32H7xx_HAL_Driver/Src/stm32h7xx_hal_rcc.c ****     {
 2727              		.loc 1 1149 8 view .LVU903
 2728 01bc 9A42     		cmp	r2, r3
ARM GAS  C:\Users\minis\AppData\Local\Temp\cczlSevg.s 			page 83


 2729 01be 05D2     		bcs	.L217
1151:../../Drivers/STM32H7xx_HAL_Driver/Src/stm32h7xx_hal_rcc.c ****       MODIFY_REG(RCC->D1CFGR, RCC_D1CFGR_D1PPRE, RCC_ClkInitStruct->APB3CLKDivider);
 2730              		.loc 1 1151 7 is_stmt 1 view .LVU904
1152:../../Drivers/STM32H7xx_HAL_Driver/Src/stm32h7xx_hal_rcc.c ****     }
 2731              		.loc 1 1152 7 view .LVU905
 2732 01c0 2F49     		ldr	r1, .L237+4
 2733 01c2 8B69     		ldr	r3, [r1, #24]
 2734 01c4 23F07003 		bic	r3, r3, #112
 2735 01c8 1A43     		orrs	r2, r2, r3
 2736 01ca 8A61     		str	r2, [r1, #24]
 2737              	.L217:
1164:../../Drivers/STM32H7xx_HAL_Driver/Src/stm32h7xx_hal_rcc.c ****   {
 2738              		.loc 1 1164 3 view .LVU906
1164:../../Drivers/STM32H7xx_HAL_Driver/Src/stm32h7xx_hal_rcc.c ****   {
 2739              		.loc 1 1164 26 is_stmt 0 view .LVU907
 2740 01cc 2368     		ldr	r3, [r4]
1164:../../Drivers/STM32H7xx_HAL_Driver/Src/stm32h7xx_hal_rcc.c ****   {
 2741              		.loc 1 1164 6 view .LVU908
 2742 01ce 13F0080F 		tst	r3, #8
 2743 01d2 0CD0     		beq	.L218
1167:../../Drivers/STM32H7xx_HAL_Driver/Src/stm32h7xx_hal_rcc.c ****     {
 2744              		.loc 1 1167 5 is_stmt 1 view .LVU909
1167:../../Drivers/STM32H7xx_HAL_Driver/Src/stm32h7xx_hal_rcc.c ****     {
 2745              		.loc 1 1167 27 is_stmt 0 view .LVU910
 2746 01d4 6269     		ldr	r2, [r4, #20]
1167:../../Drivers/STM32H7xx_HAL_Driver/Src/stm32h7xx_hal_rcc.c ****     {
 2747              		.loc 1 1167 51 view .LVU911
 2748 01d6 2A4B     		ldr	r3, .L237+4
 2749 01d8 DB69     		ldr	r3, [r3, #28]
1167:../../Drivers/STM32H7xx_HAL_Driver/Src/stm32h7xx_hal_rcc.c ****     {
 2750              		.loc 1 1167 60 view .LVU912
 2751 01da 03F07003 		and	r3, r3, #112
1167:../../Drivers/STM32H7xx_HAL_Driver/Src/stm32h7xx_hal_rcc.c ****     {
 2752              		.loc 1 1167 8 view .LVU913
 2753 01de 9A42     		cmp	r2, r3
 2754 01e0 05D2     		bcs	.L218
1169:../../Drivers/STM32H7xx_HAL_Driver/Src/stm32h7xx_hal_rcc.c ****       MODIFY_REG(RCC->D2CFGR, RCC_D2CFGR_D2PPRE1, (RCC_ClkInitStruct->APB1CLKDivider));
 2755              		.loc 1 1169 7 is_stmt 1 view .LVU914
1170:../../Drivers/STM32H7xx_HAL_Driver/Src/stm32h7xx_hal_rcc.c ****     }
 2756              		.loc 1 1170 7 view .LVU915
 2757 01e2 2749     		ldr	r1, .L237+4
 2758 01e4 CB69     		ldr	r3, [r1, #28]
 2759 01e6 23F07003 		bic	r3, r3, #112
 2760 01ea 1A43     		orrs	r2, r2, r3
 2761 01ec CA61     		str	r2, [r1, #28]
 2762              	.L218:
1182:../../Drivers/STM32H7xx_HAL_Driver/Src/stm32h7xx_hal_rcc.c ****   {
 2763              		.loc 1 1182 3 view .LVU916
1182:../../Drivers/STM32H7xx_HAL_Driver/Src/stm32h7xx_hal_rcc.c ****   {
 2764              		.loc 1 1182 26 is_stmt 0 view .LVU917
 2765 01ee 2368     		ldr	r3, [r4]
1182:../../Drivers/STM32H7xx_HAL_Driver/Src/stm32h7xx_hal_rcc.c ****   {
 2766              		.loc 1 1182 6 view .LVU918
 2767 01f0 13F0100F 		tst	r3, #16
 2768 01f4 0CD0     		beq	.L219
1185:../../Drivers/STM32H7xx_HAL_Driver/Src/stm32h7xx_hal_rcc.c ****     {
 2769              		.loc 1 1185 5 is_stmt 1 view .LVU919
ARM GAS  C:\Users\minis\AppData\Local\Temp\cczlSevg.s 			page 84


1185:../../Drivers/STM32H7xx_HAL_Driver/Src/stm32h7xx_hal_rcc.c ****     {
 2770              		.loc 1 1185 27 is_stmt 0 view .LVU920
 2771 01f6 A269     		ldr	r2, [r4, #24]
1185:../../Drivers/STM32H7xx_HAL_Driver/Src/stm32h7xx_hal_rcc.c ****     {
 2772              		.loc 1 1185 51 view .LVU921
 2773 01f8 214B     		ldr	r3, .L237+4
 2774 01fa DB69     		ldr	r3, [r3, #28]
1185:../../Drivers/STM32H7xx_HAL_Driver/Src/stm32h7xx_hal_rcc.c ****     {
 2775              		.loc 1 1185 60 view .LVU922
 2776 01fc 03F4E063 		and	r3, r3, #1792
1185:../../Drivers/STM32H7xx_HAL_Driver/Src/stm32h7xx_hal_rcc.c ****     {
 2777              		.loc 1 1185 8 view .LVU923
 2778 0200 9A42     		cmp	r2, r3
 2779 0202 05D2     		bcs	.L219
1187:../../Drivers/STM32H7xx_HAL_Driver/Src/stm32h7xx_hal_rcc.c ****       MODIFY_REG(RCC->D2CFGR, RCC_D2CFGR_D2PPRE2, (RCC_ClkInitStruct->APB2CLKDivider));
 2780              		.loc 1 1187 7 is_stmt 1 view .LVU924
1188:../../Drivers/STM32H7xx_HAL_Driver/Src/stm32h7xx_hal_rcc.c ****     }
 2781              		.loc 1 1188 7 view .LVU925
 2782 0204 1E49     		ldr	r1, .L237+4
 2783 0206 CB69     		ldr	r3, [r1, #28]
 2784 0208 23F4E063 		bic	r3, r3, #1792
 2785 020c 1A43     		orrs	r2, r2, r3
 2786 020e CA61     		str	r2, [r1, #28]
 2787              	.L219:
1200:../../Drivers/STM32H7xx_HAL_Driver/Src/stm32h7xx_hal_rcc.c ****   {
 2788              		.loc 1 1200 3 view .LVU926
1200:../../Drivers/STM32H7xx_HAL_Driver/Src/stm32h7xx_hal_rcc.c ****   {
 2789              		.loc 1 1200 26 is_stmt 0 view .LVU927
 2790 0210 2368     		ldr	r3, [r4]
1200:../../Drivers/STM32H7xx_HAL_Driver/Src/stm32h7xx_hal_rcc.c ****   {
 2791              		.loc 1 1200 6 view .LVU928
 2792 0212 13F0200F 		tst	r3, #32
 2793 0216 0CD0     		beq	.L220
1203:../../Drivers/STM32H7xx_HAL_Driver/Src/stm32h7xx_hal_rcc.c ****     {
 2794              		.loc 1 1203 5 is_stmt 1 view .LVU929
1203:../../Drivers/STM32H7xx_HAL_Driver/Src/stm32h7xx_hal_rcc.c ****     {
 2795              		.loc 1 1203 27 is_stmt 0 view .LVU930
 2796 0218 E269     		ldr	r2, [r4, #28]
1203:../../Drivers/STM32H7xx_HAL_Driver/Src/stm32h7xx_hal_rcc.c ****     {
 2797              		.loc 1 1203 51 view .LVU931
 2798 021a 194B     		ldr	r3, .L237+4
 2799 021c 1B6A     		ldr	r3, [r3, #32]
1203:../../Drivers/STM32H7xx_HAL_Driver/Src/stm32h7xx_hal_rcc.c ****     {
 2800              		.loc 1 1203 60 view .LVU932
 2801 021e 03F07003 		and	r3, r3, #112
1203:../../Drivers/STM32H7xx_HAL_Driver/Src/stm32h7xx_hal_rcc.c ****     {
 2802              		.loc 1 1203 8 view .LVU933
 2803 0222 9A42     		cmp	r2, r3
 2804 0224 05D2     		bcs	.L220
1205:../../Drivers/STM32H7xx_HAL_Driver/Src/stm32h7xx_hal_rcc.c ****       MODIFY_REG(RCC->D3CFGR, RCC_D3CFGR_D3PPRE, (RCC_ClkInitStruct->APB4CLKDivider));
 2805              		.loc 1 1205 7 is_stmt 1 view .LVU934
1206:../../Drivers/STM32H7xx_HAL_Driver/Src/stm32h7xx_hal_rcc.c ****     }
 2806              		.loc 1 1206 7 view .LVU935
 2807 0226 1649     		ldr	r1, .L237+4
 2808 0228 0B6A     		ldr	r3, [r1, #32]
 2809 022a 23F07003 		bic	r3, r3, #112
 2810 022e 1A43     		orrs	r2, r2, r3
ARM GAS  C:\Users\minis\AppData\Local\Temp\cczlSevg.s 			page 85


 2811 0230 0A62     		str	r2, [r1, #32]
 2812              	.L220:
1219:../../Drivers/STM32H7xx_HAL_Driver/Src/stm32h7xx_hal_rcc.c **** #else
 2813              		.loc 1 1219 3 view .LVU936
1219:../../Drivers/STM32H7xx_HAL_Driver/Src/stm32h7xx_hal_rcc.c **** #else
 2814              		.loc 1 1219 25 is_stmt 0 view .LVU937
 2815 0232 FFF7FEFF 		bl	HAL_RCC_GetSysClockFreq
 2816              	.LVL203:
1219:../../Drivers/STM32H7xx_HAL_Driver/Src/stm32h7xx_hal_rcc.c **** #else
 2817              		.loc 1 1219 77 discriminator 1 view .LVU938
 2818 0236 1249     		ldr	r1, .L237+4
 2819 0238 8B69     		ldr	r3, [r1, #24]
1219:../../Drivers/STM32H7xx_HAL_Driver/Src/stm32h7xx_hal_rcc.c **** #else
 2820              		.loc 1 1219 107 discriminator 1 view .LVU939
 2821 023a C3F30323 		ubfx	r3, r3, #8, #4
1219:../../Drivers/STM32H7xx_HAL_Driver/Src/stm32h7xx_hal_rcc.c **** #else
 2822              		.loc 1 1219 72 discriminator 1 view .LVU940
 2823 023e 114A     		ldr	r2, .L237+8
 2824 0240 D35C     		ldrb	r3, [r2, r3]	@ zero_extendqisi2
1219:../../Drivers/STM32H7xx_HAL_Driver/Src/stm32h7xx_hal_rcc.c **** #else
 2825              		.loc 1 1219 134 discriminator 1 view .LVU941
 2826 0242 03F01F03 		and	r3, r3, #31
1219:../../Drivers/STM32H7xx_HAL_Driver/Src/stm32h7xx_hal_rcc.c **** #else
 2827              		.loc 1 1219 23 discriminator 1 view .LVU942
 2828 0246 D840     		lsrs	r0, r0, r3
 2829              	.LVL204:
1225:../../Drivers/STM32H7xx_HAL_Driver/Src/stm32h7xx_hal_rcc.c **** #else
 2830              		.loc 1 1225 3 is_stmt 1 view .LVU943
1225:../../Drivers/STM32H7xx_HAL_Driver/Src/stm32h7xx_hal_rcc.c **** #else
 2831              		.loc 1 1225 66 is_stmt 0 view .LVU944
 2832 0248 8B69     		ldr	r3, [r1, #24]
1225:../../Drivers/STM32H7xx_HAL_Driver/Src/stm32h7xx_hal_rcc.c **** #else
 2833              		.loc 1 1225 94 view .LVU945
 2834 024a 03F00F03 		and	r3, r3, #15
1225:../../Drivers/STM32H7xx_HAL_Driver/Src/stm32h7xx_hal_rcc.c **** #else
 2835              		.loc 1 1225 61 view .LVU946
 2836 024e D35C     		ldrb	r3, [r2, r3]	@ zero_extendqisi2
1225:../../Drivers/STM32H7xx_HAL_Driver/Src/stm32h7xx_hal_rcc.c **** #else
 2837              		.loc 1 1225 119 view .LVU947
 2838 0250 03F01F03 		and	r3, r3, #31
1225:../../Drivers/STM32H7xx_HAL_Driver/Src/stm32h7xx_hal_rcc.c **** #else
 2839              		.loc 1 1225 40 view .LVU948
 2840 0254 20FA03F3 		lsr	r3, r0, r3
1225:../../Drivers/STM32H7xx_HAL_Driver/Src/stm32h7xx_hal_rcc.c **** #else
 2841              		.loc 1 1225 17 view .LVU949
 2842 0258 0B4A     		ldr	r2, .L237+12
 2843 025a 1360     		str	r3, [r2]
1233:../../Drivers/STM32H7xx_HAL_Driver/Src/stm32h7xx_hal_rcc.c **** #endif /* DUAL_CORE && CORE_CM4 */
 2844              		.loc 1 1233 3 is_stmt 1 view .LVU950
1233:../../Drivers/STM32H7xx_HAL_Driver/Src/stm32h7xx_hal_rcc.c **** #endif /* DUAL_CORE && CORE_CM4 */
 2845              		.loc 1 1233 19 is_stmt 0 view .LVU951
 2846 025c 0B4B     		ldr	r3, .L237+16
 2847 025e 1860     		str	r0, [r3]
1237:../../Drivers/STM32H7xx_HAL_Driver/Src/stm32h7xx_hal_rcc.c **** 
 2848              		.loc 1 1237 3 is_stmt 1 view .LVU952
1237:../../Drivers/STM32H7xx_HAL_Driver/Src/stm32h7xx_hal_rcc.c **** 
 2849              		.loc 1 1237 15 is_stmt 0 view .LVU953
ARM GAS  C:\Users\minis\AppData\Local\Temp\cczlSevg.s 			page 86


 2850 0260 0B4B     		ldr	r3, .L237+20
 2851 0262 1868     		ldr	r0, [r3]
 2852              	.LVL205:
1237:../../Drivers/STM32H7xx_HAL_Driver/Src/stm32h7xx_hal_rcc.c **** 
 2853              		.loc 1 1237 15 view .LVU954
 2854 0264 FFF7FEFF 		bl	HAL_InitTick
 2855              	.LVL206:
1239:../../Drivers/STM32H7xx_HAL_Driver/Src/stm32h7xx_hal_rcc.c **** }
 2856              		.loc 1 1239 3 is_stmt 1 view .LVU955
 2857              	.L201:
1240:../../Drivers/STM32H7xx_HAL_Driver/Src/stm32h7xx_hal_rcc.c **** 
 2858              		.loc 1 1240 1 is_stmt 0 view .LVU956
 2859 0268 70BD     		pop	{r4, r5, r6, pc}
 2860              	.LVL207:
 2861              	.L221:
 2862              	.LCFI13:
 2863              		.cfi_def_cfa_offset 0
 2864              		.cfi_restore 4
 2865              		.cfi_restore 5
 2866              		.cfi_restore 6
 2867              		.cfi_restore 14
 931:../../Drivers/STM32H7xx_HAL_Driver/Src/stm32h7xx_hal_rcc.c ****   }
 2868              		.loc 1 931 12 view .LVU957
 2869 026a 0120     		movs	r0, #1
 2870              	.LVL208:
1240:../../Drivers/STM32H7xx_HAL_Driver/Src/stm32h7xx_hal_rcc.c **** 
 2871              		.loc 1 1240 1 view .LVU958
 2872 026c 7047     		bx	lr
 2873              	.LVL209:
 2874              	.L222:
 2875              	.LCFI14:
 2876              		.cfi_def_cfa_offset 16
 2877              		.cfi_offset 4, -16
 2878              		.cfi_offset 5, -12
 2879              		.cfi_offset 6, -8
 2880              		.cfi_offset 14, -4
 952:../../Drivers/STM32H7xx_HAL_Driver/Src/stm32h7xx_hal_rcc.c ****     }
 2881              		.loc 1 952 14 view .LVU959
 2882 026e 0120     		movs	r0, #1
 2883              	.LVL210:
 952:../../Drivers/STM32H7xx_HAL_Driver/Src/stm32h7xx_hal_rcc.c ****     }
 2884              		.loc 1 952 14 view .LVU960
 2885 0270 FAE7     		b	.L201
 2886              	.LVL211:
 2887              	.L236:
1065:../../Drivers/STM32H7xx_HAL_Driver/Src/stm32h7xx_hal_rcc.c ****       }
 2888              		.loc 1 1065 16 view .LVU961
 2889 0272 0120     		movs	r0, #1
 2890              	.LVL212:
1065:../../Drivers/STM32H7xx_HAL_Driver/Src/stm32h7xx_hal_rcc.c ****       }
 2891              		.loc 1 1065 16 view .LVU962
 2892 0274 F8E7     		b	.L201
 2893              	.L228:
1141:../../Drivers/STM32H7xx_HAL_Driver/Src/stm32h7xx_hal_rcc.c ****     }
 2894              		.loc 1 1141 14 view .LVU963
 2895 0276 0120     		movs	r0, #1
 2896 0278 F6E7     		b	.L201
ARM GAS  C:\Users\minis\AppData\Local\Temp\cczlSevg.s 			page 87


 2897              	.L238:
 2898 027a 00BF     		.align	2
 2899              	.L237:
 2900 027c 00200052 		.word	1375739904
 2901 0280 00440258 		.word	1476543488
 2902 0284 00000000 		.word	D1CorePrescTable
 2903 0288 00000000 		.word	SystemD2Clock
 2904 028c 00000000 		.word	SystemCoreClock
 2905 0290 00000000 		.word	uwTickPrio
 2906              		.cfi_endproc
 2907              	.LFE146:
 2909              		.section	.text.HAL_RCC_GetHCLKFreq,"ax",%progbits
 2910              		.align	1
 2911              		.global	HAL_RCC_GetHCLKFreq
 2912              		.syntax unified
 2913              		.thumb
 2914              		.thumb_func
 2916              	HAL_RCC_GetHCLKFreq:
 2917              	.LFB151:
1474:../../Drivers/STM32H7xx_HAL_Driver/Src/stm32h7xx_hal_rcc.c **** 
1475:../../Drivers/STM32H7xx_HAL_Driver/Src/stm32h7xx_hal_rcc.c **** 
1476:../../Drivers/STM32H7xx_HAL_Driver/Src/stm32h7xx_hal_rcc.c **** /**
1477:../../Drivers/STM32H7xx_HAL_Driver/Src/stm32h7xx_hal_rcc.c ****   * @brief  Returns the HCLK frequency
1478:../../Drivers/STM32H7xx_HAL_Driver/Src/stm32h7xx_hal_rcc.c ****   * @note   Each time HCLK changes, this function must be called to update the
1479:../../Drivers/STM32H7xx_HAL_Driver/Src/stm32h7xx_hal_rcc.c ****   *         right HCLK value. Otherwise, any configuration based on this function will be incorrect
1480:../../Drivers/STM32H7xx_HAL_Driver/Src/stm32h7xx_hal_rcc.c ****   *
1481:../../Drivers/STM32H7xx_HAL_Driver/Src/stm32h7xx_hal_rcc.c ****   * @note   The SystemD2Clock CMSIS variable is used to store System domain2 Clock Frequency
1482:../../Drivers/STM32H7xx_HAL_Driver/Src/stm32h7xx_hal_rcc.c ****   *         and updated within this function
1483:../../Drivers/STM32H7xx_HAL_Driver/Src/stm32h7xx_hal_rcc.c ****   * @retval HCLK frequency
1484:../../Drivers/STM32H7xx_HAL_Driver/Src/stm32h7xx_hal_rcc.c ****   */
1485:../../Drivers/STM32H7xx_HAL_Driver/Src/stm32h7xx_hal_rcc.c **** uint32_t HAL_RCC_GetHCLKFreq(void)
1486:../../Drivers/STM32H7xx_HAL_Driver/Src/stm32h7xx_hal_rcc.c **** {
 2918              		.loc 1 1486 1 is_stmt 1 view -0
 2919              		.cfi_startproc
 2920              		@ args = 0, pretend = 0, frame = 0
 2921              		@ frame_needed = 0, uses_anonymous_args = 0
 2922 0000 08B5     		push	{r3, lr}
 2923              	.LCFI15:
 2924              		.cfi_def_cfa_offset 8
 2925              		.cfi_offset 3, -8
 2926              		.cfi_offset 14, -4
1487:../../Drivers/STM32H7xx_HAL_Driver/Src/stm32h7xx_hal_rcc.c ****   uint32_t common_system_clock;
 2927              		.loc 1 1487 3 view .LVU965
1488:../../Drivers/STM32H7xx_HAL_Driver/Src/stm32h7xx_hal_rcc.c **** 
1489:../../Drivers/STM32H7xx_HAL_Driver/Src/stm32h7xx_hal_rcc.c **** #if defined(RCC_D1CFGR_D1CPRE)
1490:../../Drivers/STM32H7xx_HAL_Driver/Src/stm32h7xx_hal_rcc.c ****   common_system_clock = HAL_RCC_GetSysClockFreq() >> (D1CorePrescTable[(RCC->D1CFGR & RCC_D1CFGR_D1
 2928              		.loc 1 1490 3 view .LVU966
 2929              		.loc 1 1490 25 is_stmt 0 view .LVU967
 2930 0002 FFF7FEFF 		bl	HAL_RCC_GetSysClockFreq
 2931              	.LVL213:
 2932              		.loc 1 1490 76 discriminator 1 view .LVU968
 2933 0006 0B4A     		ldr	r2, .L241
 2934 0008 9369     		ldr	r3, [r2, #24]
 2935              		.loc 1 1490 106 discriminator 1 view .LVU969
 2936 000a C3F30323 		ubfx	r3, r3, #8, #4
 2937              		.loc 1 1490 71 discriminator 1 view .LVU970
 2938 000e 0A49     		ldr	r1, .L241+4
ARM GAS  C:\Users\minis\AppData\Local\Temp\cczlSevg.s 			page 88


 2939 0010 CB5C     		ldrb	r3, [r1, r3]	@ zero_extendqisi2
 2940              		.loc 1 1490 132 discriminator 1 view .LVU971
 2941 0012 03F01F03 		and	r3, r3, #31
 2942              		.loc 1 1490 23 discriminator 1 view .LVU972
 2943 0016 20FA03F3 		lsr	r3, r0, r3
 2944              	.LVL214:
1491:../../Drivers/STM32H7xx_HAL_Driver/Src/stm32h7xx_hal_rcc.c **** #else
1492:../../Drivers/STM32H7xx_HAL_Driver/Src/stm32h7xx_hal_rcc.c ****   common_system_clock = HAL_RCC_GetSysClockFreq() >> (D1CorePrescTable[(RCC->CDCFGR1 & RCC_CDCFGR1_
1493:../../Drivers/STM32H7xx_HAL_Driver/Src/stm32h7xx_hal_rcc.c **** #endif
1494:../../Drivers/STM32H7xx_HAL_Driver/Src/stm32h7xx_hal_rcc.c **** 
1495:../../Drivers/STM32H7xx_HAL_Driver/Src/stm32h7xx_hal_rcc.c **** #if defined(RCC_D1CFGR_HPRE)
1496:../../Drivers/STM32H7xx_HAL_Driver/Src/stm32h7xx_hal_rcc.c ****   SystemD2Clock = (common_system_clock >> ((D1CorePrescTable[(RCC->D1CFGR & RCC_D1CFGR_HPRE) >> RCC
 2945              		.loc 1 1496 3 is_stmt 1 view .LVU973
 2946              		.loc 1 1496 66 is_stmt 0 view .LVU974
 2947 001a 9269     		ldr	r2, [r2, #24]
 2948              		.loc 1 1496 94 view .LVU975
 2949 001c 02F00F02 		and	r2, r2, #15
 2950              		.loc 1 1496 61 view .LVU976
 2951 0020 885C     		ldrb	r0, [r1, r2]	@ zero_extendqisi2
 2952              		.loc 1 1496 119 view .LVU977
 2953 0022 00F01F00 		and	r0, r0, #31
 2954              		.loc 1 1496 40 view .LVU978
 2955 0026 23FA00F0 		lsr	r0, r3, r0
 2956              		.loc 1 1496 17 view .LVU979
 2957 002a 044A     		ldr	r2, .L241+8
 2958 002c 1060     		str	r0, [r2]
1497:../../Drivers/STM32H7xx_HAL_Driver/Src/stm32h7xx_hal_rcc.c **** #else
1498:../../Drivers/STM32H7xx_HAL_Driver/Src/stm32h7xx_hal_rcc.c ****   SystemD2Clock = (common_system_clock >> ((D1CorePrescTable[(RCC->CDCFGR1 & RCC_CDCFGR1_HPRE) >> R
1499:../../Drivers/STM32H7xx_HAL_Driver/Src/stm32h7xx_hal_rcc.c **** #endif
1500:../../Drivers/STM32H7xx_HAL_Driver/Src/stm32h7xx_hal_rcc.c **** 
1501:../../Drivers/STM32H7xx_HAL_Driver/Src/stm32h7xx_hal_rcc.c **** #if defined(DUAL_CORE) && defined(CORE_CM4)
1502:../../Drivers/STM32H7xx_HAL_Driver/Src/stm32h7xx_hal_rcc.c ****   SystemCoreClock = SystemD2Clock;
1503:../../Drivers/STM32H7xx_HAL_Driver/Src/stm32h7xx_hal_rcc.c **** #else
1504:../../Drivers/STM32H7xx_HAL_Driver/Src/stm32h7xx_hal_rcc.c ****   SystemCoreClock = common_system_clock;
 2959              		.loc 1 1504 3 is_stmt 1 view .LVU980
 2960              		.loc 1 1504 19 is_stmt 0 view .LVU981
 2961 002e 044A     		ldr	r2, .L241+12
 2962 0030 1360     		str	r3, [r2]
1505:../../Drivers/STM32H7xx_HAL_Driver/Src/stm32h7xx_hal_rcc.c **** #endif /* DUAL_CORE && CORE_CM4 */
1506:../../Drivers/STM32H7xx_HAL_Driver/Src/stm32h7xx_hal_rcc.c **** 
1507:../../Drivers/STM32H7xx_HAL_Driver/Src/stm32h7xx_hal_rcc.c ****   return SystemD2Clock;
 2963              		.loc 1 1507 3 is_stmt 1 view .LVU982
1508:../../Drivers/STM32H7xx_HAL_Driver/Src/stm32h7xx_hal_rcc.c **** }
 2964              		.loc 1 1508 1 is_stmt 0 view .LVU983
 2965 0032 08BD     		pop	{r3, pc}
 2966              	.LVL215:
 2967              	.L242:
 2968              		.loc 1 1508 1 view .LVU984
 2969              		.align	2
 2970              	.L241:
 2971 0034 00440258 		.word	1476543488
 2972 0038 00000000 		.word	D1CorePrescTable
 2973 003c 00000000 		.word	SystemD2Clock
 2974 0040 00000000 		.word	SystemCoreClock
 2975              		.cfi_endproc
 2976              	.LFE151:
 2978              		.section	.text.HAL_RCC_GetPCLK1Freq,"ax",%progbits
ARM GAS  C:\Users\minis\AppData\Local\Temp\cczlSevg.s 			page 89


 2979              		.align	1
 2980              		.global	HAL_RCC_GetPCLK1Freq
 2981              		.syntax unified
 2982              		.thumb
 2983              		.thumb_func
 2985              	HAL_RCC_GetPCLK1Freq:
 2986              	.LFB152:
1509:../../Drivers/STM32H7xx_HAL_Driver/Src/stm32h7xx_hal_rcc.c **** 
1510:../../Drivers/STM32H7xx_HAL_Driver/Src/stm32h7xx_hal_rcc.c **** 
1511:../../Drivers/STM32H7xx_HAL_Driver/Src/stm32h7xx_hal_rcc.c **** /**
1512:../../Drivers/STM32H7xx_HAL_Driver/Src/stm32h7xx_hal_rcc.c ****   * @brief  Returns the PCLK1 frequency
1513:../../Drivers/STM32H7xx_HAL_Driver/Src/stm32h7xx_hal_rcc.c ****   * @note   Each time PCLK1 changes, this function must be called to update the
1514:../../Drivers/STM32H7xx_HAL_Driver/Src/stm32h7xx_hal_rcc.c ****   *         right PCLK1 value. Otherwise, any configuration based on this function will be incorrec
1515:../../Drivers/STM32H7xx_HAL_Driver/Src/stm32h7xx_hal_rcc.c ****   * @retval PCLK1 frequency
1516:../../Drivers/STM32H7xx_HAL_Driver/Src/stm32h7xx_hal_rcc.c ****   */
1517:../../Drivers/STM32H7xx_HAL_Driver/Src/stm32h7xx_hal_rcc.c **** uint32_t HAL_RCC_GetPCLK1Freq(void)
1518:../../Drivers/STM32H7xx_HAL_Driver/Src/stm32h7xx_hal_rcc.c **** {
 2987              		.loc 1 1518 1 is_stmt 1 view -0
 2988              		.cfi_startproc
 2989              		@ args = 0, pretend = 0, frame = 0
 2990              		@ frame_needed = 0, uses_anonymous_args = 0
 2991 0000 08B5     		push	{r3, lr}
 2992              	.LCFI16:
 2993              		.cfi_def_cfa_offset 8
 2994              		.cfi_offset 3, -8
 2995              		.cfi_offset 14, -4
1519:../../Drivers/STM32H7xx_HAL_Driver/Src/stm32h7xx_hal_rcc.c **** #if defined (RCC_D2CFGR_D2PPRE1)
1520:../../Drivers/STM32H7xx_HAL_Driver/Src/stm32h7xx_hal_rcc.c ****   /* Get HCLK source and Compute PCLK1 frequency ---------------------------*/
1521:../../Drivers/STM32H7xx_HAL_Driver/Src/stm32h7xx_hal_rcc.c ****   return (HAL_RCC_GetHCLKFreq() >> ((D1CorePrescTable[(RCC->D2CFGR & RCC_D2CFGR_D2PPRE1) >> RCC_D2C
 2996              		.loc 1 1521 3 view .LVU986
 2997              		.loc 1 1521 11 is_stmt 0 view .LVU987
 2998 0002 FFF7FEFF 		bl	HAL_RCC_GetHCLKFreq
 2999              	.LVL216:
 3000              		.loc 1 1521 59 discriminator 1 view .LVU988
 3001 0006 054B     		ldr	r3, .L245
 3002 0008 DB69     		ldr	r3, [r3, #28]
 3003              		.loc 1 1521 90 discriminator 1 view .LVU989
 3004 000a C3F30213 		ubfx	r3, r3, #4, #3
 3005              		.loc 1 1521 54 discriminator 1 view .LVU990
 3006 000e 044A     		ldr	r2, .L245+4
 3007 0010 D35C     		ldrb	r3, [r2, r3]	@ zero_extendqisi2
 3008              		.loc 1 1521 118 discriminator 1 view .LVU991
 3009 0012 03F01F03 		and	r3, r3, #31
1522:../../Drivers/STM32H7xx_HAL_Driver/Src/stm32h7xx_hal_rcc.c **** #else
1523:../../Drivers/STM32H7xx_HAL_Driver/Src/stm32h7xx_hal_rcc.c ****   /* Get HCLK source and Compute PCLK1 frequency ---------------------------*/
1524:../../Drivers/STM32H7xx_HAL_Driver/Src/stm32h7xx_hal_rcc.c ****   return (HAL_RCC_GetHCLKFreq() >> ((D1CorePrescTable[(RCC->CDCFGR2 & RCC_CDCFGR2_CDPPRE1) >> RCC_C
1525:../../Drivers/STM32H7xx_HAL_Driver/Src/stm32h7xx_hal_rcc.c **** #endif
1526:../../Drivers/STM32H7xx_HAL_Driver/Src/stm32h7xx_hal_rcc.c **** }
 3010              		.loc 1 1526 1 view .LVU992
 3011 0016 D840     		lsrs	r0, r0, r3
 3012 0018 08BD     		pop	{r3, pc}
 3013              	.L246:
 3014 001a 00BF     		.align	2
 3015              	.L245:
 3016 001c 00440258 		.word	1476543488
 3017 0020 00000000 		.word	D1CorePrescTable
 3018              		.cfi_endproc
ARM GAS  C:\Users\minis\AppData\Local\Temp\cczlSevg.s 			page 90


 3019              	.LFE152:
 3021              		.section	.text.HAL_RCC_GetPCLK2Freq,"ax",%progbits
 3022              		.align	1
 3023              		.global	HAL_RCC_GetPCLK2Freq
 3024              		.syntax unified
 3025              		.thumb
 3026              		.thumb_func
 3028              	HAL_RCC_GetPCLK2Freq:
 3029              	.LFB153:
1527:../../Drivers/STM32H7xx_HAL_Driver/Src/stm32h7xx_hal_rcc.c **** 
1528:../../Drivers/STM32H7xx_HAL_Driver/Src/stm32h7xx_hal_rcc.c **** 
1529:../../Drivers/STM32H7xx_HAL_Driver/Src/stm32h7xx_hal_rcc.c **** /**
1530:../../Drivers/STM32H7xx_HAL_Driver/Src/stm32h7xx_hal_rcc.c ****   * @brief  Returns the D2 PCLK2 frequency
1531:../../Drivers/STM32H7xx_HAL_Driver/Src/stm32h7xx_hal_rcc.c ****   * @note   Each time PCLK2 changes, this function must be called to update the
1532:../../Drivers/STM32H7xx_HAL_Driver/Src/stm32h7xx_hal_rcc.c ****   *         right PCLK2 value. Otherwise, any configuration based on this function will be incorrec
1533:../../Drivers/STM32H7xx_HAL_Driver/Src/stm32h7xx_hal_rcc.c ****   * @retval PCLK1 frequency
1534:../../Drivers/STM32H7xx_HAL_Driver/Src/stm32h7xx_hal_rcc.c ****   */
1535:../../Drivers/STM32H7xx_HAL_Driver/Src/stm32h7xx_hal_rcc.c **** uint32_t HAL_RCC_GetPCLK2Freq(void)
1536:../../Drivers/STM32H7xx_HAL_Driver/Src/stm32h7xx_hal_rcc.c **** {
 3030              		.loc 1 1536 1 is_stmt 1 view -0
 3031              		.cfi_startproc
 3032              		@ args = 0, pretend = 0, frame = 0
 3033              		@ frame_needed = 0, uses_anonymous_args = 0
 3034 0000 08B5     		push	{r3, lr}
 3035              	.LCFI17:
 3036              		.cfi_def_cfa_offset 8
 3037              		.cfi_offset 3, -8
 3038              		.cfi_offset 14, -4
1537:../../Drivers/STM32H7xx_HAL_Driver/Src/stm32h7xx_hal_rcc.c ****   /* Get HCLK source and Compute PCLK1 frequency ---------------------------*/
1538:../../Drivers/STM32H7xx_HAL_Driver/Src/stm32h7xx_hal_rcc.c **** #if defined(RCC_D2CFGR_D2PPRE2)
1539:../../Drivers/STM32H7xx_HAL_Driver/Src/stm32h7xx_hal_rcc.c ****   return (HAL_RCC_GetHCLKFreq() >> ((D1CorePrescTable[(RCC->D2CFGR & RCC_D2CFGR_D2PPRE2) >> RCC_D2C
 3039              		.loc 1 1539 3 view .LVU994
 3040              		.loc 1 1539 11 is_stmt 0 view .LVU995
 3041 0002 FFF7FEFF 		bl	HAL_RCC_GetHCLKFreq
 3042              	.LVL217:
 3043              		.loc 1 1539 59 discriminator 1 view .LVU996
 3044 0006 054B     		ldr	r3, .L249
 3045 0008 DB69     		ldr	r3, [r3, #28]
 3046              		.loc 1 1539 90 discriminator 1 view .LVU997
 3047 000a C3F30223 		ubfx	r3, r3, #8, #3
 3048              		.loc 1 1539 54 discriminator 1 view .LVU998
 3049 000e 044A     		ldr	r2, .L249+4
 3050 0010 D35C     		ldrb	r3, [r2, r3]	@ zero_extendqisi2
 3051              		.loc 1 1539 118 discriminator 1 view .LVU999
 3052 0012 03F01F03 		and	r3, r3, #31
1540:../../Drivers/STM32H7xx_HAL_Driver/Src/stm32h7xx_hal_rcc.c **** #else
1541:../../Drivers/STM32H7xx_HAL_Driver/Src/stm32h7xx_hal_rcc.c ****   return (HAL_RCC_GetHCLKFreq() >> ((D1CorePrescTable[(RCC->CDCFGR2 & RCC_CDCFGR2_CDPPRE2) >> RCC_C
1542:../../Drivers/STM32H7xx_HAL_Driver/Src/stm32h7xx_hal_rcc.c **** #endif
1543:../../Drivers/STM32H7xx_HAL_Driver/Src/stm32h7xx_hal_rcc.c **** }
 3053              		.loc 1 1543 1 view .LVU1000
 3054 0016 D840     		lsrs	r0, r0, r3
 3055 0018 08BD     		pop	{r3, pc}
 3056              	.L250:
 3057 001a 00BF     		.align	2
 3058              	.L249:
 3059 001c 00440258 		.word	1476543488
 3060 0020 00000000 		.word	D1CorePrescTable
ARM GAS  C:\Users\minis\AppData\Local\Temp\cczlSevg.s 			page 91


 3061              		.cfi_endproc
 3062              	.LFE153:
 3064              		.section	.text.HAL_RCC_GetOscConfig,"ax",%progbits
 3065              		.align	1
 3066              		.global	HAL_RCC_GetOscConfig
 3067              		.syntax unified
 3068              		.thumb
 3069              		.thumb_func
 3071              	HAL_RCC_GetOscConfig:
 3072              	.LVL218:
 3073              	.LFB154:
1544:../../Drivers/STM32H7xx_HAL_Driver/Src/stm32h7xx_hal_rcc.c **** 
1545:../../Drivers/STM32H7xx_HAL_Driver/Src/stm32h7xx_hal_rcc.c **** /**
1546:../../Drivers/STM32H7xx_HAL_Driver/Src/stm32h7xx_hal_rcc.c ****   * @brief  Configures the RCC_OscInitStruct according to the internal
1547:../../Drivers/STM32H7xx_HAL_Driver/Src/stm32h7xx_hal_rcc.c ****   * RCC configuration registers.
1548:../../Drivers/STM32H7xx_HAL_Driver/Src/stm32h7xx_hal_rcc.c ****   * @param  RCC_OscInitStruct: pointer to an RCC_OscInitTypeDef structure that
1549:../../Drivers/STM32H7xx_HAL_Driver/Src/stm32h7xx_hal_rcc.c ****   * will be configured.
1550:../../Drivers/STM32H7xx_HAL_Driver/Src/stm32h7xx_hal_rcc.c ****   * @retval None
1551:../../Drivers/STM32H7xx_HAL_Driver/Src/stm32h7xx_hal_rcc.c ****   */
1552:../../Drivers/STM32H7xx_HAL_Driver/Src/stm32h7xx_hal_rcc.c **** void HAL_RCC_GetOscConfig(RCC_OscInitTypeDef  *RCC_OscInitStruct)
1553:../../Drivers/STM32H7xx_HAL_Driver/Src/stm32h7xx_hal_rcc.c **** {
 3074              		.loc 1 1553 1 is_stmt 1 view -0
 3075              		.cfi_startproc
 3076              		@ args = 0, pretend = 0, frame = 0
 3077              		@ frame_needed = 0, uses_anonymous_args = 0
 3078              		.loc 1 1553 1 is_stmt 0 view .LVU1002
 3079 0000 10B5     		push	{r4, lr}
 3080              	.LCFI18:
 3081              		.cfi_def_cfa_offset 8
 3082              		.cfi_offset 4, -8
 3083              		.cfi_offset 14, -4
 3084 0002 0446     		mov	r4, r0
1554:../../Drivers/STM32H7xx_HAL_Driver/Src/stm32h7xx_hal_rcc.c ****   /* Set all possible values for the Oscillator type parameter ---------------*/
1555:../../Drivers/STM32H7xx_HAL_Driver/Src/stm32h7xx_hal_rcc.c ****   RCC_OscInitStruct->OscillatorType = RCC_OSCILLATORTYPE_HSE | RCC_OSCILLATORTYPE_HSI | RCC_OSCILLA
 3085              		.loc 1 1555 3 is_stmt 1 view .LVU1003
 3086              		.loc 1 1555 37 is_stmt 0 view .LVU1004
 3087 0004 3F23     		movs	r3, #63
 3088 0006 0360     		str	r3, [r0]
1556:../../Drivers/STM32H7xx_HAL_Driver/Src/stm32h7xx_hal_rcc.c ****                                       RCC_OSCILLATORTYPE_LSE | RCC_OSCILLATORTYPE_LSI | RCC_OSCILLA
1557:../../Drivers/STM32H7xx_HAL_Driver/Src/stm32h7xx_hal_rcc.c **** 
1558:../../Drivers/STM32H7xx_HAL_Driver/Src/stm32h7xx_hal_rcc.c ****   /* Get the HSE configuration -----------------------------------------------*/
1559:../../Drivers/STM32H7xx_HAL_Driver/Src/stm32h7xx_hal_rcc.c **** #if defined(RCC_CR_HSEEXT)
1560:../../Drivers/STM32H7xx_HAL_Driver/Src/stm32h7xx_hal_rcc.c ****   if ((RCC->CR & (RCC_CR_HSEBYP | RCC_CR_HSEEXT)) == RCC_CR_HSEBYP)
1561:../../Drivers/STM32H7xx_HAL_Driver/Src/stm32h7xx_hal_rcc.c ****   {
1562:../../Drivers/STM32H7xx_HAL_Driver/Src/stm32h7xx_hal_rcc.c ****     RCC_OscInitStruct->HSEState = RCC_HSE_BYPASS;
1563:../../Drivers/STM32H7xx_HAL_Driver/Src/stm32h7xx_hal_rcc.c ****   }
1564:../../Drivers/STM32H7xx_HAL_Driver/Src/stm32h7xx_hal_rcc.c ****   else if ((RCC->CR & (RCC_CR_HSEBYP | RCC_CR_HSEEXT)) == (RCC_CR_HSEBYP | RCC_CR_HSEEXT))
1565:../../Drivers/STM32H7xx_HAL_Driver/Src/stm32h7xx_hal_rcc.c ****   {
1566:../../Drivers/STM32H7xx_HAL_Driver/Src/stm32h7xx_hal_rcc.c ****     RCC_OscInitStruct->HSEState = RCC_HSE_BYPASS_DIGITAL;
1567:../../Drivers/STM32H7xx_HAL_Driver/Src/stm32h7xx_hal_rcc.c ****   }
1568:../../Drivers/STM32H7xx_HAL_Driver/Src/stm32h7xx_hal_rcc.c ****   else if ((RCC->CR & RCC_CR_HSEON) == RCC_CR_HSEON)
1569:../../Drivers/STM32H7xx_HAL_Driver/Src/stm32h7xx_hal_rcc.c ****   {
1570:../../Drivers/STM32H7xx_HAL_Driver/Src/stm32h7xx_hal_rcc.c ****     RCC_OscInitStruct->HSEState = RCC_HSE_ON;
1571:../../Drivers/STM32H7xx_HAL_Driver/Src/stm32h7xx_hal_rcc.c ****   }
1572:../../Drivers/STM32H7xx_HAL_Driver/Src/stm32h7xx_hal_rcc.c ****   else
1573:../../Drivers/STM32H7xx_HAL_Driver/Src/stm32h7xx_hal_rcc.c ****   {
1574:../../Drivers/STM32H7xx_HAL_Driver/Src/stm32h7xx_hal_rcc.c ****     RCC_OscInitStruct->HSEState = RCC_HSE_OFF;
ARM GAS  C:\Users\minis\AppData\Local\Temp\cczlSevg.s 			page 92


1575:../../Drivers/STM32H7xx_HAL_Driver/Src/stm32h7xx_hal_rcc.c ****   }
1576:../../Drivers/STM32H7xx_HAL_Driver/Src/stm32h7xx_hal_rcc.c **** #else
1577:../../Drivers/STM32H7xx_HAL_Driver/Src/stm32h7xx_hal_rcc.c ****   if ((RCC->CR & RCC_CR_HSEBYP) == RCC_CR_HSEBYP)
 3089              		.loc 1 1577 3 is_stmt 1 view .LVU1005
 3090              		.loc 1 1577 11 is_stmt 0 view .LVU1006
 3091 0008 514B     		ldr	r3, .L273
 3092 000a 1B68     		ldr	r3, [r3]
 3093              		.loc 1 1577 6 view .LVU1007
 3094 000c 13F4802F 		tst	r3, #262144
 3095 0010 6CD0     		beq	.L252
1578:../../Drivers/STM32H7xx_HAL_Driver/Src/stm32h7xx_hal_rcc.c ****   {
1579:../../Drivers/STM32H7xx_HAL_Driver/Src/stm32h7xx_hal_rcc.c ****     RCC_OscInitStruct->HSEState = RCC_HSE_BYPASS;
 3096              		.loc 1 1579 5 is_stmt 1 view .LVU1008
 3097              		.loc 1 1579 33 is_stmt 0 view .LVU1009
 3098 0012 4FF4A023 		mov	r3, #327680
 3099 0016 4360     		str	r3, [r0, #4]
 3100              	.L253:
1580:../../Drivers/STM32H7xx_HAL_Driver/Src/stm32h7xx_hal_rcc.c ****   }
1581:../../Drivers/STM32H7xx_HAL_Driver/Src/stm32h7xx_hal_rcc.c ****   else if ((RCC->CR & RCC_CR_HSEON) == RCC_CR_HSEON)
1582:../../Drivers/STM32H7xx_HAL_Driver/Src/stm32h7xx_hal_rcc.c ****   {
1583:../../Drivers/STM32H7xx_HAL_Driver/Src/stm32h7xx_hal_rcc.c ****     RCC_OscInitStruct->HSEState = RCC_HSE_ON;
1584:../../Drivers/STM32H7xx_HAL_Driver/Src/stm32h7xx_hal_rcc.c ****   }
1585:../../Drivers/STM32H7xx_HAL_Driver/Src/stm32h7xx_hal_rcc.c ****   else
1586:../../Drivers/STM32H7xx_HAL_Driver/Src/stm32h7xx_hal_rcc.c ****   {
1587:../../Drivers/STM32H7xx_HAL_Driver/Src/stm32h7xx_hal_rcc.c ****     RCC_OscInitStruct->HSEState = RCC_HSE_OFF;
1588:../../Drivers/STM32H7xx_HAL_Driver/Src/stm32h7xx_hal_rcc.c ****   }
1589:../../Drivers/STM32H7xx_HAL_Driver/Src/stm32h7xx_hal_rcc.c **** #endif /* RCC_CR_HSEEXT */
1590:../../Drivers/STM32H7xx_HAL_Driver/Src/stm32h7xx_hal_rcc.c **** 
1591:../../Drivers/STM32H7xx_HAL_Driver/Src/stm32h7xx_hal_rcc.c ****   /* Get the CSI configuration -----------------------------------------------*/
1592:../../Drivers/STM32H7xx_HAL_Driver/Src/stm32h7xx_hal_rcc.c ****   if ((RCC->CR & RCC_CR_CSION) == RCC_CR_CSION)
 3101              		.loc 1 1592 3 is_stmt 1 view .LVU1010
 3102              		.loc 1 1592 11 is_stmt 0 view .LVU1011
 3103 0018 4D4B     		ldr	r3, .L273
 3104 001a 1B68     		ldr	r3, [r3]
 3105              		.loc 1 1592 6 view .LVU1012
 3106 001c 13F0800F 		tst	r3, #128
 3107 0020 70D0     		beq	.L255
1593:../../Drivers/STM32H7xx_HAL_Driver/Src/stm32h7xx_hal_rcc.c ****   {
1594:../../Drivers/STM32H7xx_HAL_Driver/Src/stm32h7xx_hal_rcc.c ****     RCC_OscInitStruct->CSIState = RCC_CSI_ON;
 3108              		.loc 1 1594 5 is_stmt 1 view .LVU1013
 3109              		.loc 1 1594 33 is_stmt 0 view .LVU1014
 3110 0022 8023     		movs	r3, #128
 3111 0024 E361     		str	r3, [r4, #28]
 3112              	.L256:
1595:../../Drivers/STM32H7xx_HAL_Driver/Src/stm32h7xx_hal_rcc.c ****   }
1596:../../Drivers/STM32H7xx_HAL_Driver/Src/stm32h7xx_hal_rcc.c ****   else
1597:../../Drivers/STM32H7xx_HAL_Driver/Src/stm32h7xx_hal_rcc.c ****   {
1598:../../Drivers/STM32H7xx_HAL_Driver/Src/stm32h7xx_hal_rcc.c ****     RCC_OscInitStruct->CSIState = RCC_CSI_OFF;
1599:../../Drivers/STM32H7xx_HAL_Driver/Src/stm32h7xx_hal_rcc.c ****   }
1600:../../Drivers/STM32H7xx_HAL_Driver/Src/stm32h7xx_hal_rcc.c **** 
1601:../../Drivers/STM32H7xx_HAL_Driver/Src/stm32h7xx_hal_rcc.c **** #if defined(RCC_VER_X)
1602:../../Drivers/STM32H7xx_HAL_Driver/Src/stm32h7xx_hal_rcc.c ****   if (HAL_GetREVID() <= REV_ID_Y)
 3113              		.loc 1 1602 3 is_stmt 1 view .LVU1015
 3114              		.loc 1 1602 7 is_stmt 0 view .LVU1016
 3115 0026 FFF7FEFF 		bl	HAL_GetREVID
 3116              	.LVL219:
 3117              		.loc 1 1602 6 discriminator 1 view .LVU1017
ARM GAS  C:\Users\minis\AppData\Local\Temp\cczlSevg.s 			page 93


 3118 002a 41F20303 		movw	r3, #4099
 3119 002e 9842     		cmp	r0, r3
 3120 0030 6BD8     		bhi	.L257
1603:../../Drivers/STM32H7xx_HAL_Driver/Src/stm32h7xx_hal_rcc.c ****   {
1604:../../Drivers/STM32H7xx_HAL_Driver/Src/stm32h7xx_hal_rcc.c ****     RCC_OscInitStruct->CSICalibrationValue = (uint32_t)(READ_BIT(RCC->HSICFGR, HAL_RCC_REV_Y_CSITRI
 3121              		.loc 1 1604 5 is_stmt 1 view .LVU1018
 3122              		.loc 1 1604 57 is_stmt 0 view .LVU1019
 3123 0032 474B     		ldr	r3, .L273
 3124 0034 5B68     		ldr	r3, [r3, #4]
 3125              		.loc 1 1604 46 view .LVU1020
 3126 0036 C3F38463 		ubfx	r3, r3, #26, #5
 3127              		.loc 1 1604 44 view .LVU1021
 3128 003a 2362     		str	r3, [r4, #32]
 3129              	.L258:
1605:../../Drivers/STM32H7xx_HAL_Driver/Src/stm32h7xx_hal_rcc.c ****   }
1606:../../Drivers/STM32H7xx_HAL_Driver/Src/stm32h7xx_hal_rcc.c ****   else
1607:../../Drivers/STM32H7xx_HAL_Driver/Src/stm32h7xx_hal_rcc.c ****   {
1608:../../Drivers/STM32H7xx_HAL_Driver/Src/stm32h7xx_hal_rcc.c ****     RCC_OscInitStruct->CSICalibrationValue = (uint32_t)(READ_BIT(RCC->CSICFGR, RCC_CSICFGR_CSITRIM)
1609:../../Drivers/STM32H7xx_HAL_Driver/Src/stm32h7xx_hal_rcc.c ****   }
1610:../../Drivers/STM32H7xx_HAL_Driver/Src/stm32h7xx_hal_rcc.c **** #else
1611:../../Drivers/STM32H7xx_HAL_Driver/Src/stm32h7xx_hal_rcc.c ****   RCC_OscInitStruct->CSICalibrationValue = (uint32_t)(READ_BIT(RCC->CSICFGR, RCC_CSICFGR_CSITRIM) >
1612:../../Drivers/STM32H7xx_HAL_Driver/Src/stm32h7xx_hal_rcc.c **** #endif /*RCC_VER_X*/
1613:../../Drivers/STM32H7xx_HAL_Driver/Src/stm32h7xx_hal_rcc.c **** 
1614:../../Drivers/STM32H7xx_HAL_Driver/Src/stm32h7xx_hal_rcc.c ****   /* Get the HSI configuration -----------------------------------------------*/
1615:../../Drivers/STM32H7xx_HAL_Driver/Src/stm32h7xx_hal_rcc.c ****   if ((RCC->CR & RCC_CR_HSION) == RCC_CR_HSION)
 3130              		.loc 1 1615 3 is_stmt 1 view .LVU1022
 3131              		.loc 1 1615 11 is_stmt 0 view .LVU1023
 3132 003c 444B     		ldr	r3, .L273
 3133 003e 1B68     		ldr	r3, [r3]
 3134              		.loc 1 1615 6 view .LVU1024
 3135 0040 13F0010F 		tst	r3, #1
 3136 0044 67D0     		beq	.L259
1616:../../Drivers/STM32H7xx_HAL_Driver/Src/stm32h7xx_hal_rcc.c ****   {
1617:../../Drivers/STM32H7xx_HAL_Driver/Src/stm32h7xx_hal_rcc.c ****     RCC_OscInitStruct->HSIState = RCC_HSI_ON;
 3137              		.loc 1 1617 5 is_stmt 1 view .LVU1025
 3138              		.loc 1 1617 33 is_stmt 0 view .LVU1026
 3139 0046 0123     		movs	r3, #1
 3140 0048 E360     		str	r3, [r4, #12]
 3141              	.L260:
1618:../../Drivers/STM32H7xx_HAL_Driver/Src/stm32h7xx_hal_rcc.c ****   }
1619:../../Drivers/STM32H7xx_HAL_Driver/Src/stm32h7xx_hal_rcc.c ****   else
1620:../../Drivers/STM32H7xx_HAL_Driver/Src/stm32h7xx_hal_rcc.c ****   {
1621:../../Drivers/STM32H7xx_HAL_Driver/Src/stm32h7xx_hal_rcc.c ****     RCC_OscInitStruct->HSIState = RCC_HSI_OFF;
1622:../../Drivers/STM32H7xx_HAL_Driver/Src/stm32h7xx_hal_rcc.c ****   }
1623:../../Drivers/STM32H7xx_HAL_Driver/Src/stm32h7xx_hal_rcc.c **** 
1624:../../Drivers/STM32H7xx_HAL_Driver/Src/stm32h7xx_hal_rcc.c **** #if defined(RCC_VER_X)
1625:../../Drivers/STM32H7xx_HAL_Driver/Src/stm32h7xx_hal_rcc.c ****   if (HAL_GetREVID() <= REV_ID_Y)
 3142              		.loc 1 1625 3 is_stmt 1 view .LVU1027
 3143              		.loc 1 1625 7 is_stmt 0 view .LVU1028
 3144 004a FFF7FEFF 		bl	HAL_GetREVID
 3145              	.LVL220:
 3146              		.loc 1 1625 6 discriminator 1 view .LVU1029
 3147 004e 41F20303 		movw	r3, #4099
 3148 0052 9842     		cmp	r0, r3
 3149 0054 62D8     		bhi	.L261
1626:../../Drivers/STM32H7xx_HAL_Driver/Src/stm32h7xx_hal_rcc.c ****   {
1627:../../Drivers/STM32H7xx_HAL_Driver/Src/stm32h7xx_hal_rcc.c ****     RCC_OscInitStruct->HSICalibrationValue = (uint32_t)(READ_BIT(RCC->HSICFGR, HAL_RCC_REV_Y_HSITRI
ARM GAS  C:\Users\minis\AppData\Local\Temp\cczlSevg.s 			page 94


 3150              		.loc 1 1627 5 is_stmt 1 view .LVU1030
 3151              		.loc 1 1627 57 is_stmt 0 view .LVU1031
 3152 0056 3E4B     		ldr	r3, .L273
 3153 0058 5B68     		ldr	r3, [r3, #4]
 3154              		.loc 1 1627 46 view .LVU1032
 3155 005a C3F30533 		ubfx	r3, r3, #12, #6
 3156              		.loc 1 1627 44 view .LVU1033
 3157 005e 2361     		str	r3, [r4, #16]
 3158              	.L262:
1628:../../Drivers/STM32H7xx_HAL_Driver/Src/stm32h7xx_hal_rcc.c ****   }
1629:../../Drivers/STM32H7xx_HAL_Driver/Src/stm32h7xx_hal_rcc.c ****   else
1630:../../Drivers/STM32H7xx_HAL_Driver/Src/stm32h7xx_hal_rcc.c ****   {
1631:../../Drivers/STM32H7xx_HAL_Driver/Src/stm32h7xx_hal_rcc.c ****     RCC_OscInitStruct->HSICalibrationValue = (uint32_t)(READ_BIT(RCC->HSICFGR, RCC_HSICFGR_HSITRIM)
1632:../../Drivers/STM32H7xx_HAL_Driver/Src/stm32h7xx_hal_rcc.c ****   }
1633:../../Drivers/STM32H7xx_HAL_Driver/Src/stm32h7xx_hal_rcc.c **** #else
1634:../../Drivers/STM32H7xx_HAL_Driver/Src/stm32h7xx_hal_rcc.c ****   RCC_OscInitStruct->HSICalibrationValue = (uint32_t)(READ_BIT(RCC->HSICFGR, RCC_HSICFGR_HSITRIM) >
1635:../../Drivers/STM32H7xx_HAL_Driver/Src/stm32h7xx_hal_rcc.c **** #endif /*RCC_VER_X*/
1636:../../Drivers/STM32H7xx_HAL_Driver/Src/stm32h7xx_hal_rcc.c **** 
1637:../../Drivers/STM32H7xx_HAL_Driver/Src/stm32h7xx_hal_rcc.c ****   /* Get the LSE configuration -----------------------------------------------*/
1638:../../Drivers/STM32H7xx_HAL_Driver/Src/stm32h7xx_hal_rcc.c **** #if defined(RCC_BDCR_LSEEXT)
1639:../../Drivers/STM32H7xx_HAL_Driver/Src/stm32h7xx_hal_rcc.c ****   if ((RCC->BDCR & (RCC_BDCR_LSEBYP | RCC_BDCR_LSEEXT)) == RCC_BDCR_LSEBYP)
1640:../../Drivers/STM32H7xx_HAL_Driver/Src/stm32h7xx_hal_rcc.c ****   {
1641:../../Drivers/STM32H7xx_HAL_Driver/Src/stm32h7xx_hal_rcc.c ****     RCC_OscInitStruct->LSEState = RCC_LSE_BYPASS;
1642:../../Drivers/STM32H7xx_HAL_Driver/Src/stm32h7xx_hal_rcc.c ****   }
1643:../../Drivers/STM32H7xx_HAL_Driver/Src/stm32h7xx_hal_rcc.c ****   else if ((RCC->BDCR & (RCC_BDCR_LSEBYP | RCC_BDCR_LSEEXT)) == (RCC_BDCR_LSEBYP | RCC_BDCR_LSEEXT)
1644:../../Drivers/STM32H7xx_HAL_Driver/Src/stm32h7xx_hal_rcc.c ****   {
1645:../../Drivers/STM32H7xx_HAL_Driver/Src/stm32h7xx_hal_rcc.c ****     RCC_OscInitStruct->LSEState = RCC_LSE_BYPASS_DIGITAL;
1646:../../Drivers/STM32H7xx_HAL_Driver/Src/stm32h7xx_hal_rcc.c ****   }
1647:../../Drivers/STM32H7xx_HAL_Driver/Src/stm32h7xx_hal_rcc.c ****   else if ((RCC->BDCR & RCC_BDCR_LSEON) == RCC_BDCR_LSEON)
1648:../../Drivers/STM32H7xx_HAL_Driver/Src/stm32h7xx_hal_rcc.c ****   {
1649:../../Drivers/STM32H7xx_HAL_Driver/Src/stm32h7xx_hal_rcc.c ****     RCC_OscInitStruct->LSEState = RCC_LSE_ON;
1650:../../Drivers/STM32H7xx_HAL_Driver/Src/stm32h7xx_hal_rcc.c ****   }
1651:../../Drivers/STM32H7xx_HAL_Driver/Src/stm32h7xx_hal_rcc.c ****   else
1652:../../Drivers/STM32H7xx_HAL_Driver/Src/stm32h7xx_hal_rcc.c ****   {
1653:../../Drivers/STM32H7xx_HAL_Driver/Src/stm32h7xx_hal_rcc.c ****     RCC_OscInitStruct->LSEState = RCC_LSE_OFF;
1654:../../Drivers/STM32H7xx_HAL_Driver/Src/stm32h7xx_hal_rcc.c ****   }
1655:../../Drivers/STM32H7xx_HAL_Driver/Src/stm32h7xx_hal_rcc.c **** #else
1656:../../Drivers/STM32H7xx_HAL_Driver/Src/stm32h7xx_hal_rcc.c ****   if ((RCC->BDCR & RCC_BDCR_LSEBYP) == RCC_BDCR_LSEBYP)
 3159              		.loc 1 1656 3 is_stmt 1 view .LVU1034
 3160              		.loc 1 1656 11 is_stmt 0 view .LVU1035
 3161 0060 3B4B     		ldr	r3, .L273
 3162 0062 1B6F     		ldr	r3, [r3, #112]
 3163              		.loc 1 1656 6 view .LVU1036
 3164 0064 13F0040F 		tst	r3, #4
 3165 0068 5ED0     		beq	.L263
1657:../../Drivers/STM32H7xx_HAL_Driver/Src/stm32h7xx_hal_rcc.c ****   {
1658:../../Drivers/STM32H7xx_HAL_Driver/Src/stm32h7xx_hal_rcc.c ****     RCC_OscInitStruct->LSEState = RCC_LSE_BYPASS;
 3166              		.loc 1 1658 5 is_stmt 1 view .LVU1037
 3167              		.loc 1 1658 33 is_stmt 0 view .LVU1038
 3168 006a 0523     		movs	r3, #5
 3169 006c A360     		str	r3, [r4, #8]
 3170              	.L264:
1659:../../Drivers/STM32H7xx_HAL_Driver/Src/stm32h7xx_hal_rcc.c ****   }
1660:../../Drivers/STM32H7xx_HAL_Driver/Src/stm32h7xx_hal_rcc.c ****   else if ((RCC->BDCR & RCC_BDCR_LSEON) == RCC_BDCR_LSEON)
1661:../../Drivers/STM32H7xx_HAL_Driver/Src/stm32h7xx_hal_rcc.c ****   {
1662:../../Drivers/STM32H7xx_HAL_Driver/Src/stm32h7xx_hal_rcc.c ****     RCC_OscInitStruct->LSEState = RCC_LSE_ON;
1663:../../Drivers/STM32H7xx_HAL_Driver/Src/stm32h7xx_hal_rcc.c ****   }
ARM GAS  C:\Users\minis\AppData\Local\Temp\cczlSevg.s 			page 95


1664:../../Drivers/STM32H7xx_HAL_Driver/Src/stm32h7xx_hal_rcc.c ****   else
1665:../../Drivers/STM32H7xx_HAL_Driver/Src/stm32h7xx_hal_rcc.c ****   {
1666:../../Drivers/STM32H7xx_HAL_Driver/Src/stm32h7xx_hal_rcc.c ****     RCC_OscInitStruct->LSEState = RCC_LSE_OFF;
1667:../../Drivers/STM32H7xx_HAL_Driver/Src/stm32h7xx_hal_rcc.c ****   }
1668:../../Drivers/STM32H7xx_HAL_Driver/Src/stm32h7xx_hal_rcc.c **** #endif /* RCC_BDCR_LSEEXT */
1669:../../Drivers/STM32H7xx_HAL_Driver/Src/stm32h7xx_hal_rcc.c **** 
1670:../../Drivers/STM32H7xx_HAL_Driver/Src/stm32h7xx_hal_rcc.c ****   /* Get the LSI configuration -----------------------------------------------*/
1671:../../Drivers/STM32H7xx_HAL_Driver/Src/stm32h7xx_hal_rcc.c ****   if ((RCC->CSR & RCC_CSR_LSION) == RCC_CSR_LSION)
 3171              		.loc 1 1671 3 is_stmt 1 view .LVU1039
 3172              		.loc 1 1671 11 is_stmt 0 view .LVU1040
 3173 006e 384B     		ldr	r3, .L273
 3174 0070 5B6F     		ldr	r3, [r3, #116]
 3175              		.loc 1 1671 6 view .LVU1041
 3176 0072 13F0010F 		tst	r3, #1
 3177 0076 62D0     		beq	.L266
1672:../../Drivers/STM32H7xx_HAL_Driver/Src/stm32h7xx_hal_rcc.c ****   {
1673:../../Drivers/STM32H7xx_HAL_Driver/Src/stm32h7xx_hal_rcc.c ****     RCC_OscInitStruct->LSIState = RCC_LSI_ON;
 3178              		.loc 1 1673 5 is_stmt 1 view .LVU1042
 3179              		.loc 1 1673 33 is_stmt 0 view .LVU1043
 3180 0078 0123     		movs	r3, #1
 3181 007a 6361     		str	r3, [r4, #20]
 3182              	.L267:
1674:../../Drivers/STM32H7xx_HAL_Driver/Src/stm32h7xx_hal_rcc.c ****   }
1675:../../Drivers/STM32H7xx_HAL_Driver/Src/stm32h7xx_hal_rcc.c ****   else
1676:../../Drivers/STM32H7xx_HAL_Driver/Src/stm32h7xx_hal_rcc.c ****   {
1677:../../Drivers/STM32H7xx_HAL_Driver/Src/stm32h7xx_hal_rcc.c ****     RCC_OscInitStruct->LSIState = RCC_LSI_OFF;
1678:../../Drivers/STM32H7xx_HAL_Driver/Src/stm32h7xx_hal_rcc.c ****   }
1679:../../Drivers/STM32H7xx_HAL_Driver/Src/stm32h7xx_hal_rcc.c **** 
1680:../../Drivers/STM32H7xx_HAL_Driver/Src/stm32h7xx_hal_rcc.c ****   /* Get the HSI48 configuration ---------------------------------------------*/
1681:../../Drivers/STM32H7xx_HAL_Driver/Src/stm32h7xx_hal_rcc.c ****   if ((RCC->CR & RCC_CR_HSI48ON) == RCC_CR_HSI48ON)
 3183              		.loc 1 1681 3 is_stmt 1 view .LVU1044
 3184              		.loc 1 1681 11 is_stmt 0 view .LVU1045
 3185 007c 344B     		ldr	r3, .L273
 3186 007e 1B68     		ldr	r3, [r3]
 3187              		.loc 1 1681 6 view .LVU1046
 3188 0080 13F4805F 		tst	r3, #4096
 3189 0084 5ED0     		beq	.L268
1682:../../Drivers/STM32H7xx_HAL_Driver/Src/stm32h7xx_hal_rcc.c ****   {
1683:../../Drivers/STM32H7xx_HAL_Driver/Src/stm32h7xx_hal_rcc.c ****     RCC_OscInitStruct->HSI48State = RCC_HSI48_ON;
 3190              		.loc 1 1683 5 is_stmt 1 view .LVU1047
 3191              		.loc 1 1683 35 is_stmt 0 view .LVU1048
 3192 0086 0123     		movs	r3, #1
 3193 0088 A361     		str	r3, [r4, #24]
 3194              	.L269:
1684:../../Drivers/STM32H7xx_HAL_Driver/Src/stm32h7xx_hal_rcc.c ****   }
1685:../../Drivers/STM32H7xx_HAL_Driver/Src/stm32h7xx_hal_rcc.c ****   else
1686:../../Drivers/STM32H7xx_HAL_Driver/Src/stm32h7xx_hal_rcc.c ****   {
1687:../../Drivers/STM32H7xx_HAL_Driver/Src/stm32h7xx_hal_rcc.c ****     RCC_OscInitStruct->HSI48State = RCC_HSI48_OFF;
1688:../../Drivers/STM32H7xx_HAL_Driver/Src/stm32h7xx_hal_rcc.c ****   }
1689:../../Drivers/STM32H7xx_HAL_Driver/Src/stm32h7xx_hal_rcc.c **** 
1690:../../Drivers/STM32H7xx_HAL_Driver/Src/stm32h7xx_hal_rcc.c ****   /* Get the PLL configuration -----------------------------------------------*/
1691:../../Drivers/STM32H7xx_HAL_Driver/Src/stm32h7xx_hal_rcc.c ****   if ((RCC->CR & RCC_CR_PLLON) == RCC_CR_PLLON)
 3195              		.loc 1 1691 3 is_stmt 1 view .LVU1049
 3196              		.loc 1 1691 11 is_stmt 0 view .LVU1050
 3197 008a 314B     		ldr	r3, .L273
 3198 008c 1B68     		ldr	r3, [r3]
 3199              		.loc 1 1691 6 view .LVU1051
ARM GAS  C:\Users\minis\AppData\Local\Temp\cczlSevg.s 			page 96


 3200 008e 13F0807F 		tst	r3, #16777216
 3201 0092 5AD0     		beq	.L270
1692:../../Drivers/STM32H7xx_HAL_Driver/Src/stm32h7xx_hal_rcc.c ****   {
1693:../../Drivers/STM32H7xx_HAL_Driver/Src/stm32h7xx_hal_rcc.c ****     RCC_OscInitStruct->PLL.PLLState = RCC_PLL_ON;
 3202              		.loc 1 1693 5 is_stmt 1 view .LVU1052
 3203              		.loc 1 1693 37 is_stmt 0 view .LVU1053
 3204 0094 0223     		movs	r3, #2
 3205 0096 6362     		str	r3, [r4, #36]
 3206              	.L271:
1694:../../Drivers/STM32H7xx_HAL_Driver/Src/stm32h7xx_hal_rcc.c ****   }
1695:../../Drivers/STM32H7xx_HAL_Driver/Src/stm32h7xx_hal_rcc.c ****   else
1696:../../Drivers/STM32H7xx_HAL_Driver/Src/stm32h7xx_hal_rcc.c ****   {
1697:../../Drivers/STM32H7xx_HAL_Driver/Src/stm32h7xx_hal_rcc.c ****     RCC_OscInitStruct->PLL.PLLState = RCC_PLL_OFF;
1698:../../Drivers/STM32H7xx_HAL_Driver/Src/stm32h7xx_hal_rcc.c ****   }
1699:../../Drivers/STM32H7xx_HAL_Driver/Src/stm32h7xx_hal_rcc.c ****   RCC_OscInitStruct->PLL.PLLSource = (uint32_t)(RCC->PLLCKSELR & RCC_PLLCKSELR_PLLSRC);
 3207              		.loc 1 1699 3 is_stmt 1 view .LVU1054
 3208              		.loc 1 1699 52 is_stmt 0 view .LVU1055
 3209 0098 2D4B     		ldr	r3, .L273
 3210 009a 9A6A     		ldr	r2, [r3, #40]
 3211              		.loc 1 1699 38 view .LVU1056
 3212 009c 02F00302 		and	r2, r2, #3
 3213              		.loc 1 1699 36 view .LVU1057
 3214 00a0 A262     		str	r2, [r4, #40]
1700:../../Drivers/STM32H7xx_HAL_Driver/Src/stm32h7xx_hal_rcc.c ****   RCC_OscInitStruct->PLL.PLLM = (uint32_t)((RCC->PLLCKSELR & RCC_PLLCKSELR_DIVM1) >> RCC_PLLCKSELR_
 3215              		.loc 1 1700 3 is_stmt 1 view .LVU1058
 3216              		.loc 1 1700 48 is_stmt 0 view .LVU1059
 3217 00a2 9A6A     		ldr	r2, [r3, #40]
 3218              		.loc 1 1700 33 view .LVU1060
 3219 00a4 C2F30512 		ubfx	r2, r2, #4, #6
 3220              		.loc 1 1700 31 view .LVU1061
 3221 00a8 E262     		str	r2, [r4, #44]
1701:../../Drivers/STM32H7xx_HAL_Driver/Src/stm32h7xx_hal_rcc.c ****   RCC_OscInitStruct->PLL.PLLN = (uint32_t)((RCC->PLL1DIVR & RCC_PLL1DIVR_N1) >> RCC_PLL1DIVR_N1_Pos
 3222              		.loc 1 1701 3 is_stmt 1 view .LVU1062
 3223              		.loc 1 1701 48 is_stmt 0 view .LVU1063
 3224 00aa 1A6B     		ldr	r2, [r3, #48]
 3225              		.loc 1 1701 33 view .LVU1064
 3226 00ac C2F30802 		ubfx	r2, r2, #0, #9
 3227              		.loc 1 1701 102 view .LVU1065
 3228 00b0 0132     		adds	r2, r2, #1
 3229              		.loc 1 1701 31 view .LVU1066
 3230 00b2 2263     		str	r2, [r4, #48]
1702:../../Drivers/STM32H7xx_HAL_Driver/Src/stm32h7xx_hal_rcc.c ****   RCC_OscInitStruct->PLL.PLLR = (uint32_t)((RCC->PLL1DIVR & RCC_PLL1DIVR_R1) >> RCC_PLL1DIVR_R1_Pos
 3231              		.loc 1 1702 3 is_stmt 1 view .LVU1067
 3232              		.loc 1 1702 48 is_stmt 0 view .LVU1068
 3233 00b4 1A6B     		ldr	r2, [r3, #48]
 3234              		.loc 1 1702 33 view .LVU1069
 3235 00b6 C2F30662 		ubfx	r2, r2, #24, #7
 3236              		.loc 1 1702 102 view .LVU1070
 3237 00ba 0132     		adds	r2, r2, #1
 3238              		.loc 1 1702 31 view .LVU1071
 3239 00bc E263     		str	r2, [r4, #60]
1703:../../Drivers/STM32H7xx_HAL_Driver/Src/stm32h7xx_hal_rcc.c ****   RCC_OscInitStruct->PLL.PLLP = (uint32_t)((RCC->PLL1DIVR & RCC_PLL1DIVR_P1) >> RCC_PLL1DIVR_P1_Pos
 3240              		.loc 1 1703 3 is_stmt 1 view .LVU1072
 3241              		.loc 1 1703 48 is_stmt 0 view .LVU1073
 3242 00be 1A6B     		ldr	r2, [r3, #48]
 3243              		.loc 1 1703 33 view .LVU1074
 3244 00c0 C2F34622 		ubfx	r2, r2, #9, #7
ARM GAS  C:\Users\minis\AppData\Local\Temp\cczlSevg.s 			page 97


 3245              		.loc 1 1703 102 view .LVU1075
 3246 00c4 0132     		adds	r2, r2, #1
 3247              		.loc 1 1703 31 view .LVU1076
 3248 00c6 6263     		str	r2, [r4, #52]
1704:../../Drivers/STM32H7xx_HAL_Driver/Src/stm32h7xx_hal_rcc.c ****   RCC_OscInitStruct->PLL.PLLQ = (uint32_t)((RCC->PLL1DIVR & RCC_PLL1DIVR_Q1) >> RCC_PLL1DIVR_Q1_Pos
 3249              		.loc 1 1704 3 is_stmt 1 view .LVU1077
 3250              		.loc 1 1704 48 is_stmt 0 view .LVU1078
 3251 00c8 1A6B     		ldr	r2, [r3, #48]
 3252              		.loc 1 1704 33 view .LVU1079
 3253 00ca C2F30642 		ubfx	r2, r2, #16, #7
 3254              		.loc 1 1704 102 view .LVU1080
 3255 00ce 0132     		adds	r2, r2, #1
 3256              		.loc 1 1704 31 view .LVU1081
 3257 00d0 A263     		str	r2, [r4, #56]
1705:../../Drivers/STM32H7xx_HAL_Driver/Src/stm32h7xx_hal_rcc.c ****   RCC_OscInitStruct->PLL.PLLRGE = (uint32_t)((RCC->PLLCFGR & RCC_PLLCFGR_PLL1RGE));
 3258              		.loc 1 1705 3 is_stmt 1 view .LVU1082
 3259              		.loc 1 1705 50 is_stmt 0 view .LVU1083
 3260 00d2 DA6A     		ldr	r2, [r3, #44]
 3261              		.loc 1 1705 35 view .LVU1084
 3262 00d4 02F00C02 		and	r2, r2, #12
 3263              		.loc 1 1705 33 view .LVU1085
 3264 00d8 2264     		str	r2, [r4, #64]
1706:../../Drivers/STM32H7xx_HAL_Driver/Src/stm32h7xx_hal_rcc.c ****   RCC_OscInitStruct->PLL.PLLVCOSEL = (uint32_t)((RCC->PLLCFGR & RCC_PLLCFGR_PLL1VCOSEL) >> RCC_PLLC
 3265              		.loc 1 1706 3 is_stmt 1 view .LVU1086
 3266              		.loc 1 1706 53 is_stmt 0 view .LVU1087
 3267 00da DA6A     		ldr	r2, [r3, #44]
 3268              		.loc 1 1706 38 view .LVU1088
 3269 00dc C2F34002 		ubfx	r2, r2, #1, #1
 3270              		.loc 1 1706 36 view .LVU1089
 3271 00e0 6264     		str	r2, [r4, #68]
1707:../../Drivers/STM32H7xx_HAL_Driver/Src/stm32h7xx_hal_rcc.c ****   RCC_OscInitStruct->PLL.PLLFRACN = (uint32_t)(((RCC->PLL1FRACR & RCC_PLL1FRACR_FRACN1) >> RCC_PLL1
 3272              		.loc 1 1707 3 is_stmt 1 view .LVU1090
 3273              		.loc 1 1707 53 is_stmt 0 view .LVU1091
 3274 00e2 5B6B     		ldr	r3, [r3, #52]
 3275              		.loc 1 1707 37 view .LVU1092
 3276 00e4 C3F3CC03 		ubfx	r3, r3, #3, #13
 3277              		.loc 1 1707 35 view .LVU1093
 3278 00e8 A364     		str	r3, [r4, #72]
1708:../../Drivers/STM32H7xx_HAL_Driver/Src/stm32h7xx_hal_rcc.c **** }
 3279              		.loc 1 1708 1 view .LVU1094
 3280 00ea 10BD     		pop	{r4, pc}
 3281              	.LVL221:
 3282              	.L252:
1581:../../Drivers/STM32H7xx_HAL_Driver/Src/stm32h7xx_hal_rcc.c ****   {
 3283              		.loc 1 1581 8 is_stmt 1 view .LVU1095
1581:../../Drivers/STM32H7xx_HAL_Driver/Src/stm32h7xx_hal_rcc.c ****   {
 3284              		.loc 1 1581 16 is_stmt 0 view .LVU1096
 3285 00ec 184B     		ldr	r3, .L273
 3286 00ee 1B68     		ldr	r3, [r3]
1581:../../Drivers/STM32H7xx_HAL_Driver/Src/stm32h7xx_hal_rcc.c ****   {
 3287              		.loc 1 1581 11 view .LVU1097
 3288 00f0 13F4803F 		tst	r3, #65536
 3289 00f4 03D0     		beq	.L254
1583:../../Drivers/STM32H7xx_HAL_Driver/Src/stm32h7xx_hal_rcc.c ****   }
 3290              		.loc 1 1583 5 is_stmt 1 view .LVU1098
1583:../../Drivers/STM32H7xx_HAL_Driver/Src/stm32h7xx_hal_rcc.c ****   }
 3291              		.loc 1 1583 33 is_stmt 0 view .LVU1099
ARM GAS  C:\Users\minis\AppData\Local\Temp\cczlSevg.s 			page 98


 3292 00f6 4FF48033 		mov	r3, #65536
 3293 00fa 4360     		str	r3, [r0, #4]
 3294 00fc 8CE7     		b	.L253
 3295              	.L254:
1587:../../Drivers/STM32H7xx_HAL_Driver/Src/stm32h7xx_hal_rcc.c ****   }
 3296              		.loc 1 1587 5 is_stmt 1 view .LVU1100
1587:../../Drivers/STM32H7xx_HAL_Driver/Src/stm32h7xx_hal_rcc.c ****   }
 3297              		.loc 1 1587 33 is_stmt 0 view .LVU1101
 3298 00fe 0023     		movs	r3, #0
 3299 0100 4360     		str	r3, [r0, #4]
 3300 0102 89E7     		b	.L253
 3301              	.L255:
1598:../../Drivers/STM32H7xx_HAL_Driver/Src/stm32h7xx_hal_rcc.c ****   }
 3302              		.loc 1 1598 5 is_stmt 1 view .LVU1102
1598:../../Drivers/STM32H7xx_HAL_Driver/Src/stm32h7xx_hal_rcc.c ****   }
 3303              		.loc 1 1598 33 is_stmt 0 view .LVU1103
 3304 0104 0023     		movs	r3, #0
 3305 0106 E361     		str	r3, [r4, #28]
 3306 0108 8DE7     		b	.L256
 3307              	.LVL222:
 3308              	.L257:
1608:../../Drivers/STM32H7xx_HAL_Driver/Src/stm32h7xx_hal_rcc.c ****   }
 3309              		.loc 1 1608 5 is_stmt 1 view .LVU1104
1608:../../Drivers/STM32H7xx_HAL_Driver/Src/stm32h7xx_hal_rcc.c ****   }
 3310              		.loc 1 1608 57 is_stmt 0 view .LVU1105
 3311 010a 114B     		ldr	r3, .L273
 3312 010c DB68     		ldr	r3, [r3, #12]
1608:../../Drivers/STM32H7xx_HAL_Driver/Src/stm32h7xx_hal_rcc.c ****   }
 3313              		.loc 1 1608 46 view .LVU1106
 3314 010e C3F30563 		ubfx	r3, r3, #24, #6
1608:../../Drivers/STM32H7xx_HAL_Driver/Src/stm32h7xx_hal_rcc.c ****   }
 3315              		.loc 1 1608 44 view .LVU1107
 3316 0112 2362     		str	r3, [r4, #32]
 3317 0114 92E7     		b	.L258
 3318              	.L259:
1621:../../Drivers/STM32H7xx_HAL_Driver/Src/stm32h7xx_hal_rcc.c ****   }
 3319              		.loc 1 1621 5 is_stmt 1 view .LVU1108
1621:../../Drivers/STM32H7xx_HAL_Driver/Src/stm32h7xx_hal_rcc.c ****   }
 3320              		.loc 1 1621 33 is_stmt 0 view .LVU1109
 3321 0116 0023     		movs	r3, #0
 3322 0118 E360     		str	r3, [r4, #12]
 3323 011a 96E7     		b	.L260
 3324              	.L261:
1631:../../Drivers/STM32H7xx_HAL_Driver/Src/stm32h7xx_hal_rcc.c ****   }
 3325              		.loc 1 1631 5 is_stmt 1 view .LVU1110
1631:../../Drivers/STM32H7xx_HAL_Driver/Src/stm32h7xx_hal_rcc.c ****   }
 3326              		.loc 1 1631 57 is_stmt 0 view .LVU1111
 3327 011c 0C4B     		ldr	r3, .L273
 3328 011e 5B68     		ldr	r3, [r3, #4]
1631:../../Drivers/STM32H7xx_HAL_Driver/Src/stm32h7xx_hal_rcc.c ****   }
 3329              		.loc 1 1631 46 view .LVU1112
 3330 0120 C3F30663 		ubfx	r3, r3, #24, #7
1631:../../Drivers/STM32H7xx_HAL_Driver/Src/stm32h7xx_hal_rcc.c ****   }
 3331              		.loc 1 1631 44 view .LVU1113
 3332 0124 2361     		str	r3, [r4, #16]
 3333 0126 9BE7     		b	.L262
 3334              	.L263:
ARM GAS  C:\Users\minis\AppData\Local\Temp\cczlSevg.s 			page 99


1660:../../Drivers/STM32H7xx_HAL_Driver/Src/stm32h7xx_hal_rcc.c ****   {
 3335              		.loc 1 1660 8 is_stmt 1 view .LVU1114
1660:../../Drivers/STM32H7xx_HAL_Driver/Src/stm32h7xx_hal_rcc.c ****   {
 3336              		.loc 1 1660 16 is_stmt 0 view .LVU1115
 3337 0128 094B     		ldr	r3, .L273
 3338 012a 1B6F     		ldr	r3, [r3, #112]
1660:../../Drivers/STM32H7xx_HAL_Driver/Src/stm32h7xx_hal_rcc.c ****   {
 3339              		.loc 1 1660 11 view .LVU1116
 3340 012c 13F0010F 		tst	r3, #1
 3341 0130 02D0     		beq	.L265
1662:../../Drivers/STM32H7xx_HAL_Driver/Src/stm32h7xx_hal_rcc.c ****   }
 3342              		.loc 1 1662 5 is_stmt 1 view .LVU1117
1662:../../Drivers/STM32H7xx_HAL_Driver/Src/stm32h7xx_hal_rcc.c ****   }
 3343              		.loc 1 1662 33 is_stmt 0 view .LVU1118
 3344 0132 0123     		movs	r3, #1
 3345 0134 A360     		str	r3, [r4, #8]
 3346 0136 9AE7     		b	.L264
 3347              	.L265:
1666:../../Drivers/STM32H7xx_HAL_Driver/Src/stm32h7xx_hal_rcc.c ****   }
 3348              		.loc 1 1666 5 is_stmt 1 view .LVU1119
1666:../../Drivers/STM32H7xx_HAL_Driver/Src/stm32h7xx_hal_rcc.c ****   }
 3349              		.loc 1 1666 33 is_stmt 0 view .LVU1120
 3350 0138 0023     		movs	r3, #0
 3351 013a A360     		str	r3, [r4, #8]
 3352 013c 97E7     		b	.L264
 3353              	.L266:
1677:../../Drivers/STM32H7xx_HAL_Driver/Src/stm32h7xx_hal_rcc.c ****   }
 3354              		.loc 1 1677 5 is_stmt 1 view .LVU1121
1677:../../Drivers/STM32H7xx_HAL_Driver/Src/stm32h7xx_hal_rcc.c ****   }
 3355              		.loc 1 1677 33 is_stmt 0 view .LVU1122
 3356 013e 0023     		movs	r3, #0
 3357 0140 6361     		str	r3, [r4, #20]
 3358 0142 9BE7     		b	.L267
 3359              	.L268:
1687:../../Drivers/STM32H7xx_HAL_Driver/Src/stm32h7xx_hal_rcc.c ****   }
 3360              		.loc 1 1687 5 is_stmt 1 view .LVU1123
1687:../../Drivers/STM32H7xx_HAL_Driver/Src/stm32h7xx_hal_rcc.c ****   }
 3361              		.loc 1 1687 35 is_stmt 0 view .LVU1124
 3362 0144 0023     		movs	r3, #0
 3363 0146 A361     		str	r3, [r4, #24]
 3364 0148 9FE7     		b	.L269
 3365              	.L270:
1697:../../Drivers/STM32H7xx_HAL_Driver/Src/stm32h7xx_hal_rcc.c ****   }
 3366              		.loc 1 1697 5 is_stmt 1 view .LVU1125
1697:../../Drivers/STM32H7xx_HAL_Driver/Src/stm32h7xx_hal_rcc.c ****   }
 3367              		.loc 1 1697 37 is_stmt 0 view .LVU1126
 3368 014a 0123     		movs	r3, #1
 3369 014c 6362     		str	r3, [r4, #36]
 3370 014e A3E7     		b	.L271
 3371              	.L274:
 3372              		.align	2
 3373              	.L273:
 3374 0150 00440258 		.word	1476543488
 3375              		.cfi_endproc
 3376              	.LFE154:
 3378              		.section	.text.HAL_RCC_GetClockConfig,"ax",%progbits
 3379              		.align	1
ARM GAS  C:\Users\minis\AppData\Local\Temp\cczlSevg.s 			page 100


 3380              		.global	HAL_RCC_GetClockConfig
 3381              		.syntax unified
 3382              		.thumb
 3383              		.thumb_func
 3385              	HAL_RCC_GetClockConfig:
 3386              	.LVL223:
 3387              	.LFB155:
1709:../../Drivers/STM32H7xx_HAL_Driver/Src/stm32h7xx_hal_rcc.c **** 
1710:../../Drivers/STM32H7xx_HAL_Driver/Src/stm32h7xx_hal_rcc.c **** /**
1711:../../Drivers/STM32H7xx_HAL_Driver/Src/stm32h7xx_hal_rcc.c ****   * @brief  Configures the RCC_ClkInitStruct according to the internal
1712:../../Drivers/STM32H7xx_HAL_Driver/Src/stm32h7xx_hal_rcc.c ****   * RCC configuration registers.
1713:../../Drivers/STM32H7xx_HAL_Driver/Src/stm32h7xx_hal_rcc.c ****   * @param  RCC_ClkInitStruct: pointer to an RCC_ClkInitTypeDef structure that
1714:../../Drivers/STM32H7xx_HAL_Driver/Src/stm32h7xx_hal_rcc.c ****   * will be configured.
1715:../../Drivers/STM32H7xx_HAL_Driver/Src/stm32h7xx_hal_rcc.c ****   * @param  pFLatency: Pointer on the Flash Latency.
1716:../../Drivers/STM32H7xx_HAL_Driver/Src/stm32h7xx_hal_rcc.c ****   * @retval None
1717:../../Drivers/STM32H7xx_HAL_Driver/Src/stm32h7xx_hal_rcc.c ****   */
1718:../../Drivers/STM32H7xx_HAL_Driver/Src/stm32h7xx_hal_rcc.c **** void HAL_RCC_GetClockConfig(RCC_ClkInitTypeDef  *RCC_ClkInitStruct, uint32_t *pFLatency)
1719:../../Drivers/STM32H7xx_HAL_Driver/Src/stm32h7xx_hal_rcc.c **** {
 3388              		.loc 1 1719 1 is_stmt 1 view -0
 3389              		.cfi_startproc
 3390              		@ args = 0, pretend = 0, frame = 0
 3391              		@ frame_needed = 0, uses_anonymous_args = 0
 3392              		@ link register save eliminated.
1720:../../Drivers/STM32H7xx_HAL_Driver/Src/stm32h7xx_hal_rcc.c ****   /* Set all possible values for the Clock type parameter --------------------*/
1721:../../Drivers/STM32H7xx_HAL_Driver/Src/stm32h7xx_hal_rcc.c ****   RCC_ClkInitStruct->ClockType = RCC_CLOCKTYPE_SYSCLK | RCC_CLOCKTYPE_HCLK | RCC_CLOCKTYPE_D1PCLK1 
 3393              		.loc 1 1721 3 view .LVU1128
 3394              		.loc 1 1721 32 is_stmt 0 view .LVU1129
 3395 0000 3F23     		movs	r3, #63
 3396 0002 0360     		str	r3, [r0]
1722:../../Drivers/STM32H7xx_HAL_Driver/Src/stm32h7xx_hal_rcc.c ****                                  RCC_CLOCKTYPE_PCLK2 |  RCC_CLOCKTYPE_D3PCLK1  ;
1723:../../Drivers/STM32H7xx_HAL_Driver/Src/stm32h7xx_hal_rcc.c **** 
1724:../../Drivers/STM32H7xx_HAL_Driver/Src/stm32h7xx_hal_rcc.c ****   /* Get the SYSCLK configuration --------------------------------------------*/
1725:../../Drivers/STM32H7xx_HAL_Driver/Src/stm32h7xx_hal_rcc.c ****   RCC_ClkInitStruct->SYSCLKSource = (uint32_t)(RCC->CFGR & RCC_CFGR_SW);
 3397              		.loc 1 1725 3 is_stmt 1 view .LVU1130
 3398              		.loc 1 1725 51 is_stmt 0 view .LVU1131
 3399 0004 114B     		ldr	r3, .L276
 3400 0006 1A69     		ldr	r2, [r3, #16]
 3401              		.loc 1 1725 37 view .LVU1132
 3402 0008 02F00702 		and	r2, r2, #7
 3403              		.loc 1 1725 35 view .LVU1133
 3404 000c 4260     		str	r2, [r0, #4]
1726:../../Drivers/STM32H7xx_HAL_Driver/Src/stm32h7xx_hal_rcc.c **** 
1727:../../Drivers/STM32H7xx_HAL_Driver/Src/stm32h7xx_hal_rcc.c **** #if defined(RCC_D1CFGR_D1CPRE)
1728:../../Drivers/STM32H7xx_HAL_Driver/Src/stm32h7xx_hal_rcc.c ****   /* Get the SYSCLK configuration ----------------------------------------------*/
1729:../../Drivers/STM32H7xx_HAL_Driver/Src/stm32h7xx_hal_rcc.c ****   RCC_ClkInitStruct->SYSCLKDivider = (uint32_t)(RCC->D1CFGR & RCC_D1CFGR_D1CPRE);
 3405              		.loc 1 1729 3 is_stmt 1 view .LVU1134
 3406              		.loc 1 1729 52 is_stmt 0 view .LVU1135
 3407 000e 9A69     		ldr	r2, [r3, #24]
 3408              		.loc 1 1729 38 view .LVU1136
 3409 0010 02F47062 		and	r2, r2, #3840
 3410              		.loc 1 1729 36 view .LVU1137
 3411 0014 8260     		str	r2, [r0, #8]
1730:../../Drivers/STM32H7xx_HAL_Driver/Src/stm32h7xx_hal_rcc.c **** 
1731:../../Drivers/STM32H7xx_HAL_Driver/Src/stm32h7xx_hal_rcc.c ****   /* Get the D1HCLK configuration ----------------------------------------------*/
1732:../../Drivers/STM32H7xx_HAL_Driver/Src/stm32h7xx_hal_rcc.c ****   RCC_ClkInitStruct->AHBCLKDivider = (uint32_t)(RCC->D1CFGR & RCC_D1CFGR_HPRE);
 3412              		.loc 1 1732 3 is_stmt 1 view .LVU1138
 3413              		.loc 1 1732 52 is_stmt 0 view .LVU1139
ARM GAS  C:\Users\minis\AppData\Local\Temp\cczlSevg.s 			page 101


 3414 0016 9A69     		ldr	r2, [r3, #24]
 3415              		.loc 1 1732 38 view .LVU1140
 3416 0018 02F00F02 		and	r2, r2, #15
 3417              		.loc 1 1732 36 view .LVU1141
 3418 001c C260     		str	r2, [r0, #12]
1733:../../Drivers/STM32H7xx_HAL_Driver/Src/stm32h7xx_hal_rcc.c **** 
1734:../../Drivers/STM32H7xx_HAL_Driver/Src/stm32h7xx_hal_rcc.c ****   /* Get the APB3 configuration ----------------------------------------------*/
1735:../../Drivers/STM32H7xx_HAL_Driver/Src/stm32h7xx_hal_rcc.c ****   RCC_ClkInitStruct->APB3CLKDivider = (uint32_t)(RCC->D1CFGR & RCC_D1CFGR_D1PPRE);
 3419              		.loc 1 1735 3 is_stmt 1 view .LVU1142
 3420              		.loc 1 1735 53 is_stmt 0 view .LVU1143
 3421 001e 9A69     		ldr	r2, [r3, #24]
 3422              		.loc 1 1735 39 view .LVU1144
 3423 0020 02F07002 		and	r2, r2, #112
 3424              		.loc 1 1735 37 view .LVU1145
 3425 0024 0261     		str	r2, [r0, #16]
1736:../../Drivers/STM32H7xx_HAL_Driver/Src/stm32h7xx_hal_rcc.c **** 
1737:../../Drivers/STM32H7xx_HAL_Driver/Src/stm32h7xx_hal_rcc.c ****   /* Get the APB1 configuration ----------------------------------------------*/
1738:../../Drivers/STM32H7xx_HAL_Driver/Src/stm32h7xx_hal_rcc.c ****   RCC_ClkInitStruct->APB1CLKDivider = (uint32_t)(RCC->D2CFGR & RCC_D2CFGR_D2PPRE1);
 3426              		.loc 1 1738 3 is_stmt 1 view .LVU1146
 3427              		.loc 1 1738 53 is_stmt 0 view .LVU1147
 3428 0026 DA69     		ldr	r2, [r3, #28]
 3429              		.loc 1 1738 39 view .LVU1148
 3430 0028 02F07002 		and	r2, r2, #112
 3431              		.loc 1 1738 37 view .LVU1149
 3432 002c 4261     		str	r2, [r0, #20]
1739:../../Drivers/STM32H7xx_HAL_Driver/Src/stm32h7xx_hal_rcc.c **** 
1740:../../Drivers/STM32H7xx_HAL_Driver/Src/stm32h7xx_hal_rcc.c ****   /* Get the APB2 configuration ----------------------------------------------*/
1741:../../Drivers/STM32H7xx_HAL_Driver/Src/stm32h7xx_hal_rcc.c ****   RCC_ClkInitStruct->APB2CLKDivider = (uint32_t)(RCC->D2CFGR & RCC_D2CFGR_D2PPRE2);
 3433              		.loc 1 1741 3 is_stmt 1 view .LVU1150
 3434              		.loc 1 1741 53 is_stmt 0 view .LVU1151
 3435 002e DA69     		ldr	r2, [r3, #28]
 3436              		.loc 1 1741 39 view .LVU1152
 3437 0030 02F4E062 		and	r2, r2, #1792
 3438              		.loc 1 1741 37 view .LVU1153
 3439 0034 8261     		str	r2, [r0, #24]
1742:../../Drivers/STM32H7xx_HAL_Driver/Src/stm32h7xx_hal_rcc.c **** 
1743:../../Drivers/STM32H7xx_HAL_Driver/Src/stm32h7xx_hal_rcc.c ****   /* Get the APB4 configuration ----------------------------------------------*/
1744:../../Drivers/STM32H7xx_HAL_Driver/Src/stm32h7xx_hal_rcc.c ****   RCC_ClkInitStruct->APB4CLKDivider = (uint32_t)(RCC->D3CFGR & RCC_D3CFGR_D3PPRE);
 3440              		.loc 1 1744 3 is_stmt 1 view .LVU1154
 3441              		.loc 1 1744 53 is_stmt 0 view .LVU1155
 3442 0036 1B6A     		ldr	r3, [r3, #32]
 3443              		.loc 1 1744 39 view .LVU1156
 3444 0038 03F07003 		and	r3, r3, #112
 3445              		.loc 1 1744 37 view .LVU1157
 3446 003c C361     		str	r3, [r0, #28]
1745:../../Drivers/STM32H7xx_HAL_Driver/Src/stm32h7xx_hal_rcc.c **** #else
1746:../../Drivers/STM32H7xx_HAL_Driver/Src/stm32h7xx_hal_rcc.c ****   /* Get the SYSCLK configuration ----------------------------------------------*/
1747:../../Drivers/STM32H7xx_HAL_Driver/Src/stm32h7xx_hal_rcc.c ****   RCC_ClkInitStruct->SYSCLKDivider = (uint32_t)(RCC->CDCFGR1 & RCC_CDCFGR1_CDCPRE);
1748:../../Drivers/STM32H7xx_HAL_Driver/Src/stm32h7xx_hal_rcc.c **** 
1749:../../Drivers/STM32H7xx_HAL_Driver/Src/stm32h7xx_hal_rcc.c ****   /* Get the D1HCLK configuration ----------------------------------------------*/
1750:../../Drivers/STM32H7xx_HAL_Driver/Src/stm32h7xx_hal_rcc.c ****   RCC_ClkInitStruct->AHBCLKDivider = (uint32_t)(RCC->CDCFGR1 & RCC_CDCFGR1_HPRE);
1751:../../Drivers/STM32H7xx_HAL_Driver/Src/stm32h7xx_hal_rcc.c **** 
1752:../../Drivers/STM32H7xx_HAL_Driver/Src/stm32h7xx_hal_rcc.c ****   /* Get the APB3 configuration ----------------------------------------------*/
1753:../../Drivers/STM32H7xx_HAL_Driver/Src/stm32h7xx_hal_rcc.c ****   RCC_ClkInitStruct->APB3CLKDivider = (uint32_t)(RCC->CDCFGR1 & RCC_CDCFGR1_CDPPRE);
1754:../../Drivers/STM32H7xx_HAL_Driver/Src/stm32h7xx_hal_rcc.c **** 
1755:../../Drivers/STM32H7xx_HAL_Driver/Src/stm32h7xx_hal_rcc.c ****   /* Get the APB1 configuration ----------------------------------------------*/
1756:../../Drivers/STM32H7xx_HAL_Driver/Src/stm32h7xx_hal_rcc.c ****   RCC_ClkInitStruct->APB1CLKDivider = (uint32_t)(RCC->CDCFGR2 & RCC_CDCFGR2_CDPPRE1);
ARM GAS  C:\Users\minis\AppData\Local\Temp\cczlSevg.s 			page 102


1757:../../Drivers/STM32H7xx_HAL_Driver/Src/stm32h7xx_hal_rcc.c **** 
1758:../../Drivers/STM32H7xx_HAL_Driver/Src/stm32h7xx_hal_rcc.c ****   /* Get the APB2 configuration ----------------------------------------------*/
1759:../../Drivers/STM32H7xx_HAL_Driver/Src/stm32h7xx_hal_rcc.c ****   RCC_ClkInitStruct->APB2CLKDivider = (uint32_t)(RCC->CDCFGR2 & RCC_CDCFGR2_CDPPRE2);
1760:../../Drivers/STM32H7xx_HAL_Driver/Src/stm32h7xx_hal_rcc.c **** 
1761:../../Drivers/STM32H7xx_HAL_Driver/Src/stm32h7xx_hal_rcc.c ****   /* Get the APB4 configuration ----------------------------------------------*/
1762:../../Drivers/STM32H7xx_HAL_Driver/Src/stm32h7xx_hal_rcc.c ****   RCC_ClkInitStruct->APB4CLKDivider = (uint32_t)(RCC->SRDCFGR & RCC_SRDCFGR_SRDPPRE);
1763:../../Drivers/STM32H7xx_HAL_Driver/Src/stm32h7xx_hal_rcc.c **** #endif
1764:../../Drivers/STM32H7xx_HAL_Driver/Src/stm32h7xx_hal_rcc.c **** 
1765:../../Drivers/STM32H7xx_HAL_Driver/Src/stm32h7xx_hal_rcc.c ****   /* Get the Flash Wait State (Latency) configuration ------------------------*/
1766:../../Drivers/STM32H7xx_HAL_Driver/Src/stm32h7xx_hal_rcc.c ****   *pFLatency = (uint32_t)(FLASH->ACR & FLASH_ACR_LATENCY);
 3447              		.loc 1 1766 3 is_stmt 1 view .LVU1158
 3448              		.loc 1 1766 32 is_stmt 0 view .LVU1159
 3449 003e 044B     		ldr	r3, .L276+4
 3450 0040 1B68     		ldr	r3, [r3]
 3451              		.loc 1 1766 16 view .LVU1160
 3452 0042 03F00F03 		and	r3, r3, #15
 3453              		.loc 1 1766 14 view .LVU1161
 3454 0046 0B60     		str	r3, [r1]
1767:../../Drivers/STM32H7xx_HAL_Driver/Src/stm32h7xx_hal_rcc.c **** }
 3455              		.loc 1 1767 1 view .LVU1162
 3456 0048 7047     		bx	lr
 3457              	.L277:
 3458 004a 00BF     		.align	2
 3459              	.L276:
 3460 004c 00440258 		.word	1476543488
 3461 0050 00200052 		.word	1375739904
 3462              		.cfi_endproc
 3463              	.LFE155:
 3465              		.section	.text.HAL_RCC_CSSCallback,"ax",%progbits
 3466              		.align	1
 3467              		.weak	HAL_RCC_CSSCallback
 3468              		.syntax unified
 3469              		.thumb
 3470              		.thumb_func
 3472              	HAL_RCC_CSSCallback:
 3473              	.LFB157:
1768:../../Drivers/STM32H7xx_HAL_Driver/Src/stm32h7xx_hal_rcc.c **** 
1769:../../Drivers/STM32H7xx_HAL_Driver/Src/stm32h7xx_hal_rcc.c **** /**
1770:../../Drivers/STM32H7xx_HAL_Driver/Src/stm32h7xx_hal_rcc.c ****   * @brief This function handles the RCC CSS interrupt request.
1771:../../Drivers/STM32H7xx_HAL_Driver/Src/stm32h7xx_hal_rcc.c ****   * @note This API should be called under the NMI_Handler().
1772:../../Drivers/STM32H7xx_HAL_Driver/Src/stm32h7xx_hal_rcc.c ****   * @retval None
1773:../../Drivers/STM32H7xx_HAL_Driver/Src/stm32h7xx_hal_rcc.c ****   */
1774:../../Drivers/STM32H7xx_HAL_Driver/Src/stm32h7xx_hal_rcc.c **** void HAL_RCC_NMI_IRQHandler(void)
1775:../../Drivers/STM32H7xx_HAL_Driver/Src/stm32h7xx_hal_rcc.c **** {
1776:../../Drivers/STM32H7xx_HAL_Driver/Src/stm32h7xx_hal_rcc.c ****   /* Check RCC CSSF flag  */
1777:../../Drivers/STM32H7xx_HAL_Driver/Src/stm32h7xx_hal_rcc.c ****   if (__HAL_RCC_GET_IT(RCC_IT_CSS))
1778:../../Drivers/STM32H7xx_HAL_Driver/Src/stm32h7xx_hal_rcc.c ****   {
1779:../../Drivers/STM32H7xx_HAL_Driver/Src/stm32h7xx_hal_rcc.c ****     /* RCC Clock Security System interrupt user callback */
1780:../../Drivers/STM32H7xx_HAL_Driver/Src/stm32h7xx_hal_rcc.c ****     HAL_RCC_CSSCallback();
1781:../../Drivers/STM32H7xx_HAL_Driver/Src/stm32h7xx_hal_rcc.c **** 
1782:../../Drivers/STM32H7xx_HAL_Driver/Src/stm32h7xx_hal_rcc.c ****     /* Clear RCC CSS pending bit */
1783:../../Drivers/STM32H7xx_HAL_Driver/Src/stm32h7xx_hal_rcc.c ****     __HAL_RCC_CLEAR_IT(RCC_IT_CSS);
1784:../../Drivers/STM32H7xx_HAL_Driver/Src/stm32h7xx_hal_rcc.c ****   }
1785:../../Drivers/STM32H7xx_HAL_Driver/Src/stm32h7xx_hal_rcc.c **** }
1786:../../Drivers/STM32H7xx_HAL_Driver/Src/stm32h7xx_hal_rcc.c **** 
1787:../../Drivers/STM32H7xx_HAL_Driver/Src/stm32h7xx_hal_rcc.c **** /**
1788:../../Drivers/STM32H7xx_HAL_Driver/Src/stm32h7xx_hal_rcc.c ****   * @brief  RCC Clock Security System interrupt callback
ARM GAS  C:\Users\minis\AppData\Local\Temp\cczlSevg.s 			page 103


1789:../../Drivers/STM32H7xx_HAL_Driver/Src/stm32h7xx_hal_rcc.c ****   * @retval none
1790:../../Drivers/STM32H7xx_HAL_Driver/Src/stm32h7xx_hal_rcc.c ****   */
1791:../../Drivers/STM32H7xx_HAL_Driver/Src/stm32h7xx_hal_rcc.c **** __weak void HAL_RCC_CSSCallback(void)
1792:../../Drivers/STM32H7xx_HAL_Driver/Src/stm32h7xx_hal_rcc.c **** {
 3474              		.loc 1 1792 1 is_stmt 1 view -0
 3475              		.cfi_startproc
 3476              		@ args = 0, pretend = 0, frame = 0
 3477              		@ frame_needed = 0, uses_anonymous_args = 0
 3478              		@ link register save eliminated.
1793:../../Drivers/STM32H7xx_HAL_Driver/Src/stm32h7xx_hal_rcc.c ****   /* NOTE : This function Should not be modified, when the callback is needed,
1794:../../Drivers/STM32H7xx_HAL_Driver/Src/stm32h7xx_hal_rcc.c ****             the HAL_RCC_CSSCallback could be implemented in the user file
1795:../../Drivers/STM32H7xx_HAL_Driver/Src/stm32h7xx_hal_rcc.c ****    */
1796:../../Drivers/STM32H7xx_HAL_Driver/Src/stm32h7xx_hal_rcc.c **** }
 3479              		.loc 1 1796 1 view .LVU1164
 3480 0000 7047     		bx	lr
 3481              		.cfi_endproc
 3482              	.LFE157:
 3484              		.section	.text.HAL_RCC_NMI_IRQHandler,"ax",%progbits
 3485              		.align	1
 3486              		.global	HAL_RCC_NMI_IRQHandler
 3487              		.syntax unified
 3488              		.thumb
 3489              		.thumb_func
 3491              	HAL_RCC_NMI_IRQHandler:
 3492              	.LFB156:
1775:../../Drivers/STM32H7xx_HAL_Driver/Src/stm32h7xx_hal_rcc.c ****   /* Check RCC CSSF flag  */
 3493              		.loc 1 1775 1 view -0
 3494              		.cfi_startproc
 3495              		@ args = 0, pretend = 0, frame = 0
 3496              		@ frame_needed = 0, uses_anonymous_args = 0
 3497 0000 08B5     		push	{r3, lr}
 3498              	.LCFI19:
 3499              		.cfi_def_cfa_offset 8
 3500              		.cfi_offset 3, -8
 3501              		.cfi_offset 14, -4
1777:../../Drivers/STM32H7xx_HAL_Driver/Src/stm32h7xx_hal_rcc.c ****   {
 3502              		.loc 1 1777 3 view .LVU1166
1777:../../Drivers/STM32H7xx_HAL_Driver/Src/stm32h7xx_hal_rcc.c ****   {
 3503              		.loc 1 1777 7 is_stmt 0 view .LVU1167
 3504 0002 064B     		ldr	r3, .L283
 3505 0004 5B6E     		ldr	r3, [r3, #100]
1777:../../Drivers/STM32H7xx_HAL_Driver/Src/stm32h7xx_hal_rcc.c ****   {
 3506              		.loc 1 1777 6 view .LVU1168
 3507 0006 13F4806F 		tst	r3, #1024
 3508 000a 00D1     		bne	.L282
 3509              	.L279:
1785:../../Drivers/STM32H7xx_HAL_Driver/Src/stm32h7xx_hal_rcc.c **** 
 3510              		.loc 1 1785 1 view .LVU1169
 3511 000c 08BD     		pop	{r3, pc}
 3512              	.L282:
1780:../../Drivers/STM32H7xx_HAL_Driver/Src/stm32h7xx_hal_rcc.c **** 
 3513              		.loc 1 1780 5 is_stmt 1 view .LVU1170
 3514 000e FFF7FEFF 		bl	HAL_RCC_CSSCallback
 3515              	.LVL224:
1783:../../Drivers/STM32H7xx_HAL_Driver/Src/stm32h7xx_hal_rcc.c ****   }
 3516              		.loc 1 1783 5 view .LVU1171
 3517 0012 024B     		ldr	r3, .L283
ARM GAS  C:\Users\minis\AppData\Local\Temp\cczlSevg.s 			page 104


 3518 0014 4FF48062 		mov	r2, #1024
 3519 0018 9A66     		str	r2, [r3, #104]
1785:../../Drivers/STM32H7xx_HAL_Driver/Src/stm32h7xx_hal_rcc.c **** 
 3520              		.loc 1 1785 1 is_stmt 0 view .LVU1172
 3521 001a F7E7     		b	.L279
 3522              	.L284:
 3523              		.align	2
 3524              	.L283:
 3525 001c 00440258 		.word	1476543488
 3526              		.cfi_endproc
 3527              	.LFE156:
 3529              		.text
 3530              	.Letext0:
 3531              		.file 2 "C:/Program Files (x86)/Arm GNU Toolchain arm-none-eabi/14.3 rel1/arm-none-eabi/include/ma
 3532              		.file 3 "C:/Program Files (x86)/Arm GNU Toolchain arm-none-eabi/14.3 rel1/arm-none-eabi/include/sy
 3533              		.file 4 "../../Drivers/CMSIS/Device/ST/STM32H7xx/Include/system_stm32h7xx.h"
 3534              		.file 5 "../../Drivers/CMSIS/Device/ST/STM32H7xx/Include/stm32h755xx.h"
 3535              		.file 6 "C:/Program Files (x86)/Arm GNU Toolchain arm-none-eabi/14.3 rel1/arm-none-eabi/include/ma
 3536              		.file 7 "../../Drivers/STM32H7xx_HAL_Driver/Inc/stm32h7xx_hal_def.h"
 3537              		.file 8 "../../Drivers/STM32H7xx_HAL_Driver/Inc/stm32h7xx_hal_rcc.h"
 3538              		.file 9 "../../Drivers/STM32H7xx_HAL_Driver/Inc/stm32h7xx_hal_gpio.h"
 3539              		.file 10 "../../Drivers/STM32H7xx_HAL_Driver/Inc/stm32h7xx_hal.h"
ARM GAS  C:\Users\minis\AppData\Local\Temp\cczlSevg.s 			page 105


DEFINED SYMBOLS
                            *ABS*:00000000 stm32h7xx_hal_rcc.c
C:\Users\minis\AppData\Local\Temp\cczlSevg.s:19     .text.HAL_RCC_DeInit:00000000 $t
C:\Users\minis\AppData\Local\Temp\cczlSevg.s:25     .text.HAL_RCC_DeInit:00000000 HAL_RCC_DeInit
C:\Users\minis\AppData\Local\Temp\cczlSevg.s:371    .text.HAL_RCC_DeInit:000001a4 $d
C:\Users\minis\AppData\Local\Temp\cczlSevg.s:385    .text.HAL_RCC_OscConfig:00000000 $t
C:\Users\minis\AppData\Local\Temp\cczlSevg.s:391    .text.HAL_RCC_OscConfig:00000000 HAL_RCC_OscConfig
C:\Users\minis\AppData\Local\Temp\cczlSevg.s:910    .text.HAL_RCC_OscConfig:00000264 $d
C:\Users\minis\AppData\Local\Temp\cczlSevg.s:917    .text.HAL_RCC_OscConfig:00000268 $t
C:\Users\minis\AppData\Local\Temp\cczlSevg.s:1429   .text.HAL_RCC_OscConfig:000004f8 $d
C:\Users\minis\AppData\Local\Temp\cczlSevg.s:1443   .text.HAL_RCC_OscConfig:00000500 $t
C:\Users\minis\AppData\Local\Temp\cczlSevg.s:1807   .text.HAL_RCC_OscConfig:000006a8 $d
C:\Users\minis\AppData\Local\Temp\cczlSevg.s:1813   .text.HAL_RCC_MCOConfig:00000000 $t
C:\Users\minis\AppData\Local\Temp\cczlSevg.s:1819   .text.HAL_RCC_MCOConfig:00000000 HAL_RCC_MCOConfig
C:\Users\minis\AppData\Local\Temp\cczlSevg.s:1969   .text.HAL_RCC_MCOConfig:00000098 $d
C:\Users\minis\AppData\Local\Temp\cczlSevg.s:1976   .text.HAL_RCC_EnableCSS:00000000 $t
C:\Users\minis\AppData\Local\Temp\cczlSevg.s:1982   .text.HAL_RCC_EnableCSS:00000000 HAL_RCC_EnableCSS
C:\Users\minis\AppData\Local\Temp\cczlSevg.s:1999   .text.HAL_RCC_EnableCSS:0000000c $d
C:\Users\minis\AppData\Local\Temp\cczlSevg.s:2004   .text.HAL_RCC_DisableCSS:00000000 $t
C:\Users\minis\AppData\Local\Temp\cczlSevg.s:2010   .text.HAL_RCC_DisableCSS:00000000 HAL_RCC_DisableCSS
C:\Users\minis\AppData\Local\Temp\cczlSevg.s:2027   .text.HAL_RCC_DisableCSS:0000000c $d
C:\Users\minis\AppData\Local\Temp\cczlSevg.s:2032   .text.HAL_RCC_GetSysClockFreq:00000000 $t
C:\Users\minis\AppData\Local\Temp\cczlSevg.s:2038   .text.HAL_RCC_GetSysClockFreq:00000000 HAL_RCC_GetSysClockFreq
C:\Users\minis\AppData\Local\Temp\cczlSevg.s:2356   .text.HAL_RCC_GetSysClockFreq:000001d8 $d
C:\Users\minis\AppData\Local\Temp\cczlSevg.s:2368   .text.HAL_RCC_ClockConfig:00000000 $t
C:\Users\minis\AppData\Local\Temp\cczlSevg.s:2374   .text.HAL_RCC_ClockConfig:00000000 HAL_RCC_ClockConfig
C:\Users\minis\AppData\Local\Temp\cczlSevg.s:2900   .text.HAL_RCC_ClockConfig:0000027c $d
C:\Users\minis\AppData\Local\Temp\cczlSevg.s:2910   .text.HAL_RCC_GetHCLKFreq:00000000 $t
C:\Users\minis\AppData\Local\Temp\cczlSevg.s:2916   .text.HAL_RCC_GetHCLKFreq:00000000 HAL_RCC_GetHCLKFreq
C:\Users\minis\AppData\Local\Temp\cczlSevg.s:2971   .text.HAL_RCC_GetHCLKFreq:00000034 $d
C:\Users\minis\AppData\Local\Temp\cczlSevg.s:2979   .text.HAL_RCC_GetPCLK1Freq:00000000 $t
C:\Users\minis\AppData\Local\Temp\cczlSevg.s:2985   .text.HAL_RCC_GetPCLK1Freq:00000000 HAL_RCC_GetPCLK1Freq
C:\Users\minis\AppData\Local\Temp\cczlSevg.s:3016   .text.HAL_RCC_GetPCLK1Freq:0000001c $d
C:\Users\minis\AppData\Local\Temp\cczlSevg.s:3022   .text.HAL_RCC_GetPCLK2Freq:00000000 $t
C:\Users\minis\AppData\Local\Temp\cczlSevg.s:3028   .text.HAL_RCC_GetPCLK2Freq:00000000 HAL_RCC_GetPCLK2Freq
C:\Users\minis\AppData\Local\Temp\cczlSevg.s:3059   .text.HAL_RCC_GetPCLK2Freq:0000001c $d
C:\Users\minis\AppData\Local\Temp\cczlSevg.s:3065   .text.HAL_RCC_GetOscConfig:00000000 $t
C:\Users\minis\AppData\Local\Temp\cczlSevg.s:3071   .text.HAL_RCC_GetOscConfig:00000000 HAL_RCC_GetOscConfig
C:\Users\minis\AppData\Local\Temp\cczlSevg.s:3374   .text.HAL_RCC_GetOscConfig:00000150 $d
C:\Users\minis\AppData\Local\Temp\cczlSevg.s:3379   .text.HAL_RCC_GetClockConfig:00000000 $t
C:\Users\minis\AppData\Local\Temp\cczlSevg.s:3385   .text.HAL_RCC_GetClockConfig:00000000 HAL_RCC_GetClockConfig
C:\Users\minis\AppData\Local\Temp\cczlSevg.s:3460   .text.HAL_RCC_GetClockConfig:0000004c $d
C:\Users\minis\AppData\Local\Temp\cczlSevg.s:3466   .text.HAL_RCC_CSSCallback:00000000 $t
C:\Users\minis\AppData\Local\Temp\cczlSevg.s:3472   .text.HAL_RCC_CSSCallback:00000000 HAL_RCC_CSSCallback
C:\Users\minis\AppData\Local\Temp\cczlSevg.s:3485   .text.HAL_RCC_NMI_IRQHandler:00000000 $t
C:\Users\minis\AppData\Local\Temp\cczlSevg.s:3491   .text.HAL_RCC_NMI_IRQHandler:00000000 HAL_RCC_NMI_IRQHandler
C:\Users\minis\AppData\Local\Temp\cczlSevg.s:3525   .text.HAL_RCC_NMI_IRQHandler:0000001c $d

UNDEFINED SYMBOLS
HAL_GetTick
HAL_InitTick
SystemCoreClock
SystemD2Clock
uwTickPrio
HAL_GetREVID
HAL_GPIO_Init
D1CorePrescTable
ARM GAS  C:\Users\minis\AppData\Local\Temp\cczlSevg.s 			page 106


