ARM GAS  C:\Users\minis\AppData\Local\Temp\cczlSevg.s 			page 1


   1              		.cpu cortex-m7
   2              		.arch armv7e-m
   3              		.fpu fpv5-d16
   4              		.eabi_attribute 20, 1
   5              		.eabi_attribute 21, 1
   6              		.eabi_attribute 23, 3
   7              		.eabi_attribute 24, 1
   8              		.eabi_attribute 25, 1
   9              		.eabi_attribute 26, 1
  10              		.eabi_attribute 30, 1
  11              		.eabi_attribute 34, 1
  12              		.eabi_attribute 18, 4
  13              		.file	"stm32h7xx_hal_rcc.c"
  14              		.text
  15              	.Ltext0:
  16              		.cfi_sections	.debug_frame
  17              		.file 1 "../../Drivers/STM32H7xx_HAL_Driver/Src/stm32h7xx_hal_rcc.c"
  18              		.section	.text.HAL_RCC_DeInit,"ax",%progbits
  19              		.align	1
  20              		.global	HAL_RCC_DeInit
  21              		.syntax unified
  22              		.thumb
  23              		.thumb_func
  25              	HAL_RCC_DeInit:
  26              	.LFB144:
   1:../../Drivers/STM32H7xx_HAL_Driver/Src/stm32h7xx_hal_rcc.c **** /**
   2:../../Drivers/STM32H7xx_HAL_Driver/Src/stm32h7xx_hal_rcc.c ****   ******************************************************************************
   3:../../Drivers/STM32H7xx_HAL_Driver/Src/stm32h7xx_hal_rcc.c ****   * @file    stm32h7xx_hal_rcc.c
   4:../../Drivers/STM32H7xx_HAL_Driver/Src/stm32h7xx_hal_rcc.c ****   * @author  MCD Application Team
   5:../../Drivers/STM32H7xx_HAL_Driver/Src/stm32h7xx_hal_rcc.c ****   * @brief   RCC HAL module driver.
   6:../../Drivers/STM32H7xx_HAL_Driver/Src/stm32h7xx_hal_rcc.c ****   *          This file provides firmware functions to manage the following
   7:../../Drivers/STM32H7xx_HAL_Driver/Src/stm32h7xx_hal_rcc.c ****   *          functionalities of the Reset and Clock Control (RCC) peripheral:
   8:../../Drivers/STM32H7xx_HAL_Driver/Src/stm32h7xx_hal_rcc.c ****   *           + Initialization and de-initialization functions
   9:../../Drivers/STM32H7xx_HAL_Driver/Src/stm32h7xx_hal_rcc.c ****   *           + Peripheral Control functions
  10:../../Drivers/STM32H7xx_HAL_Driver/Src/stm32h7xx_hal_rcc.c ****   *
  11:../../Drivers/STM32H7xx_HAL_Driver/Src/stm32h7xx_hal_rcc.c ****   @verbatim
  12:../../Drivers/STM32H7xx_HAL_Driver/Src/stm32h7xx_hal_rcc.c ****   ==============================================================================
  13:../../Drivers/STM32H7xx_HAL_Driver/Src/stm32h7xx_hal_rcc.c ****                       ##### RCC specific features #####
  14:../../Drivers/STM32H7xx_HAL_Driver/Src/stm32h7xx_hal_rcc.c ****   ==============================================================================
  15:../../Drivers/STM32H7xx_HAL_Driver/Src/stm32h7xx_hal_rcc.c ****     [..]
  16:../../Drivers/STM32H7xx_HAL_Driver/Src/stm32h7xx_hal_rcc.c ****       After reset the device is running from Internal High Speed oscillator
  17:../../Drivers/STM32H7xx_HAL_Driver/Src/stm32h7xx_hal_rcc.c ****       (HSI 64MHz) with Flash 0 wait state,and all peripherals are off except
  18:../../Drivers/STM32H7xx_HAL_Driver/Src/stm32h7xx_hal_rcc.c ****       internal SRAM, Flash, JTAG and PWR
  19:../../Drivers/STM32H7xx_HAL_Driver/Src/stm32h7xx_hal_rcc.c ****       (+) There is no pre-scaler on High speed (AHB) and Low speed (APB) buses;
  20:../../Drivers/STM32H7xx_HAL_Driver/Src/stm32h7xx_hal_rcc.c ****           all peripherals mapped on these buses are running at HSI speed.
  21:../../Drivers/STM32H7xx_HAL_Driver/Src/stm32h7xx_hal_rcc.c ****       (+) The clock for all peripherals is switched off, except the SRAM and FLASH.
  22:../../Drivers/STM32H7xx_HAL_Driver/Src/stm32h7xx_hal_rcc.c ****       (+) All GPIOs are in analogue mode , except the JTAG pins which
  23:../../Drivers/STM32H7xx_HAL_Driver/Src/stm32h7xx_hal_rcc.c ****           are assigned to be used for debug purpose.
  24:../../Drivers/STM32H7xx_HAL_Driver/Src/stm32h7xx_hal_rcc.c **** 
  25:../../Drivers/STM32H7xx_HAL_Driver/Src/stm32h7xx_hal_rcc.c ****     [..]
  26:../../Drivers/STM32H7xx_HAL_Driver/Src/stm32h7xx_hal_rcc.c ****       Once the device started from reset, the user application has to:
  27:../../Drivers/STM32H7xx_HAL_Driver/Src/stm32h7xx_hal_rcc.c ****       (+) Configure the clock source to be used to drive the System clock
  28:../../Drivers/STM32H7xx_HAL_Driver/Src/stm32h7xx_hal_rcc.c ****           (if the application needs higher frequency/performance)
  29:../../Drivers/STM32H7xx_HAL_Driver/Src/stm32h7xx_hal_rcc.c ****       (+) Configure the System clock frequency and Flash settings
  30:../../Drivers/STM32H7xx_HAL_Driver/Src/stm32h7xx_hal_rcc.c ****       (+) Configure the AHB and APB buses pre-scalers
  31:../../Drivers/STM32H7xx_HAL_Driver/Src/stm32h7xx_hal_rcc.c ****       (+) Enable the clock for the peripheral(s) to be used
  32:../../Drivers/STM32H7xx_HAL_Driver/Src/stm32h7xx_hal_rcc.c ****       (+) Configure the clock kernel source(s) for peripherals which clocks are not
ARM GAS  C:\Users\minis\AppData\Local\Temp\cczlSevg.s 			page 2


  33:../../Drivers/STM32H7xx_HAL_Driver/Src/stm32h7xx_hal_rcc.c ****           derived from the System clock through :RCC_D1CCIPR,RCC_D2CCIP1R,RCC_D2CCIP2R
  34:../../Drivers/STM32H7xx_HAL_Driver/Src/stm32h7xx_hal_rcc.c ****           and RCC_D3CCIPR registers
  35:../../Drivers/STM32H7xx_HAL_Driver/Src/stm32h7xx_hal_rcc.c **** 
  36:../../Drivers/STM32H7xx_HAL_Driver/Src/stm32h7xx_hal_rcc.c ****                       ##### RCC Limitations #####
  37:../../Drivers/STM32H7xx_HAL_Driver/Src/stm32h7xx_hal_rcc.c ****   ==============================================================================
  38:../../Drivers/STM32H7xx_HAL_Driver/Src/stm32h7xx_hal_rcc.c ****     [..]
  39:../../Drivers/STM32H7xx_HAL_Driver/Src/stm32h7xx_hal_rcc.c ****       A delay between an RCC peripheral clock enable and the effective peripheral
  40:../../Drivers/STM32H7xx_HAL_Driver/Src/stm32h7xx_hal_rcc.c ****       enabling should be taken into account in order to manage the peripheral read/write
  41:../../Drivers/STM32H7xx_HAL_Driver/Src/stm32h7xx_hal_rcc.c ****       from/to registers.
  42:../../Drivers/STM32H7xx_HAL_Driver/Src/stm32h7xx_hal_rcc.c ****       (+) This delay depends on the peripheral mapping.
  43:../../Drivers/STM32H7xx_HAL_Driver/Src/stm32h7xx_hal_rcc.c ****       (+) If peripheral is mapped on AHB: the delay is 2 AHB clock cycle
  44:../../Drivers/STM32H7xx_HAL_Driver/Src/stm32h7xx_hal_rcc.c ****           after the clock enable bit is set on the hardware register
  45:../../Drivers/STM32H7xx_HAL_Driver/Src/stm32h7xx_hal_rcc.c ****       (+) If peripheral is mapped on APB: the delay is 2 APB clock cycle
  46:../../Drivers/STM32H7xx_HAL_Driver/Src/stm32h7xx_hal_rcc.c ****           after the clock enable bit is set on the hardware register
  47:../../Drivers/STM32H7xx_HAL_Driver/Src/stm32h7xx_hal_rcc.c **** 
  48:../../Drivers/STM32H7xx_HAL_Driver/Src/stm32h7xx_hal_rcc.c ****     [..]
  49:../../Drivers/STM32H7xx_HAL_Driver/Src/stm32h7xx_hal_rcc.c ****       Implemented Workaround:
  50:../../Drivers/STM32H7xx_HAL_Driver/Src/stm32h7xx_hal_rcc.c ****       (+) For AHB & APB peripherals, a dummy read to the peripheral register has been
  51:../../Drivers/STM32H7xx_HAL_Driver/Src/stm32h7xx_hal_rcc.c ****           inserted in each __HAL_RCC_PPP_CLK_ENABLE() macro.
  52:../../Drivers/STM32H7xx_HAL_Driver/Src/stm32h7xx_hal_rcc.c **** 
  53:../../Drivers/STM32H7xx_HAL_Driver/Src/stm32h7xx_hal_rcc.c ****   @endverbatim
  54:../../Drivers/STM32H7xx_HAL_Driver/Src/stm32h7xx_hal_rcc.c ****  ******************************************************************************
  55:../../Drivers/STM32H7xx_HAL_Driver/Src/stm32h7xx_hal_rcc.c ****   * @attention
  56:../../Drivers/STM32H7xx_HAL_Driver/Src/stm32h7xx_hal_rcc.c ****   *
  57:../../Drivers/STM32H7xx_HAL_Driver/Src/stm32h7xx_hal_rcc.c ****   * Copyright (c) 2017 STMicroelectronics.
  58:../../Drivers/STM32H7xx_HAL_Driver/Src/stm32h7xx_hal_rcc.c ****   * All rights reserved.
  59:../../Drivers/STM32H7xx_HAL_Driver/Src/stm32h7xx_hal_rcc.c ****   *
  60:../../Drivers/STM32H7xx_HAL_Driver/Src/stm32h7xx_hal_rcc.c ****   * This software is licensed under terms that can be found in the LICENSE file in
  61:../../Drivers/STM32H7xx_HAL_Driver/Src/stm32h7xx_hal_rcc.c ****   * the root directory of this software component.
  62:../../Drivers/STM32H7xx_HAL_Driver/Src/stm32h7xx_hal_rcc.c ****   * If no LICENSE file comes with this software, it is provided AS-IS.
  63:../../Drivers/STM32H7xx_HAL_Driver/Src/stm32h7xx_hal_rcc.c ****   ******************************************************************************
  64:../../Drivers/STM32H7xx_HAL_Driver/Src/stm32h7xx_hal_rcc.c ****   */
  65:../../Drivers/STM32H7xx_HAL_Driver/Src/stm32h7xx_hal_rcc.c **** 
  66:../../Drivers/STM32H7xx_HAL_Driver/Src/stm32h7xx_hal_rcc.c **** /* Includes ------------------------------------------------------------------*/
  67:../../Drivers/STM32H7xx_HAL_Driver/Src/stm32h7xx_hal_rcc.c **** #include "stm32h7xx_hal.h"
  68:../../Drivers/STM32H7xx_HAL_Driver/Src/stm32h7xx_hal_rcc.c **** 
  69:../../Drivers/STM32H7xx_HAL_Driver/Src/stm32h7xx_hal_rcc.c **** /** @addtogroup STM32H7xx_HAL_Driver
  70:../../Drivers/STM32H7xx_HAL_Driver/Src/stm32h7xx_hal_rcc.c ****   * @{
  71:../../Drivers/STM32H7xx_HAL_Driver/Src/stm32h7xx_hal_rcc.c ****   */
  72:../../Drivers/STM32H7xx_HAL_Driver/Src/stm32h7xx_hal_rcc.c **** 
  73:../../Drivers/STM32H7xx_HAL_Driver/Src/stm32h7xx_hal_rcc.c **** /** @defgroup RCC  RCC
  74:../../Drivers/STM32H7xx_HAL_Driver/Src/stm32h7xx_hal_rcc.c ****   * @brief RCC HAL module driver
  75:../../Drivers/STM32H7xx_HAL_Driver/Src/stm32h7xx_hal_rcc.c ****   * @{
  76:../../Drivers/STM32H7xx_HAL_Driver/Src/stm32h7xx_hal_rcc.c ****   */
  77:../../Drivers/STM32H7xx_HAL_Driver/Src/stm32h7xx_hal_rcc.c **** 
  78:../../Drivers/STM32H7xx_HAL_Driver/Src/stm32h7xx_hal_rcc.c **** #ifdef HAL_RCC_MODULE_ENABLED
  79:../../Drivers/STM32H7xx_HAL_Driver/Src/stm32h7xx_hal_rcc.c **** 
  80:../../Drivers/STM32H7xx_HAL_Driver/Src/stm32h7xx_hal_rcc.c **** /* Private typedef -----------------------------------------------------------*/
  81:../../Drivers/STM32H7xx_HAL_Driver/Src/stm32h7xx_hal_rcc.c **** /* Private define ------------------------------------------------------------*/
  82:../../Drivers/STM32H7xx_HAL_Driver/Src/stm32h7xx_hal_rcc.c **** /* Private macro -------------------------------------------------------------*/
  83:../../Drivers/STM32H7xx_HAL_Driver/Src/stm32h7xx_hal_rcc.c **** /** @defgroup RCC_Private_Macros RCC Private Macros
  84:../../Drivers/STM32H7xx_HAL_Driver/Src/stm32h7xx_hal_rcc.c ****   * @{
  85:../../Drivers/STM32H7xx_HAL_Driver/Src/stm32h7xx_hal_rcc.c ****   */
  86:../../Drivers/STM32H7xx_HAL_Driver/Src/stm32h7xx_hal_rcc.c **** #define MCO1_CLK_ENABLE()     __HAL_RCC_GPIOA_CLK_ENABLE()
  87:../../Drivers/STM32H7xx_HAL_Driver/Src/stm32h7xx_hal_rcc.c **** #define MCO1_GPIO_PORT        GPIOA
  88:../../Drivers/STM32H7xx_HAL_Driver/Src/stm32h7xx_hal_rcc.c **** #define MCO1_PIN              GPIO_PIN_8
  89:../../Drivers/STM32H7xx_HAL_Driver/Src/stm32h7xx_hal_rcc.c **** 
ARM GAS  C:\Users\minis\AppData\Local\Temp\cczlSevg.s 			page 3


  90:../../Drivers/STM32H7xx_HAL_Driver/Src/stm32h7xx_hal_rcc.c **** #define MCO2_CLK_ENABLE()      __HAL_RCC_GPIOC_CLK_ENABLE()
  91:../../Drivers/STM32H7xx_HAL_Driver/Src/stm32h7xx_hal_rcc.c **** #define MCO2_GPIO_PORT         GPIOC
  92:../../Drivers/STM32H7xx_HAL_Driver/Src/stm32h7xx_hal_rcc.c **** #define MCO2_PIN               GPIO_PIN_9
  93:../../Drivers/STM32H7xx_HAL_Driver/Src/stm32h7xx_hal_rcc.c **** 
  94:../../Drivers/STM32H7xx_HAL_Driver/Src/stm32h7xx_hal_rcc.c **** /**
  95:../../Drivers/STM32H7xx_HAL_Driver/Src/stm32h7xx_hal_rcc.c ****   * @}
  96:../../Drivers/STM32H7xx_HAL_Driver/Src/stm32h7xx_hal_rcc.c ****   */
  97:../../Drivers/STM32H7xx_HAL_Driver/Src/stm32h7xx_hal_rcc.c **** /* Private variables ---------------------------------------------------------*/
  98:../../Drivers/STM32H7xx_HAL_Driver/Src/stm32h7xx_hal_rcc.c **** /** @defgroup RCC_Private_Variables RCC Private Variables
  99:../../Drivers/STM32H7xx_HAL_Driver/Src/stm32h7xx_hal_rcc.c ****   * @{
 100:../../Drivers/STM32H7xx_HAL_Driver/Src/stm32h7xx_hal_rcc.c ****   */
 101:../../Drivers/STM32H7xx_HAL_Driver/Src/stm32h7xx_hal_rcc.c **** 
 102:../../Drivers/STM32H7xx_HAL_Driver/Src/stm32h7xx_hal_rcc.c **** /**
 103:../../Drivers/STM32H7xx_HAL_Driver/Src/stm32h7xx_hal_rcc.c ****   * @}
 104:../../Drivers/STM32H7xx_HAL_Driver/Src/stm32h7xx_hal_rcc.c ****   */
 105:../../Drivers/STM32H7xx_HAL_Driver/Src/stm32h7xx_hal_rcc.c **** /* Private function prototypes -----------------------------------------------*/
 106:../../Drivers/STM32H7xx_HAL_Driver/Src/stm32h7xx_hal_rcc.c **** /* Exported functions --------------------------------------------------------*/
 107:../../Drivers/STM32H7xx_HAL_Driver/Src/stm32h7xx_hal_rcc.c **** 
 108:../../Drivers/STM32H7xx_HAL_Driver/Src/stm32h7xx_hal_rcc.c **** /** @defgroup RCC_Exported_Functions RCC Exported Functions
 109:../../Drivers/STM32H7xx_HAL_Driver/Src/stm32h7xx_hal_rcc.c ****   * @{
 110:../../Drivers/STM32H7xx_HAL_Driver/Src/stm32h7xx_hal_rcc.c ****   */
 111:../../Drivers/STM32H7xx_HAL_Driver/Src/stm32h7xx_hal_rcc.c **** 
 112:../../Drivers/STM32H7xx_HAL_Driver/Src/stm32h7xx_hal_rcc.c **** /** @defgroup RCC_Exported_Functions_Group1 Initialization and de-initialization functions
 113:../../Drivers/STM32H7xx_HAL_Driver/Src/stm32h7xx_hal_rcc.c ****  *  @brief    Initialization and Configuration functions
 114:../../Drivers/STM32H7xx_HAL_Driver/Src/stm32h7xx_hal_rcc.c ****  *
 115:../../Drivers/STM32H7xx_HAL_Driver/Src/stm32h7xx_hal_rcc.c **** @verbatim
 116:../../Drivers/STM32H7xx_HAL_Driver/Src/stm32h7xx_hal_rcc.c ****  ===============================================================================
 117:../../Drivers/STM32H7xx_HAL_Driver/Src/stm32h7xx_hal_rcc.c ****            ##### Initialization and de-initialization functions #####
 118:../../Drivers/STM32H7xx_HAL_Driver/Src/stm32h7xx_hal_rcc.c ****  ===============================================================================
 119:../../Drivers/STM32H7xx_HAL_Driver/Src/stm32h7xx_hal_rcc.c ****     [..]
 120:../../Drivers/STM32H7xx_HAL_Driver/Src/stm32h7xx_hal_rcc.c ****       This section provides functions allowing to configure the internal/external oscillators
 121:../../Drivers/STM32H7xx_HAL_Driver/Src/stm32h7xx_hal_rcc.c ****       (HSE, HSI, LSE,CSI, LSI,HSI48, PLL, CSS and MCO) and the System buses clocks (SYSCLK, AHB3, A
 122:../../Drivers/STM32H7xx_HAL_Driver/Src/stm32h7xx_hal_rcc.c ****        AHB2,AHB4,APB3, APB1L, APB1H, APB2, and APB4).
 123:../../Drivers/STM32H7xx_HAL_Driver/Src/stm32h7xx_hal_rcc.c **** 
 124:../../Drivers/STM32H7xx_HAL_Driver/Src/stm32h7xx_hal_rcc.c ****     [..] Internal/external clock and PLL configuration
 125:../../Drivers/STM32H7xx_HAL_Driver/Src/stm32h7xx_hal_rcc.c ****          (#) HSI (high-speed internal), 64 MHz factory-trimmed RC used directly or through
 126:../../Drivers/STM32H7xx_HAL_Driver/Src/stm32h7xx_hal_rcc.c ****              the PLL as System clock source.
 127:../../Drivers/STM32H7xx_HAL_Driver/Src/stm32h7xx_hal_rcc.c ****          (#) CSI is a low-power RC oscillator which can be used directly as system clock, periphera
 128:../../Drivers/STM32H7xx_HAL_Driver/Src/stm32h7xx_hal_rcc.c ****              clock, or PLL input.But even with frequency calibration, is less accurate than an
 129:../../Drivers/STM32H7xx_HAL_Driver/Src/stm32h7xx_hal_rcc.c ****              external crystal oscillator or ceramic resonator.
 130:../../Drivers/STM32H7xx_HAL_Driver/Src/stm32h7xx_hal_rcc.c ****          (#) LSI (low-speed internal), 32 KHz low consumption RC used as IWDG and/or RTC
 131:../../Drivers/STM32H7xx_HAL_Driver/Src/stm32h7xx_hal_rcc.c ****              clock source.
 132:../../Drivers/STM32H7xx_HAL_Driver/Src/stm32h7xx_hal_rcc.c **** 
 133:../../Drivers/STM32H7xx_HAL_Driver/Src/stm32h7xx_hal_rcc.c ****          (#) HSE (high-speed external), 4 to 48 MHz crystal oscillator used directly or
 134:../../Drivers/STM32H7xx_HAL_Driver/Src/stm32h7xx_hal_rcc.c ****              through the PLL as System clock source. Can be used also as RTC clock source.
 135:../../Drivers/STM32H7xx_HAL_Driver/Src/stm32h7xx_hal_rcc.c **** 
 136:../../Drivers/STM32H7xx_HAL_Driver/Src/stm32h7xx_hal_rcc.c ****          (#) LSE (low-speed external), 32 KHz oscillator used as RTC clock source.
 137:../../Drivers/STM32H7xx_HAL_Driver/Src/stm32h7xx_hal_rcc.c **** 
 138:../../Drivers/STM32H7xx_HAL_Driver/Src/stm32h7xx_hal_rcc.c ****          (#) PLL , The RCC features three independent PLLs (clocked by HSI , HSE or CSI),
 139:../../Drivers/STM32H7xx_HAL_Driver/Src/stm32h7xx_hal_rcc.c ****              featuring three different output clocks and able  to work either in integer or Fractio
 140:../../Drivers/STM32H7xx_HAL_Driver/Src/stm32h7xx_hal_rcc.c ****            (++) A main PLL, PLL1, which is generally used to provide clocks to the CPU
 141:../../Drivers/STM32H7xx_HAL_Driver/Src/stm32h7xx_hal_rcc.c ****                 and to some peripherals.
 142:../../Drivers/STM32H7xx_HAL_Driver/Src/stm32h7xx_hal_rcc.c ****            (++) Two dedicated PLLs, PLL2 and PLL3, which are used to generate the kernel clock for 
 143:../../Drivers/STM32H7xx_HAL_Driver/Src/stm32h7xx_hal_rcc.c **** 
 144:../../Drivers/STM32H7xx_HAL_Driver/Src/stm32h7xx_hal_rcc.c **** 
 145:../../Drivers/STM32H7xx_HAL_Driver/Src/stm32h7xx_hal_rcc.c ****          (#) CSS (Clock security system), once enabled and if a HSE clock failure occurs
 146:../../Drivers/STM32H7xx_HAL_Driver/Src/stm32h7xx_hal_rcc.c ****             (HSE used directly or through PLL as System clock source), the System clock
ARM GAS  C:\Users\minis\AppData\Local\Temp\cczlSevg.s 			page 4


 147:../../Drivers/STM32H7xx_HAL_Driver/Src/stm32h7xx_hal_rcc.c ****              is automatically switched to HSI and an interrupt is generated if enabled.
 148:../../Drivers/STM32H7xx_HAL_Driver/Src/stm32h7xx_hal_rcc.c ****              The interrupt is linked to the Cortex-M NMI (Non-Mask-able Interrupt)
 149:../../Drivers/STM32H7xx_HAL_Driver/Src/stm32h7xx_hal_rcc.c ****              exception vector.
 150:../../Drivers/STM32H7xx_HAL_Driver/Src/stm32h7xx_hal_rcc.c **** 
 151:../../Drivers/STM32H7xx_HAL_Driver/Src/stm32h7xx_hal_rcc.c ****          (#) MCO1 (micro controller clock output), used to output HSI, LSE, HSE, PLL1(PLL1_Q)
 152:../../Drivers/STM32H7xx_HAL_Driver/Src/stm32h7xx_hal_rcc.c ****              or HSI48 clock (through a configurable pre-scaler) on PA8 pin.
 153:../../Drivers/STM32H7xx_HAL_Driver/Src/stm32h7xx_hal_rcc.c **** 
 154:../../Drivers/STM32H7xx_HAL_Driver/Src/stm32h7xx_hal_rcc.c ****          (#) MCO2 (micro controller clock output), used to output HSE, PLL2(PLL2_P), SYSCLK,
 155:../../Drivers/STM32H7xx_HAL_Driver/Src/stm32h7xx_hal_rcc.c ****              LSI, CSI, or PLL1(PLL1_P) clock (through a configurable pre-scaler) on PC9 pin.
 156:../../Drivers/STM32H7xx_HAL_Driver/Src/stm32h7xx_hal_rcc.c **** 
 157:../../Drivers/STM32H7xx_HAL_Driver/Src/stm32h7xx_hal_rcc.c ****     [..] System, AHB and APB buses clocks configuration
 158:../../Drivers/STM32H7xx_HAL_Driver/Src/stm32h7xx_hal_rcc.c ****          (#) Several clock sources can be used to drive the System clock (SYSCLK): CSI,HSI,
 159:../../Drivers/STM32H7xx_HAL_Driver/Src/stm32h7xx_hal_rcc.c ****              HSE and PLL.
 160:../../Drivers/STM32H7xx_HAL_Driver/Src/stm32h7xx_hal_rcc.c ****              The AHB clock (HCLK) is derived from System core clock through configurable
 161:../../Drivers/STM32H7xx_HAL_Driver/Src/stm32h7xx_hal_rcc.c ****              pre-scaler and used to clock the CPU, memory and peripherals mapped
 162:../../Drivers/STM32H7xx_HAL_Driver/Src/stm32h7xx_hal_rcc.c ****              on AHB and APB bus of the 3 Domains (D1, D2, D3)* through configurable pre-scalers
 163:../../Drivers/STM32H7xx_HAL_Driver/Src/stm32h7xx_hal_rcc.c ****              and used to clock the peripherals mapped on these buses. You can use
 164:../../Drivers/STM32H7xx_HAL_Driver/Src/stm32h7xx_hal_rcc.c ****              "HAL_RCC_GetSysClockFreq()" function to retrieve system clock frequency.
 165:../../Drivers/STM32H7xx_HAL_Driver/Src/stm32h7xx_hal_rcc.c **** 
 166:../../Drivers/STM32H7xx_HAL_Driver/Src/stm32h7xx_hal_rcc.c ****          -@- All the peripheral clocks are derived from the System clock (SYSCLK) except those
 167:../../Drivers/STM32H7xx_HAL_Driver/Src/stm32h7xx_hal_rcc.c ****              with dual clock domain where kernel source clock could be selected through
 168:../../Drivers/STM32H7xx_HAL_Driver/Src/stm32h7xx_hal_rcc.c ****              RCC_D1CCIPR,RCC_D2CCIP1R,RCC_D2CCIP2R and RCC_D3CCIPR registers.
 169:../../Drivers/STM32H7xx_HAL_Driver/Src/stm32h7xx_hal_rcc.c **** 
 170:../../Drivers/STM32H7xx_HAL_Driver/Src/stm32h7xx_hal_rcc.c ****      (*) : 2 Domains (CD and SRD) for stm32h7a3xx and stm32h7b3xx family lines.
 171:../../Drivers/STM32H7xx_HAL_Driver/Src/stm32h7xx_hal_rcc.c **** @endverbatim
 172:../../Drivers/STM32H7xx_HAL_Driver/Src/stm32h7xx_hal_rcc.c ****   * @{
 173:../../Drivers/STM32H7xx_HAL_Driver/Src/stm32h7xx_hal_rcc.c ****   */
 174:../../Drivers/STM32H7xx_HAL_Driver/Src/stm32h7xx_hal_rcc.c **** 
 175:../../Drivers/STM32H7xx_HAL_Driver/Src/stm32h7xx_hal_rcc.c **** /**
 176:../../Drivers/STM32H7xx_HAL_Driver/Src/stm32h7xx_hal_rcc.c ****   * @brief  Resets the RCC clock configuration to the default reset state.
 177:../../Drivers/STM32H7xx_HAL_Driver/Src/stm32h7xx_hal_rcc.c ****   * @note   The default reset state of the clock configuration is given below:
 178:../../Drivers/STM32H7xx_HAL_Driver/Src/stm32h7xx_hal_rcc.c ****   *            - HSI ON and used as system clock source
 179:../../Drivers/STM32H7xx_HAL_Driver/Src/stm32h7xx_hal_rcc.c ****   *            - HSE, PLL1, PLL2 and PLL3 OFF
 180:../../Drivers/STM32H7xx_HAL_Driver/Src/stm32h7xx_hal_rcc.c ****   *            - AHB, APB Bus pre-scaler set to 1.
 181:../../Drivers/STM32H7xx_HAL_Driver/Src/stm32h7xx_hal_rcc.c ****   *            - CSS, MCO1 and MCO2 OFF
 182:../../Drivers/STM32H7xx_HAL_Driver/Src/stm32h7xx_hal_rcc.c ****   *            - All interrupts disabled
 183:../../Drivers/STM32H7xx_HAL_Driver/Src/stm32h7xx_hal_rcc.c ****   * @note   This function doesn't modify the configuration of the
 184:../../Drivers/STM32H7xx_HAL_Driver/Src/stm32h7xx_hal_rcc.c ****   *            - Peripheral clocks
 185:../../Drivers/STM32H7xx_HAL_Driver/Src/stm32h7xx_hal_rcc.c ****   *            - LSI, LSE and RTC clocks
 186:../../Drivers/STM32H7xx_HAL_Driver/Src/stm32h7xx_hal_rcc.c ****   * @retval HAL status
 187:../../Drivers/STM32H7xx_HAL_Driver/Src/stm32h7xx_hal_rcc.c ****   */
 188:../../Drivers/STM32H7xx_HAL_Driver/Src/stm32h7xx_hal_rcc.c **** HAL_StatusTypeDef HAL_RCC_DeInit(void)
 189:../../Drivers/STM32H7xx_HAL_Driver/Src/stm32h7xx_hal_rcc.c **** {
  27              		.loc 1 189 1 view -0
  28              		.cfi_startproc
  29              		@ args = 0, pretend = 0, frame = 0
  30              		@ frame_needed = 0, uses_anonymous_args = 0
  31 0000 38B5     		push	{r3, r4, r5, lr}
  32              	.LCFI0:
  33              		.cfi_def_cfa_offset 16
  34              		.cfi_offset 3, -16
  35              		.cfi_offset 4, -12
  36              		.cfi_offset 5, -8
  37              		.cfi_offset 14, -4
 190:../../Drivers/STM32H7xx_HAL_Driver/Src/stm32h7xx_hal_rcc.c ****   uint32_t tickstart;
  38              		.loc 1 190 3 view .LVU1
 191:../../Drivers/STM32H7xx_HAL_Driver/Src/stm32h7xx_hal_rcc.c **** 
ARM GAS  C:\Users\minis\AppData\Local\Temp\cczlSevg.s 			page 5


 192:../../Drivers/STM32H7xx_HAL_Driver/Src/stm32h7xx_hal_rcc.c ****   /* Increasing the CPU frequency */
 193:../../Drivers/STM32H7xx_HAL_Driver/Src/stm32h7xx_hal_rcc.c ****   if (FLASH_LATENCY_DEFAULT  > __HAL_FLASH_GET_LATENCY())
  39              		.loc 1 193 3 view .LVU2
  40              		.loc 1 193 32 is_stmt 0 view .LVU3
  41 0002 684B     		ldr	r3, .L33
  42 0004 1B68     		ldr	r3, [r3]
  43 0006 03F00F03 		and	r3, r3, #15
  44              		.loc 1 193 6 view .LVU4
  45 000a 062B     		cmp	r3, #6
  46 000c 0CD8     		bhi	.L2
 194:../../Drivers/STM32H7xx_HAL_Driver/Src/stm32h7xx_hal_rcc.c ****   {
 195:../../Drivers/STM32H7xx_HAL_Driver/Src/stm32h7xx_hal_rcc.c ****     /* Program the new number of wait states to the LATENCY bits in the FLASH_ACR register */
 196:../../Drivers/STM32H7xx_HAL_Driver/Src/stm32h7xx_hal_rcc.c ****     __HAL_FLASH_SET_LATENCY(FLASH_LATENCY_DEFAULT);
  47              		.loc 1 196 5 is_stmt 1 view .LVU5
  48 000e 654A     		ldr	r2, .L33
  49 0010 1368     		ldr	r3, [r2]
  50 0012 23F00F03 		bic	r3, r3, #15
  51 0016 43F00703 		orr	r3, r3, #7
  52 001a 1360     		str	r3, [r2]
 197:../../Drivers/STM32H7xx_HAL_Driver/Src/stm32h7xx_hal_rcc.c **** 
 198:../../Drivers/STM32H7xx_HAL_Driver/Src/stm32h7xx_hal_rcc.c ****     /* Check that the new number of wait states is taken into account to access the Flash
 199:../../Drivers/STM32H7xx_HAL_Driver/Src/stm32h7xx_hal_rcc.c ****     memory by reading the FLASH_ACR register */
 200:../../Drivers/STM32H7xx_HAL_Driver/Src/stm32h7xx_hal_rcc.c ****     if (__HAL_FLASH_GET_LATENCY() != FLASH_LATENCY_DEFAULT)
  53              		.loc 1 200 5 view .LVU6
  54              		.loc 1 200 9 is_stmt 0 view .LVU7
  55 001c 1368     		ldr	r3, [r2]
  56 001e 03F00F03 		and	r3, r3, #15
  57              		.loc 1 200 8 view .LVU8
  58 0022 072B     		cmp	r3, #7
  59 0024 40F0BA80 		bne	.L16
  60              	.L2:
 201:../../Drivers/STM32H7xx_HAL_Driver/Src/stm32h7xx_hal_rcc.c ****     {
 202:../../Drivers/STM32H7xx_HAL_Driver/Src/stm32h7xx_hal_rcc.c ****       return HAL_ERROR;
 203:../../Drivers/STM32H7xx_HAL_Driver/Src/stm32h7xx_hal_rcc.c ****     }
 204:../../Drivers/STM32H7xx_HAL_Driver/Src/stm32h7xx_hal_rcc.c **** 
 205:../../Drivers/STM32H7xx_HAL_Driver/Src/stm32h7xx_hal_rcc.c ****   }
 206:../../Drivers/STM32H7xx_HAL_Driver/Src/stm32h7xx_hal_rcc.c **** 
 207:../../Drivers/STM32H7xx_HAL_Driver/Src/stm32h7xx_hal_rcc.c **** 
 208:../../Drivers/STM32H7xx_HAL_Driver/Src/stm32h7xx_hal_rcc.c ****   /* Get Start Tick */
 209:../../Drivers/STM32H7xx_HAL_Driver/Src/stm32h7xx_hal_rcc.c ****   tickstart = HAL_GetTick();
  61              		.loc 1 209 3 is_stmt 1 view .LVU9
  62              		.loc 1 209 15 is_stmt 0 view .LVU10
  63 0028 FFF7FEFF 		bl	HAL_GetTick
  64              	.LVL0:
  65 002c 0446     		mov	r4, r0
  66              	.LVL1:
 210:../../Drivers/STM32H7xx_HAL_Driver/Src/stm32h7xx_hal_rcc.c **** 
 211:../../Drivers/STM32H7xx_HAL_Driver/Src/stm32h7xx_hal_rcc.c ****   /* Set HSION bit */
 212:../../Drivers/STM32H7xx_HAL_Driver/Src/stm32h7xx_hal_rcc.c ****   SET_BIT(RCC->CR, RCC_CR_HSION);
  67              		.loc 1 212 3 is_stmt 1 view .LVU11
  68 002e 5E4A     		ldr	r2, .L33+4
  69 0030 1368     		ldr	r3, [r2]
  70 0032 43F00103 		orr	r3, r3, #1
  71 0036 1360     		str	r3, [r2]
 213:../../Drivers/STM32H7xx_HAL_Driver/Src/stm32h7xx_hal_rcc.c **** 
 214:../../Drivers/STM32H7xx_HAL_Driver/Src/stm32h7xx_hal_rcc.c ****   /* Wait till HSI is ready */
 215:../../Drivers/STM32H7xx_HAL_Driver/Src/stm32h7xx_hal_rcc.c ****   while (READ_BIT(RCC->CR, RCC_CR_HSIRDY) == 0U)
ARM GAS  C:\Users\minis\AppData\Local\Temp\cczlSevg.s 			page 6


  72              		.loc 1 215 3 view .LVU12
  73              	.LVL2:
  74              	.L4:
  75              		.loc 1 215 43 view .LVU13
  76              		.loc 1 215 10 is_stmt 0 view .LVU14
  77 0038 5B4B     		ldr	r3, .L33+4
  78 003a 1B68     		ldr	r3, [r3]
  79              		.loc 1 215 43 view .LVU15
  80 003c 13F0040F 		tst	r3, #4
  81 0040 06D1     		bne	.L26
 216:../../Drivers/STM32H7xx_HAL_Driver/Src/stm32h7xx_hal_rcc.c ****   {
 217:../../Drivers/STM32H7xx_HAL_Driver/Src/stm32h7xx_hal_rcc.c ****     if ((HAL_GetTick() - tickstart) > HSI_TIMEOUT_VALUE)
  82              		.loc 1 217 5 is_stmt 1 view .LVU16
  83              		.loc 1 217 10 is_stmt 0 view .LVU17
  84 0042 FFF7FEFF 		bl	HAL_GetTick
  85              	.LVL3:
  86              		.loc 1 217 24 discriminator 1 view .LVU18
  87 0046 001B     		subs	r0, r0, r4
  88              		.loc 1 217 8 discriminator 1 view .LVU19
  89 0048 0228     		cmp	r0, #2
  90 004a F5D9     		bls	.L4
 218:../../Drivers/STM32H7xx_HAL_Driver/Src/stm32h7xx_hal_rcc.c ****     {
 219:../../Drivers/STM32H7xx_HAL_Driver/Src/stm32h7xx_hal_rcc.c ****       return HAL_TIMEOUT;
  91              		.loc 1 219 14 view .LVU20
  92 004c 0324     		movs	r4, #3
  93              	.LVL4:
  94              		.loc 1 219 14 view .LVU21
  95 004e A6E0     		b	.L3
  96              	.LVL5:
  97              	.L26:
 220:../../Drivers/STM32H7xx_HAL_Driver/Src/stm32h7xx_hal_rcc.c ****     }
 221:../../Drivers/STM32H7xx_HAL_Driver/Src/stm32h7xx_hal_rcc.c ****   }
 222:../../Drivers/STM32H7xx_HAL_Driver/Src/stm32h7xx_hal_rcc.c **** 
 223:../../Drivers/STM32H7xx_HAL_Driver/Src/stm32h7xx_hal_rcc.c ****   /* Set HSITRIM[6:0] bits to the reset value */
 224:../../Drivers/STM32H7xx_HAL_Driver/Src/stm32h7xx_hal_rcc.c ****   SET_BIT(RCC->HSICFGR, RCC_HSICFGR_HSITRIM_6);
  98              		.loc 1 224 3 is_stmt 1 view .LVU22
  99 0050 554B     		ldr	r3, .L33+4
 100 0052 5A68     		ldr	r2, [r3, #4]
 101 0054 42F08042 		orr	r2, r2, #1073741824
 102 0058 5A60     		str	r2, [r3, #4]
 225:../../Drivers/STM32H7xx_HAL_Driver/Src/stm32h7xx_hal_rcc.c **** 
 226:../../Drivers/STM32H7xx_HAL_Driver/Src/stm32h7xx_hal_rcc.c ****   /* Reset CFGR register */
 227:../../Drivers/STM32H7xx_HAL_Driver/Src/stm32h7xx_hal_rcc.c ****   CLEAR_REG(RCC->CFGR);
 103              		.loc 1 227 3 view .LVU23
 104 005a 0022     		movs	r2, #0
 105 005c 1A61     		str	r2, [r3, #16]
 228:../../Drivers/STM32H7xx_HAL_Driver/Src/stm32h7xx_hal_rcc.c **** 
 229:../../Drivers/STM32H7xx_HAL_Driver/Src/stm32h7xx_hal_rcc.c ****   /* Update the SystemCoreClock and SystemD2Clock global variables */
 230:../../Drivers/STM32H7xx_HAL_Driver/Src/stm32h7xx_hal_rcc.c ****   SystemCoreClock = HSI_VALUE;
 106              		.loc 1 230 3 view .LVU24
 107              		.loc 1 230 19 is_stmt 0 view .LVU25
 108 005e 534B     		ldr	r3, .L33+8
 109 0060 534A     		ldr	r2, .L33+12
 110 0062 1360     		str	r3, [r2]
 231:../../Drivers/STM32H7xx_HAL_Driver/Src/stm32h7xx_hal_rcc.c ****   SystemD2Clock = HSI_VALUE;
 111              		.loc 1 231 3 is_stmt 1 view .LVU26
 112              		.loc 1 231 17 is_stmt 0 view .LVU27
ARM GAS  C:\Users\minis\AppData\Local\Temp\cczlSevg.s 			page 7


 113 0064 534A     		ldr	r2, .L33+16
 114 0066 1360     		str	r3, [r2]
 232:../../Drivers/STM32H7xx_HAL_Driver/Src/stm32h7xx_hal_rcc.c **** 
 233:../../Drivers/STM32H7xx_HAL_Driver/Src/stm32h7xx_hal_rcc.c ****   /* Adapt Systick interrupt period */
 234:../../Drivers/STM32H7xx_HAL_Driver/Src/stm32h7xx_hal_rcc.c ****   if (HAL_InitTick(uwTickPrio) != HAL_OK)
 115              		.loc 1 234 3 is_stmt 1 view .LVU28
 116              		.loc 1 234 7 is_stmt 0 view .LVU29
 117 0068 534B     		ldr	r3, .L33+20
 118 006a 1868     		ldr	r0, [r3]
 119 006c FFF7FEFF 		bl	HAL_InitTick
 120              	.LVL6:
 121              		.loc 1 234 6 discriminator 1 view .LVU30
 122 0070 0446     		mov	r4, r0
 123              	.LVL7:
 124              		.loc 1 234 6 discriminator 1 view .LVU31
 125 0072 08B1     		cbz	r0, .L27
 235:../../Drivers/STM32H7xx_HAL_Driver/Src/stm32h7xx_hal_rcc.c ****   {
 236:../../Drivers/STM32H7xx_HAL_Driver/Src/stm32h7xx_hal_rcc.c ****     return HAL_ERROR;
 126              		.loc 1 236 12 view .LVU32
 127 0074 0124     		movs	r4, #1
 128 0076 92E0     		b	.L3
 129              	.L27:
 237:../../Drivers/STM32H7xx_HAL_Driver/Src/stm32h7xx_hal_rcc.c ****   }
 238:../../Drivers/STM32H7xx_HAL_Driver/Src/stm32h7xx_hal_rcc.c **** 
 239:../../Drivers/STM32H7xx_HAL_Driver/Src/stm32h7xx_hal_rcc.c ****   /* Get Start Tick */
 240:../../Drivers/STM32H7xx_HAL_Driver/Src/stm32h7xx_hal_rcc.c ****   tickstart = HAL_GetTick();
 130              		.loc 1 240 3 is_stmt 1 view .LVU33
 131              		.loc 1 240 15 is_stmt 0 view .LVU34
 132 0078 FFF7FEFF 		bl	HAL_GetTick
 133              	.LVL8:
 134 007c 0546     		mov	r5, r0
 135              	.LVL9:
 241:../../Drivers/STM32H7xx_HAL_Driver/Src/stm32h7xx_hal_rcc.c **** 
 242:../../Drivers/STM32H7xx_HAL_Driver/Src/stm32h7xx_hal_rcc.c ****   /* Wait till clock switch is ready */
 243:../../Drivers/STM32H7xx_HAL_Driver/Src/stm32h7xx_hal_rcc.c ****   while (READ_BIT(RCC->CFGR, RCC_CFGR_SWS) != 0U)
 136              		.loc 1 243 3 is_stmt 1 view .LVU35
 137              	.L6:
 138              		.loc 1 243 44 view .LVU36
 139              		.loc 1 243 10 is_stmt 0 view .LVU37
 140 007e 4A4B     		ldr	r3, .L33+4
 141 0080 1B69     		ldr	r3, [r3, #16]
 142              		.loc 1 243 44 view .LVU38
 143 0082 13F0380F 		tst	r3, #56
 144 0086 08D0     		beq	.L28
 244:../../Drivers/STM32H7xx_HAL_Driver/Src/stm32h7xx_hal_rcc.c ****   {
 245:../../Drivers/STM32H7xx_HAL_Driver/Src/stm32h7xx_hal_rcc.c ****     if ((HAL_GetTick() - tickstart) > CLOCKSWITCH_TIMEOUT_VALUE)
 145              		.loc 1 245 5 is_stmt 1 view .LVU39
 146              		.loc 1 245 10 is_stmt 0 view .LVU40
 147 0088 FFF7FEFF 		bl	HAL_GetTick
 148              	.LVL10:
 149              		.loc 1 245 24 discriminator 1 view .LVU41
 150 008c 401B     		subs	r0, r0, r5
 151              		.loc 1 245 8 discriminator 1 view .LVU42
 152 008e 41F28833 		movw	r3, #5000
 153 0092 9842     		cmp	r0, r3
 154 0094 F3D9     		bls	.L6
 246:../../Drivers/STM32H7xx_HAL_Driver/Src/stm32h7xx_hal_rcc.c ****     {
ARM GAS  C:\Users\minis\AppData\Local\Temp\cczlSevg.s 			page 8


 247:../../Drivers/STM32H7xx_HAL_Driver/Src/stm32h7xx_hal_rcc.c ****       return HAL_TIMEOUT;
 155              		.loc 1 247 14 view .LVU43
 156 0096 0324     		movs	r4, #3
 157 0098 81E0     		b	.L3
 158              	.L28:
 248:../../Drivers/STM32H7xx_HAL_Driver/Src/stm32h7xx_hal_rcc.c ****     }
 249:../../Drivers/STM32H7xx_HAL_Driver/Src/stm32h7xx_hal_rcc.c ****   }
 250:../../Drivers/STM32H7xx_HAL_Driver/Src/stm32h7xx_hal_rcc.c **** 
 251:../../Drivers/STM32H7xx_HAL_Driver/Src/stm32h7xx_hal_rcc.c ****   /* Get Start Tick */
 252:../../Drivers/STM32H7xx_HAL_Driver/Src/stm32h7xx_hal_rcc.c ****   tickstart = HAL_GetTick();
 159              		.loc 1 252 3 is_stmt 1 view .LVU44
 160              		.loc 1 252 15 is_stmt 0 view .LVU45
 161 009a FFF7FEFF 		bl	HAL_GetTick
 162              	.LVL11:
 163 009e 0546     		mov	r5, r0
 164              	.LVL12:
 253:../../Drivers/STM32H7xx_HAL_Driver/Src/stm32h7xx_hal_rcc.c **** 
 254:../../Drivers/STM32H7xx_HAL_Driver/Src/stm32h7xx_hal_rcc.c ****   /* Reset CSION, CSIKERON, HSEON, HSI48ON, HSECSSON, HSIDIV bits */
 255:../../Drivers/STM32H7xx_HAL_Driver/Src/stm32h7xx_hal_rcc.c ****   CLEAR_BIT(RCC->CR, RCC_CR_HSEON | RCC_CR_HSIKERON | RCC_CR_HSIDIV | RCC_CR_HSIDIVF | RCC_CR_CSION
 165              		.loc 1 255 3 is_stmt 1 view .LVU46
 166 00a0 414A     		ldr	r2, .L33+4
 167 00a2 1168     		ldr	r1, [r2]
 168 00a4 454B     		ldr	r3, .L33+24
 169 00a6 0B40     		ands	r3, r3, r1
 170 00a8 1360     		str	r3, [r2]
 256:../../Drivers/STM32H7xx_HAL_Driver/Src/stm32h7xx_hal_rcc.c ****             | RCC_CR_HSI48ON | RCC_CR_CSSHSEON);
 257:../../Drivers/STM32H7xx_HAL_Driver/Src/stm32h7xx_hal_rcc.c **** 
 258:../../Drivers/STM32H7xx_HAL_Driver/Src/stm32h7xx_hal_rcc.c ****   /* Wait till HSE is disabled */
 259:../../Drivers/STM32H7xx_HAL_Driver/Src/stm32h7xx_hal_rcc.c ****   while (READ_BIT(RCC->CR, RCC_CR_HSERDY) != 0U)
 171              		.loc 1 259 3 view .LVU47
 172              	.LVL13:
 173              	.L8:
 174              		.loc 1 259 43 view .LVU48
 175              		.loc 1 259 10 is_stmt 0 view .LVU49
 176 00aa 3F4B     		ldr	r3, .L33+4
 177 00ac 1B68     		ldr	r3, [r3]
 178              		.loc 1 259 43 view .LVU50
 179 00ae 13F4003F 		tst	r3, #131072
 180 00b2 06D0     		beq	.L29
 260:../../Drivers/STM32H7xx_HAL_Driver/Src/stm32h7xx_hal_rcc.c ****   {
 261:../../Drivers/STM32H7xx_HAL_Driver/Src/stm32h7xx_hal_rcc.c ****     if ((HAL_GetTick() - tickstart) > HSE_TIMEOUT_VALUE)
 181              		.loc 1 261 5 is_stmt 1 view .LVU51
 182              		.loc 1 261 10 is_stmt 0 view .LVU52
 183 00b4 FFF7FEFF 		bl	HAL_GetTick
 184              	.LVL14:
 185              		.loc 1 261 24 discriminator 1 view .LVU53
 186 00b8 401B     		subs	r0, r0, r5
 187              		.loc 1 261 8 discriminator 1 view .LVU54
 188 00ba 6428     		cmp	r0, #100
 189 00bc F5D9     		bls	.L8
 262:../../Drivers/STM32H7xx_HAL_Driver/Src/stm32h7xx_hal_rcc.c ****     {
 263:../../Drivers/STM32H7xx_HAL_Driver/Src/stm32h7xx_hal_rcc.c ****       return HAL_TIMEOUT;
 190              		.loc 1 263 14 view .LVU55
 191 00be 0324     		movs	r4, #3
 192 00c0 6DE0     		b	.L3
 193              	.L29:
 264:../../Drivers/STM32H7xx_HAL_Driver/Src/stm32h7xx_hal_rcc.c ****     }
ARM GAS  C:\Users\minis\AppData\Local\Temp\cczlSevg.s 			page 9


 265:../../Drivers/STM32H7xx_HAL_Driver/Src/stm32h7xx_hal_rcc.c ****   }
 266:../../Drivers/STM32H7xx_HAL_Driver/Src/stm32h7xx_hal_rcc.c **** 
 267:../../Drivers/STM32H7xx_HAL_Driver/Src/stm32h7xx_hal_rcc.c ****   /* Get Start Tick */
 268:../../Drivers/STM32H7xx_HAL_Driver/Src/stm32h7xx_hal_rcc.c ****   tickstart = HAL_GetTick();
 194              		.loc 1 268 3 is_stmt 1 view .LVU56
 195              		.loc 1 268 15 is_stmt 0 view .LVU57
 196 00c2 FFF7FEFF 		bl	HAL_GetTick
 197              	.LVL15:
 198 00c6 0546     		mov	r5, r0
 199              	.LVL16:
 269:../../Drivers/STM32H7xx_HAL_Driver/Src/stm32h7xx_hal_rcc.c **** 
 270:../../Drivers/STM32H7xx_HAL_Driver/Src/stm32h7xx_hal_rcc.c ****   /* Clear PLLON bit */
 271:../../Drivers/STM32H7xx_HAL_Driver/Src/stm32h7xx_hal_rcc.c ****   CLEAR_BIT(RCC->CR, RCC_CR_PLL1ON);
 200              		.loc 1 271 3 is_stmt 1 view .LVU58
 201 00c8 374A     		ldr	r2, .L33+4
 202 00ca 1368     		ldr	r3, [r2]
 203 00cc 23F08073 		bic	r3, r3, #16777216
 204 00d0 1360     		str	r3, [r2]
 272:../../Drivers/STM32H7xx_HAL_Driver/Src/stm32h7xx_hal_rcc.c **** 
 273:../../Drivers/STM32H7xx_HAL_Driver/Src/stm32h7xx_hal_rcc.c ****   /* Wait till PLL is disabled */
 274:../../Drivers/STM32H7xx_HAL_Driver/Src/stm32h7xx_hal_rcc.c ****   while (READ_BIT(RCC->CR, RCC_CR_PLL1RDY) != 0U)
 205              		.loc 1 274 3 view .LVU59
 206              	.LVL17:
 207              	.L10:
 208              		.loc 1 274 44 view .LVU60
 209              		.loc 1 274 10 is_stmt 0 view .LVU61
 210 00d2 354B     		ldr	r3, .L33+4
 211 00d4 1B68     		ldr	r3, [r3]
 212              		.loc 1 274 44 view .LVU62
 213 00d6 13F0007F 		tst	r3, #33554432
 214 00da 06D0     		beq	.L30
 275:../../Drivers/STM32H7xx_HAL_Driver/Src/stm32h7xx_hal_rcc.c ****   {
 276:../../Drivers/STM32H7xx_HAL_Driver/Src/stm32h7xx_hal_rcc.c ****     if ((HAL_GetTick() - tickstart) > PLL_TIMEOUT_VALUE)
 215              		.loc 1 276 5 is_stmt 1 view .LVU63
 216              		.loc 1 276 10 is_stmt 0 view .LVU64
 217 00dc FFF7FEFF 		bl	HAL_GetTick
 218              	.LVL18:
 219              		.loc 1 276 24 discriminator 1 view .LVU65
 220 00e0 401B     		subs	r0, r0, r5
 221              		.loc 1 276 8 discriminator 1 view .LVU66
 222 00e2 0228     		cmp	r0, #2
 223 00e4 F5D9     		bls	.L10
 277:../../Drivers/STM32H7xx_HAL_Driver/Src/stm32h7xx_hal_rcc.c ****     {
 278:../../Drivers/STM32H7xx_HAL_Driver/Src/stm32h7xx_hal_rcc.c ****       return HAL_TIMEOUT;
 224              		.loc 1 278 14 view .LVU67
 225 00e6 0324     		movs	r4, #3
 226 00e8 59E0     		b	.L3
 227              	.L30:
 279:../../Drivers/STM32H7xx_HAL_Driver/Src/stm32h7xx_hal_rcc.c ****     }
 280:../../Drivers/STM32H7xx_HAL_Driver/Src/stm32h7xx_hal_rcc.c ****   }
 281:../../Drivers/STM32H7xx_HAL_Driver/Src/stm32h7xx_hal_rcc.c **** 
 282:../../Drivers/STM32H7xx_HAL_Driver/Src/stm32h7xx_hal_rcc.c ****   /* Get Start Tick */
 283:../../Drivers/STM32H7xx_HAL_Driver/Src/stm32h7xx_hal_rcc.c ****   tickstart = HAL_GetTick();
 228              		.loc 1 283 3 is_stmt 1 view .LVU68
 229              		.loc 1 283 15 is_stmt 0 view .LVU69
 230 00ea FFF7FEFF 		bl	HAL_GetTick
 231              	.LVL19:
ARM GAS  C:\Users\minis\AppData\Local\Temp\cczlSevg.s 			page 10


 232 00ee 0546     		mov	r5, r0
 233              	.LVL20:
 284:../../Drivers/STM32H7xx_HAL_Driver/Src/stm32h7xx_hal_rcc.c **** 
 285:../../Drivers/STM32H7xx_HAL_Driver/Src/stm32h7xx_hal_rcc.c ****   /* Reset PLL2ON bit */
 286:../../Drivers/STM32H7xx_HAL_Driver/Src/stm32h7xx_hal_rcc.c ****   CLEAR_BIT(RCC->CR, RCC_CR_PLL2ON);
 234              		.loc 1 286 3 is_stmt 1 view .LVU70
 235 00f0 2D4A     		ldr	r2, .L33+4
 236 00f2 1368     		ldr	r3, [r2]
 237 00f4 23F08063 		bic	r3, r3, #67108864
 238 00f8 1360     		str	r3, [r2]
 287:../../Drivers/STM32H7xx_HAL_Driver/Src/stm32h7xx_hal_rcc.c **** 
 288:../../Drivers/STM32H7xx_HAL_Driver/Src/stm32h7xx_hal_rcc.c ****   /* Wait till PLL2 is disabled */
 289:../../Drivers/STM32H7xx_HAL_Driver/Src/stm32h7xx_hal_rcc.c ****   while (READ_BIT(RCC->CR, RCC_CR_PLL2RDY) != 0U)
 239              		.loc 1 289 3 view .LVU71
 240              	.LVL21:
 241              	.L12:
 242              		.loc 1 289 44 view .LVU72
 243              		.loc 1 289 10 is_stmt 0 view .LVU73
 244 00fa 2B4B     		ldr	r3, .L33+4
 245 00fc 1B68     		ldr	r3, [r3]
 246              		.loc 1 289 44 view .LVU74
 247 00fe 13F0006F 		tst	r3, #134217728
 248 0102 06D0     		beq	.L31
 290:../../Drivers/STM32H7xx_HAL_Driver/Src/stm32h7xx_hal_rcc.c ****   {
 291:../../Drivers/STM32H7xx_HAL_Driver/Src/stm32h7xx_hal_rcc.c ****     if ((HAL_GetTick() - tickstart) > PLL_TIMEOUT_VALUE)
 249              		.loc 1 291 5 is_stmt 1 view .LVU75
 250              		.loc 1 291 10 is_stmt 0 view .LVU76
 251 0104 FFF7FEFF 		bl	HAL_GetTick
 252              	.LVL22:
 253              		.loc 1 291 24 discriminator 1 view .LVU77
 254 0108 401B     		subs	r0, r0, r5
 255              		.loc 1 291 8 discriminator 1 view .LVU78
 256 010a 0228     		cmp	r0, #2
 257 010c F5D9     		bls	.L12
 292:../../Drivers/STM32H7xx_HAL_Driver/Src/stm32h7xx_hal_rcc.c ****     {
 293:../../Drivers/STM32H7xx_HAL_Driver/Src/stm32h7xx_hal_rcc.c ****       return HAL_TIMEOUT;
 258              		.loc 1 293 14 view .LVU79
 259 010e 0324     		movs	r4, #3
 260 0110 45E0     		b	.L3
 261              	.L31:
 294:../../Drivers/STM32H7xx_HAL_Driver/Src/stm32h7xx_hal_rcc.c ****     }
 295:../../Drivers/STM32H7xx_HAL_Driver/Src/stm32h7xx_hal_rcc.c ****   }
 296:../../Drivers/STM32H7xx_HAL_Driver/Src/stm32h7xx_hal_rcc.c **** 
 297:../../Drivers/STM32H7xx_HAL_Driver/Src/stm32h7xx_hal_rcc.c ****   /* Get Start Tick */
 298:../../Drivers/STM32H7xx_HAL_Driver/Src/stm32h7xx_hal_rcc.c ****   tickstart = HAL_GetTick();
 262              		.loc 1 298 3 is_stmt 1 view .LVU80
 263              		.loc 1 298 15 is_stmt 0 view .LVU81
 264 0112 FFF7FEFF 		bl	HAL_GetTick
 265              	.LVL23:
 266 0116 0546     		mov	r5, r0
 267              	.LVL24:
 299:../../Drivers/STM32H7xx_HAL_Driver/Src/stm32h7xx_hal_rcc.c **** 
 300:../../Drivers/STM32H7xx_HAL_Driver/Src/stm32h7xx_hal_rcc.c ****   /* Reset PLL3 bit */
 301:../../Drivers/STM32H7xx_HAL_Driver/Src/stm32h7xx_hal_rcc.c ****   CLEAR_BIT(RCC->CR, RCC_CR_PLL3ON);
 268              		.loc 1 301 3 is_stmt 1 view .LVU82
 269 0118 234A     		ldr	r2, .L33+4
 270 011a 1368     		ldr	r3, [r2]
ARM GAS  C:\Users\minis\AppData\Local\Temp\cczlSevg.s 			page 11


 271 011c 23F08053 		bic	r3, r3, #268435456
 272 0120 1360     		str	r3, [r2]
 302:../../Drivers/STM32H7xx_HAL_Driver/Src/stm32h7xx_hal_rcc.c **** 
 303:../../Drivers/STM32H7xx_HAL_Driver/Src/stm32h7xx_hal_rcc.c ****   /* Wait till PLL3 is disabled */
 304:../../Drivers/STM32H7xx_HAL_Driver/Src/stm32h7xx_hal_rcc.c ****   while (READ_BIT(RCC->CR, RCC_CR_PLL3RDY) != 0U)
 273              		.loc 1 304 3 view .LVU83
 274              	.LVL25:
 275              	.L14:
 276              		.loc 1 304 44 view .LVU84
 277              		.loc 1 304 10 is_stmt 0 view .LVU85
 278 0122 214B     		ldr	r3, .L33+4
 279 0124 1B68     		ldr	r3, [r3]
 280              		.loc 1 304 44 view .LVU86
 281 0126 13F0005F 		tst	r3, #536870912
 282 012a 06D0     		beq	.L32
 305:../../Drivers/STM32H7xx_HAL_Driver/Src/stm32h7xx_hal_rcc.c ****   {
 306:../../Drivers/STM32H7xx_HAL_Driver/Src/stm32h7xx_hal_rcc.c ****     if ((HAL_GetTick() - tickstart) > PLL_TIMEOUT_VALUE)
 283              		.loc 1 306 5 is_stmt 1 view .LVU87
 284              		.loc 1 306 10 is_stmt 0 view .LVU88
 285 012c FFF7FEFF 		bl	HAL_GetTick
 286              	.LVL26:
 287              		.loc 1 306 24 discriminator 1 view .LVU89
 288 0130 401B     		subs	r0, r0, r5
 289              		.loc 1 306 8 discriminator 1 view .LVU90
 290 0132 0228     		cmp	r0, #2
 291 0134 F5D9     		bls	.L14
 307:../../Drivers/STM32H7xx_HAL_Driver/Src/stm32h7xx_hal_rcc.c ****     {
 308:../../Drivers/STM32H7xx_HAL_Driver/Src/stm32h7xx_hal_rcc.c ****       return HAL_TIMEOUT;
 292              		.loc 1 308 14 view .LVU91
 293 0136 0324     		movs	r4, #3
 294 0138 31E0     		b	.L3
 295              	.L32:
 309:../../Drivers/STM32H7xx_HAL_Driver/Src/stm32h7xx_hal_rcc.c ****     }
 310:../../Drivers/STM32H7xx_HAL_Driver/Src/stm32h7xx_hal_rcc.c ****   }
 311:../../Drivers/STM32H7xx_HAL_Driver/Src/stm32h7xx_hal_rcc.c **** 
 312:../../Drivers/STM32H7xx_HAL_Driver/Src/stm32h7xx_hal_rcc.c **** #if defined(RCC_D1CFGR_HPRE)
 313:../../Drivers/STM32H7xx_HAL_Driver/Src/stm32h7xx_hal_rcc.c ****   /* Reset D1CFGR register */
 314:../../Drivers/STM32H7xx_HAL_Driver/Src/stm32h7xx_hal_rcc.c ****   CLEAR_REG(RCC->D1CFGR);
 296              		.loc 1 314 3 is_stmt 1 view .LVU92
 297 013a 1B4B     		ldr	r3, .L33+4
 298 013c 0022     		movs	r2, #0
 299 013e 9A61     		str	r2, [r3, #24]
 315:../../Drivers/STM32H7xx_HAL_Driver/Src/stm32h7xx_hal_rcc.c **** 
 316:../../Drivers/STM32H7xx_HAL_Driver/Src/stm32h7xx_hal_rcc.c ****   /* Reset D2CFGR register */
 317:../../Drivers/STM32H7xx_HAL_Driver/Src/stm32h7xx_hal_rcc.c ****   CLEAR_REG(RCC->D2CFGR);
 300              		.loc 1 317 3 view .LVU93
 301 0140 DA61     		str	r2, [r3, #28]
 318:../../Drivers/STM32H7xx_HAL_Driver/Src/stm32h7xx_hal_rcc.c **** 
 319:../../Drivers/STM32H7xx_HAL_Driver/Src/stm32h7xx_hal_rcc.c ****   /* Reset D3CFGR register */
 320:../../Drivers/STM32H7xx_HAL_Driver/Src/stm32h7xx_hal_rcc.c ****   CLEAR_REG(RCC->D3CFGR);
 302              		.loc 1 320 3 view .LVU94
 303 0142 1A62     		str	r2, [r3, #32]
 321:../../Drivers/STM32H7xx_HAL_Driver/Src/stm32h7xx_hal_rcc.c **** #else
 322:../../Drivers/STM32H7xx_HAL_Driver/Src/stm32h7xx_hal_rcc.c ****   /* Reset CDCFGR1 register */
 323:../../Drivers/STM32H7xx_HAL_Driver/Src/stm32h7xx_hal_rcc.c ****   CLEAR_REG(RCC->CDCFGR1);
 324:../../Drivers/STM32H7xx_HAL_Driver/Src/stm32h7xx_hal_rcc.c **** 
 325:../../Drivers/STM32H7xx_HAL_Driver/Src/stm32h7xx_hal_rcc.c ****   /* Reset CDCFGR2 register */
ARM GAS  C:\Users\minis\AppData\Local\Temp\cczlSevg.s 			page 12


 326:../../Drivers/STM32H7xx_HAL_Driver/Src/stm32h7xx_hal_rcc.c ****   CLEAR_REG(RCC->CDCFGR2);
 327:../../Drivers/STM32H7xx_HAL_Driver/Src/stm32h7xx_hal_rcc.c **** 
 328:../../Drivers/STM32H7xx_HAL_Driver/Src/stm32h7xx_hal_rcc.c ****   /* Reset SRDCFGR register */
 329:../../Drivers/STM32H7xx_HAL_Driver/Src/stm32h7xx_hal_rcc.c ****   CLEAR_REG(RCC->SRDCFGR);
 330:../../Drivers/STM32H7xx_HAL_Driver/Src/stm32h7xx_hal_rcc.c **** #endif
 331:../../Drivers/STM32H7xx_HAL_Driver/Src/stm32h7xx_hal_rcc.c **** 
 332:../../Drivers/STM32H7xx_HAL_Driver/Src/stm32h7xx_hal_rcc.c ****   /* Reset PLLCKSELR register to default value */
 333:../../Drivers/STM32H7xx_HAL_Driver/Src/stm32h7xx_hal_rcc.c ****   RCC->PLLCKSELR = RCC_PLLCKSELR_DIVM1_5 | RCC_PLLCKSELR_DIVM2_5 | RCC_PLLCKSELR_DIVM3_5;
 304              		.loc 1 333 3 view .LVU95
 305              		.loc 1 333 18 is_stmt 0 view .LVU96
 306 0144 1E49     		ldr	r1, .L33+28
 307 0146 9962     		str	r1, [r3, #40]
 334:../../Drivers/STM32H7xx_HAL_Driver/Src/stm32h7xx_hal_rcc.c **** 
 335:../../Drivers/STM32H7xx_HAL_Driver/Src/stm32h7xx_hal_rcc.c ****   /* Reset PLLCFGR register to default value */
 336:../../Drivers/STM32H7xx_HAL_Driver/Src/stm32h7xx_hal_rcc.c ****   WRITE_REG(RCC->PLLCFGR, 0x01FF0000U);
 308              		.loc 1 336 3 is_stmt 1 view .LVU97
 309 0148 1E49     		ldr	r1, .L33+32
 310 014a D962     		str	r1, [r3, #44]
 337:../../Drivers/STM32H7xx_HAL_Driver/Src/stm32h7xx_hal_rcc.c **** 
 338:../../Drivers/STM32H7xx_HAL_Driver/Src/stm32h7xx_hal_rcc.c ****   /* Reset PLL1DIVR register to default value */
 339:../../Drivers/STM32H7xx_HAL_Driver/Src/stm32h7xx_hal_rcc.c ****   WRITE_REG(RCC->PLL1DIVR, 0x01010280U);
 311              		.loc 1 339 3 view .LVU98
 312 014c 1E49     		ldr	r1, .L33+36
 313 014e 1963     		str	r1, [r3, #48]
 340:../../Drivers/STM32H7xx_HAL_Driver/Src/stm32h7xx_hal_rcc.c **** 
 341:../../Drivers/STM32H7xx_HAL_Driver/Src/stm32h7xx_hal_rcc.c ****   /* Reset PLL1FRACR register */
 342:../../Drivers/STM32H7xx_HAL_Driver/Src/stm32h7xx_hal_rcc.c ****   CLEAR_REG(RCC->PLL1FRACR);
 314              		.loc 1 342 3 view .LVU99
 315 0150 5A63     		str	r2, [r3, #52]
 343:../../Drivers/STM32H7xx_HAL_Driver/Src/stm32h7xx_hal_rcc.c **** 
 344:../../Drivers/STM32H7xx_HAL_Driver/Src/stm32h7xx_hal_rcc.c ****   /* Reset PLL2DIVR register to default value */
 345:../../Drivers/STM32H7xx_HAL_Driver/Src/stm32h7xx_hal_rcc.c ****   WRITE_REG(RCC->PLL2DIVR, 0x01010280U);
 316              		.loc 1 345 3 view .LVU100
 317 0152 9963     		str	r1, [r3, #56]
 346:../../Drivers/STM32H7xx_HAL_Driver/Src/stm32h7xx_hal_rcc.c **** 
 347:../../Drivers/STM32H7xx_HAL_Driver/Src/stm32h7xx_hal_rcc.c ****   /* Reset PLL2FRACR register */
 348:../../Drivers/STM32H7xx_HAL_Driver/Src/stm32h7xx_hal_rcc.c ****   CLEAR_REG(RCC->PLL2FRACR);
 318              		.loc 1 348 3 view .LVU101
 319 0154 DA63     		str	r2, [r3, #60]
 349:../../Drivers/STM32H7xx_HAL_Driver/Src/stm32h7xx_hal_rcc.c **** 
 350:../../Drivers/STM32H7xx_HAL_Driver/Src/stm32h7xx_hal_rcc.c ****   /* Reset PLL3DIVR register to default value */
 351:../../Drivers/STM32H7xx_HAL_Driver/Src/stm32h7xx_hal_rcc.c ****   WRITE_REG(RCC->PLL3DIVR, 0x01010280U);
 320              		.loc 1 351 3 view .LVU102
 321 0156 1964     		str	r1, [r3, #64]
 352:../../Drivers/STM32H7xx_HAL_Driver/Src/stm32h7xx_hal_rcc.c **** 
 353:../../Drivers/STM32H7xx_HAL_Driver/Src/stm32h7xx_hal_rcc.c ****   /* Reset PLL3FRACR register */
 354:../../Drivers/STM32H7xx_HAL_Driver/Src/stm32h7xx_hal_rcc.c ****   CLEAR_REG(RCC->PLL3FRACR);
 322              		.loc 1 354 3 view .LVU103
 323 0158 5A64     		str	r2, [r3, #68]
 355:../../Drivers/STM32H7xx_HAL_Driver/Src/stm32h7xx_hal_rcc.c **** 
 356:../../Drivers/STM32H7xx_HAL_Driver/Src/stm32h7xx_hal_rcc.c **** #if defined(RCC_CR_HSEEXT)
 357:../../Drivers/STM32H7xx_HAL_Driver/Src/stm32h7xx_hal_rcc.c ****   /* Reset HSEEXT  */
 358:../../Drivers/STM32H7xx_HAL_Driver/Src/stm32h7xx_hal_rcc.c ****   CLEAR_BIT(RCC->CR, RCC_CR_HSEEXT);
 359:../../Drivers/STM32H7xx_HAL_Driver/Src/stm32h7xx_hal_rcc.c **** #endif /* RCC_CR_HSEEXT */
 360:../../Drivers/STM32H7xx_HAL_Driver/Src/stm32h7xx_hal_rcc.c **** 
 361:../../Drivers/STM32H7xx_HAL_Driver/Src/stm32h7xx_hal_rcc.c ****   /* Reset HSEBYP bit */
 362:../../Drivers/STM32H7xx_HAL_Driver/Src/stm32h7xx_hal_rcc.c ****   CLEAR_BIT(RCC->CR, RCC_CR_HSEBYP);
ARM GAS  C:\Users\minis\AppData\Local\Temp\cczlSevg.s 			page 13


 324              		.loc 1 362 3 view .LVU104
 325 015a 1968     		ldr	r1, [r3]
 326 015c 21F48021 		bic	r1, r1, #262144
 327 0160 1960     		str	r1, [r3]
 363:../../Drivers/STM32H7xx_HAL_Driver/Src/stm32h7xx_hal_rcc.c **** 
 364:../../Drivers/STM32H7xx_HAL_Driver/Src/stm32h7xx_hal_rcc.c ****   /* Disable all interrupts */
 365:../../Drivers/STM32H7xx_HAL_Driver/Src/stm32h7xx_hal_rcc.c ****   CLEAR_REG(RCC->CIER);
 328              		.loc 1 365 3 view .LVU105
 329 0162 1A66     		str	r2, [r3, #96]
 366:../../Drivers/STM32H7xx_HAL_Driver/Src/stm32h7xx_hal_rcc.c **** 
 367:../../Drivers/STM32H7xx_HAL_Driver/Src/stm32h7xx_hal_rcc.c ****   /* Clear all interrupts flags */
 368:../../Drivers/STM32H7xx_HAL_Driver/Src/stm32h7xx_hal_rcc.c ****   WRITE_REG(RCC->CICR, 0xFFFFFFFFU);
 330              		.loc 1 368 3 view .LVU106
 331 0164 4FF0FF32 		mov	r2, #-1
 332 0168 9A66     		str	r2, [r3, #104]
 369:../../Drivers/STM32H7xx_HAL_Driver/Src/stm32h7xx_hal_rcc.c **** 
 370:../../Drivers/STM32H7xx_HAL_Driver/Src/stm32h7xx_hal_rcc.c ****   /* Reset all RSR flags */
 371:../../Drivers/STM32H7xx_HAL_Driver/Src/stm32h7xx_hal_rcc.c ****   SET_BIT(RCC->RSR, RCC_RSR_RMVF);
 333              		.loc 1 371 3 view .LVU107
 334 016a D3F8D020 		ldr	r2, [r3, #208]
 335 016e 42F48032 		orr	r2, r2, #65536
 336 0172 C3F8D020 		str	r2, [r3, #208]
 372:../../Drivers/STM32H7xx_HAL_Driver/Src/stm32h7xx_hal_rcc.c **** 
 373:../../Drivers/STM32H7xx_HAL_Driver/Src/stm32h7xx_hal_rcc.c ****   /* Decreasing the number of wait states because of lower CPU frequency */
 374:../../Drivers/STM32H7xx_HAL_Driver/Src/stm32h7xx_hal_rcc.c ****   if (FLASH_LATENCY_DEFAULT  < __HAL_FLASH_GET_LATENCY())
 337              		.loc 1 374 3 view .LVU108
 338              		.loc 1 374 32 is_stmt 0 view .LVU109
 339 0176 0B4B     		ldr	r3, .L33
 340 0178 1B68     		ldr	r3, [r3]
 341              		.loc 1 374 6 view .LVU110
 342 017a 13F0080F 		tst	r3, #8
 343 017e 0ED0     		beq	.L3
 375:../../Drivers/STM32H7xx_HAL_Driver/Src/stm32h7xx_hal_rcc.c ****   {
 376:../../Drivers/STM32H7xx_HAL_Driver/Src/stm32h7xx_hal_rcc.c ****     /* Program the new number of wait states to the LATENCY bits in the FLASH_ACR register */
 377:../../Drivers/STM32H7xx_HAL_Driver/Src/stm32h7xx_hal_rcc.c ****     __HAL_FLASH_SET_LATENCY(FLASH_LATENCY_DEFAULT);
 344              		.loc 1 377 5 is_stmt 1 view .LVU111
 345 0180 084A     		ldr	r2, .L33
 346 0182 1368     		ldr	r3, [r2]
 347 0184 23F00F03 		bic	r3, r3, #15
 348 0188 43F00703 		orr	r3, r3, #7
 349 018c 1360     		str	r3, [r2]
 378:../../Drivers/STM32H7xx_HAL_Driver/Src/stm32h7xx_hal_rcc.c **** 
 379:../../Drivers/STM32H7xx_HAL_Driver/Src/stm32h7xx_hal_rcc.c ****     /* Check that the new number of wait states is taken into account to access the Flash
 380:../../Drivers/STM32H7xx_HAL_Driver/Src/stm32h7xx_hal_rcc.c ****     memory by reading the FLASH_ACR register */
 381:../../Drivers/STM32H7xx_HAL_Driver/Src/stm32h7xx_hal_rcc.c ****     if (__HAL_FLASH_GET_LATENCY() != FLASH_LATENCY_DEFAULT)
 350              		.loc 1 381 5 view .LVU112
 351              		.loc 1 381 9 is_stmt 0 view .LVU113
 352 018e 1368     		ldr	r3, [r2]
 353 0190 03F00F03 		and	r3, r3, #15
 354              		.loc 1 381 8 view .LVU114
 355 0194 072B     		cmp	r3, #7
 356 0196 02D0     		beq	.L3
 382:../../Drivers/STM32H7xx_HAL_Driver/Src/stm32h7xx_hal_rcc.c ****     {
 383:../../Drivers/STM32H7xx_HAL_Driver/Src/stm32h7xx_hal_rcc.c ****       return HAL_ERROR;
 357              		.loc 1 383 14 view .LVU115
 358 0198 0124     		movs	r4, #1
 359 019a 00E0     		b	.L3
ARM GAS  C:\Users\minis\AppData\Local\Temp\cczlSevg.s 			page 14


 360              	.LVL27:
 361              	.L16:
 202:../../Drivers/STM32H7xx_HAL_Driver/Src/stm32h7xx_hal_rcc.c ****     }
 362              		.loc 1 202 14 view .LVU116
 363 019c 0124     		movs	r4, #1
 364              	.L3:
 384:../../Drivers/STM32H7xx_HAL_Driver/Src/stm32h7xx_hal_rcc.c ****     }
 385:../../Drivers/STM32H7xx_HAL_Driver/Src/stm32h7xx_hal_rcc.c **** 
 386:../../Drivers/STM32H7xx_HAL_Driver/Src/stm32h7xx_hal_rcc.c ****   }
 387:../../Drivers/STM32H7xx_HAL_Driver/Src/stm32h7xx_hal_rcc.c **** 
 388:../../Drivers/STM32H7xx_HAL_Driver/Src/stm32h7xx_hal_rcc.c ****   return HAL_OK;
 389:../../Drivers/STM32H7xx_HAL_Driver/Src/stm32h7xx_hal_rcc.c **** }
 365              		.loc 1 389 1 view .LVU117
 366 019e 2046     		mov	r0, r4
 367 01a0 38BD     		pop	{r3, r4, r5, pc}
 368              	.L34:
 369 01a2 00BF     		.align	2
 370              	.L33:
 371 01a4 00200052 		.word	1375739904
 372 01a8 00440258 		.word	1476543488
 373 01ac 0090D003 		.word	64000000
 374 01b0 00000000 		.word	SystemCoreClock
 375 01b4 00000000 		.word	SystemD2Clock
 376 01b8 00000000 		.word	uwTickPrio
 377 01bc 45EDF6FF 		.word	-594619
 378 01c0 00020202 		.word	33686016
 379 01c4 0000FF01 		.word	33488896
 380 01c8 80020101 		.word	16843392
 381              		.cfi_endproc
 382              	.LFE144:
 384              		.section	.text.HAL_RCC_OscConfig,"ax",%progbits
 385              		.align	1
 386              		.weak	HAL_RCC_OscConfig
 387              		.syntax unified
 388              		.thumb
 389              		.thumb_func
 391              	HAL_RCC_OscConfig:
 392              	.LVL28:
 393              	.LFB145:
 390:../../Drivers/STM32H7xx_HAL_Driver/Src/stm32h7xx_hal_rcc.c **** 
 391:../../Drivers/STM32H7xx_HAL_Driver/Src/stm32h7xx_hal_rcc.c **** /**
 392:../../Drivers/STM32H7xx_HAL_Driver/Src/stm32h7xx_hal_rcc.c ****   * @brief  Initializes the RCC Oscillators according to the specified parameters in the
 393:../../Drivers/STM32H7xx_HAL_Driver/Src/stm32h7xx_hal_rcc.c ****   *         RCC_OscInitTypeDef.
 394:../../Drivers/STM32H7xx_HAL_Driver/Src/stm32h7xx_hal_rcc.c ****   * @param  RCC_OscInitStruct: pointer to an RCC_OscInitTypeDef structure that
 395:../../Drivers/STM32H7xx_HAL_Driver/Src/stm32h7xx_hal_rcc.c ****   *         contains the configuration information for the RCC Oscillators.
 396:../../Drivers/STM32H7xx_HAL_Driver/Src/stm32h7xx_hal_rcc.c ****   * @note   The PLL is not disabled when used as system clock.
 397:../../Drivers/STM32H7xx_HAL_Driver/Src/stm32h7xx_hal_rcc.c ****   * @note   Transitions LSE Bypass to LSE On and LSE On to LSE Bypass are not
 398:../../Drivers/STM32H7xx_HAL_Driver/Src/stm32h7xx_hal_rcc.c ****   *         supported by this function. User should request a transition to LSE Off
 399:../../Drivers/STM32H7xx_HAL_Driver/Src/stm32h7xx_hal_rcc.c ****   *         first and then LSE On or LSE Bypass.
 400:../../Drivers/STM32H7xx_HAL_Driver/Src/stm32h7xx_hal_rcc.c ****   * @note   Transition HSE Bypass to HSE On and HSE On to HSE Bypass are not
 401:../../Drivers/STM32H7xx_HAL_Driver/Src/stm32h7xx_hal_rcc.c ****   *         supported by this function. User should request a transition to HSE Off
 402:../../Drivers/STM32H7xx_HAL_Driver/Src/stm32h7xx_hal_rcc.c ****   *         first and then HSE On or HSE Bypass.
 403:../../Drivers/STM32H7xx_HAL_Driver/Src/stm32h7xx_hal_rcc.c ****   * @retval HAL status
 404:../../Drivers/STM32H7xx_HAL_Driver/Src/stm32h7xx_hal_rcc.c ****   */
 405:../../Drivers/STM32H7xx_HAL_Driver/Src/stm32h7xx_hal_rcc.c **** __weak HAL_StatusTypeDef HAL_RCC_OscConfig(RCC_OscInitTypeDef  *RCC_OscInitStruct)
 406:../../Drivers/STM32H7xx_HAL_Driver/Src/stm32h7xx_hal_rcc.c **** {
 394              		.loc 1 406 1 is_stmt 1 view -0
ARM GAS  C:\Users\minis\AppData\Local\Temp\cczlSevg.s 			page 15


 395              		.cfi_startproc
 396              		@ args = 0, pretend = 0, frame = 0
 397              		@ frame_needed = 0, uses_anonymous_args = 0
 407:../../Drivers/STM32H7xx_HAL_Driver/Src/stm32h7xx_hal_rcc.c ****   uint32_t tickstart;
 398              		.loc 1 407 3 view .LVU119
 408:../../Drivers/STM32H7xx_HAL_Driver/Src/stm32h7xx_hal_rcc.c ****   uint32_t temp1_pllckcfg, temp2_pllckcfg;
 399              		.loc 1 408 3 view .LVU120
 409:../../Drivers/STM32H7xx_HAL_Driver/Src/stm32h7xx_hal_rcc.c **** 
 410:../../Drivers/STM32H7xx_HAL_Driver/Src/stm32h7xx_hal_rcc.c ****   /* Check Null pointer */
 411:../../Drivers/STM32H7xx_HAL_Driver/Src/stm32h7xx_hal_rcc.c ****   if (RCC_OscInitStruct == NULL)
 400              		.loc 1 411 3 view .LVU121
 401              		.loc 1 411 6 is_stmt 0 view .LVU122
 402 0000 0028     		cmp	r0, #0
 403 0002 00F03983 		beq	.L110
 406:../../Drivers/STM32H7xx_HAL_Driver/Src/stm32h7xx_hal_rcc.c ****   uint32_t tickstart;
 404              		.loc 1 406 1 view .LVU123
 405 0006 38B5     		push	{r3, r4, r5, lr}
 406              	.LCFI1:
 407              		.cfi_def_cfa_offset 16
 408              		.cfi_offset 3, -16
 409              		.cfi_offset 4, -12
 410              		.cfi_offset 5, -8
 411              		.cfi_offset 14, -4
 412 0008 0446     		mov	r4, r0
 412:../../Drivers/STM32H7xx_HAL_Driver/Src/stm32h7xx_hal_rcc.c ****   {
 413:../../Drivers/STM32H7xx_HAL_Driver/Src/stm32h7xx_hal_rcc.c ****     return HAL_ERROR;
 414:../../Drivers/STM32H7xx_HAL_Driver/Src/stm32h7xx_hal_rcc.c ****   }
 415:../../Drivers/STM32H7xx_HAL_Driver/Src/stm32h7xx_hal_rcc.c **** 
 416:../../Drivers/STM32H7xx_HAL_Driver/Src/stm32h7xx_hal_rcc.c ****   /* Check the parameters */
 417:../../Drivers/STM32H7xx_HAL_Driver/Src/stm32h7xx_hal_rcc.c ****   assert_param(IS_RCC_OSCILLATORTYPE(RCC_OscInitStruct->OscillatorType));
 413              		.loc 1 417 3 is_stmt 1 view .LVU124
 418:../../Drivers/STM32H7xx_HAL_Driver/Src/stm32h7xx_hal_rcc.c ****   /*------------------------------- HSE Configuration ------------------------*/
 419:../../Drivers/STM32H7xx_HAL_Driver/Src/stm32h7xx_hal_rcc.c ****   if (((RCC_OscInitStruct->OscillatorType) & RCC_OSCILLATORTYPE_HSE) == RCC_OSCILLATORTYPE_HSE)
 414              		.loc 1 419 3 view .LVU125
 415              		.loc 1 419 26 is_stmt 0 view .LVU126
 416 000a 0368     		ldr	r3, [r0]
 417              		.loc 1 419 6 view .LVU127
 418 000c 13F0010F 		tst	r3, #1
 419 0010 25D0     		beq	.L37
 420              	.LBB2:
 420:../../Drivers/STM32H7xx_HAL_Driver/Src/stm32h7xx_hal_rcc.c ****   {
 421:../../Drivers/STM32H7xx_HAL_Driver/Src/stm32h7xx_hal_rcc.c ****     /* Check the parameters */
 422:../../Drivers/STM32H7xx_HAL_Driver/Src/stm32h7xx_hal_rcc.c ****     assert_param(IS_RCC_HSE(RCC_OscInitStruct->HSEState));
 421              		.loc 1 422 5 is_stmt 1 view .LVU128
 423:../../Drivers/STM32H7xx_HAL_Driver/Src/stm32h7xx_hal_rcc.c **** 
 424:../../Drivers/STM32H7xx_HAL_Driver/Src/stm32h7xx_hal_rcc.c ****     const uint32_t temp_sysclksrc = __HAL_RCC_GET_SYSCLK_SOURCE();
 422              		.loc 1 424 5 view .LVU129
 423              		.loc 1 424 37 is_stmt 0 view .LVU130
 424 0012 944A     		ldr	r2, .L166
 425 0014 1369     		ldr	r3, [r2, #16]
 426              		.loc 1 424 20 view .LVU131
 427 0016 03F03803 		and	r3, r3, #56
 428              	.LVL29:
 425:../../Drivers/STM32H7xx_HAL_Driver/Src/stm32h7xx_hal_rcc.c ****     const uint32_t temp_pllckselr = RCC->PLLCKSELR;
 429              		.loc 1 425 5 is_stmt 1 view .LVU132
 430              		.loc 1 425 20 is_stmt 0 view .LVU133
 431 001a 926A     		ldr	r2, [r2, #40]
ARM GAS  C:\Users\minis\AppData\Local\Temp\cczlSevg.s 			page 16


 432              	.LVL30:
 426:../../Drivers/STM32H7xx_HAL_Driver/Src/stm32h7xx_hal_rcc.c ****     /* When the HSE is used as system clock or clock source for PLL in these cases HSE will not dis
 427:../../Drivers/STM32H7xx_HAL_Driver/Src/stm32h7xx_hal_rcc.c ****     if ((temp_sysclksrc == RCC_CFGR_SWS_HSE) || ((temp_sysclksrc == RCC_CFGR_SWS_PLL1) && ((temp_pl
 433              		.loc 1 427 5 is_stmt 1 view .LVU134
 434              		.loc 1 427 8 is_stmt 0 view .LVU135
 435 001c 102B     		cmp	r3, #16
 436 001e 15D0     		beq	.L38
 437              		.loc 1 427 46 discriminator 1 view .LVU136
 438 0020 182B     		cmp	r3, #24
 439 0022 0FD0     		beq	.L144
 440              	.LVL31:
 441              	.L39:
 428:../../Drivers/STM32H7xx_HAL_Driver/Src/stm32h7xx_hal_rcc.c ****     {
 429:../../Drivers/STM32H7xx_HAL_Driver/Src/stm32h7xx_hal_rcc.c ****       if ((__HAL_RCC_GET_FLAG(RCC_FLAG_HSERDY) != 0U) && (RCC_OscInitStruct->HSEState == RCC_HSE_OF
 430:../../Drivers/STM32H7xx_HAL_Driver/Src/stm32h7xx_hal_rcc.c ****       {
 431:../../Drivers/STM32H7xx_HAL_Driver/Src/stm32h7xx_hal_rcc.c ****         return HAL_ERROR;
 432:../../Drivers/STM32H7xx_HAL_Driver/Src/stm32h7xx_hal_rcc.c ****       }
 433:../../Drivers/STM32H7xx_HAL_Driver/Src/stm32h7xx_hal_rcc.c ****     }
 434:../../Drivers/STM32H7xx_HAL_Driver/Src/stm32h7xx_hal_rcc.c ****     else
 435:../../Drivers/STM32H7xx_HAL_Driver/Src/stm32h7xx_hal_rcc.c ****     {
 436:../../Drivers/STM32H7xx_HAL_Driver/Src/stm32h7xx_hal_rcc.c ****       /* Set the new HSE configuration ---------------------------------------*/
 437:../../Drivers/STM32H7xx_HAL_Driver/Src/stm32h7xx_hal_rcc.c ****       __HAL_RCC_HSE_CONFIG(RCC_OscInitStruct->HSEState);
 442              		.loc 1 437 7 is_stmt 1 view .LVU137
 443              		.loc 1 437 7 view .LVU138
 444 0024 6368     		ldr	r3, [r4, #4]
 445              	.LVL32:
 446              		.loc 1 437 7 is_stmt 0 view .LVU139
 447 0026 B3F5803F 		cmp	r3, #65536
 448 002a 3FD0     		beq	.L145
 449              		.loc 1 437 7 is_stmt 1 discriminator 2 view .LVU140
 450 002c 002B     		cmp	r3, #0
 451 002e 53D1     		bne	.L42
 452              		.loc 1 437 7 discriminator 3 view .LVU141
 453 0030 8C4B     		ldr	r3, .L166
 454 0032 1A68     		ldr	r2, [r3]
 455 0034 22F48032 		bic	r2, r2, #65536
 456 0038 1A60     		str	r2, [r3]
 457              		.loc 1 437 7 view .LVU142
 458              		.loc 1 437 7 is_stmt 0 discriminator 3 view .LVU143
 459 003a 1A68     		ldr	r2, [r3]
 460 003c 22F48022 		bic	r2, r2, #262144
 461 0040 1A60     		str	r2, [r3]
 462 0042 38E0     		b	.L41
 463              	.LVL33:
 464              	.L144:
 427:../../Drivers/STM32H7xx_HAL_Driver/Src/stm32h7xx_hal_rcc.c ****     {
 465              		.loc 1 427 108 discriminator 2 view .LVU144
 466 0044 02F00302 		and	r2, r2, #3
 467              	.LVL34:
 427:../../Drivers/STM32H7xx_HAL_Driver/Src/stm32h7xx_hal_rcc.c ****     {
 468              		.loc 1 427 88 discriminator 2 view .LVU145
 469 0048 022A     		cmp	r2, #2
 470 004a EBD1     		bne	.L39
 471              	.L38:
 429:../../Drivers/STM32H7xx_HAL_Driver/Src/stm32h7xx_hal_rcc.c ****       {
 472              		.loc 1 429 7 is_stmt 1 view .LVU146
 429:../../Drivers/STM32H7xx_HAL_Driver/Src/stm32h7xx_hal_rcc.c ****       {
ARM GAS  C:\Users\minis\AppData\Local\Temp\cczlSevg.s 			page 17


 473              		.loc 1 429 12 is_stmt 0 view .LVU147
 474 004c 854B     		ldr	r3, .L166
 475              	.LVL35:
 429:../../Drivers/STM32H7xx_HAL_Driver/Src/stm32h7xx_hal_rcc.c ****       {
 476              		.loc 1 429 12 view .LVU148
 477 004e 1B68     		ldr	r3, [r3]
 429:../../Drivers/STM32H7xx_HAL_Driver/Src/stm32h7xx_hal_rcc.c ****       {
 478              		.loc 1 429 10 view .LVU149
 479 0050 13F4003F 		tst	r3, #131072
 480 0054 03D0     		beq	.L37
 429:../../Drivers/STM32H7xx_HAL_Driver/Src/stm32h7xx_hal_rcc.c ****       {
 481              		.loc 1 429 76 discriminator 1 view .LVU150
 482 0056 6368     		ldr	r3, [r4, #4]
 429:../../Drivers/STM32H7xx_HAL_Driver/Src/stm32h7xx_hal_rcc.c ****       {
 483              		.loc 1 429 55 discriminator 1 view .LVU151
 484 0058 002B     		cmp	r3, #0
 485 005a 00F00F83 		beq	.L146
 486              	.LVL36:
 487              	.L37:
 429:../../Drivers/STM32H7xx_HAL_Driver/Src/stm32h7xx_hal_rcc.c ****       {
 488              		.loc 1 429 55 discriminator 1 view .LVU152
 489              	.LBE2:
 438:../../Drivers/STM32H7xx_HAL_Driver/Src/stm32h7xx_hal_rcc.c **** 
 439:../../Drivers/STM32H7xx_HAL_Driver/Src/stm32h7xx_hal_rcc.c ****       /* Check the HSE State */
 440:../../Drivers/STM32H7xx_HAL_Driver/Src/stm32h7xx_hal_rcc.c ****       if (RCC_OscInitStruct->HSEState != RCC_HSE_OFF)
 441:../../Drivers/STM32H7xx_HAL_Driver/Src/stm32h7xx_hal_rcc.c ****       {
 442:../../Drivers/STM32H7xx_HAL_Driver/Src/stm32h7xx_hal_rcc.c ****         /* Get Start Tick*/
 443:../../Drivers/STM32H7xx_HAL_Driver/Src/stm32h7xx_hal_rcc.c ****         tickstart = HAL_GetTick();
 444:../../Drivers/STM32H7xx_HAL_Driver/Src/stm32h7xx_hal_rcc.c **** 
 445:../../Drivers/STM32H7xx_HAL_Driver/Src/stm32h7xx_hal_rcc.c ****         /* Wait till HSE is ready */
 446:../../Drivers/STM32H7xx_HAL_Driver/Src/stm32h7xx_hal_rcc.c ****         while (__HAL_RCC_GET_FLAG(RCC_FLAG_HSERDY) == 0U)
 447:../../Drivers/STM32H7xx_HAL_Driver/Src/stm32h7xx_hal_rcc.c ****         {
 448:../../Drivers/STM32H7xx_HAL_Driver/Src/stm32h7xx_hal_rcc.c ****           if ((uint32_t)(HAL_GetTick() - tickstart) > HSE_TIMEOUT_VALUE)
 449:../../Drivers/STM32H7xx_HAL_Driver/Src/stm32h7xx_hal_rcc.c ****           {
 450:../../Drivers/STM32H7xx_HAL_Driver/Src/stm32h7xx_hal_rcc.c ****             return HAL_TIMEOUT;
 451:../../Drivers/STM32H7xx_HAL_Driver/Src/stm32h7xx_hal_rcc.c ****           }
 452:../../Drivers/STM32H7xx_HAL_Driver/Src/stm32h7xx_hal_rcc.c ****         }
 453:../../Drivers/STM32H7xx_HAL_Driver/Src/stm32h7xx_hal_rcc.c ****       }
 454:../../Drivers/STM32H7xx_HAL_Driver/Src/stm32h7xx_hal_rcc.c ****       else
 455:../../Drivers/STM32H7xx_HAL_Driver/Src/stm32h7xx_hal_rcc.c ****       {
 456:../../Drivers/STM32H7xx_HAL_Driver/Src/stm32h7xx_hal_rcc.c ****         /* Get Start Tick*/
 457:../../Drivers/STM32H7xx_HAL_Driver/Src/stm32h7xx_hal_rcc.c ****         tickstart = HAL_GetTick();
 458:../../Drivers/STM32H7xx_HAL_Driver/Src/stm32h7xx_hal_rcc.c **** 
 459:../../Drivers/STM32H7xx_HAL_Driver/Src/stm32h7xx_hal_rcc.c ****         /* Wait till HSE is disabled */
 460:../../Drivers/STM32H7xx_HAL_Driver/Src/stm32h7xx_hal_rcc.c ****         while (__HAL_RCC_GET_FLAG(RCC_FLAG_HSERDY) != 0U)
 461:../../Drivers/STM32H7xx_HAL_Driver/Src/stm32h7xx_hal_rcc.c ****         {
 462:../../Drivers/STM32H7xx_HAL_Driver/Src/stm32h7xx_hal_rcc.c ****           if ((uint32_t)(HAL_GetTick() - tickstart) > HSE_TIMEOUT_VALUE)
 463:../../Drivers/STM32H7xx_HAL_Driver/Src/stm32h7xx_hal_rcc.c ****           {
 464:../../Drivers/STM32H7xx_HAL_Driver/Src/stm32h7xx_hal_rcc.c ****             return HAL_TIMEOUT;
 465:../../Drivers/STM32H7xx_HAL_Driver/Src/stm32h7xx_hal_rcc.c ****           }
 466:../../Drivers/STM32H7xx_HAL_Driver/Src/stm32h7xx_hal_rcc.c ****         }
 467:../../Drivers/STM32H7xx_HAL_Driver/Src/stm32h7xx_hal_rcc.c ****       }
 468:../../Drivers/STM32H7xx_HAL_Driver/Src/stm32h7xx_hal_rcc.c ****     }
 469:../../Drivers/STM32H7xx_HAL_Driver/Src/stm32h7xx_hal_rcc.c ****   }
 470:../../Drivers/STM32H7xx_HAL_Driver/Src/stm32h7xx_hal_rcc.c ****   /*----------------------------- HSI Configuration --------------------------*/
 471:../../Drivers/STM32H7xx_HAL_Driver/Src/stm32h7xx_hal_rcc.c ****   if (((RCC_OscInitStruct->OscillatorType) & RCC_OSCILLATORTYPE_HSI) == RCC_OSCILLATORTYPE_HSI)
 490              		.loc 1 471 3 is_stmt 1 view .LVU153
ARM GAS  C:\Users\minis\AppData\Local\Temp\cczlSevg.s 			page 18


 491              		.loc 1 471 26 is_stmt 0 view .LVU154
 492 005e 2368     		ldr	r3, [r4]
 493              		.loc 1 471 6 view .LVU155
 494 0060 13F0020F 		tst	r3, #2
 495 0064 00F0A180 		beq	.L49
 496              	.LBB3:
 472:../../Drivers/STM32H7xx_HAL_Driver/Src/stm32h7xx_hal_rcc.c ****   {
 473:../../Drivers/STM32H7xx_HAL_Driver/Src/stm32h7xx_hal_rcc.c ****     /* Check the parameters */
 474:../../Drivers/STM32H7xx_HAL_Driver/Src/stm32h7xx_hal_rcc.c ****     assert_param(IS_RCC_HSI(RCC_OscInitStruct->HSIState));
 497              		.loc 1 474 5 is_stmt 1 view .LVU156
 475:../../Drivers/STM32H7xx_HAL_Driver/Src/stm32h7xx_hal_rcc.c ****     assert_param(IS_RCC_HSICALIBRATION_VALUE(RCC_OscInitStruct->HSICalibrationValue));
 498              		.loc 1 475 5 view .LVU157
 476:../../Drivers/STM32H7xx_HAL_Driver/Src/stm32h7xx_hal_rcc.c **** 
 477:../../Drivers/STM32H7xx_HAL_Driver/Src/stm32h7xx_hal_rcc.c ****     /* When the HSI is used as system clock it will not be disabled */
 478:../../Drivers/STM32H7xx_HAL_Driver/Src/stm32h7xx_hal_rcc.c ****     const uint32_t temp_sysclksrc = __HAL_RCC_GET_SYSCLK_SOURCE();
 499              		.loc 1 478 5 view .LVU158
 500              		.loc 1 478 37 is_stmt 0 view .LVU159
 501 0068 7E4A     		ldr	r2, .L166
 502 006a 1369     		ldr	r3, [r2, #16]
 503              	.LVL37:
 479:../../Drivers/STM32H7xx_HAL_Driver/Src/stm32h7xx_hal_rcc.c ****     const uint32_t temp_pllckselr = RCC->PLLCKSELR;
 504              		.loc 1 479 5 is_stmt 1 view .LVU160
 505              		.loc 1 479 20 is_stmt 0 view .LVU161
 506 006c 926A     		ldr	r2, [r2, #40]
 507              	.LVL38:
 480:../../Drivers/STM32H7xx_HAL_Driver/Src/stm32h7xx_hal_rcc.c ****     if ((temp_sysclksrc == RCC_CFGR_SWS_HSI) || ((temp_sysclksrc == RCC_CFGR_SWS_PLL1) && ((temp_pl
 508              		.loc 1 480 5 is_stmt 1 view .LVU162
 509              		.loc 1 480 8 is_stmt 0 view .LVU163
 510 006e 13F03803 		ands	r3, r3, #56
 511              	.LVL39:
 512              		.loc 1 480 8 view .LVU164
 513 0072 5AD0     		beq	.L50
 514              		.loc 1 480 46 discriminator 1 view .LVU165
 515 0074 182B     		cmp	r3, #24
 516 0076 55D0     		beq	.L147
 517              	.L51:
 481:../../Drivers/STM32H7xx_HAL_Driver/Src/stm32h7xx_hal_rcc.c ****     {
 482:../../Drivers/STM32H7xx_HAL_Driver/Src/stm32h7xx_hal_rcc.c ****       /* When HSI is used as system clock it will not be disabled */
 483:../../Drivers/STM32H7xx_HAL_Driver/Src/stm32h7xx_hal_rcc.c ****       if ((__HAL_RCC_GET_FLAG(RCC_FLAG_HSIRDY) != 0U) && (RCC_OscInitStruct->HSIState == RCC_HSI_OF
 484:../../Drivers/STM32H7xx_HAL_Driver/Src/stm32h7xx_hal_rcc.c ****       {
 485:../../Drivers/STM32H7xx_HAL_Driver/Src/stm32h7xx_hal_rcc.c ****         return HAL_ERROR;
 486:../../Drivers/STM32H7xx_HAL_Driver/Src/stm32h7xx_hal_rcc.c ****       }
 487:../../Drivers/STM32H7xx_HAL_Driver/Src/stm32h7xx_hal_rcc.c ****       /* Otherwise, only HSI division and calibration are allowed */
 488:../../Drivers/STM32H7xx_HAL_Driver/Src/stm32h7xx_hal_rcc.c ****       else
 489:../../Drivers/STM32H7xx_HAL_Driver/Src/stm32h7xx_hal_rcc.c ****       {
 490:../../Drivers/STM32H7xx_HAL_Driver/Src/stm32h7xx_hal_rcc.c ****         /* Enable the Internal High Speed oscillator (HSI, HSIDIV2, HSIDIV4, or HSIDIV8) */
 491:../../Drivers/STM32H7xx_HAL_Driver/Src/stm32h7xx_hal_rcc.c ****         __HAL_RCC_HSI_CONFIG(RCC_OscInitStruct->HSIState);
 492:../../Drivers/STM32H7xx_HAL_Driver/Src/stm32h7xx_hal_rcc.c **** 
 493:../../Drivers/STM32H7xx_HAL_Driver/Src/stm32h7xx_hal_rcc.c ****         /* Get Start Tick*/
 494:../../Drivers/STM32H7xx_HAL_Driver/Src/stm32h7xx_hal_rcc.c ****         tickstart = HAL_GetTick();
 495:../../Drivers/STM32H7xx_HAL_Driver/Src/stm32h7xx_hal_rcc.c **** 
 496:../../Drivers/STM32H7xx_HAL_Driver/Src/stm32h7xx_hal_rcc.c ****         /* Wait till HSI is ready */
 497:../../Drivers/STM32H7xx_HAL_Driver/Src/stm32h7xx_hal_rcc.c ****         while (__HAL_RCC_GET_FLAG(RCC_FLAG_HSIRDY) == 0U)
 498:../../Drivers/STM32H7xx_HAL_Driver/Src/stm32h7xx_hal_rcc.c ****         {
 499:../../Drivers/STM32H7xx_HAL_Driver/Src/stm32h7xx_hal_rcc.c ****           if ((uint32_t)(HAL_GetTick() - tickstart) > HSI_TIMEOUT_VALUE)
 500:../../Drivers/STM32H7xx_HAL_Driver/Src/stm32h7xx_hal_rcc.c ****           {
 501:../../Drivers/STM32H7xx_HAL_Driver/Src/stm32h7xx_hal_rcc.c ****             return HAL_TIMEOUT;
ARM GAS  C:\Users\minis\AppData\Local\Temp\cczlSevg.s 			page 19


 502:../../Drivers/STM32H7xx_HAL_Driver/Src/stm32h7xx_hal_rcc.c ****           }
 503:../../Drivers/STM32H7xx_HAL_Driver/Src/stm32h7xx_hal_rcc.c ****         }
 504:../../Drivers/STM32H7xx_HAL_Driver/Src/stm32h7xx_hal_rcc.c ****         /* Adjusts the Internal High Speed oscillator (HSI) calibration value.*/
 505:../../Drivers/STM32H7xx_HAL_Driver/Src/stm32h7xx_hal_rcc.c ****         __HAL_RCC_HSI_CALIBRATIONVALUE_ADJUST(RCC_OscInitStruct->HSICalibrationValue);
 506:../../Drivers/STM32H7xx_HAL_Driver/Src/stm32h7xx_hal_rcc.c ****       }
 507:../../Drivers/STM32H7xx_HAL_Driver/Src/stm32h7xx_hal_rcc.c ****     }
 508:../../Drivers/STM32H7xx_HAL_Driver/Src/stm32h7xx_hal_rcc.c **** 
 509:../../Drivers/STM32H7xx_HAL_Driver/Src/stm32h7xx_hal_rcc.c ****     else
 510:../../Drivers/STM32H7xx_HAL_Driver/Src/stm32h7xx_hal_rcc.c ****     {
 511:../../Drivers/STM32H7xx_HAL_Driver/Src/stm32h7xx_hal_rcc.c ****       /* Check the HSI State */
 512:../../Drivers/STM32H7xx_HAL_Driver/Src/stm32h7xx_hal_rcc.c ****       if ((RCC_OscInitStruct->HSIState) != RCC_HSI_OFF)
 518              		.loc 1 512 7 is_stmt 1 view .LVU166
 519              		.loc 1 512 29 is_stmt 0 view .LVU167
 520 0078 E368     		ldr	r3, [r4, #12]
 521              	.LVL40:
 522              		.loc 1 512 10 view .LVU168
 523 007a 002B     		cmp	r3, #0
 524 007c 00F0DE80 		beq	.L57
 513:../../Drivers/STM32H7xx_HAL_Driver/Src/stm32h7xx_hal_rcc.c ****       {
 514:../../Drivers/STM32H7xx_HAL_Driver/Src/stm32h7xx_hal_rcc.c ****         /* Enable the Internal High Speed oscillator (HSI, HSIDIV2,HSIDIV4, or HSIDIV8) */
 515:../../Drivers/STM32H7xx_HAL_Driver/Src/stm32h7xx_hal_rcc.c ****         __HAL_RCC_HSI_CONFIG(RCC_OscInitStruct->HSIState);
 525              		.loc 1 515 9 is_stmt 1 view .LVU169
 526 0080 7849     		ldr	r1, .L166
 527 0082 0A68     		ldr	r2, [r1]
 528              	.LVL41:
 529              		.loc 1 515 9 is_stmt 0 view .LVU170
 530 0084 22F01902 		bic	r2, r2, #25
 531 0088 1343     		orrs	r3, r3, r2
 532 008a 0B60     		str	r3, [r1]
 516:../../Drivers/STM32H7xx_HAL_Driver/Src/stm32h7xx_hal_rcc.c **** 
 517:../../Drivers/STM32H7xx_HAL_Driver/Src/stm32h7xx_hal_rcc.c ****         /* Get Start Tick*/
 518:../../Drivers/STM32H7xx_HAL_Driver/Src/stm32h7xx_hal_rcc.c ****         tickstart = HAL_GetTick();
 533              		.loc 1 518 9 is_stmt 1 view .LVU171
 534              		.loc 1 518 21 is_stmt 0 view .LVU172
 535 008c FFF7FEFF 		bl	HAL_GetTick
 536              	.LVL42:
 537 0090 0546     		mov	r5, r0
 538              	.LVL43:
 519:../../Drivers/STM32H7xx_HAL_Driver/Src/stm32h7xx_hal_rcc.c **** 
 520:../../Drivers/STM32H7xx_HAL_Driver/Src/stm32h7xx_hal_rcc.c ****         /* Wait till HSI is ready */
 521:../../Drivers/STM32H7xx_HAL_Driver/Src/stm32h7xx_hal_rcc.c ****         while (__HAL_RCC_GET_FLAG(RCC_FLAG_HSIRDY) == 0U)
 539              		.loc 1 521 9 is_stmt 1 view .LVU173
 540              	.L58:
 541              		.loc 1 521 52 view .LVU174
 542              		.loc 1 521 16 is_stmt 0 view .LVU175
 543 0092 744B     		ldr	r3, .L166
 544 0094 1B68     		ldr	r3, [r3]
 545              		.loc 1 521 52 view .LVU176
 546 0096 13F0040F 		tst	r3, #4
 547 009a 40F0AD80 		bne	.L148
 522:../../Drivers/STM32H7xx_HAL_Driver/Src/stm32h7xx_hal_rcc.c ****         {
 523:../../Drivers/STM32H7xx_HAL_Driver/Src/stm32h7xx_hal_rcc.c ****           if ((HAL_GetTick() - tickstart) > HSI_TIMEOUT_VALUE)
 548              		.loc 1 523 11 is_stmt 1 view .LVU177
 549              		.loc 1 523 16 is_stmt 0 view .LVU178
 550 009e FFF7FEFF 		bl	HAL_GetTick
 551              	.LVL44:
 552              		.loc 1 523 30 discriminator 1 view .LVU179
ARM GAS  C:\Users\minis\AppData\Local\Temp\cczlSevg.s 			page 20


 553 00a2 401B     		subs	r0, r0, r5
 554              		.loc 1 523 14 discriminator 1 view .LVU180
 555 00a4 0228     		cmp	r0, #2
 556 00a6 F4D9     		bls	.L58
 524:../../Drivers/STM32H7xx_HAL_Driver/Src/stm32h7xx_hal_rcc.c ****           {
 525:../../Drivers/STM32H7xx_HAL_Driver/Src/stm32h7xx_hal_rcc.c ****             return HAL_TIMEOUT;
 557              		.loc 1 525 20 view .LVU181
 558 00a8 0320     		movs	r0, #3
 559 00aa EEE2     		b	.L36
 560              	.LVL45:
 561              	.L145:
 562              		.loc 1 525 20 view .LVU182
 563              	.LBE3:
 564              	.LBB4:
 437:../../Drivers/STM32H7xx_HAL_Driver/Src/stm32h7xx_hal_rcc.c **** 
 565              		.loc 1 437 7 is_stmt 1 discriminator 1 view .LVU183
 566 00ac 6D4A     		ldr	r2, .L166
 567 00ae 1368     		ldr	r3, [r2]
 568 00b0 43F48033 		orr	r3, r3, #65536
 569 00b4 1360     		str	r3, [r2]
 570              	.L41:
 437:../../Drivers/STM32H7xx_HAL_Driver/Src/stm32h7xx_hal_rcc.c **** 
 571              		.loc 1 437 7 view .LVU184
 440:../../Drivers/STM32H7xx_HAL_Driver/Src/stm32h7xx_hal_rcc.c ****       {
 572              		.loc 1 440 7 view .LVU185
 440:../../Drivers/STM32H7xx_HAL_Driver/Src/stm32h7xx_hal_rcc.c ****       {
 573              		.loc 1 440 28 is_stmt 0 view .LVU186
 574 00b6 6368     		ldr	r3, [r4, #4]
 440:../../Drivers/STM32H7xx_HAL_Driver/Src/stm32h7xx_hal_rcc.c ****       {
 575              		.loc 1 440 10 view .LVU187
 576 00b8 2BB3     		cbz	r3, .L44
 443:../../Drivers/STM32H7xx_HAL_Driver/Src/stm32h7xx_hal_rcc.c **** 
 577              		.loc 1 443 9 is_stmt 1 view .LVU188
 443:../../Drivers/STM32H7xx_HAL_Driver/Src/stm32h7xx_hal_rcc.c **** 
 578              		.loc 1 443 21 is_stmt 0 view .LVU189
 579 00ba FFF7FEFF 		bl	HAL_GetTick
 580              	.LVL46:
 443:../../Drivers/STM32H7xx_HAL_Driver/Src/stm32h7xx_hal_rcc.c **** 
 581              		.loc 1 443 21 view .LVU190
 582 00be 0546     		mov	r5, r0
 583              	.LVL47:
 446:../../Drivers/STM32H7xx_HAL_Driver/Src/stm32h7xx_hal_rcc.c ****         {
 584              		.loc 1 446 9 is_stmt 1 view .LVU191
 585              	.L45:
 446:../../Drivers/STM32H7xx_HAL_Driver/Src/stm32h7xx_hal_rcc.c ****         {
 586              		.loc 1 446 52 view .LVU192
 446:../../Drivers/STM32H7xx_HAL_Driver/Src/stm32h7xx_hal_rcc.c ****         {
 587              		.loc 1 446 16 is_stmt 0 view .LVU193
 588 00c0 684B     		ldr	r3, .L166
 589 00c2 1B68     		ldr	r3, [r3]
 446:../../Drivers/STM32H7xx_HAL_Driver/Src/stm32h7xx_hal_rcc.c ****         {
 590              		.loc 1 446 52 view .LVU194
 591 00c4 13F4003F 		tst	r3, #131072
 592 00c8 C9D1     		bne	.L37
 448:../../Drivers/STM32H7xx_HAL_Driver/Src/stm32h7xx_hal_rcc.c ****           {
 593              		.loc 1 448 11 is_stmt 1 view .LVU195
 448:../../Drivers/STM32H7xx_HAL_Driver/Src/stm32h7xx_hal_rcc.c ****           {
ARM GAS  C:\Users\minis\AppData\Local\Temp\cczlSevg.s 			page 21


 594              		.loc 1 448 26 is_stmt 0 view .LVU196
 595 00ca FFF7FEFF 		bl	HAL_GetTick
 596              	.LVL48:
 448:../../Drivers/STM32H7xx_HAL_Driver/Src/stm32h7xx_hal_rcc.c ****           {
 597              		.loc 1 448 40 discriminator 1 view .LVU197
 598 00ce 401B     		subs	r0, r0, r5
 448:../../Drivers/STM32H7xx_HAL_Driver/Src/stm32h7xx_hal_rcc.c ****           {
 599              		.loc 1 448 14 discriminator 1 view .LVU198
 600 00d0 6428     		cmp	r0, #100
 601 00d2 F5D9     		bls	.L45
 450:../../Drivers/STM32H7xx_HAL_Driver/Src/stm32h7xx_hal_rcc.c ****           }
 602              		.loc 1 450 20 view .LVU199
 603 00d4 0320     		movs	r0, #3
 604 00d6 D8E2     		b	.L36
 605              	.LVL49:
 606              	.L42:
 437:../../Drivers/STM32H7xx_HAL_Driver/Src/stm32h7xx_hal_rcc.c **** 
 607              		.loc 1 437 7 is_stmt 1 discriminator 4 view .LVU200
 608 00d8 B3F5A02F 		cmp	r3, #327680
 609 00dc 09D0     		beq	.L149
 437:../../Drivers/STM32H7xx_HAL_Driver/Src/stm32h7xx_hal_rcc.c **** 
 610              		.loc 1 437 7 discriminator 6 view .LVU201
 611 00de 614B     		ldr	r3, .L166
 612 00e0 1A68     		ldr	r2, [r3]
 613 00e2 22F48032 		bic	r2, r2, #65536
 614 00e6 1A60     		str	r2, [r3]
 437:../../Drivers/STM32H7xx_HAL_Driver/Src/stm32h7xx_hal_rcc.c **** 
 615              		.loc 1 437 7 view .LVU202
 437:../../Drivers/STM32H7xx_HAL_Driver/Src/stm32h7xx_hal_rcc.c **** 
 616              		.loc 1 437 7 is_stmt 0 discriminator 6 view .LVU203
 617 00e8 1A68     		ldr	r2, [r3]
 618 00ea 22F48022 		bic	r2, r2, #262144
 619 00ee 1A60     		str	r2, [r3]
 620 00f0 E1E7     		b	.L41
 621              	.L149:
 437:../../Drivers/STM32H7xx_HAL_Driver/Src/stm32h7xx_hal_rcc.c **** 
 622              		.loc 1 437 7 is_stmt 1 discriminator 5 view .LVU204
 623 00f2 5C4B     		ldr	r3, .L166
 624 00f4 1A68     		ldr	r2, [r3]
 625 00f6 42F48022 		orr	r2, r2, #262144
 626 00fa 1A60     		str	r2, [r3]
 437:../../Drivers/STM32H7xx_HAL_Driver/Src/stm32h7xx_hal_rcc.c **** 
 627              		.loc 1 437 7 view .LVU205
 437:../../Drivers/STM32H7xx_HAL_Driver/Src/stm32h7xx_hal_rcc.c **** 
 628              		.loc 1 437 7 is_stmt 0 discriminator 5 view .LVU206
 629 00fc 1A68     		ldr	r2, [r3]
 630 00fe 42F48032 		orr	r2, r2, #65536
 631 0102 1A60     		str	r2, [r3]
 632 0104 D7E7     		b	.L41
 633              	.L44:
 457:../../Drivers/STM32H7xx_HAL_Driver/Src/stm32h7xx_hal_rcc.c **** 
 634              		.loc 1 457 9 is_stmt 1 view .LVU207
 457:../../Drivers/STM32H7xx_HAL_Driver/Src/stm32h7xx_hal_rcc.c **** 
 635              		.loc 1 457 21 is_stmt 0 view .LVU208
 636 0106 FFF7FEFF 		bl	HAL_GetTick
 637              	.LVL50:
 457:../../Drivers/STM32H7xx_HAL_Driver/Src/stm32h7xx_hal_rcc.c **** 
ARM GAS  C:\Users\minis\AppData\Local\Temp\cczlSevg.s 			page 22


 638              		.loc 1 457 21 view .LVU209
 639 010a 0546     		mov	r5, r0
 640              	.LVL51:
 460:../../Drivers/STM32H7xx_HAL_Driver/Src/stm32h7xx_hal_rcc.c ****         {
 641              		.loc 1 460 9 is_stmt 1 view .LVU210
 642              	.L47:
 460:../../Drivers/STM32H7xx_HAL_Driver/Src/stm32h7xx_hal_rcc.c ****         {
 643              		.loc 1 460 52 view .LVU211
 460:../../Drivers/STM32H7xx_HAL_Driver/Src/stm32h7xx_hal_rcc.c ****         {
 644              		.loc 1 460 16 is_stmt 0 view .LVU212
 645 010c 554B     		ldr	r3, .L166
 646 010e 1B68     		ldr	r3, [r3]
 460:../../Drivers/STM32H7xx_HAL_Driver/Src/stm32h7xx_hal_rcc.c ****         {
 647              		.loc 1 460 52 view .LVU213
 648 0110 13F4003F 		tst	r3, #131072
 649 0114 A3D0     		beq	.L37
 462:../../Drivers/STM32H7xx_HAL_Driver/Src/stm32h7xx_hal_rcc.c ****           {
 650              		.loc 1 462 11 is_stmt 1 view .LVU214
 462:../../Drivers/STM32H7xx_HAL_Driver/Src/stm32h7xx_hal_rcc.c ****           {
 651              		.loc 1 462 26 is_stmt 0 view .LVU215
 652 0116 FFF7FEFF 		bl	HAL_GetTick
 653              	.LVL52:
 462:../../Drivers/STM32H7xx_HAL_Driver/Src/stm32h7xx_hal_rcc.c ****           {
 654              		.loc 1 462 40 discriminator 1 view .LVU216
 655 011a 401B     		subs	r0, r0, r5
 462:../../Drivers/STM32H7xx_HAL_Driver/Src/stm32h7xx_hal_rcc.c ****           {
 656              		.loc 1 462 14 discriminator 1 view .LVU217
 657 011c 6428     		cmp	r0, #100
 658 011e F5D9     		bls	.L47
 464:../../Drivers/STM32H7xx_HAL_Driver/Src/stm32h7xx_hal_rcc.c ****           }
 659              		.loc 1 464 20 view .LVU218
 660 0120 0320     		movs	r0, #3
 661 0122 B2E2     		b	.L36
 662              	.LVL53:
 663              	.L147:
 464:../../Drivers/STM32H7xx_HAL_Driver/Src/stm32h7xx_hal_rcc.c ****           }
 664              		.loc 1 464 20 view .LVU219
 665              	.LBE4:
 666              	.LBB5:
 480:../../Drivers/STM32H7xx_HAL_Driver/Src/stm32h7xx_hal_rcc.c ****     {
 667              		.loc 1 480 88 discriminator 2 view .LVU220
 668 0124 12F0030F 		tst	r2, #3
 669 0128 A6D1     		bne	.L51
 670              	.L50:
 483:../../Drivers/STM32H7xx_HAL_Driver/Src/stm32h7xx_hal_rcc.c ****       {
 671              		.loc 1 483 7 is_stmt 1 view .LVU221
 483:../../Drivers/STM32H7xx_HAL_Driver/Src/stm32h7xx_hal_rcc.c ****       {
 672              		.loc 1 483 12 is_stmt 0 view .LVU222
 673 012a 4E4B     		ldr	r3, .L166
 674              	.LVL54:
 483:../../Drivers/STM32H7xx_HAL_Driver/Src/stm32h7xx_hal_rcc.c ****       {
 675              		.loc 1 483 12 view .LVU223
 676 012c 1B68     		ldr	r3, [r3]
 483:../../Drivers/STM32H7xx_HAL_Driver/Src/stm32h7xx_hal_rcc.c ****       {
 677              		.loc 1 483 10 view .LVU224
 678 012e 13F0040F 		tst	r3, #4
 679 0132 03D0     		beq	.L52
ARM GAS  C:\Users\minis\AppData\Local\Temp\cczlSevg.s 			page 23


 483:../../Drivers/STM32H7xx_HAL_Driver/Src/stm32h7xx_hal_rcc.c ****       {
 680              		.loc 1 483 76 discriminator 1 view .LVU225
 681 0134 E368     		ldr	r3, [r4, #12]
 483:../../Drivers/STM32H7xx_HAL_Driver/Src/stm32h7xx_hal_rcc.c ****       {
 682              		.loc 1 483 55 discriminator 1 view .LVU226
 683 0136 002B     		cmp	r3, #0
 684 0138 00F0A282 		beq	.L114
 685              	.L52:
 491:../../Drivers/STM32H7xx_HAL_Driver/Src/stm32h7xx_hal_rcc.c **** 
 686              		.loc 1 491 9 is_stmt 1 view .LVU227
 687 013c 494A     		ldr	r2, .L166
 688              	.LVL55:
 491:../../Drivers/STM32H7xx_HAL_Driver/Src/stm32h7xx_hal_rcc.c **** 
 689              		.loc 1 491 9 is_stmt 0 view .LVU228
 690 013e 1368     		ldr	r3, [r2]
 691 0140 23F01903 		bic	r3, r3, #25
 692 0144 E168     		ldr	r1, [r4, #12]
 693 0146 0B43     		orrs	r3, r3, r1
 694 0148 1360     		str	r3, [r2]
 494:../../Drivers/STM32H7xx_HAL_Driver/Src/stm32h7xx_hal_rcc.c **** 
 695              		.loc 1 494 9 is_stmt 1 view .LVU229
 494:../../Drivers/STM32H7xx_HAL_Driver/Src/stm32h7xx_hal_rcc.c **** 
 696              		.loc 1 494 21 is_stmt 0 view .LVU230
 697 014a FFF7FEFF 		bl	HAL_GetTick
 698              	.LVL56:
 699 014e 0546     		mov	r5, r0
 700              	.LVL57:
 497:../../Drivers/STM32H7xx_HAL_Driver/Src/stm32h7xx_hal_rcc.c ****         {
 701              		.loc 1 497 9 is_stmt 1 view .LVU231
 702              	.L53:
 497:../../Drivers/STM32H7xx_HAL_Driver/Src/stm32h7xx_hal_rcc.c ****         {
 703              		.loc 1 497 52 view .LVU232
 497:../../Drivers/STM32H7xx_HAL_Driver/Src/stm32h7xx_hal_rcc.c ****         {
 704              		.loc 1 497 16 is_stmt 0 view .LVU233
 705 0150 444B     		ldr	r3, .L166
 706 0152 1B68     		ldr	r3, [r3]
 497:../../Drivers/STM32H7xx_HAL_Driver/Src/stm32h7xx_hal_rcc.c ****         {
 707              		.loc 1 497 52 view .LVU234
 708 0154 13F0040F 		tst	r3, #4
 709 0158 06D1     		bne	.L150
 499:../../Drivers/STM32H7xx_HAL_Driver/Src/stm32h7xx_hal_rcc.c ****           {
 710              		.loc 1 499 11 is_stmt 1 view .LVU235
 499:../../Drivers/STM32H7xx_HAL_Driver/Src/stm32h7xx_hal_rcc.c ****           {
 711              		.loc 1 499 26 is_stmt 0 view .LVU236
 712 015a FFF7FEFF 		bl	HAL_GetTick
 713              	.LVL58:
 499:../../Drivers/STM32H7xx_HAL_Driver/Src/stm32h7xx_hal_rcc.c ****           {
 714              		.loc 1 499 40 discriminator 1 view .LVU237
 715 015e 401B     		subs	r0, r0, r5
 499:../../Drivers/STM32H7xx_HAL_Driver/Src/stm32h7xx_hal_rcc.c ****           {
 716              		.loc 1 499 14 discriminator 1 view .LVU238
 717 0160 0228     		cmp	r0, #2
 718 0162 F5D9     		bls	.L53
 501:../../Drivers/STM32H7xx_HAL_Driver/Src/stm32h7xx_hal_rcc.c ****           }
 719              		.loc 1 501 20 view .LVU239
 720 0164 0320     		movs	r0, #3
 721 0166 90E2     		b	.L36
ARM GAS  C:\Users\minis\AppData\Local\Temp\cczlSevg.s 			page 24


 722              	.L150:
 505:../../Drivers/STM32H7xx_HAL_Driver/Src/stm32h7xx_hal_rcc.c ****       }
 723              		.loc 1 505 9 is_stmt 1 view .LVU240
 505:../../Drivers/STM32H7xx_HAL_Driver/Src/stm32h7xx_hal_rcc.c ****       }
 724              		.loc 1 505 9 view .LVU241
 725 0168 FFF7FEFF 		bl	HAL_GetREVID
 726              	.LVL59:
 505:../../Drivers/STM32H7xx_HAL_Driver/Src/stm32h7xx_hal_rcc.c ****       }
 727              		.loc 1 505 9 is_stmt 0 discriminator 1 view .LVU242
 728 016c 41F20303 		movw	r3, #4099
 729 0170 9842     		cmp	r0, r3
 730 0172 12D8     		bhi	.L55
 505:../../Drivers/STM32H7xx_HAL_Driver/Src/stm32h7xx_hal_rcc.c ****       }
 731              		.loc 1 505 9 is_stmt 1 discriminator 1 view .LVU243
 732 0174 2269     		ldr	r2, [r4, #16]
 733 0176 402A     		cmp	r2, #64
 734 0178 07D0     		beq	.L151
 505:../../Drivers/STM32H7xx_HAL_Driver/Src/stm32h7xx_hal_rcc.c ****       }
 735              		.loc 1 505 9 discriminator 4 view .LVU244
 736 017a 3A49     		ldr	r1, .L166
 737 017c 4B68     		ldr	r3, [r1, #4]
 738 017e 23F47C33 		bic	r3, r3, #258048
 739 0182 43EA0233 		orr	r3, r3, r2, lsl #12
 740 0186 4B60     		str	r3, [r1, #4]
 741 0188 0FE0     		b	.L49
 742              	.L151:
 505:../../Drivers/STM32H7xx_HAL_Driver/Src/stm32h7xx_hal_rcc.c ****       }
 743              		.loc 1 505 9 discriminator 3 view .LVU245
 744 018a 364A     		ldr	r2, .L166
 745 018c 5368     		ldr	r3, [r2, #4]
 746 018e 23F47C33 		bic	r3, r3, #258048
 747 0192 43F40033 		orr	r3, r3, #131072
 748 0196 5360     		str	r3, [r2, #4]
 749 0198 07E0     		b	.L49
 750              	.L55:
 505:../../Drivers/STM32H7xx_HAL_Driver/Src/stm32h7xx_hal_rcc.c ****       }
 751              		.loc 1 505 9 discriminator 2 view .LVU246
 752 019a 324A     		ldr	r2, .L166
 753 019c 5368     		ldr	r3, [r2, #4]
 754 019e 23F0FE43 		bic	r3, r3, #2130706432
 755 01a2 2169     		ldr	r1, [r4, #16]
 756 01a4 43EA0163 		orr	r3, r3, r1, lsl #24
 757 01a8 5360     		str	r3, [r2, #4]
 758              	.LVL60:
 759              	.L49:
 505:../../Drivers/STM32H7xx_HAL_Driver/Src/stm32h7xx_hal_rcc.c ****       }
 760              		.loc 1 505 9 is_stmt 0 discriminator 2 view .LVU247
 761              	.LBE5:
 526:../../Drivers/STM32H7xx_HAL_Driver/Src/stm32h7xx_hal_rcc.c ****           }
 527:../../Drivers/STM32H7xx_HAL_Driver/Src/stm32h7xx_hal_rcc.c ****         }
 528:../../Drivers/STM32H7xx_HAL_Driver/Src/stm32h7xx_hal_rcc.c **** 
 529:../../Drivers/STM32H7xx_HAL_Driver/Src/stm32h7xx_hal_rcc.c ****         /* Adjusts the Internal High Speed oscillator (HSI) calibration value.*/
 530:../../Drivers/STM32H7xx_HAL_Driver/Src/stm32h7xx_hal_rcc.c ****         __HAL_RCC_HSI_CALIBRATIONVALUE_ADJUST(RCC_OscInitStruct->HSICalibrationValue);
 531:../../Drivers/STM32H7xx_HAL_Driver/Src/stm32h7xx_hal_rcc.c ****       }
 532:../../Drivers/STM32H7xx_HAL_Driver/Src/stm32h7xx_hal_rcc.c ****       else
 533:../../Drivers/STM32H7xx_HAL_Driver/Src/stm32h7xx_hal_rcc.c ****       {
 534:../../Drivers/STM32H7xx_HAL_Driver/Src/stm32h7xx_hal_rcc.c ****         /* Disable the Internal High Speed oscillator (HSI). */
ARM GAS  C:\Users\minis\AppData\Local\Temp\cczlSevg.s 			page 25


 535:../../Drivers/STM32H7xx_HAL_Driver/Src/stm32h7xx_hal_rcc.c ****         __HAL_RCC_HSI_DISABLE();
 536:../../Drivers/STM32H7xx_HAL_Driver/Src/stm32h7xx_hal_rcc.c **** 
 537:../../Drivers/STM32H7xx_HAL_Driver/Src/stm32h7xx_hal_rcc.c ****         /* Get Start Tick*/
 538:../../Drivers/STM32H7xx_HAL_Driver/Src/stm32h7xx_hal_rcc.c ****         tickstart = HAL_GetTick();
 539:../../Drivers/STM32H7xx_HAL_Driver/Src/stm32h7xx_hal_rcc.c **** 
 540:../../Drivers/STM32H7xx_HAL_Driver/Src/stm32h7xx_hal_rcc.c ****         /* Wait till HSI is disabled */
 541:../../Drivers/STM32H7xx_HAL_Driver/Src/stm32h7xx_hal_rcc.c ****         while (__HAL_RCC_GET_FLAG(RCC_FLAG_HSIRDY) != 0U)
 542:../../Drivers/STM32H7xx_HAL_Driver/Src/stm32h7xx_hal_rcc.c ****         {
 543:../../Drivers/STM32H7xx_HAL_Driver/Src/stm32h7xx_hal_rcc.c ****           if ((HAL_GetTick() - tickstart) > HSI_TIMEOUT_VALUE)
 544:../../Drivers/STM32H7xx_HAL_Driver/Src/stm32h7xx_hal_rcc.c ****           {
 545:../../Drivers/STM32H7xx_HAL_Driver/Src/stm32h7xx_hal_rcc.c ****             return HAL_TIMEOUT;
 546:../../Drivers/STM32H7xx_HAL_Driver/Src/stm32h7xx_hal_rcc.c ****           }
 547:../../Drivers/STM32H7xx_HAL_Driver/Src/stm32h7xx_hal_rcc.c ****         }
 548:../../Drivers/STM32H7xx_HAL_Driver/Src/stm32h7xx_hal_rcc.c ****       }
 549:../../Drivers/STM32H7xx_HAL_Driver/Src/stm32h7xx_hal_rcc.c ****     }
 550:../../Drivers/STM32H7xx_HAL_Driver/Src/stm32h7xx_hal_rcc.c ****   }
 551:../../Drivers/STM32H7xx_HAL_Driver/Src/stm32h7xx_hal_rcc.c ****   /*----------------------------- CSI Configuration --------------------------*/
 552:../../Drivers/STM32H7xx_HAL_Driver/Src/stm32h7xx_hal_rcc.c ****   if (((RCC_OscInitStruct->OscillatorType) & RCC_OSCILLATORTYPE_CSI) == RCC_OSCILLATORTYPE_CSI)
 762              		.loc 1 552 3 is_stmt 1 view .LVU248
 763              		.loc 1 552 26 is_stmt 0 view .LVU249
 764 01aa 2368     		ldr	r3, [r4]
 765              		.loc 1 552 6 view .LVU250
 766 01ac 13F0100F 		tst	r3, #16
 767 01b0 00F08880 		beq	.L64
 768              	.LBB6:
 553:../../Drivers/STM32H7xx_HAL_Driver/Src/stm32h7xx_hal_rcc.c ****   {
 554:../../Drivers/STM32H7xx_HAL_Driver/Src/stm32h7xx_hal_rcc.c ****     /* Check the parameters */
 555:../../Drivers/STM32H7xx_HAL_Driver/Src/stm32h7xx_hal_rcc.c ****     assert_param(IS_RCC_CSI(RCC_OscInitStruct->CSIState));
 769              		.loc 1 555 5 is_stmt 1 view .LVU251
 556:../../Drivers/STM32H7xx_HAL_Driver/Src/stm32h7xx_hal_rcc.c ****     assert_param(IS_RCC_CSICALIBRATION_VALUE(RCC_OscInitStruct->CSICalibrationValue));
 770              		.loc 1 556 5 view .LVU252
 557:../../Drivers/STM32H7xx_HAL_Driver/Src/stm32h7xx_hal_rcc.c **** 
 558:../../Drivers/STM32H7xx_HAL_Driver/Src/stm32h7xx_hal_rcc.c ****     /* When the CSI is used as system clock it will not disabled */
 559:../../Drivers/STM32H7xx_HAL_Driver/Src/stm32h7xx_hal_rcc.c ****     const uint32_t temp_sysclksrc = __HAL_RCC_GET_SYSCLK_SOURCE();
 771              		.loc 1 559 5 view .LVU253
 772              		.loc 1 559 37 is_stmt 0 view .LVU254
 773 01b4 2B4A     		ldr	r2, .L166
 774 01b6 1369     		ldr	r3, [r2, #16]
 775              		.loc 1 559 20 view .LVU255
 776 01b8 03F03803 		and	r3, r3, #56
 777              	.LVL61:
 560:../../Drivers/STM32H7xx_HAL_Driver/Src/stm32h7xx_hal_rcc.c ****     const uint32_t temp_pllckselr = RCC->PLLCKSELR;
 778              		.loc 1 560 5 is_stmt 1 view .LVU256
 779              		.loc 1 560 20 is_stmt 0 view .LVU257
 780 01bc 926A     		ldr	r2, [r2, #40]
 781              	.LVL62:
 561:../../Drivers/STM32H7xx_HAL_Driver/Src/stm32h7xx_hal_rcc.c ****     if ((temp_sysclksrc == RCC_CFGR_SWS_CSI) || ((temp_sysclksrc == RCC_CFGR_SWS_PLL1) && ((temp_pl
 782              		.loc 1 561 5 is_stmt 1 view .LVU258
 783              		.loc 1 561 8 is_stmt 0 view .LVU259
 784 01be 082B     		cmp	r3, #8
 785 01c0 56D0     		beq	.L65
 786              		.loc 1 561 46 discriminator 1 view .LVU260
 787 01c2 182B     		cmp	r3, #24
 788 01c4 50D0     		beq	.L152
 789              	.LVL63:
 790              	.L66:
 562:../../Drivers/STM32H7xx_HAL_Driver/Src/stm32h7xx_hal_rcc.c ****     {
ARM GAS  C:\Users\minis\AppData\Local\Temp\cczlSevg.s 			page 26


 563:../../Drivers/STM32H7xx_HAL_Driver/Src/stm32h7xx_hal_rcc.c ****       /* When CSI is used as system clock it will not disabled */
 564:../../Drivers/STM32H7xx_HAL_Driver/Src/stm32h7xx_hal_rcc.c ****       if ((__HAL_RCC_GET_FLAG(RCC_FLAG_CSIRDY) != 0U) && (RCC_OscInitStruct->CSIState != RCC_CSI_ON
 565:../../Drivers/STM32H7xx_HAL_Driver/Src/stm32h7xx_hal_rcc.c ****       {
 566:../../Drivers/STM32H7xx_HAL_Driver/Src/stm32h7xx_hal_rcc.c ****         return HAL_ERROR;
 567:../../Drivers/STM32H7xx_HAL_Driver/Src/stm32h7xx_hal_rcc.c ****       }
 568:../../Drivers/STM32H7xx_HAL_Driver/Src/stm32h7xx_hal_rcc.c ****       /* Otherwise, just the calibration is allowed */
 569:../../Drivers/STM32H7xx_HAL_Driver/Src/stm32h7xx_hal_rcc.c ****       else
 570:../../Drivers/STM32H7xx_HAL_Driver/Src/stm32h7xx_hal_rcc.c ****       {
 571:../../Drivers/STM32H7xx_HAL_Driver/Src/stm32h7xx_hal_rcc.c ****         /* Adjusts the Internal High Speed oscillator (CSI) calibration value.*/
 572:../../Drivers/STM32H7xx_HAL_Driver/Src/stm32h7xx_hal_rcc.c ****         __HAL_RCC_CSI_CALIBRATIONVALUE_ADJUST(RCC_OscInitStruct->CSICalibrationValue);
 573:../../Drivers/STM32H7xx_HAL_Driver/Src/stm32h7xx_hal_rcc.c ****       }
 574:../../Drivers/STM32H7xx_HAL_Driver/Src/stm32h7xx_hal_rcc.c ****     }
 575:../../Drivers/STM32H7xx_HAL_Driver/Src/stm32h7xx_hal_rcc.c ****     else
 576:../../Drivers/STM32H7xx_HAL_Driver/Src/stm32h7xx_hal_rcc.c ****     {
 577:../../Drivers/STM32H7xx_HAL_Driver/Src/stm32h7xx_hal_rcc.c ****       /* Check the CSI State */
 578:../../Drivers/STM32H7xx_HAL_Driver/Src/stm32h7xx_hal_rcc.c ****       if ((RCC_OscInitStruct->CSIState) != RCC_CSI_OFF)
 791              		.loc 1 578 7 is_stmt 1 view .LVU261
 792              		.loc 1 578 29 is_stmt 0 view .LVU262
 793 01c6 E369     		ldr	r3, [r4, #28]
 794              	.LVL64:
 795              		.loc 1 578 10 view .LVU263
 796 01c8 002B     		cmp	r3, #0
 797 01ca 00F0B880 		beq	.L70
 579:../../Drivers/STM32H7xx_HAL_Driver/Src/stm32h7xx_hal_rcc.c ****       {
 580:../../Drivers/STM32H7xx_HAL_Driver/Src/stm32h7xx_hal_rcc.c ****         /* Enable the Internal High Speed oscillator (CSI). */
 581:../../Drivers/STM32H7xx_HAL_Driver/Src/stm32h7xx_hal_rcc.c ****         __HAL_RCC_CSI_ENABLE();
 798              		.loc 1 581 9 is_stmt 1 view .LVU264
 799 01ce 254A     		ldr	r2, .L166
 800 01d0 1368     		ldr	r3, [r2]
 801 01d2 43F08003 		orr	r3, r3, #128
 802 01d6 1360     		str	r3, [r2]
 582:../../Drivers/STM32H7xx_HAL_Driver/Src/stm32h7xx_hal_rcc.c **** 
 583:../../Drivers/STM32H7xx_HAL_Driver/Src/stm32h7xx_hal_rcc.c ****         /* Get Start Tick*/
 584:../../Drivers/STM32H7xx_HAL_Driver/Src/stm32h7xx_hal_rcc.c ****         tickstart = HAL_GetTick();
 803              		.loc 1 584 9 view .LVU265
 804              		.loc 1 584 21 is_stmt 0 view .LVU266
 805 01d8 FFF7FEFF 		bl	HAL_GetTick
 806              	.LVL65:
 807 01dc 0546     		mov	r5, r0
 808              	.LVL66:
 585:../../Drivers/STM32H7xx_HAL_Driver/Src/stm32h7xx_hal_rcc.c **** 
 586:../../Drivers/STM32H7xx_HAL_Driver/Src/stm32h7xx_hal_rcc.c ****         /* Wait till CSI is ready */
 587:../../Drivers/STM32H7xx_HAL_Driver/Src/stm32h7xx_hal_rcc.c ****         while (__HAL_RCC_GET_FLAG(RCC_FLAG_CSIRDY) == 0U)
 809              		.loc 1 587 9 is_stmt 1 view .LVU267
 810              	.L71:
 811              		.loc 1 587 52 view .LVU268
 812              		.loc 1 587 16 is_stmt 0 view .LVU269
 813 01de 214B     		ldr	r3, .L166
 814 01e0 1B68     		ldr	r3, [r3]
 815              		.loc 1 587 52 view .LVU270
 816 01e2 13F4807F 		tst	r3, #256
 817 01e6 40F08880 		bne	.L153
 588:../../Drivers/STM32H7xx_HAL_Driver/Src/stm32h7xx_hal_rcc.c ****         {
 589:../../Drivers/STM32H7xx_HAL_Driver/Src/stm32h7xx_hal_rcc.c ****           if ((HAL_GetTick() - tickstart) > CSI_TIMEOUT_VALUE)
 818              		.loc 1 589 11 is_stmt 1 view .LVU271
 819              		.loc 1 589 16 is_stmt 0 view .LVU272
 820 01ea FFF7FEFF 		bl	HAL_GetTick
ARM GAS  C:\Users\minis\AppData\Local\Temp\cczlSevg.s 			page 27


 821              	.LVL67:
 822              		.loc 1 589 30 discriminator 1 view .LVU273
 823 01ee 401B     		subs	r0, r0, r5
 824              		.loc 1 589 14 discriminator 1 view .LVU274
 825 01f0 0228     		cmp	r0, #2
 826 01f2 F4D9     		bls	.L71
 590:../../Drivers/STM32H7xx_HAL_Driver/Src/stm32h7xx_hal_rcc.c ****           {
 591:../../Drivers/STM32H7xx_HAL_Driver/Src/stm32h7xx_hal_rcc.c ****             return HAL_TIMEOUT;
 827              		.loc 1 591 20 view .LVU275
 828 01f4 0320     		movs	r0, #3
 829 01f6 48E2     		b	.L36
 830              	.LVL68:
 831              	.L148:
 832              		.loc 1 591 20 view .LVU276
 833              	.LBE6:
 834              	.LBB7:
 530:../../Drivers/STM32H7xx_HAL_Driver/Src/stm32h7xx_hal_rcc.c ****       }
 835              		.loc 1 530 9 is_stmt 1 view .LVU277
 530:../../Drivers/STM32H7xx_HAL_Driver/Src/stm32h7xx_hal_rcc.c ****       }
 836              		.loc 1 530 9 view .LVU278
 837 01f8 FFF7FEFF 		bl	HAL_GetREVID
 838              	.LVL69:
 530:../../Drivers/STM32H7xx_HAL_Driver/Src/stm32h7xx_hal_rcc.c ****       }
 839              		.loc 1 530 9 is_stmt 0 discriminator 1 view .LVU279
 840 01fc 41F20303 		movw	r3, #4099
 841 0200 9842     		cmp	r0, r3
 842 0202 12D8     		bhi	.L60
 530:../../Drivers/STM32H7xx_HAL_Driver/Src/stm32h7xx_hal_rcc.c ****       }
 843              		.loc 1 530 9 is_stmt 1 discriminator 1 view .LVU280
 844 0204 2269     		ldr	r2, [r4, #16]
 845 0206 402A     		cmp	r2, #64
 846 0208 07D0     		beq	.L154
 530:../../Drivers/STM32H7xx_HAL_Driver/Src/stm32h7xx_hal_rcc.c ****       }
 847              		.loc 1 530 9 discriminator 4 view .LVU281
 848 020a 1649     		ldr	r1, .L166
 849 020c 4B68     		ldr	r3, [r1, #4]
 850 020e 23F47C33 		bic	r3, r3, #258048
 851 0212 43EA0233 		orr	r3, r3, r2, lsl #12
 852 0216 4B60     		str	r3, [r1, #4]
 853 0218 C7E7     		b	.L49
 854              	.L154:
 530:../../Drivers/STM32H7xx_HAL_Driver/Src/stm32h7xx_hal_rcc.c ****       }
 855              		.loc 1 530 9 discriminator 3 view .LVU282
 856 021a 124A     		ldr	r2, .L166
 857 021c 5368     		ldr	r3, [r2, #4]
 858 021e 23F47C33 		bic	r3, r3, #258048
 859 0222 43F40033 		orr	r3, r3, #131072
 860 0226 5360     		str	r3, [r2, #4]
 861 0228 BFE7     		b	.L49
 862              	.L60:
 530:../../Drivers/STM32H7xx_HAL_Driver/Src/stm32h7xx_hal_rcc.c ****       }
 863              		.loc 1 530 9 discriminator 2 view .LVU283
 864 022a 0E4A     		ldr	r2, .L166
 865 022c 5368     		ldr	r3, [r2, #4]
 866 022e 23F0FE43 		bic	r3, r3, #2130706432
 867 0232 2169     		ldr	r1, [r4, #16]
 868 0234 43EA0163 		orr	r3, r3, r1, lsl #24
ARM GAS  C:\Users\minis\AppData\Local\Temp\cczlSevg.s 			page 28


 869 0238 5360     		str	r3, [r2, #4]
 870 023a B6E7     		b	.L49
 871              	.LVL70:
 872              	.L57:
 535:../../Drivers/STM32H7xx_HAL_Driver/Src/stm32h7xx_hal_rcc.c **** 
 873              		.loc 1 535 9 view .LVU284
 874 023c 094A     		ldr	r2, .L166
 875              	.LVL71:
 535:../../Drivers/STM32H7xx_HAL_Driver/Src/stm32h7xx_hal_rcc.c **** 
 876              		.loc 1 535 9 is_stmt 0 view .LVU285
 877 023e 1368     		ldr	r3, [r2]
 878 0240 23F00103 		bic	r3, r3, #1
 879 0244 1360     		str	r3, [r2]
 538:../../Drivers/STM32H7xx_HAL_Driver/Src/stm32h7xx_hal_rcc.c **** 
 880              		.loc 1 538 9 is_stmt 1 view .LVU286
 538:../../Drivers/STM32H7xx_HAL_Driver/Src/stm32h7xx_hal_rcc.c **** 
 881              		.loc 1 538 21 is_stmt 0 view .LVU287
 882 0246 FFF7FEFF 		bl	HAL_GetTick
 883              	.LVL72:
 884 024a 0546     		mov	r5, r0
 885              	.LVL73:
 541:../../Drivers/STM32H7xx_HAL_Driver/Src/stm32h7xx_hal_rcc.c ****         {
 886              		.loc 1 541 9 is_stmt 1 view .LVU288
 887              	.L62:
 541:../../Drivers/STM32H7xx_HAL_Driver/Src/stm32h7xx_hal_rcc.c ****         {
 888              		.loc 1 541 52 view .LVU289
 541:../../Drivers/STM32H7xx_HAL_Driver/Src/stm32h7xx_hal_rcc.c ****         {
 889              		.loc 1 541 16 is_stmt 0 view .LVU290
 890 024c 054B     		ldr	r3, .L166
 891 024e 1B68     		ldr	r3, [r3]
 541:../../Drivers/STM32H7xx_HAL_Driver/Src/stm32h7xx_hal_rcc.c ****         {
 892              		.loc 1 541 52 view .LVU291
 893 0250 13F0040F 		tst	r3, #4
 894 0254 A9D0     		beq	.L49
 543:../../Drivers/STM32H7xx_HAL_Driver/Src/stm32h7xx_hal_rcc.c ****           {
 895              		.loc 1 543 11 is_stmt 1 view .LVU292
 543:../../Drivers/STM32H7xx_HAL_Driver/Src/stm32h7xx_hal_rcc.c ****           {
 896              		.loc 1 543 16 is_stmt 0 view .LVU293
 897 0256 FFF7FEFF 		bl	HAL_GetTick
 898              	.LVL74:
 543:../../Drivers/STM32H7xx_HAL_Driver/Src/stm32h7xx_hal_rcc.c ****           {
 899              		.loc 1 543 30 discriminator 1 view .LVU294
 900 025a 401B     		subs	r0, r0, r5
 543:../../Drivers/STM32H7xx_HAL_Driver/Src/stm32h7xx_hal_rcc.c ****           {
 901              		.loc 1 543 14 discriminator 1 view .LVU295
 902 025c 0228     		cmp	r0, #2
 903 025e F5D9     		bls	.L62
 545:../../Drivers/STM32H7xx_HAL_Driver/Src/stm32h7xx_hal_rcc.c ****           }
 904              		.loc 1 545 20 view .LVU296
 905 0260 0320     		movs	r0, #3
 906 0262 12E2     		b	.L36
 907              	.L167:
 908              		.align	2
 909              	.L166:
 910 0264 00440258 		.word	1476543488
 911              	.LVL75:
 912              	.L152:
ARM GAS  C:\Users\minis\AppData\Local\Temp\cczlSevg.s 			page 29


 545:../../Drivers/STM32H7xx_HAL_Driver/Src/stm32h7xx_hal_rcc.c ****           }
 913              		.loc 1 545 20 view .LVU297
 914              	.LBE7:
 915              	.LBB8:
 561:../../Drivers/STM32H7xx_HAL_Driver/Src/stm32h7xx_hal_rcc.c ****     {
 916              		.loc 1 561 108 discriminator 2 view .LVU298
 917 0268 02F00302 		and	r2, r2, #3
 918              	.LVL76:
 561:../../Drivers/STM32H7xx_HAL_Driver/Src/stm32h7xx_hal_rcc.c ****     {
 919              		.loc 1 561 88 discriminator 2 view .LVU299
 920 026c 012A     		cmp	r2, #1
 921 026e AAD1     		bne	.L66
 922              	.L65:
 564:../../Drivers/STM32H7xx_HAL_Driver/Src/stm32h7xx_hal_rcc.c ****       {
 923              		.loc 1 564 7 is_stmt 1 view .LVU300
 564:../../Drivers/STM32H7xx_HAL_Driver/Src/stm32h7xx_hal_rcc.c ****       {
 924              		.loc 1 564 12 is_stmt 0 view .LVU301
 925 0270 A14B     		ldr	r3, .L168
 926              	.LVL77:
 564:../../Drivers/STM32H7xx_HAL_Driver/Src/stm32h7xx_hal_rcc.c ****       {
 927              		.loc 1 564 12 view .LVU302
 928 0272 1B68     		ldr	r3, [r3]
 564:../../Drivers/STM32H7xx_HAL_Driver/Src/stm32h7xx_hal_rcc.c ****       {
 929              		.loc 1 564 10 view .LVU303
 930 0274 13F4807F 		tst	r3, #256
 931 0278 03D0     		beq	.L67
 564:../../Drivers/STM32H7xx_HAL_Driver/Src/stm32h7xx_hal_rcc.c ****       {
 932              		.loc 1 564 76 discriminator 1 view .LVU304
 933 027a E369     		ldr	r3, [r4, #28]
 564:../../Drivers/STM32H7xx_HAL_Driver/Src/stm32h7xx_hal_rcc.c ****       {
 934              		.loc 1 564 55 discriminator 1 view .LVU305
 935 027c 802B     		cmp	r3, #128
 936 027e 40F00182 		bne	.L118
 937              	.L67:
 572:../../Drivers/STM32H7xx_HAL_Driver/Src/stm32h7xx_hal_rcc.c ****       }
 938              		.loc 1 572 9 is_stmt 1 view .LVU306
 572:../../Drivers/STM32H7xx_HAL_Driver/Src/stm32h7xx_hal_rcc.c ****       }
 939              		.loc 1 572 9 view .LVU307
 940 0282 FFF7FEFF 		bl	HAL_GetREVID
 941              	.LVL78:
 572:../../Drivers/STM32H7xx_HAL_Driver/Src/stm32h7xx_hal_rcc.c ****       }
 942              		.loc 1 572 9 is_stmt 0 discriminator 1 view .LVU308
 943 0286 41F20303 		movw	r3, #4099
 944 028a 9842     		cmp	r0, r3
 945 028c 12D8     		bhi	.L68
 572:../../Drivers/STM32H7xx_HAL_Driver/Src/stm32h7xx_hal_rcc.c ****       }
 946              		.loc 1 572 9 is_stmt 1 discriminator 1 view .LVU309
 947 028e 226A     		ldr	r2, [r4, #32]
 948 0290 202A     		cmp	r2, #32
 949 0292 07D0     		beq	.L155
 572:../../Drivers/STM32H7xx_HAL_Driver/Src/stm32h7xx_hal_rcc.c ****       }
 950              		.loc 1 572 9 discriminator 4 view .LVU310
 951 0294 9849     		ldr	r1, .L168
 952 0296 4B68     		ldr	r3, [r1, #4]
 953 0298 23F0F843 		bic	r3, r3, #2080374784
 954 029c 43EA8263 		orr	r3, r3, r2, lsl #26
 955 02a0 4B60     		str	r3, [r1, #4]
ARM GAS  C:\Users\minis\AppData\Local\Temp\cczlSevg.s 			page 30


 956 02a2 0FE0     		b	.L64
 957              	.L155:
 572:../../Drivers/STM32H7xx_HAL_Driver/Src/stm32h7xx_hal_rcc.c ****       }
 958              		.loc 1 572 9 discriminator 3 view .LVU311
 959 02a4 944A     		ldr	r2, .L168
 960 02a6 5368     		ldr	r3, [r2, #4]
 961 02a8 23F0F843 		bic	r3, r3, #2080374784
 962 02ac 43F08043 		orr	r3, r3, #1073741824
 963 02b0 5360     		str	r3, [r2, #4]
 964 02b2 07E0     		b	.L64
 965              	.L68:
 572:../../Drivers/STM32H7xx_HAL_Driver/Src/stm32h7xx_hal_rcc.c ****       }
 966              		.loc 1 572 9 discriminator 2 view .LVU312
 967 02b4 904A     		ldr	r2, .L168
 968 02b6 D368     		ldr	r3, [r2, #12]
 969 02b8 23F07C53 		bic	r3, r3, #1056964608
 970 02bc 216A     		ldr	r1, [r4, #32]
 971 02be 43EA0163 		orr	r3, r3, r1, lsl #24
 972 02c2 D360     		str	r3, [r2, #12]
 973              	.LVL79:
 974              	.L64:
 572:../../Drivers/STM32H7xx_HAL_Driver/Src/stm32h7xx_hal_rcc.c ****       }
 975              		.loc 1 572 9 is_stmt 0 discriminator 2 view .LVU313
 976              	.LBE8:
 592:../../Drivers/STM32H7xx_HAL_Driver/Src/stm32h7xx_hal_rcc.c ****           }
 593:../../Drivers/STM32H7xx_HAL_Driver/Src/stm32h7xx_hal_rcc.c ****         }
 594:../../Drivers/STM32H7xx_HAL_Driver/Src/stm32h7xx_hal_rcc.c **** 
 595:../../Drivers/STM32H7xx_HAL_Driver/Src/stm32h7xx_hal_rcc.c ****         /* Adjusts the Internal High Speed oscillator (CSI) calibration value.*/
 596:../../Drivers/STM32H7xx_HAL_Driver/Src/stm32h7xx_hal_rcc.c ****         __HAL_RCC_CSI_CALIBRATIONVALUE_ADJUST(RCC_OscInitStruct->CSICalibrationValue);
 597:../../Drivers/STM32H7xx_HAL_Driver/Src/stm32h7xx_hal_rcc.c ****       }
 598:../../Drivers/STM32H7xx_HAL_Driver/Src/stm32h7xx_hal_rcc.c ****       else
 599:../../Drivers/STM32H7xx_HAL_Driver/Src/stm32h7xx_hal_rcc.c ****       {
 600:../../Drivers/STM32H7xx_HAL_Driver/Src/stm32h7xx_hal_rcc.c ****         /* Disable the Internal High Speed oscillator (CSI). */
 601:../../Drivers/STM32H7xx_HAL_Driver/Src/stm32h7xx_hal_rcc.c ****         __HAL_RCC_CSI_DISABLE();
 602:../../Drivers/STM32H7xx_HAL_Driver/Src/stm32h7xx_hal_rcc.c **** 
 603:../../Drivers/STM32H7xx_HAL_Driver/Src/stm32h7xx_hal_rcc.c ****         /* Get Start Tick*/
 604:../../Drivers/STM32H7xx_HAL_Driver/Src/stm32h7xx_hal_rcc.c ****         tickstart = HAL_GetTick();
 605:../../Drivers/STM32H7xx_HAL_Driver/Src/stm32h7xx_hal_rcc.c **** 
 606:../../Drivers/STM32H7xx_HAL_Driver/Src/stm32h7xx_hal_rcc.c ****         /* Wait till CSI is disabled */
 607:../../Drivers/STM32H7xx_HAL_Driver/Src/stm32h7xx_hal_rcc.c ****         while (__HAL_RCC_GET_FLAG(RCC_FLAG_CSIRDY) != 0U)
 608:../../Drivers/STM32H7xx_HAL_Driver/Src/stm32h7xx_hal_rcc.c ****         {
 609:../../Drivers/STM32H7xx_HAL_Driver/Src/stm32h7xx_hal_rcc.c ****           if ((HAL_GetTick() - tickstart) > CSI_TIMEOUT_VALUE)
 610:../../Drivers/STM32H7xx_HAL_Driver/Src/stm32h7xx_hal_rcc.c ****           {
 611:../../Drivers/STM32H7xx_HAL_Driver/Src/stm32h7xx_hal_rcc.c ****             return HAL_TIMEOUT;
 612:../../Drivers/STM32H7xx_HAL_Driver/Src/stm32h7xx_hal_rcc.c ****           }
 613:../../Drivers/STM32H7xx_HAL_Driver/Src/stm32h7xx_hal_rcc.c ****         }
 614:../../Drivers/STM32H7xx_HAL_Driver/Src/stm32h7xx_hal_rcc.c ****       }
 615:../../Drivers/STM32H7xx_HAL_Driver/Src/stm32h7xx_hal_rcc.c ****     }
 616:../../Drivers/STM32H7xx_HAL_Driver/Src/stm32h7xx_hal_rcc.c ****   }
 617:../../Drivers/STM32H7xx_HAL_Driver/Src/stm32h7xx_hal_rcc.c ****   /*------------------------------ LSI Configuration -------------------------*/
 618:../../Drivers/STM32H7xx_HAL_Driver/Src/stm32h7xx_hal_rcc.c ****   if (((RCC_OscInitStruct->OscillatorType) & RCC_OSCILLATORTYPE_LSI) == RCC_OSCILLATORTYPE_LSI)
 977              		.loc 1 618 3 is_stmt 1 view .LVU314
 978              		.loc 1 618 26 is_stmt 0 view .LVU315
 979 02c4 2368     		ldr	r3, [r4]
 980              		.loc 1 618 6 view .LVU316
 981 02c6 13F0080F 		tst	r3, #8
 982 02ca 60D0     		beq	.L77
ARM GAS  C:\Users\minis\AppData\Local\Temp\cczlSevg.s 			page 31


 619:../../Drivers/STM32H7xx_HAL_Driver/Src/stm32h7xx_hal_rcc.c ****   {
 620:../../Drivers/STM32H7xx_HAL_Driver/Src/stm32h7xx_hal_rcc.c ****     /* Check the parameters */
 621:../../Drivers/STM32H7xx_HAL_Driver/Src/stm32h7xx_hal_rcc.c ****     assert_param(IS_RCC_LSI(RCC_OscInitStruct->LSIState));
 983              		.loc 1 621 5 is_stmt 1 view .LVU317
 622:../../Drivers/STM32H7xx_HAL_Driver/Src/stm32h7xx_hal_rcc.c **** 
 623:../../Drivers/STM32H7xx_HAL_Driver/Src/stm32h7xx_hal_rcc.c ****     /* Check the LSI State */
 624:../../Drivers/STM32H7xx_HAL_Driver/Src/stm32h7xx_hal_rcc.c ****     if ((RCC_OscInitStruct->LSIState) != RCC_LSI_OFF)
 984              		.loc 1 624 5 view .LVU318
 985              		.loc 1 624 27 is_stmt 0 view .LVU319
 986 02cc 6369     		ldr	r3, [r4, #20]
 987              		.loc 1 624 8 view .LVU320
 988 02ce 002B     		cmp	r3, #0
 989 02d0 49D0     		beq	.L78
 625:../../Drivers/STM32H7xx_HAL_Driver/Src/stm32h7xx_hal_rcc.c ****     {
 626:../../Drivers/STM32H7xx_HAL_Driver/Src/stm32h7xx_hal_rcc.c ****       /* Enable the Internal Low Speed oscillator (LSI). */
 627:../../Drivers/STM32H7xx_HAL_Driver/Src/stm32h7xx_hal_rcc.c ****       __HAL_RCC_LSI_ENABLE();
 990              		.loc 1 627 7 is_stmt 1 view .LVU321
 991 02d2 894A     		ldr	r2, .L168
 992 02d4 536F     		ldr	r3, [r2, #116]
 993 02d6 43F00103 		orr	r3, r3, #1
 994 02da 5367     		str	r3, [r2, #116]
 628:../../Drivers/STM32H7xx_HAL_Driver/Src/stm32h7xx_hal_rcc.c **** 
 629:../../Drivers/STM32H7xx_HAL_Driver/Src/stm32h7xx_hal_rcc.c ****       /* Get Start Tick*/
 630:../../Drivers/STM32H7xx_HAL_Driver/Src/stm32h7xx_hal_rcc.c ****       tickstart = HAL_GetTick();
 995              		.loc 1 630 7 view .LVU322
 996              		.loc 1 630 19 is_stmt 0 view .LVU323
 997 02dc FFF7FEFF 		bl	HAL_GetTick
 998              	.LVL80:
 999 02e0 0546     		mov	r5, r0
 1000              	.LVL81:
 631:../../Drivers/STM32H7xx_HAL_Driver/Src/stm32h7xx_hal_rcc.c **** 
 632:../../Drivers/STM32H7xx_HAL_Driver/Src/stm32h7xx_hal_rcc.c ****       /* Wait till LSI is ready */
 633:../../Drivers/STM32H7xx_HAL_Driver/Src/stm32h7xx_hal_rcc.c ****       while (__HAL_RCC_GET_FLAG(RCC_FLAG_LSIRDY) == 0U)
 1001              		.loc 1 633 7 is_stmt 1 view .LVU324
 1002              	.L79:
 1003              		.loc 1 633 50 view .LVU325
 1004              		.loc 1 633 14 is_stmt 0 view .LVU326
 1005 02e2 854B     		ldr	r3, .L168
 1006 02e4 5B6F     		ldr	r3, [r3, #116]
 1007              		.loc 1 633 50 view .LVU327
 1008 02e6 13F0020F 		tst	r3, #2
 1009 02ea 50D1     		bne	.L77
 634:../../Drivers/STM32H7xx_HAL_Driver/Src/stm32h7xx_hal_rcc.c ****       {
 635:../../Drivers/STM32H7xx_HAL_Driver/Src/stm32h7xx_hal_rcc.c ****         if ((HAL_GetTick() - tickstart) > LSI_TIMEOUT_VALUE)
 1010              		.loc 1 635 9 is_stmt 1 view .LVU328
 1011              		.loc 1 635 14 is_stmt 0 view .LVU329
 1012 02ec FFF7FEFF 		bl	HAL_GetTick
 1013              	.LVL82:
 1014              		.loc 1 635 28 discriminator 1 view .LVU330
 1015 02f0 401B     		subs	r0, r0, r5
 1016              		.loc 1 635 12 discriminator 1 view .LVU331
 1017 02f2 0228     		cmp	r0, #2
 1018 02f4 F5D9     		bls	.L79
 636:../../Drivers/STM32H7xx_HAL_Driver/Src/stm32h7xx_hal_rcc.c ****         {
 637:../../Drivers/STM32H7xx_HAL_Driver/Src/stm32h7xx_hal_rcc.c ****           return HAL_TIMEOUT;
 1019              		.loc 1 637 18 view .LVU332
 1020 02f6 0320     		movs	r0, #3
ARM GAS  C:\Users\minis\AppData\Local\Temp\cczlSevg.s 			page 32


 1021 02f8 C7E1     		b	.L36
 1022              	.LVL83:
 1023              	.L153:
 1024              	.LBB9:
 596:../../Drivers/STM32H7xx_HAL_Driver/Src/stm32h7xx_hal_rcc.c ****       }
 1025              		.loc 1 596 9 is_stmt 1 view .LVU333
 596:../../Drivers/STM32H7xx_HAL_Driver/Src/stm32h7xx_hal_rcc.c ****       }
 1026              		.loc 1 596 9 view .LVU334
 1027 02fa FFF7FEFF 		bl	HAL_GetREVID
 1028              	.LVL84:
 596:../../Drivers/STM32H7xx_HAL_Driver/Src/stm32h7xx_hal_rcc.c ****       }
 1029              		.loc 1 596 9 is_stmt 0 discriminator 1 view .LVU335
 1030 02fe 41F20303 		movw	r3, #4099
 1031 0302 9842     		cmp	r0, r3
 1032 0304 12D8     		bhi	.L73
 596:../../Drivers/STM32H7xx_HAL_Driver/Src/stm32h7xx_hal_rcc.c ****       }
 1033              		.loc 1 596 9 is_stmt 1 discriminator 1 view .LVU336
 1034 0306 226A     		ldr	r2, [r4, #32]
 1035 0308 202A     		cmp	r2, #32
 1036 030a 07D0     		beq	.L156
 596:../../Drivers/STM32H7xx_HAL_Driver/Src/stm32h7xx_hal_rcc.c ****       }
 1037              		.loc 1 596 9 discriminator 4 view .LVU337
 1038 030c 7A49     		ldr	r1, .L168
 1039 030e 4B68     		ldr	r3, [r1, #4]
 1040 0310 23F0F843 		bic	r3, r3, #2080374784
 1041 0314 43EA8263 		orr	r3, r3, r2, lsl #26
 1042 0318 4B60     		str	r3, [r1, #4]
 1043 031a D3E7     		b	.L64
 1044              	.L156:
 596:../../Drivers/STM32H7xx_HAL_Driver/Src/stm32h7xx_hal_rcc.c ****       }
 1045              		.loc 1 596 9 discriminator 3 view .LVU338
 1046 031c 764A     		ldr	r2, .L168
 1047 031e 5368     		ldr	r3, [r2, #4]
 1048 0320 23F0F843 		bic	r3, r3, #2080374784
 1049 0324 43F08043 		orr	r3, r3, #1073741824
 1050 0328 5360     		str	r3, [r2, #4]
 1051 032a CBE7     		b	.L64
 1052              	.L73:
 596:../../Drivers/STM32H7xx_HAL_Driver/Src/stm32h7xx_hal_rcc.c ****       }
 1053              		.loc 1 596 9 discriminator 2 view .LVU339
 1054 032c 724A     		ldr	r2, .L168
 1055 032e D368     		ldr	r3, [r2, #12]
 1056 0330 23F07C53 		bic	r3, r3, #1056964608
 1057 0334 216A     		ldr	r1, [r4, #32]
 1058 0336 43EA0163 		orr	r3, r3, r1, lsl #24
 1059 033a D360     		str	r3, [r2, #12]
 1060 033c C2E7     		b	.L64
 1061              	.LVL85:
 1062              	.L70:
 601:../../Drivers/STM32H7xx_HAL_Driver/Src/stm32h7xx_hal_rcc.c **** 
 1063              		.loc 1 601 9 view .LVU340
 1064 033e 6E4A     		ldr	r2, .L168
 1065 0340 1368     		ldr	r3, [r2]
 1066 0342 23F08003 		bic	r3, r3, #128
 1067 0346 1360     		str	r3, [r2]
 604:../../Drivers/STM32H7xx_HAL_Driver/Src/stm32h7xx_hal_rcc.c **** 
 1068              		.loc 1 604 9 view .LVU341
ARM GAS  C:\Users\minis\AppData\Local\Temp\cczlSevg.s 			page 33


 604:../../Drivers/STM32H7xx_HAL_Driver/Src/stm32h7xx_hal_rcc.c **** 
 1069              		.loc 1 604 21 is_stmt 0 view .LVU342
 1070 0348 FFF7FEFF 		bl	HAL_GetTick
 1071              	.LVL86:
 1072 034c 0546     		mov	r5, r0
 1073              	.LVL87:
 607:../../Drivers/STM32H7xx_HAL_Driver/Src/stm32h7xx_hal_rcc.c ****         {
 1074              		.loc 1 607 9 is_stmt 1 view .LVU343
 1075              	.L75:
 607:../../Drivers/STM32H7xx_HAL_Driver/Src/stm32h7xx_hal_rcc.c ****         {
 1076              		.loc 1 607 52 view .LVU344
 607:../../Drivers/STM32H7xx_HAL_Driver/Src/stm32h7xx_hal_rcc.c ****         {
 1077              		.loc 1 607 16 is_stmt 0 view .LVU345
 1078 034e 6A4B     		ldr	r3, .L168
 1079 0350 1B68     		ldr	r3, [r3]
 607:../../Drivers/STM32H7xx_HAL_Driver/Src/stm32h7xx_hal_rcc.c ****         {
 1080              		.loc 1 607 52 view .LVU346
 1081 0352 13F4807F 		tst	r3, #256
 1082 0356 B5D0     		beq	.L64
 609:../../Drivers/STM32H7xx_HAL_Driver/Src/stm32h7xx_hal_rcc.c ****           {
 1083              		.loc 1 609 11 is_stmt 1 view .LVU347
 609:../../Drivers/STM32H7xx_HAL_Driver/Src/stm32h7xx_hal_rcc.c ****           {
 1084              		.loc 1 609 16 is_stmt 0 view .LVU348
 1085 0358 FFF7FEFF 		bl	HAL_GetTick
 1086              	.LVL88:
 609:../../Drivers/STM32H7xx_HAL_Driver/Src/stm32h7xx_hal_rcc.c ****           {
 1087              		.loc 1 609 30 discriminator 1 view .LVU349
 1088 035c 401B     		subs	r0, r0, r5
 609:../../Drivers/STM32H7xx_HAL_Driver/Src/stm32h7xx_hal_rcc.c ****           {
 1089              		.loc 1 609 14 discriminator 1 view .LVU350
 1090 035e 0228     		cmp	r0, #2
 1091 0360 F5D9     		bls	.L75
 611:../../Drivers/STM32H7xx_HAL_Driver/Src/stm32h7xx_hal_rcc.c ****           }
 1092              		.loc 1 611 20 view .LVU351
 1093 0362 0320     		movs	r0, #3
 1094 0364 91E1     		b	.L36
 1095              	.LVL89:
 1096              	.L78:
 611:../../Drivers/STM32H7xx_HAL_Driver/Src/stm32h7xx_hal_rcc.c ****           }
 1097              		.loc 1 611 20 view .LVU352
 1098              	.LBE9:
 638:../../Drivers/STM32H7xx_HAL_Driver/Src/stm32h7xx_hal_rcc.c ****         }
 639:../../Drivers/STM32H7xx_HAL_Driver/Src/stm32h7xx_hal_rcc.c ****       }
 640:../../Drivers/STM32H7xx_HAL_Driver/Src/stm32h7xx_hal_rcc.c ****     }
 641:../../Drivers/STM32H7xx_HAL_Driver/Src/stm32h7xx_hal_rcc.c ****     else
 642:../../Drivers/STM32H7xx_HAL_Driver/Src/stm32h7xx_hal_rcc.c ****     {
 643:../../Drivers/STM32H7xx_HAL_Driver/Src/stm32h7xx_hal_rcc.c ****       /* Disable the Internal Low Speed oscillator (LSI). */
 644:../../Drivers/STM32H7xx_HAL_Driver/Src/stm32h7xx_hal_rcc.c ****       __HAL_RCC_LSI_DISABLE();
 1099              		.loc 1 644 7 is_stmt 1 view .LVU353
 1100 0366 644A     		ldr	r2, .L168
 1101 0368 536F     		ldr	r3, [r2, #116]
 1102 036a 23F00103 		bic	r3, r3, #1
 1103 036e 5367     		str	r3, [r2, #116]
 645:../../Drivers/STM32H7xx_HAL_Driver/Src/stm32h7xx_hal_rcc.c **** 
 646:../../Drivers/STM32H7xx_HAL_Driver/Src/stm32h7xx_hal_rcc.c ****       /* Get Start Tick*/
 647:../../Drivers/STM32H7xx_HAL_Driver/Src/stm32h7xx_hal_rcc.c ****       tickstart = HAL_GetTick();
 1104              		.loc 1 647 7 view .LVU354
ARM GAS  C:\Users\minis\AppData\Local\Temp\cczlSevg.s 			page 34


 1105              		.loc 1 647 19 is_stmt 0 view .LVU355
 1106 0370 FFF7FEFF 		bl	HAL_GetTick
 1107              	.LVL90:
 1108 0374 0546     		mov	r5, r0
 1109              	.LVL91:
 648:../../Drivers/STM32H7xx_HAL_Driver/Src/stm32h7xx_hal_rcc.c **** 
 649:../../Drivers/STM32H7xx_HAL_Driver/Src/stm32h7xx_hal_rcc.c ****       /* Wait till LSI is ready */
 650:../../Drivers/STM32H7xx_HAL_Driver/Src/stm32h7xx_hal_rcc.c ****       while (__HAL_RCC_GET_FLAG(RCC_FLAG_LSIRDY) != 0U)
 1110              		.loc 1 650 7 is_stmt 1 view .LVU356
 1111              	.L81:
 1112              		.loc 1 650 50 view .LVU357
 1113              		.loc 1 650 14 is_stmt 0 view .LVU358
 1114 0376 604B     		ldr	r3, .L168
 1115 0378 5B6F     		ldr	r3, [r3, #116]
 1116              		.loc 1 650 50 view .LVU359
 1117 037a 13F0020F 		tst	r3, #2
 1118 037e 06D0     		beq	.L77
 651:../../Drivers/STM32H7xx_HAL_Driver/Src/stm32h7xx_hal_rcc.c ****       {
 652:../../Drivers/STM32H7xx_HAL_Driver/Src/stm32h7xx_hal_rcc.c ****         if ((HAL_GetTick() - tickstart) > LSI_TIMEOUT_VALUE)
 1119              		.loc 1 652 9 is_stmt 1 view .LVU360
 1120              		.loc 1 652 14 is_stmt 0 view .LVU361
 1121 0380 FFF7FEFF 		bl	HAL_GetTick
 1122              	.LVL92:
 1123              		.loc 1 652 28 discriminator 1 view .LVU362
 1124 0384 401B     		subs	r0, r0, r5
 1125              		.loc 1 652 12 discriminator 1 view .LVU363
 1126 0386 0228     		cmp	r0, #2
 1127 0388 F5D9     		bls	.L81
 653:../../Drivers/STM32H7xx_HAL_Driver/Src/stm32h7xx_hal_rcc.c ****         {
 654:../../Drivers/STM32H7xx_HAL_Driver/Src/stm32h7xx_hal_rcc.c ****           return HAL_TIMEOUT;
 1128              		.loc 1 654 18 view .LVU364
 1129 038a 0320     		movs	r0, #3
 1130 038c 7DE1     		b	.L36
 1131              	.LVL93:
 1132              	.L77:
 655:../../Drivers/STM32H7xx_HAL_Driver/Src/stm32h7xx_hal_rcc.c ****         }
 656:../../Drivers/STM32H7xx_HAL_Driver/Src/stm32h7xx_hal_rcc.c ****       }
 657:../../Drivers/STM32H7xx_HAL_Driver/Src/stm32h7xx_hal_rcc.c ****     }
 658:../../Drivers/STM32H7xx_HAL_Driver/Src/stm32h7xx_hal_rcc.c ****   }
 659:../../Drivers/STM32H7xx_HAL_Driver/Src/stm32h7xx_hal_rcc.c **** 
 660:../../Drivers/STM32H7xx_HAL_Driver/Src/stm32h7xx_hal_rcc.c ****   /*------------------------------ HSI48 Configuration -------------------------*/
 661:../../Drivers/STM32H7xx_HAL_Driver/Src/stm32h7xx_hal_rcc.c ****   if (((RCC_OscInitStruct->OscillatorType) & RCC_OSCILLATORTYPE_HSI48) == RCC_OSCILLATORTYPE_HSI48)
 1133              		.loc 1 661 3 is_stmt 1 view .LVU365
 1134              		.loc 1 661 26 is_stmt 0 view .LVU366
 1135 038e 2368     		ldr	r3, [r4]
 1136              		.loc 1 661 6 view .LVU367
 1137 0390 13F0200F 		tst	r3, #32
 1138 0394 29D0     		beq	.L83
 662:../../Drivers/STM32H7xx_HAL_Driver/Src/stm32h7xx_hal_rcc.c ****   {
 663:../../Drivers/STM32H7xx_HAL_Driver/Src/stm32h7xx_hal_rcc.c ****     /* Check the parameters */
 664:../../Drivers/STM32H7xx_HAL_Driver/Src/stm32h7xx_hal_rcc.c ****     assert_param(IS_RCC_HSI48(RCC_OscInitStruct->HSI48State));
 1139              		.loc 1 664 5 is_stmt 1 view .LVU368
 665:../../Drivers/STM32H7xx_HAL_Driver/Src/stm32h7xx_hal_rcc.c **** 
 666:../../Drivers/STM32H7xx_HAL_Driver/Src/stm32h7xx_hal_rcc.c ****     /* Check the HSI48 State */
 667:../../Drivers/STM32H7xx_HAL_Driver/Src/stm32h7xx_hal_rcc.c ****     if ((RCC_OscInitStruct->HSI48State) != RCC_HSI48_OFF)
 1140              		.loc 1 667 5 view .LVU369
 1141              		.loc 1 667 27 is_stmt 0 view .LVU370
ARM GAS  C:\Users\minis\AppData\Local\Temp\cczlSevg.s 			page 35


 1142 0396 A369     		ldr	r3, [r4, #24]
 1143              		.loc 1 667 8 view .LVU371
 1144 0398 9BB1     		cbz	r3, .L84
 668:../../Drivers/STM32H7xx_HAL_Driver/Src/stm32h7xx_hal_rcc.c ****     {
 669:../../Drivers/STM32H7xx_HAL_Driver/Src/stm32h7xx_hal_rcc.c ****       /* Enable the Internal Low Speed oscillator (HSI48). */
 670:../../Drivers/STM32H7xx_HAL_Driver/Src/stm32h7xx_hal_rcc.c ****       __HAL_RCC_HSI48_ENABLE();
 1145              		.loc 1 670 7 is_stmt 1 view .LVU372
 1146 039a 574A     		ldr	r2, .L168
 1147 039c 1368     		ldr	r3, [r2]
 1148 039e 43F48053 		orr	r3, r3, #4096
 1149 03a2 1360     		str	r3, [r2]
 1150              		.loc 1 670 31 view .LVU373
 671:../../Drivers/STM32H7xx_HAL_Driver/Src/stm32h7xx_hal_rcc.c **** 
 672:../../Drivers/STM32H7xx_HAL_Driver/Src/stm32h7xx_hal_rcc.c ****       /* Get time-out */
 673:../../Drivers/STM32H7xx_HAL_Driver/Src/stm32h7xx_hal_rcc.c ****       tickstart = HAL_GetTick();
 1151              		.loc 1 673 7 view .LVU374
 1152              		.loc 1 673 19 is_stmt 0 view .LVU375
 1153 03a4 FFF7FEFF 		bl	HAL_GetTick
 1154              	.LVL94:
 1155 03a8 0546     		mov	r5, r0
 1156              	.LVL95:
 674:../../Drivers/STM32H7xx_HAL_Driver/Src/stm32h7xx_hal_rcc.c **** 
 675:../../Drivers/STM32H7xx_HAL_Driver/Src/stm32h7xx_hal_rcc.c ****       /* Wait till HSI48 is ready */
 676:../../Drivers/STM32H7xx_HAL_Driver/Src/stm32h7xx_hal_rcc.c ****       while (__HAL_RCC_GET_FLAG(RCC_FLAG_HSI48RDY) == 0U)
 1157              		.loc 1 676 7 is_stmt 1 view .LVU376
 1158              	.L85:
 1159              		.loc 1 676 52 view .LVU377
 1160              		.loc 1 676 14 is_stmt 0 view .LVU378
 1161 03aa 534B     		ldr	r3, .L168
 1162 03ac 1B68     		ldr	r3, [r3]
 1163              		.loc 1 676 52 view .LVU379
 1164 03ae 13F4005F 		tst	r3, #8192
 1165 03b2 1AD1     		bne	.L83
 677:../../Drivers/STM32H7xx_HAL_Driver/Src/stm32h7xx_hal_rcc.c ****       {
 678:../../Drivers/STM32H7xx_HAL_Driver/Src/stm32h7xx_hal_rcc.c ****         if ((HAL_GetTick() - tickstart) > HSI48_TIMEOUT_VALUE)
 1166              		.loc 1 678 9 is_stmt 1 view .LVU380
 1167              		.loc 1 678 14 is_stmt 0 view .LVU381
 1168 03b4 FFF7FEFF 		bl	HAL_GetTick
 1169              	.LVL96:
 1170              		.loc 1 678 28 discriminator 1 view .LVU382
 1171 03b8 401B     		subs	r0, r0, r5
 1172              		.loc 1 678 12 discriminator 1 view .LVU383
 1173 03ba 0228     		cmp	r0, #2
 1174 03bc F5D9     		bls	.L85
 679:../../Drivers/STM32H7xx_HAL_Driver/Src/stm32h7xx_hal_rcc.c ****         {
 680:../../Drivers/STM32H7xx_HAL_Driver/Src/stm32h7xx_hal_rcc.c ****           return HAL_TIMEOUT;
 1175              		.loc 1 680 18 view .LVU384
 1176 03be 0320     		movs	r0, #3
 1177 03c0 63E1     		b	.L36
 1178              	.LVL97:
 1179              	.L84:
 681:../../Drivers/STM32H7xx_HAL_Driver/Src/stm32h7xx_hal_rcc.c ****         }
 682:../../Drivers/STM32H7xx_HAL_Driver/Src/stm32h7xx_hal_rcc.c ****       }
 683:../../Drivers/STM32H7xx_HAL_Driver/Src/stm32h7xx_hal_rcc.c ****     }
 684:../../Drivers/STM32H7xx_HAL_Driver/Src/stm32h7xx_hal_rcc.c ****     else
 685:../../Drivers/STM32H7xx_HAL_Driver/Src/stm32h7xx_hal_rcc.c ****     {
 686:../../Drivers/STM32H7xx_HAL_Driver/Src/stm32h7xx_hal_rcc.c ****       /* Disable the Internal Low Speed oscillator (HSI48). */
ARM GAS  C:\Users\minis\AppData\Local\Temp\cczlSevg.s 			page 36


 687:../../Drivers/STM32H7xx_HAL_Driver/Src/stm32h7xx_hal_rcc.c ****       __HAL_RCC_HSI48_DISABLE();
 1180              		.loc 1 687 7 is_stmt 1 view .LVU385
 1181 03c2 4D4A     		ldr	r2, .L168
 1182 03c4 1368     		ldr	r3, [r2]
 1183 03c6 23F48053 		bic	r3, r3, #4096
 1184 03ca 1360     		str	r3, [r2]
 1185              		.loc 1 687 32 view .LVU386
 688:../../Drivers/STM32H7xx_HAL_Driver/Src/stm32h7xx_hal_rcc.c **** 
 689:../../Drivers/STM32H7xx_HAL_Driver/Src/stm32h7xx_hal_rcc.c ****       /* Get time-out */
 690:../../Drivers/STM32H7xx_HAL_Driver/Src/stm32h7xx_hal_rcc.c ****       tickstart = HAL_GetTick();
 1186              		.loc 1 690 7 view .LVU387
 1187              		.loc 1 690 19 is_stmt 0 view .LVU388
 1188 03cc FFF7FEFF 		bl	HAL_GetTick
 1189              	.LVL98:
 1190 03d0 0546     		mov	r5, r0
 1191              	.LVL99:
 691:../../Drivers/STM32H7xx_HAL_Driver/Src/stm32h7xx_hal_rcc.c **** 
 692:../../Drivers/STM32H7xx_HAL_Driver/Src/stm32h7xx_hal_rcc.c ****       /* Wait till HSI48 is ready */
 693:../../Drivers/STM32H7xx_HAL_Driver/Src/stm32h7xx_hal_rcc.c ****       while (__HAL_RCC_GET_FLAG(RCC_FLAG_HSI48RDY) != 0U)
 1192              		.loc 1 693 7 is_stmt 1 view .LVU389
 1193              	.L87:
 1194              		.loc 1 693 52 view .LVU390
 1195              		.loc 1 693 14 is_stmt 0 view .LVU391
 1196 03d2 494B     		ldr	r3, .L168
 1197 03d4 1B68     		ldr	r3, [r3]
 1198              		.loc 1 693 52 view .LVU392
 1199 03d6 13F4005F 		tst	r3, #8192
 1200 03da 06D0     		beq	.L83
 694:../../Drivers/STM32H7xx_HAL_Driver/Src/stm32h7xx_hal_rcc.c ****       {
 695:../../Drivers/STM32H7xx_HAL_Driver/Src/stm32h7xx_hal_rcc.c ****         if ((HAL_GetTick() - tickstart) > HSI48_TIMEOUT_VALUE)
 1201              		.loc 1 695 9 is_stmt 1 view .LVU393
 1202              		.loc 1 695 14 is_stmt 0 view .LVU394
 1203 03dc FFF7FEFF 		bl	HAL_GetTick
 1204              	.LVL100:
 1205              		.loc 1 695 28 discriminator 1 view .LVU395
 1206 03e0 401B     		subs	r0, r0, r5
 1207              		.loc 1 695 12 discriminator 1 view .LVU396
 1208 03e2 0228     		cmp	r0, #2
 1209 03e4 F5D9     		bls	.L87
 696:../../Drivers/STM32H7xx_HAL_Driver/Src/stm32h7xx_hal_rcc.c ****         {
 697:../../Drivers/STM32H7xx_HAL_Driver/Src/stm32h7xx_hal_rcc.c ****           return HAL_TIMEOUT;
 1210              		.loc 1 697 18 view .LVU397
 1211 03e6 0320     		movs	r0, #3
 1212 03e8 4FE1     		b	.L36
 1213              	.LVL101:
 1214              	.L83:
 698:../../Drivers/STM32H7xx_HAL_Driver/Src/stm32h7xx_hal_rcc.c ****         }
 699:../../Drivers/STM32H7xx_HAL_Driver/Src/stm32h7xx_hal_rcc.c ****       }
 700:../../Drivers/STM32H7xx_HAL_Driver/Src/stm32h7xx_hal_rcc.c ****     }
 701:../../Drivers/STM32H7xx_HAL_Driver/Src/stm32h7xx_hal_rcc.c ****   }
 702:../../Drivers/STM32H7xx_HAL_Driver/Src/stm32h7xx_hal_rcc.c ****   /*------------------------------ LSE Configuration -------------------------*/
 703:../../Drivers/STM32H7xx_HAL_Driver/Src/stm32h7xx_hal_rcc.c ****   if (((RCC_OscInitStruct->OscillatorType) & RCC_OSCILLATORTYPE_LSE) == RCC_OSCILLATORTYPE_LSE)
 1215              		.loc 1 703 3 is_stmt 1 view .LVU398
 1216              		.loc 1 703 26 is_stmt 0 view .LVU399
 1217 03ea 2368     		ldr	r3, [r4]
 1218              		.loc 1 703 6 view .LVU400
 1219 03ec 13F0040F 		tst	r3, #4
ARM GAS  C:\Users\minis\AppData\Local\Temp\cczlSevg.s 			page 37


 1220 03f0 21D1     		bne	.L157
 1221              	.L89:
 704:../../Drivers/STM32H7xx_HAL_Driver/Src/stm32h7xx_hal_rcc.c ****   {
 705:../../Drivers/STM32H7xx_HAL_Driver/Src/stm32h7xx_hal_rcc.c ****     /* Check the parameters */
 706:../../Drivers/STM32H7xx_HAL_Driver/Src/stm32h7xx_hal_rcc.c ****     assert_param(IS_RCC_LSE(RCC_OscInitStruct->LSEState));
 707:../../Drivers/STM32H7xx_HAL_Driver/Src/stm32h7xx_hal_rcc.c **** 
 708:../../Drivers/STM32H7xx_HAL_Driver/Src/stm32h7xx_hal_rcc.c ****     /* Enable write access to Backup domain */
 709:../../Drivers/STM32H7xx_HAL_Driver/Src/stm32h7xx_hal_rcc.c ****     PWR->CR1 |= PWR_CR1_DBP;
 710:../../Drivers/STM32H7xx_HAL_Driver/Src/stm32h7xx_hal_rcc.c **** 
 711:../../Drivers/STM32H7xx_HAL_Driver/Src/stm32h7xx_hal_rcc.c ****     /* Wait for Backup domain Write protection disable */
 712:../../Drivers/STM32H7xx_HAL_Driver/Src/stm32h7xx_hal_rcc.c ****     tickstart = HAL_GetTick();
 713:../../Drivers/STM32H7xx_HAL_Driver/Src/stm32h7xx_hal_rcc.c **** 
 714:../../Drivers/STM32H7xx_HAL_Driver/Src/stm32h7xx_hal_rcc.c ****     while ((PWR->CR1 & PWR_CR1_DBP) == 0U)
 715:../../Drivers/STM32H7xx_HAL_Driver/Src/stm32h7xx_hal_rcc.c ****     {
 716:../../Drivers/STM32H7xx_HAL_Driver/Src/stm32h7xx_hal_rcc.c ****       if ((HAL_GetTick() - tickstart) > RCC_DBP_TIMEOUT_VALUE)
 717:../../Drivers/STM32H7xx_HAL_Driver/Src/stm32h7xx_hal_rcc.c ****       {
 718:../../Drivers/STM32H7xx_HAL_Driver/Src/stm32h7xx_hal_rcc.c ****         return HAL_TIMEOUT;
 719:../../Drivers/STM32H7xx_HAL_Driver/Src/stm32h7xx_hal_rcc.c ****       }
 720:../../Drivers/STM32H7xx_HAL_Driver/Src/stm32h7xx_hal_rcc.c ****     }
 721:../../Drivers/STM32H7xx_HAL_Driver/Src/stm32h7xx_hal_rcc.c **** 
 722:../../Drivers/STM32H7xx_HAL_Driver/Src/stm32h7xx_hal_rcc.c ****     /* Set the new LSE configuration -----------------------------------------*/
 723:../../Drivers/STM32H7xx_HAL_Driver/Src/stm32h7xx_hal_rcc.c ****     __HAL_RCC_LSE_CONFIG(RCC_OscInitStruct->LSEState);
 724:../../Drivers/STM32H7xx_HAL_Driver/Src/stm32h7xx_hal_rcc.c ****     /* Check the LSE State */
 725:../../Drivers/STM32H7xx_HAL_Driver/Src/stm32h7xx_hal_rcc.c ****     if ((RCC_OscInitStruct->LSEState) != RCC_LSE_OFF)
 726:../../Drivers/STM32H7xx_HAL_Driver/Src/stm32h7xx_hal_rcc.c ****     {
 727:../../Drivers/STM32H7xx_HAL_Driver/Src/stm32h7xx_hal_rcc.c ****       /* Get Start Tick*/
 728:../../Drivers/STM32H7xx_HAL_Driver/Src/stm32h7xx_hal_rcc.c ****       tickstart = HAL_GetTick();
 729:../../Drivers/STM32H7xx_HAL_Driver/Src/stm32h7xx_hal_rcc.c **** 
 730:../../Drivers/STM32H7xx_HAL_Driver/Src/stm32h7xx_hal_rcc.c ****       /* Wait till LSE is ready */
 731:../../Drivers/STM32H7xx_HAL_Driver/Src/stm32h7xx_hal_rcc.c ****       while (__HAL_RCC_GET_FLAG(RCC_FLAG_LSERDY) == 0U)
 732:../../Drivers/STM32H7xx_HAL_Driver/Src/stm32h7xx_hal_rcc.c ****       {
 733:../../Drivers/STM32H7xx_HAL_Driver/Src/stm32h7xx_hal_rcc.c ****         if ((HAL_GetTick() - tickstart) > RCC_LSE_TIMEOUT_VALUE)
 734:../../Drivers/STM32H7xx_HAL_Driver/Src/stm32h7xx_hal_rcc.c ****         {
 735:../../Drivers/STM32H7xx_HAL_Driver/Src/stm32h7xx_hal_rcc.c ****           return HAL_TIMEOUT;
 736:../../Drivers/STM32H7xx_HAL_Driver/Src/stm32h7xx_hal_rcc.c ****         }
 737:../../Drivers/STM32H7xx_HAL_Driver/Src/stm32h7xx_hal_rcc.c ****       }
 738:../../Drivers/STM32H7xx_HAL_Driver/Src/stm32h7xx_hal_rcc.c ****     }
 739:../../Drivers/STM32H7xx_HAL_Driver/Src/stm32h7xx_hal_rcc.c ****     else
 740:../../Drivers/STM32H7xx_HAL_Driver/Src/stm32h7xx_hal_rcc.c ****     {
 741:../../Drivers/STM32H7xx_HAL_Driver/Src/stm32h7xx_hal_rcc.c ****       /* Get Start Tick*/
 742:../../Drivers/STM32H7xx_HAL_Driver/Src/stm32h7xx_hal_rcc.c ****       tickstart = HAL_GetTick();
 743:../../Drivers/STM32H7xx_HAL_Driver/Src/stm32h7xx_hal_rcc.c **** 
 744:../../Drivers/STM32H7xx_HAL_Driver/Src/stm32h7xx_hal_rcc.c ****       /* Wait till LSE is disabled */
 745:../../Drivers/STM32H7xx_HAL_Driver/Src/stm32h7xx_hal_rcc.c ****       while (__HAL_RCC_GET_FLAG(RCC_FLAG_LSERDY) != 0U)
 746:../../Drivers/STM32H7xx_HAL_Driver/Src/stm32h7xx_hal_rcc.c ****       {
 747:../../Drivers/STM32H7xx_HAL_Driver/Src/stm32h7xx_hal_rcc.c ****         if ((HAL_GetTick() - tickstart) > RCC_LSE_TIMEOUT_VALUE)
 748:../../Drivers/STM32H7xx_HAL_Driver/Src/stm32h7xx_hal_rcc.c ****         {
 749:../../Drivers/STM32H7xx_HAL_Driver/Src/stm32h7xx_hal_rcc.c ****           return HAL_TIMEOUT;
 750:../../Drivers/STM32H7xx_HAL_Driver/Src/stm32h7xx_hal_rcc.c ****         }
 751:../../Drivers/STM32H7xx_HAL_Driver/Src/stm32h7xx_hal_rcc.c ****       }
 752:../../Drivers/STM32H7xx_HAL_Driver/Src/stm32h7xx_hal_rcc.c ****     }
 753:../../Drivers/STM32H7xx_HAL_Driver/Src/stm32h7xx_hal_rcc.c ****   }
 754:../../Drivers/STM32H7xx_HAL_Driver/Src/stm32h7xx_hal_rcc.c ****   /*-------------------------------- PLL Configuration -----------------------*/
 755:../../Drivers/STM32H7xx_HAL_Driver/Src/stm32h7xx_hal_rcc.c ****   /* Check the parameters */
 756:../../Drivers/STM32H7xx_HAL_Driver/Src/stm32h7xx_hal_rcc.c ****   assert_param(IS_RCC_PLL(RCC_OscInitStruct->PLL.PLLState));
 1222              		.loc 1 756 3 is_stmt 1 view .LVU401
 757:../../Drivers/STM32H7xx_HAL_Driver/Src/stm32h7xx_hal_rcc.c ****   if ((RCC_OscInitStruct->PLL.PLLState) != RCC_PLL_NONE)
ARM GAS  C:\Users\minis\AppData\Local\Temp\cczlSevg.s 			page 38


 1223              		.loc 1 757 3 view .LVU402
 1224              		.loc 1 757 30 is_stmt 0 view .LVU403
 1225 03f2 636A     		ldr	r3, [r4, #36]
 1226              		.loc 1 757 6 view .LVU404
 1227 03f4 002B     		cmp	r3, #0
 1228 03f6 00F04781 		beq	.L128
 758:../../Drivers/STM32H7xx_HAL_Driver/Src/stm32h7xx_hal_rcc.c ****   {
 759:../../Drivers/STM32H7xx_HAL_Driver/Src/stm32h7xx_hal_rcc.c ****     /* Check if the PLL is used as system clock or not */
 760:../../Drivers/STM32H7xx_HAL_Driver/Src/stm32h7xx_hal_rcc.c ****     if (__HAL_RCC_GET_SYSCLK_SOURCE() != RCC_CFGR_SWS_PLL1)
 1229              		.loc 1 760 5 is_stmt 1 view .LVU405
 1230              		.loc 1 760 9 is_stmt 0 view .LVU406
 1231 03fa 3F4A     		ldr	r2, .L168
 1232 03fc 1269     		ldr	r2, [r2, #16]
 1233 03fe 02F03802 		and	r2, r2, #56
 1234              		.loc 1 760 8 view .LVU407
 1235 0402 182A     		cmp	r2, #24
 1236 0404 00F0EE80 		beq	.L101
 761:../../Drivers/STM32H7xx_HAL_Driver/Src/stm32h7xx_hal_rcc.c ****     {
 762:../../Drivers/STM32H7xx_HAL_Driver/Src/stm32h7xx_hal_rcc.c ****       if ((RCC_OscInitStruct->PLL.PLLState) == RCC_PLL_ON)
 1237              		.loc 1 762 7 is_stmt 1 view .LVU408
 1238              		.loc 1 762 10 is_stmt 0 view .LVU409
 1239 0408 022B     		cmp	r3, #2
 1240 040a 79D0     		beq	.L158
 763:../../Drivers/STM32H7xx_HAL_Driver/Src/stm32h7xx_hal_rcc.c ****       {
 764:../../Drivers/STM32H7xx_HAL_Driver/Src/stm32h7xx_hal_rcc.c ****         /* Check the parameters */
 765:../../Drivers/STM32H7xx_HAL_Driver/Src/stm32h7xx_hal_rcc.c ****         assert_param(IS_RCC_PLLSOURCE(RCC_OscInitStruct->PLL.PLLSource));
 766:../../Drivers/STM32H7xx_HAL_Driver/Src/stm32h7xx_hal_rcc.c ****         assert_param(IS_RCC_PLLRGE_VALUE(RCC_OscInitStruct->PLL.PLLRGE));
 767:../../Drivers/STM32H7xx_HAL_Driver/Src/stm32h7xx_hal_rcc.c ****         assert_param(IS_RCC_PLLVCO_VALUE(RCC_OscInitStruct->PLL.PLLVCOSEL));
 768:../../Drivers/STM32H7xx_HAL_Driver/Src/stm32h7xx_hal_rcc.c ****         assert_param(IS_RCC_PLLM_VALUE(RCC_OscInitStruct->PLL.PLLM));
 769:../../Drivers/STM32H7xx_HAL_Driver/Src/stm32h7xx_hal_rcc.c ****         assert_param(IS_RCC_PLLN_VALUE(RCC_OscInitStruct->PLL.PLLN));
 770:../../Drivers/STM32H7xx_HAL_Driver/Src/stm32h7xx_hal_rcc.c ****         assert_param(IS_RCC_PLLP_VALUE(RCC_OscInitStruct->PLL.PLLP));
 771:../../Drivers/STM32H7xx_HAL_Driver/Src/stm32h7xx_hal_rcc.c ****         assert_param(IS_RCC_PLLQ_VALUE(RCC_OscInitStruct->PLL.PLLQ));
 772:../../Drivers/STM32H7xx_HAL_Driver/Src/stm32h7xx_hal_rcc.c ****         assert_param(IS_RCC_PLLR_VALUE(RCC_OscInitStruct->PLL.PLLR));
 773:../../Drivers/STM32H7xx_HAL_Driver/Src/stm32h7xx_hal_rcc.c ****         assert_param(IS_RCC_PLLFRACN_VALUE(RCC_OscInitStruct->PLL.PLLFRACN));
 774:../../Drivers/STM32H7xx_HAL_Driver/Src/stm32h7xx_hal_rcc.c **** 
 775:../../Drivers/STM32H7xx_HAL_Driver/Src/stm32h7xx_hal_rcc.c ****         /* Disable the main PLL. */
 776:../../Drivers/STM32H7xx_HAL_Driver/Src/stm32h7xx_hal_rcc.c ****         __HAL_RCC_PLL_DISABLE();
 777:../../Drivers/STM32H7xx_HAL_Driver/Src/stm32h7xx_hal_rcc.c **** 
 778:../../Drivers/STM32H7xx_HAL_Driver/Src/stm32h7xx_hal_rcc.c ****         /* Get Start Tick*/
 779:../../Drivers/STM32H7xx_HAL_Driver/Src/stm32h7xx_hal_rcc.c ****         tickstart = HAL_GetTick();
 780:../../Drivers/STM32H7xx_HAL_Driver/Src/stm32h7xx_hal_rcc.c **** 
 781:../../Drivers/STM32H7xx_HAL_Driver/Src/stm32h7xx_hal_rcc.c ****         /* Wait till PLL is disabled */
 782:../../Drivers/STM32H7xx_HAL_Driver/Src/stm32h7xx_hal_rcc.c ****         while (__HAL_RCC_GET_FLAG(RCC_FLAG_PLLRDY) != 0U)
 783:../../Drivers/STM32H7xx_HAL_Driver/Src/stm32h7xx_hal_rcc.c ****         {
 784:../../Drivers/STM32H7xx_HAL_Driver/Src/stm32h7xx_hal_rcc.c ****           if ((HAL_GetTick() - tickstart) > PLL_TIMEOUT_VALUE)
 785:../../Drivers/STM32H7xx_HAL_Driver/Src/stm32h7xx_hal_rcc.c ****           {
 786:../../Drivers/STM32H7xx_HAL_Driver/Src/stm32h7xx_hal_rcc.c ****             return HAL_TIMEOUT;
 787:../../Drivers/STM32H7xx_HAL_Driver/Src/stm32h7xx_hal_rcc.c ****           }
 788:../../Drivers/STM32H7xx_HAL_Driver/Src/stm32h7xx_hal_rcc.c ****         }
 789:../../Drivers/STM32H7xx_HAL_Driver/Src/stm32h7xx_hal_rcc.c **** 
 790:../../Drivers/STM32H7xx_HAL_Driver/Src/stm32h7xx_hal_rcc.c ****         /* Configure the main PLL clock source, multiplication and division factors. */
 791:../../Drivers/STM32H7xx_HAL_Driver/Src/stm32h7xx_hal_rcc.c ****         __HAL_RCC_PLL_CONFIG(RCC_OscInitStruct->PLL.PLLSource,
 792:../../Drivers/STM32H7xx_HAL_Driver/Src/stm32h7xx_hal_rcc.c ****                              RCC_OscInitStruct->PLL.PLLM,
 793:../../Drivers/STM32H7xx_HAL_Driver/Src/stm32h7xx_hal_rcc.c ****                              RCC_OscInitStruct->PLL.PLLN,
 794:../../Drivers/STM32H7xx_HAL_Driver/Src/stm32h7xx_hal_rcc.c ****                              RCC_OscInitStruct->PLL.PLLP,
 795:../../Drivers/STM32H7xx_HAL_Driver/Src/stm32h7xx_hal_rcc.c ****                              RCC_OscInitStruct->PLL.PLLQ,
 796:../../Drivers/STM32H7xx_HAL_Driver/Src/stm32h7xx_hal_rcc.c ****                              RCC_OscInitStruct->PLL.PLLR);
ARM GAS  C:\Users\minis\AppData\Local\Temp\cczlSevg.s 			page 39


 797:../../Drivers/STM32H7xx_HAL_Driver/Src/stm32h7xx_hal_rcc.c **** 
 798:../../Drivers/STM32H7xx_HAL_Driver/Src/stm32h7xx_hal_rcc.c ****         /* Disable PLLFRACN . */
 799:../../Drivers/STM32H7xx_HAL_Driver/Src/stm32h7xx_hal_rcc.c ****         __HAL_RCC_PLLFRACN_DISABLE();
 800:../../Drivers/STM32H7xx_HAL_Driver/Src/stm32h7xx_hal_rcc.c **** 
 801:../../Drivers/STM32H7xx_HAL_Driver/Src/stm32h7xx_hal_rcc.c ****         /* Configure PLL PLL1FRACN */
 802:../../Drivers/STM32H7xx_HAL_Driver/Src/stm32h7xx_hal_rcc.c ****         __HAL_RCC_PLLFRACN_CONFIG(RCC_OscInitStruct->PLL.PLLFRACN);
 803:../../Drivers/STM32H7xx_HAL_Driver/Src/stm32h7xx_hal_rcc.c **** 
 804:../../Drivers/STM32H7xx_HAL_Driver/Src/stm32h7xx_hal_rcc.c ****         /* Select PLL1 input reference frequency range: VCI */
 805:../../Drivers/STM32H7xx_HAL_Driver/Src/stm32h7xx_hal_rcc.c ****         __HAL_RCC_PLL_VCIRANGE(RCC_OscInitStruct->PLL.PLLRGE) ;
 806:../../Drivers/STM32H7xx_HAL_Driver/Src/stm32h7xx_hal_rcc.c **** 
 807:../../Drivers/STM32H7xx_HAL_Driver/Src/stm32h7xx_hal_rcc.c ****         /* Select PLL1 output frequency range : VCO */
 808:../../Drivers/STM32H7xx_HAL_Driver/Src/stm32h7xx_hal_rcc.c ****         __HAL_RCC_PLL_VCORANGE(RCC_OscInitStruct->PLL.PLLVCOSEL) ;
 809:../../Drivers/STM32H7xx_HAL_Driver/Src/stm32h7xx_hal_rcc.c **** 
 810:../../Drivers/STM32H7xx_HAL_Driver/Src/stm32h7xx_hal_rcc.c ****         /* Enable PLL System Clock output. */
 811:../../Drivers/STM32H7xx_HAL_Driver/Src/stm32h7xx_hal_rcc.c ****         __HAL_RCC_PLLCLKOUT_ENABLE(RCC_PLL1_DIVP);
 812:../../Drivers/STM32H7xx_HAL_Driver/Src/stm32h7xx_hal_rcc.c **** 
 813:../../Drivers/STM32H7xx_HAL_Driver/Src/stm32h7xx_hal_rcc.c ****         /* Enable PLL1Q Clock output. */
 814:../../Drivers/STM32H7xx_HAL_Driver/Src/stm32h7xx_hal_rcc.c ****         __HAL_RCC_PLLCLKOUT_ENABLE(RCC_PLL1_DIVQ);
 815:../../Drivers/STM32H7xx_HAL_Driver/Src/stm32h7xx_hal_rcc.c **** 
 816:../../Drivers/STM32H7xx_HAL_Driver/Src/stm32h7xx_hal_rcc.c ****         /* Enable PLL1R  Clock output. */
 817:../../Drivers/STM32H7xx_HAL_Driver/Src/stm32h7xx_hal_rcc.c ****         __HAL_RCC_PLLCLKOUT_ENABLE(RCC_PLL1_DIVR);
 818:../../Drivers/STM32H7xx_HAL_Driver/Src/stm32h7xx_hal_rcc.c **** 
 819:../../Drivers/STM32H7xx_HAL_Driver/Src/stm32h7xx_hal_rcc.c ****         /* Enable PLL1FRACN . */
 820:../../Drivers/STM32H7xx_HAL_Driver/Src/stm32h7xx_hal_rcc.c ****         __HAL_RCC_PLLFRACN_ENABLE();
 821:../../Drivers/STM32H7xx_HAL_Driver/Src/stm32h7xx_hal_rcc.c **** 
 822:../../Drivers/STM32H7xx_HAL_Driver/Src/stm32h7xx_hal_rcc.c ****         /* Enable the main PLL. */
 823:../../Drivers/STM32H7xx_HAL_Driver/Src/stm32h7xx_hal_rcc.c ****         __HAL_RCC_PLL_ENABLE();
 824:../../Drivers/STM32H7xx_HAL_Driver/Src/stm32h7xx_hal_rcc.c **** 
 825:../../Drivers/STM32H7xx_HAL_Driver/Src/stm32h7xx_hal_rcc.c ****         /* Get Start Tick*/
 826:../../Drivers/STM32H7xx_HAL_Driver/Src/stm32h7xx_hal_rcc.c ****         tickstart = HAL_GetTick();
 827:../../Drivers/STM32H7xx_HAL_Driver/Src/stm32h7xx_hal_rcc.c **** 
 828:../../Drivers/STM32H7xx_HAL_Driver/Src/stm32h7xx_hal_rcc.c ****         /* Wait till PLL is ready */
 829:../../Drivers/STM32H7xx_HAL_Driver/Src/stm32h7xx_hal_rcc.c ****         while (__HAL_RCC_GET_FLAG(RCC_FLAG_PLLRDY) == 0U)
 830:../../Drivers/STM32H7xx_HAL_Driver/Src/stm32h7xx_hal_rcc.c ****         {
 831:../../Drivers/STM32H7xx_HAL_Driver/Src/stm32h7xx_hal_rcc.c ****           if ((HAL_GetTick() - tickstart) > PLL_TIMEOUT_VALUE)
 832:../../Drivers/STM32H7xx_HAL_Driver/Src/stm32h7xx_hal_rcc.c ****           {
 833:../../Drivers/STM32H7xx_HAL_Driver/Src/stm32h7xx_hal_rcc.c ****             return HAL_TIMEOUT;
 834:../../Drivers/STM32H7xx_HAL_Driver/Src/stm32h7xx_hal_rcc.c ****           }
 835:../../Drivers/STM32H7xx_HAL_Driver/Src/stm32h7xx_hal_rcc.c ****         }
 836:../../Drivers/STM32H7xx_HAL_Driver/Src/stm32h7xx_hal_rcc.c ****       }
 837:../../Drivers/STM32H7xx_HAL_Driver/Src/stm32h7xx_hal_rcc.c ****       else
 838:../../Drivers/STM32H7xx_HAL_Driver/Src/stm32h7xx_hal_rcc.c ****       {
 839:../../Drivers/STM32H7xx_HAL_Driver/Src/stm32h7xx_hal_rcc.c ****         /* Disable the main PLL. */
 840:../../Drivers/STM32H7xx_HAL_Driver/Src/stm32h7xx_hal_rcc.c ****         __HAL_RCC_PLL_DISABLE();
 1241              		.loc 1 840 9 is_stmt 1 view .LVU410
 1242 040c 3A4A     		ldr	r2, .L168
 1243 040e 1368     		ldr	r3, [r2]
 1244 0410 23F08073 		bic	r3, r3, #16777216
 1245 0414 1360     		str	r3, [r2]
 841:../../Drivers/STM32H7xx_HAL_Driver/Src/stm32h7xx_hal_rcc.c **** 
 842:../../Drivers/STM32H7xx_HAL_Driver/Src/stm32h7xx_hal_rcc.c ****         /* Get Start Tick*/
 843:../../Drivers/STM32H7xx_HAL_Driver/Src/stm32h7xx_hal_rcc.c ****         tickstart = HAL_GetTick();
 1246              		.loc 1 843 9 view .LVU411
 1247              		.loc 1 843 21 is_stmt 0 view .LVU412
 1248 0416 FFF7FEFF 		bl	HAL_GetTick
 1249              	.LVL102:
 1250 041a 0446     		mov	r4, r0
ARM GAS  C:\Users\minis\AppData\Local\Temp\cczlSevg.s 			page 40


 1251              	.LVL103:
 844:../../Drivers/STM32H7xx_HAL_Driver/Src/stm32h7xx_hal_rcc.c **** 
 845:../../Drivers/STM32H7xx_HAL_Driver/Src/stm32h7xx_hal_rcc.c ****         /* Wait till PLL is disabled */
 846:../../Drivers/STM32H7xx_HAL_Driver/Src/stm32h7xx_hal_rcc.c ****         while (__HAL_RCC_GET_FLAG(RCC_FLAG_PLLRDY) != 0U)
 1252              		.loc 1 846 9 is_stmt 1 view .LVU413
 1253              	.L107:
 1254              		.loc 1 846 52 view .LVU414
 1255              		.loc 1 846 16 is_stmt 0 view .LVU415
 1256 041c 364B     		ldr	r3, .L168
 1257 041e 1B68     		ldr	r3, [r3]
 1258              		.loc 1 846 52 view .LVU416
 1259 0420 13F0007F 		tst	r3, #33554432
 1260 0424 00F0DC80 		beq	.L159
 847:../../Drivers/STM32H7xx_HAL_Driver/Src/stm32h7xx_hal_rcc.c ****         {
 848:../../Drivers/STM32H7xx_HAL_Driver/Src/stm32h7xx_hal_rcc.c ****           if ((HAL_GetTick() - tickstart) > PLL_TIMEOUT_VALUE)
 1261              		.loc 1 848 11 is_stmt 1 view .LVU417
 1262              		.loc 1 848 16 is_stmt 0 view .LVU418
 1263 0428 FFF7FEFF 		bl	HAL_GetTick
 1264              	.LVL104:
 1265              		.loc 1 848 30 discriminator 1 view .LVU419
 1266 042c 001B     		subs	r0, r0, r4
 1267              		.loc 1 848 14 discriminator 1 view .LVU420
 1268 042e 0228     		cmp	r0, #2
 1269 0430 F4D9     		bls	.L107
 849:../../Drivers/STM32H7xx_HAL_Driver/Src/stm32h7xx_hal_rcc.c ****           {
 850:../../Drivers/STM32H7xx_HAL_Driver/Src/stm32h7xx_hal_rcc.c ****             return HAL_TIMEOUT;
 1270              		.loc 1 850 20 view .LVU421
 1271 0432 0320     		movs	r0, #3
 1272 0434 29E1     		b	.L36
 1273              	.LVL105:
 1274              	.L157:
 706:../../Drivers/STM32H7xx_HAL_Driver/Src/stm32h7xx_hal_rcc.c **** 
 1275              		.loc 1 706 5 is_stmt 1 view .LVU422
 709:../../Drivers/STM32H7xx_HAL_Driver/Src/stm32h7xx_hal_rcc.c **** 
 1276              		.loc 1 709 5 view .LVU423
 709:../../Drivers/STM32H7xx_HAL_Driver/Src/stm32h7xx_hal_rcc.c **** 
 1277              		.loc 1 709 8 is_stmt 0 view .LVU424
 1278 0436 314A     		ldr	r2, .L168+4
 1279 0438 1368     		ldr	r3, [r2]
 709:../../Drivers/STM32H7xx_HAL_Driver/Src/stm32h7xx_hal_rcc.c **** 
 1280              		.loc 1 709 14 view .LVU425
 1281 043a 43F48073 		orr	r3, r3, #256
 1282 043e 1360     		str	r3, [r2]
 712:../../Drivers/STM32H7xx_HAL_Driver/Src/stm32h7xx_hal_rcc.c **** 
 1283              		.loc 1 712 5 is_stmt 1 view .LVU426
 712:../../Drivers/STM32H7xx_HAL_Driver/Src/stm32h7xx_hal_rcc.c **** 
 1284              		.loc 1 712 17 is_stmt 0 view .LVU427
 1285 0440 FFF7FEFF 		bl	HAL_GetTick
 1286              	.LVL106:
 1287 0444 0546     		mov	r5, r0
 1288              	.LVL107:
 714:../../Drivers/STM32H7xx_HAL_Driver/Src/stm32h7xx_hal_rcc.c ****     {
 1289              		.loc 1 714 5 is_stmt 1 view .LVU428
 1290              	.L90:
 714:../../Drivers/STM32H7xx_HAL_Driver/Src/stm32h7xx_hal_rcc.c ****     {
 1291              		.loc 1 714 37 view .LVU429
 714:../../Drivers/STM32H7xx_HAL_Driver/Src/stm32h7xx_hal_rcc.c ****     {
ARM GAS  C:\Users\minis\AppData\Local\Temp\cczlSevg.s 			page 41


 1292              		.loc 1 714 16 is_stmt 0 view .LVU430
 1293 0446 2D4B     		ldr	r3, .L168+4
 1294 0448 1B68     		ldr	r3, [r3]
 714:../../Drivers/STM32H7xx_HAL_Driver/Src/stm32h7xx_hal_rcc.c ****     {
 1295              		.loc 1 714 37 view .LVU431
 1296 044a 13F4807F 		tst	r3, #256
 1297 044e 06D1     		bne	.L160
 716:../../Drivers/STM32H7xx_HAL_Driver/Src/stm32h7xx_hal_rcc.c ****       {
 1298              		.loc 1 716 7 is_stmt 1 view .LVU432
 716:../../Drivers/STM32H7xx_HAL_Driver/Src/stm32h7xx_hal_rcc.c ****       {
 1299              		.loc 1 716 12 is_stmt 0 view .LVU433
 1300 0450 FFF7FEFF 		bl	HAL_GetTick
 1301              	.LVL108:
 716:../../Drivers/STM32H7xx_HAL_Driver/Src/stm32h7xx_hal_rcc.c ****       {
 1302              		.loc 1 716 26 discriminator 1 view .LVU434
 1303 0454 401B     		subs	r0, r0, r5
 716:../../Drivers/STM32H7xx_HAL_Driver/Src/stm32h7xx_hal_rcc.c ****       {
 1304              		.loc 1 716 10 discriminator 1 view .LVU435
 1305 0456 6428     		cmp	r0, #100
 1306 0458 F5D9     		bls	.L90
 718:../../Drivers/STM32H7xx_HAL_Driver/Src/stm32h7xx_hal_rcc.c ****       }
 1307              		.loc 1 718 16 view .LVU436
 1308 045a 0320     		movs	r0, #3
 1309 045c 15E1     		b	.L36
 1310              	.L160:
 723:../../Drivers/STM32H7xx_HAL_Driver/Src/stm32h7xx_hal_rcc.c ****     /* Check the LSE State */
 1311              		.loc 1 723 5 is_stmt 1 view .LVU437
 723:../../Drivers/STM32H7xx_HAL_Driver/Src/stm32h7xx_hal_rcc.c ****     /* Check the LSE State */
 1312              		.loc 1 723 5 view .LVU438
 1313 045e A368     		ldr	r3, [r4, #8]
 1314 0460 012B     		cmp	r3, #1
 1315 0462 0AD0     		beq	.L161
 723:../../Drivers/STM32H7xx_HAL_Driver/Src/stm32h7xx_hal_rcc.c ****     /* Check the LSE State */
 1316              		.loc 1 723 5 discriminator 2 view .LVU439
 1317 0464 0BBB     		cbnz	r3, .L94
 723:../../Drivers/STM32H7xx_HAL_Driver/Src/stm32h7xx_hal_rcc.c ****     /* Check the LSE State */
 1318              		.loc 1 723 5 discriminator 3 view .LVU440
 1319 0466 244B     		ldr	r3, .L168
 1320 0468 1A6F     		ldr	r2, [r3, #112]
 1321 046a 22F00102 		bic	r2, r2, #1
 1322 046e 1A67     		str	r2, [r3, #112]
 723:../../Drivers/STM32H7xx_HAL_Driver/Src/stm32h7xx_hal_rcc.c ****     /* Check the LSE State */
 1323              		.loc 1 723 5 view .LVU441
 723:../../Drivers/STM32H7xx_HAL_Driver/Src/stm32h7xx_hal_rcc.c ****     /* Check the LSE State */
 1324              		.loc 1 723 5 is_stmt 0 discriminator 3 view .LVU442
 1325 0470 1A6F     		ldr	r2, [r3, #112]
 1326 0472 22F00402 		bic	r2, r2, #4
 1327 0476 1A67     		str	r2, [r3, #112]
 1328 0478 04E0     		b	.L93
 1329              	.L161:
 723:../../Drivers/STM32H7xx_HAL_Driver/Src/stm32h7xx_hal_rcc.c ****     /* Check the LSE State */
 1330              		.loc 1 723 5 is_stmt 1 discriminator 1 view .LVU443
 1331 047a 1F4A     		ldr	r2, .L168
 1332 047c 136F     		ldr	r3, [r2, #112]
 1333 047e 43F00103 		orr	r3, r3, #1
 1334 0482 1367     		str	r3, [r2, #112]
 1335              	.L93:
ARM GAS  C:\Users\minis\AppData\Local\Temp\cczlSevg.s 			page 42


 723:../../Drivers/STM32H7xx_HAL_Driver/Src/stm32h7xx_hal_rcc.c ****     /* Check the LSE State */
 1336              		.loc 1 723 5 view .LVU444
 725:../../Drivers/STM32H7xx_HAL_Driver/Src/stm32h7xx_hal_rcc.c ****     {
 1337              		.loc 1 725 5 view .LVU445
 725:../../Drivers/STM32H7xx_HAL_Driver/Src/stm32h7xx_hal_rcc.c ****     {
 1338              		.loc 1 725 27 is_stmt 0 view .LVU446
 1339 0484 A368     		ldr	r3, [r4, #8]
 725:../../Drivers/STM32H7xx_HAL_Driver/Src/stm32h7xx_hal_rcc.c ****     {
 1340              		.loc 1 725 8 view .LVU447
 1341 0486 33B3     		cbz	r3, .L96
 728:../../Drivers/STM32H7xx_HAL_Driver/Src/stm32h7xx_hal_rcc.c **** 
 1342              		.loc 1 728 7 is_stmt 1 view .LVU448
 728:../../Drivers/STM32H7xx_HAL_Driver/Src/stm32h7xx_hal_rcc.c **** 
 1343              		.loc 1 728 19 is_stmt 0 view .LVU449
 1344 0488 FFF7FEFF 		bl	HAL_GetTick
 1345              	.LVL109:
 1346 048c 0546     		mov	r5, r0
 1347              	.LVL110:
 731:../../Drivers/STM32H7xx_HAL_Driver/Src/stm32h7xx_hal_rcc.c ****       {
 1348              		.loc 1 731 7 is_stmt 1 view .LVU450
 1349              	.L97:
 731:../../Drivers/STM32H7xx_HAL_Driver/Src/stm32h7xx_hal_rcc.c ****       {
 1350              		.loc 1 731 50 view .LVU451
 731:../../Drivers/STM32H7xx_HAL_Driver/Src/stm32h7xx_hal_rcc.c ****       {
 1351              		.loc 1 731 14 is_stmt 0 view .LVU452
 1352 048e 1A4B     		ldr	r3, .L168
 1353 0490 1B6F     		ldr	r3, [r3, #112]
 731:../../Drivers/STM32H7xx_HAL_Driver/Src/stm32h7xx_hal_rcc.c ****       {
 1354              		.loc 1 731 50 view .LVU453
 1355 0492 13F0020F 		tst	r3, #2
 1356 0496 ACD1     		bne	.L89
 733:../../Drivers/STM32H7xx_HAL_Driver/Src/stm32h7xx_hal_rcc.c ****         {
 1357              		.loc 1 733 9 is_stmt 1 view .LVU454
 733:../../Drivers/STM32H7xx_HAL_Driver/Src/stm32h7xx_hal_rcc.c ****         {
 1358              		.loc 1 733 14 is_stmt 0 view .LVU455
 1359 0498 FFF7FEFF 		bl	HAL_GetTick
 1360              	.LVL111:
 733:../../Drivers/STM32H7xx_HAL_Driver/Src/stm32h7xx_hal_rcc.c ****         {
 1361              		.loc 1 733 28 discriminator 1 view .LVU456
 1362 049c 401B     		subs	r0, r0, r5
 733:../../Drivers/STM32H7xx_HAL_Driver/Src/stm32h7xx_hal_rcc.c ****         {
 1363              		.loc 1 733 12 discriminator 1 view .LVU457
 1364 049e 41F28833 		movw	r3, #5000
 1365 04a2 9842     		cmp	r0, r3
 1366 04a4 F3D9     		bls	.L97
 735:../../Drivers/STM32H7xx_HAL_Driver/Src/stm32h7xx_hal_rcc.c ****         }
 1367              		.loc 1 735 18 view .LVU458
 1368 04a6 0320     		movs	r0, #3
 1369 04a8 EFE0     		b	.L36
 1370              	.L94:
 723:../../Drivers/STM32H7xx_HAL_Driver/Src/stm32h7xx_hal_rcc.c ****     /* Check the LSE State */
 1371              		.loc 1 723 5 is_stmt 1 discriminator 4 view .LVU459
 1372 04aa 052B     		cmp	r3, #5
 1373 04ac 09D0     		beq	.L162
 723:../../Drivers/STM32H7xx_HAL_Driver/Src/stm32h7xx_hal_rcc.c ****     /* Check the LSE State */
 1374              		.loc 1 723 5 discriminator 6 view .LVU460
 1375 04ae 124B     		ldr	r3, .L168
ARM GAS  C:\Users\minis\AppData\Local\Temp\cczlSevg.s 			page 43


 1376 04b0 1A6F     		ldr	r2, [r3, #112]
 1377 04b2 22F00102 		bic	r2, r2, #1
 1378 04b6 1A67     		str	r2, [r3, #112]
 723:../../Drivers/STM32H7xx_HAL_Driver/Src/stm32h7xx_hal_rcc.c ****     /* Check the LSE State */
 1379              		.loc 1 723 5 view .LVU461
 723:../../Drivers/STM32H7xx_HAL_Driver/Src/stm32h7xx_hal_rcc.c ****     /* Check the LSE State */
 1380              		.loc 1 723 5 is_stmt 0 discriminator 6 view .LVU462
 1381 04b8 1A6F     		ldr	r2, [r3, #112]
 1382 04ba 22F00402 		bic	r2, r2, #4
 1383 04be 1A67     		str	r2, [r3, #112]
 1384 04c0 E0E7     		b	.L93
 1385              	.L162:
 723:../../Drivers/STM32H7xx_HAL_Driver/Src/stm32h7xx_hal_rcc.c ****     /* Check the LSE State */
 1386              		.loc 1 723 5 is_stmt 1 discriminator 5 view .LVU463
 1387 04c2 0D4B     		ldr	r3, .L168
 1388 04c4 1A6F     		ldr	r2, [r3, #112]
 1389 04c6 42F00402 		orr	r2, r2, #4
 1390 04ca 1A67     		str	r2, [r3, #112]
 723:../../Drivers/STM32H7xx_HAL_Driver/Src/stm32h7xx_hal_rcc.c ****     /* Check the LSE State */
 1391              		.loc 1 723 5 view .LVU464
 723:../../Drivers/STM32H7xx_HAL_Driver/Src/stm32h7xx_hal_rcc.c ****     /* Check the LSE State */
 1392              		.loc 1 723 5 is_stmt 0 discriminator 5 view .LVU465
 1393 04cc 1A6F     		ldr	r2, [r3, #112]
 1394 04ce 42F00102 		orr	r2, r2, #1
 1395 04d2 1A67     		str	r2, [r3, #112]
 1396 04d4 D6E7     		b	.L93
 1397              	.L96:
 742:../../Drivers/STM32H7xx_HAL_Driver/Src/stm32h7xx_hal_rcc.c **** 
 1398              		.loc 1 742 7 is_stmt 1 view .LVU466
 742:../../Drivers/STM32H7xx_HAL_Driver/Src/stm32h7xx_hal_rcc.c **** 
 1399              		.loc 1 742 19 is_stmt 0 view .LVU467
 1400 04d6 FFF7FEFF 		bl	HAL_GetTick
 1401              	.LVL112:
 1402 04da 0546     		mov	r5, r0
 1403              	.LVL113:
 745:../../Drivers/STM32H7xx_HAL_Driver/Src/stm32h7xx_hal_rcc.c ****       {
 1404              		.loc 1 745 7 is_stmt 1 view .LVU468
 1405              	.L99:
 745:../../Drivers/STM32H7xx_HAL_Driver/Src/stm32h7xx_hal_rcc.c ****       {
 1406              		.loc 1 745 50 view .LVU469
 745:../../Drivers/STM32H7xx_HAL_Driver/Src/stm32h7xx_hal_rcc.c ****       {
 1407              		.loc 1 745 14 is_stmt 0 view .LVU470
 1408 04dc 064B     		ldr	r3, .L168
 1409 04de 1B6F     		ldr	r3, [r3, #112]
 745:../../Drivers/STM32H7xx_HAL_Driver/Src/stm32h7xx_hal_rcc.c ****       {
 1410              		.loc 1 745 50 view .LVU471
 1411 04e0 13F0020F 		tst	r3, #2
 1412 04e4 85D0     		beq	.L89
 747:../../Drivers/STM32H7xx_HAL_Driver/Src/stm32h7xx_hal_rcc.c ****         {
 1413              		.loc 1 747 9 is_stmt 1 view .LVU472
 747:../../Drivers/STM32H7xx_HAL_Driver/Src/stm32h7xx_hal_rcc.c ****         {
 1414              		.loc 1 747 14 is_stmt 0 view .LVU473
 1415 04e6 FFF7FEFF 		bl	HAL_GetTick
 1416              	.LVL114:
 747:../../Drivers/STM32H7xx_HAL_Driver/Src/stm32h7xx_hal_rcc.c ****         {
 1417              		.loc 1 747 28 discriminator 1 view .LVU474
 1418 04ea 401B     		subs	r0, r0, r5
ARM GAS  C:\Users\minis\AppData\Local\Temp\cczlSevg.s 			page 44


 747:../../Drivers/STM32H7xx_HAL_Driver/Src/stm32h7xx_hal_rcc.c ****         {
 1419              		.loc 1 747 12 discriminator 1 view .LVU475
 1420 04ec 41F28833 		movw	r3, #5000
 1421 04f0 9842     		cmp	r0, r3
 1422 04f2 F3D9     		bls	.L99
 749:../../Drivers/STM32H7xx_HAL_Driver/Src/stm32h7xx_hal_rcc.c ****         }
 1423              		.loc 1 749 18 view .LVU476
 1424 04f4 0320     		movs	r0, #3
 1425 04f6 C8E0     		b	.L36
 1426              	.L169:
 1427              		.align	2
 1428              	.L168:
 1429 04f8 00440258 		.word	1476543488
 1430 04fc 00480258 		.word	1476544512
 1431              	.LVL115:
 1432              	.L158:
 765:../../Drivers/STM32H7xx_HAL_Driver/Src/stm32h7xx_hal_rcc.c ****         assert_param(IS_RCC_PLLRGE_VALUE(RCC_OscInitStruct->PLL.PLLRGE));
 1433              		.loc 1 765 9 is_stmt 1 view .LVU477
 766:../../Drivers/STM32H7xx_HAL_Driver/Src/stm32h7xx_hal_rcc.c ****         assert_param(IS_RCC_PLLVCO_VALUE(RCC_OscInitStruct->PLL.PLLVCOSEL));
 1434              		.loc 1 766 9 view .LVU478
 767:../../Drivers/STM32H7xx_HAL_Driver/Src/stm32h7xx_hal_rcc.c ****         assert_param(IS_RCC_PLLM_VALUE(RCC_OscInitStruct->PLL.PLLM));
 1435              		.loc 1 767 9 view .LVU479
 768:../../Drivers/STM32H7xx_HAL_Driver/Src/stm32h7xx_hal_rcc.c ****         assert_param(IS_RCC_PLLN_VALUE(RCC_OscInitStruct->PLL.PLLN));
 1436              		.loc 1 768 9 view .LVU480
 769:../../Drivers/STM32H7xx_HAL_Driver/Src/stm32h7xx_hal_rcc.c ****         assert_param(IS_RCC_PLLP_VALUE(RCC_OscInitStruct->PLL.PLLP));
 1437              		.loc 1 769 9 view .LVU481
 770:../../Drivers/STM32H7xx_HAL_Driver/Src/stm32h7xx_hal_rcc.c ****         assert_param(IS_RCC_PLLQ_VALUE(RCC_OscInitStruct->PLL.PLLQ));
 1438              		.loc 1 770 9 view .LVU482
 771:../../Drivers/STM32H7xx_HAL_Driver/Src/stm32h7xx_hal_rcc.c ****         assert_param(IS_RCC_PLLR_VALUE(RCC_OscInitStruct->PLL.PLLR));
 1439              		.loc 1 771 9 view .LVU483
 772:../../Drivers/STM32H7xx_HAL_Driver/Src/stm32h7xx_hal_rcc.c ****         assert_param(IS_RCC_PLLFRACN_VALUE(RCC_OscInitStruct->PLL.PLLFRACN));
 1440              		.loc 1 772 9 view .LVU484
 773:../../Drivers/STM32H7xx_HAL_Driver/Src/stm32h7xx_hal_rcc.c **** 
 1441              		.loc 1 773 9 view .LVU485
 776:../../Drivers/STM32H7xx_HAL_Driver/Src/stm32h7xx_hal_rcc.c **** 
 1442              		.loc 1 776 9 view .LVU486
 1443 0500 694A     		ldr	r2, .L170
 1444 0502 1368     		ldr	r3, [r2]
 1445 0504 23F08073 		bic	r3, r3, #16777216
 1446 0508 1360     		str	r3, [r2]
 779:../../Drivers/STM32H7xx_HAL_Driver/Src/stm32h7xx_hal_rcc.c **** 
 1447              		.loc 1 779 9 view .LVU487
 779:../../Drivers/STM32H7xx_HAL_Driver/Src/stm32h7xx_hal_rcc.c **** 
 1448              		.loc 1 779 21 is_stmt 0 view .LVU488
 1449 050a FFF7FEFF 		bl	HAL_GetTick
 1450              	.LVL116:
 1451 050e 0546     		mov	r5, r0
 1452              	.LVL117:
 782:../../Drivers/STM32H7xx_HAL_Driver/Src/stm32h7xx_hal_rcc.c ****         {
 1453              		.loc 1 782 9 is_stmt 1 view .LVU489
 1454              	.L103:
 782:../../Drivers/STM32H7xx_HAL_Driver/Src/stm32h7xx_hal_rcc.c ****         {
 1455              		.loc 1 782 52 view .LVU490
 782:../../Drivers/STM32H7xx_HAL_Driver/Src/stm32h7xx_hal_rcc.c ****         {
 1456              		.loc 1 782 16 is_stmt 0 view .LVU491
 1457 0510 654B     		ldr	r3, .L170
 1458 0512 1B68     		ldr	r3, [r3]
ARM GAS  C:\Users\minis\AppData\Local\Temp\cczlSevg.s 			page 45


 782:../../Drivers/STM32H7xx_HAL_Driver/Src/stm32h7xx_hal_rcc.c ****         {
 1459              		.loc 1 782 52 view .LVU492
 1460 0514 13F0007F 		tst	r3, #33554432
 1461 0518 06D0     		beq	.L163
 784:../../Drivers/STM32H7xx_HAL_Driver/Src/stm32h7xx_hal_rcc.c ****           {
 1462              		.loc 1 784 11 is_stmt 1 view .LVU493
 784:../../Drivers/STM32H7xx_HAL_Driver/Src/stm32h7xx_hal_rcc.c ****           {
 1463              		.loc 1 784 16 is_stmt 0 view .LVU494
 1464 051a FFF7FEFF 		bl	HAL_GetTick
 1465              	.LVL118:
 784:../../Drivers/STM32H7xx_HAL_Driver/Src/stm32h7xx_hal_rcc.c ****           {
 1466              		.loc 1 784 30 discriminator 1 view .LVU495
 1467 051e 401B     		subs	r0, r0, r5
 784:../../Drivers/STM32H7xx_HAL_Driver/Src/stm32h7xx_hal_rcc.c ****           {
 1468              		.loc 1 784 14 discriminator 1 view .LVU496
 1469 0520 0228     		cmp	r0, #2
 1470 0522 F5D9     		bls	.L103
 786:../../Drivers/STM32H7xx_HAL_Driver/Src/stm32h7xx_hal_rcc.c ****           }
 1471              		.loc 1 786 20 view .LVU497
 1472 0524 0320     		movs	r0, #3
 1473 0526 B0E0     		b	.L36
 1474              	.L163:
 791:../../Drivers/STM32H7xx_HAL_Driver/Src/stm32h7xx_hal_rcc.c ****                              RCC_OscInitStruct->PLL.PLLM,
 1475              		.loc 1 791 9 is_stmt 1 view .LVU498
 791:../../Drivers/STM32H7xx_HAL_Driver/Src/stm32h7xx_hal_rcc.c ****                              RCC_OscInitStruct->PLL.PLLM,
 1476              		.loc 1 791 9 view .LVU499
 1477 0528 5F4B     		ldr	r3, .L170
 1478 052a 996A     		ldr	r1, [r3, #40]
 1479 052c 5F4A     		ldr	r2, .L170+4
 1480 052e 0A40     		ands	r2, r2, r1
 1481 0530 A16A     		ldr	r1, [r4, #40]
 1482 0532 E06A     		ldr	r0, [r4, #44]
 1483 0534 41EA0011 		orr	r1, r1, r0, lsl #4
 1484 0538 0A43     		orrs	r2, r2, r1
 1485 053a 9A62     		str	r2, [r3, #40]
 791:../../Drivers/STM32H7xx_HAL_Driver/Src/stm32h7xx_hal_rcc.c ****                              RCC_OscInitStruct->PLL.PLLM,
 1486              		.loc 1 791 9 view .LVU500
 1487 053c 226B     		ldr	r2, [r4, #48]
 1488 053e 013A     		subs	r2, r2, #1
 1489 0540 C2F30802 		ubfx	r2, r2, #0, #9
 1490 0544 616B     		ldr	r1, [r4, #52]
 1491 0546 0139     		subs	r1, r1, #1
 1492 0548 4902     		lsls	r1, r1, #9
 1493 054a 89B2     		uxth	r1, r1
 1494 054c 0A43     		orrs	r2, r2, r1
 1495 054e A16B     		ldr	r1, [r4, #56]
 1496 0550 0139     		subs	r1, r1, #1
 1497 0552 0904     		lsls	r1, r1, #16
 1498 0554 01F4FE01 		and	r1, r1, #8323072
 1499 0558 0A43     		orrs	r2, r2, r1
 1500 055a E16B     		ldr	r1, [r4, #60]
 1501 055c 0139     		subs	r1, r1, #1
 1502 055e 0906     		lsls	r1, r1, #24
 1503 0560 01F0FE41 		and	r1, r1, #2130706432
 1504 0564 0A43     		orrs	r2, r2, r1
 1505 0566 1A63     		str	r2, [r3, #48]
 791:../../Drivers/STM32H7xx_HAL_Driver/Src/stm32h7xx_hal_rcc.c ****                              RCC_OscInitStruct->PLL.PLLM,
ARM GAS  C:\Users\minis\AppData\Local\Temp\cczlSevg.s 			page 46


 1506              		.loc 1 791 9 view .LVU501
 799:../../Drivers/STM32H7xx_HAL_Driver/Src/stm32h7xx_hal_rcc.c **** 
 1507              		.loc 1 799 9 view .LVU502
 1508 0568 DA6A     		ldr	r2, [r3, #44]
 1509 056a 22F00102 		bic	r2, r2, #1
 1510 056e DA62     		str	r2, [r3, #44]
 802:../../Drivers/STM32H7xx_HAL_Driver/Src/stm32h7xx_hal_rcc.c **** 
 1511              		.loc 1 802 9 view .LVU503
 1512 0570 5A6B     		ldr	r2, [r3, #52]
 1513 0572 6FF3CF02 		bfc	r2, #3, #13
 1514 0576 A16C     		ldr	r1, [r4, #72]
 1515 0578 42EAC102 		orr	r2, r2, r1, lsl #3
 1516 057c 5A63     		str	r2, [r3, #52]
 805:../../Drivers/STM32H7xx_HAL_Driver/Src/stm32h7xx_hal_rcc.c **** 
 1517              		.loc 1 805 9 view .LVU504
 1518 057e DA6A     		ldr	r2, [r3, #44]
 1519 0580 22F00C02 		bic	r2, r2, #12
 1520 0584 216C     		ldr	r1, [r4, #64]
 1521 0586 0A43     		orrs	r2, r2, r1
 1522 0588 DA62     		str	r2, [r3, #44]
 808:../../Drivers/STM32H7xx_HAL_Driver/Src/stm32h7xx_hal_rcc.c **** 
 1523              		.loc 1 808 9 view .LVU505
 1524 058a DA6A     		ldr	r2, [r3, #44]
 1525 058c 22F00202 		bic	r2, r2, #2
 1526 0590 616C     		ldr	r1, [r4, #68]
 1527 0592 0A43     		orrs	r2, r2, r1
 1528 0594 DA62     		str	r2, [r3, #44]
 811:../../Drivers/STM32H7xx_HAL_Driver/Src/stm32h7xx_hal_rcc.c **** 
 1529              		.loc 1 811 9 view .LVU506
 1530 0596 DA6A     		ldr	r2, [r3, #44]
 1531 0598 42F48032 		orr	r2, r2, #65536
 1532 059c DA62     		str	r2, [r3, #44]
 814:../../Drivers/STM32H7xx_HAL_Driver/Src/stm32h7xx_hal_rcc.c **** 
 1533              		.loc 1 814 9 view .LVU507
 1534 059e DA6A     		ldr	r2, [r3, #44]
 1535 05a0 42F40032 		orr	r2, r2, #131072
 1536 05a4 DA62     		str	r2, [r3, #44]
 817:../../Drivers/STM32H7xx_HAL_Driver/Src/stm32h7xx_hal_rcc.c **** 
 1537              		.loc 1 817 9 view .LVU508
 1538 05a6 DA6A     		ldr	r2, [r3, #44]
 1539 05a8 42F48022 		orr	r2, r2, #262144
 1540 05ac DA62     		str	r2, [r3, #44]
 820:../../Drivers/STM32H7xx_HAL_Driver/Src/stm32h7xx_hal_rcc.c **** 
 1541              		.loc 1 820 9 view .LVU509
 1542 05ae DA6A     		ldr	r2, [r3, #44]
 1543 05b0 42F00102 		orr	r2, r2, #1
 1544 05b4 DA62     		str	r2, [r3, #44]
 823:../../Drivers/STM32H7xx_HAL_Driver/Src/stm32h7xx_hal_rcc.c **** 
 1545              		.loc 1 823 9 view .LVU510
 1546 05b6 1A68     		ldr	r2, [r3]
 1547 05b8 42F08072 		orr	r2, r2, #16777216
 1548 05bc 1A60     		str	r2, [r3]
 826:../../Drivers/STM32H7xx_HAL_Driver/Src/stm32h7xx_hal_rcc.c **** 
 1549              		.loc 1 826 9 view .LVU511
 826:../../Drivers/STM32H7xx_HAL_Driver/Src/stm32h7xx_hal_rcc.c **** 
 1550              		.loc 1 826 21 is_stmt 0 view .LVU512
 1551 05be FFF7FEFF 		bl	HAL_GetTick
ARM GAS  C:\Users\minis\AppData\Local\Temp\cczlSevg.s 			page 47


 1552              	.LVL119:
 1553 05c2 0446     		mov	r4, r0
 1554              	.LVL120:
 829:../../Drivers/STM32H7xx_HAL_Driver/Src/stm32h7xx_hal_rcc.c ****         {
 1555              		.loc 1 829 9 is_stmt 1 view .LVU513
 1556              	.L105:
 829:../../Drivers/STM32H7xx_HAL_Driver/Src/stm32h7xx_hal_rcc.c ****         {
 1557              		.loc 1 829 52 view .LVU514
 829:../../Drivers/STM32H7xx_HAL_Driver/Src/stm32h7xx_hal_rcc.c ****         {
 1558              		.loc 1 829 16 is_stmt 0 view .LVU515
 1559 05c4 384B     		ldr	r3, .L170
 1560 05c6 1B68     		ldr	r3, [r3]
 829:../../Drivers/STM32H7xx_HAL_Driver/Src/stm32h7xx_hal_rcc.c ****         {
 1561              		.loc 1 829 52 view .LVU516
 1562 05c8 13F0007F 		tst	r3, #33554432
 1563 05cc 06D1     		bne	.L164
 831:../../Drivers/STM32H7xx_HAL_Driver/Src/stm32h7xx_hal_rcc.c ****           {
 1564              		.loc 1 831 11 is_stmt 1 view .LVU517
 831:../../Drivers/STM32H7xx_HAL_Driver/Src/stm32h7xx_hal_rcc.c ****           {
 1565              		.loc 1 831 16 is_stmt 0 view .LVU518
 1566 05ce FFF7FEFF 		bl	HAL_GetTick
 1567              	.LVL121:
 831:../../Drivers/STM32H7xx_HAL_Driver/Src/stm32h7xx_hal_rcc.c ****           {
 1568              		.loc 1 831 30 discriminator 1 view .LVU519
 1569 05d2 001B     		subs	r0, r0, r4
 831:../../Drivers/STM32H7xx_HAL_Driver/Src/stm32h7xx_hal_rcc.c ****           {
 1570              		.loc 1 831 14 discriminator 1 view .LVU520
 1571 05d4 0228     		cmp	r0, #2
 1572 05d6 F5D9     		bls	.L105
 833:../../Drivers/STM32H7xx_HAL_Driver/Src/stm32h7xx_hal_rcc.c ****           }
 1573              		.loc 1 833 20 view .LVU521
 1574 05d8 0320     		movs	r0, #3
 1575 05da 56E0     		b	.L36
 1576              	.L164:
 851:../../Drivers/STM32H7xx_HAL_Driver/Src/stm32h7xx_hal_rcc.c ****           }
 852:../../Drivers/STM32H7xx_HAL_Driver/Src/stm32h7xx_hal_rcc.c ****         }
 853:../../Drivers/STM32H7xx_HAL_Driver/Src/stm32h7xx_hal_rcc.c ****       }
 854:../../Drivers/STM32H7xx_HAL_Driver/Src/stm32h7xx_hal_rcc.c ****     }
 855:../../Drivers/STM32H7xx_HAL_Driver/Src/stm32h7xx_hal_rcc.c ****     else
 856:../../Drivers/STM32H7xx_HAL_Driver/Src/stm32h7xx_hal_rcc.c ****     {
 857:../../Drivers/STM32H7xx_HAL_Driver/Src/stm32h7xx_hal_rcc.c ****       /* Do not return HAL_ERROR if request repeats the current configuration */
 858:../../Drivers/STM32H7xx_HAL_Driver/Src/stm32h7xx_hal_rcc.c ****       temp1_pllckcfg = RCC->PLLCKSELR;
 859:../../Drivers/STM32H7xx_HAL_Driver/Src/stm32h7xx_hal_rcc.c ****       temp2_pllckcfg = RCC->PLL1DIVR;
 860:../../Drivers/STM32H7xx_HAL_Driver/Src/stm32h7xx_hal_rcc.c ****       if (((RCC_OscInitStruct->PLL.PLLState) == RCC_PLL_OFF) ||
 861:../../Drivers/STM32H7xx_HAL_Driver/Src/stm32h7xx_hal_rcc.c ****           (READ_BIT(temp1_pllckcfg, RCC_PLLCKSELR_PLLSRC) != RCC_OscInitStruct->PLL.PLLSource) ||
 862:../../Drivers/STM32H7xx_HAL_Driver/Src/stm32h7xx_hal_rcc.c ****           ((READ_BIT(temp1_pllckcfg, RCC_PLLCKSELR_DIVM1) >> RCC_PLLCKSELR_DIVM1_Pos) != RCC_OscIni
 863:../../Drivers/STM32H7xx_HAL_Driver/Src/stm32h7xx_hal_rcc.c ****           (READ_BIT(temp2_pllckcfg, RCC_PLL1DIVR_N1) != (RCC_OscInitStruct->PLL.PLLN - 1U)) ||
 864:../../Drivers/STM32H7xx_HAL_Driver/Src/stm32h7xx_hal_rcc.c ****           ((READ_BIT(temp2_pllckcfg, RCC_PLL1DIVR_P1) >> RCC_PLL1DIVR_P1_Pos) != (RCC_OscInitStruct
 865:../../Drivers/STM32H7xx_HAL_Driver/Src/stm32h7xx_hal_rcc.c ****           ((READ_BIT(temp2_pllckcfg, RCC_PLL1DIVR_Q1) >> RCC_PLL1DIVR_Q1_Pos) != (RCC_OscInitStruct
 866:../../Drivers/STM32H7xx_HAL_Driver/Src/stm32h7xx_hal_rcc.c ****           ((READ_BIT(temp2_pllckcfg, RCC_PLL1DIVR_R1) >> RCC_PLL1DIVR_R1_Pos) != (RCC_OscInitStruct
 867:../../Drivers/STM32H7xx_HAL_Driver/Src/stm32h7xx_hal_rcc.c ****       {
 868:../../Drivers/STM32H7xx_HAL_Driver/Src/stm32h7xx_hal_rcc.c ****         return HAL_ERROR;
 869:../../Drivers/STM32H7xx_HAL_Driver/Src/stm32h7xx_hal_rcc.c ****       }
 870:../../Drivers/STM32H7xx_HAL_Driver/Src/stm32h7xx_hal_rcc.c ****       else
 871:../../Drivers/STM32H7xx_HAL_Driver/Src/stm32h7xx_hal_rcc.c ****       {
 872:../../Drivers/STM32H7xx_HAL_Driver/Src/stm32h7xx_hal_rcc.c ****         /* Check if only fractional part needs to be updated  */
 873:../../Drivers/STM32H7xx_HAL_Driver/Src/stm32h7xx_hal_rcc.c ****         temp1_pllckcfg = ((RCC->PLL1FRACR & RCC_PLL1FRACR_FRACN1) >> RCC_PLL1FRACR_FRACN1_Pos);
ARM GAS  C:\Users\minis\AppData\Local\Temp\cczlSevg.s 			page 48


 874:../../Drivers/STM32H7xx_HAL_Driver/Src/stm32h7xx_hal_rcc.c ****         if (RCC_OscInitStruct->PLL.PLLFRACN != temp1_pllckcfg)
 875:../../Drivers/STM32H7xx_HAL_Driver/Src/stm32h7xx_hal_rcc.c ****         {
 876:../../Drivers/STM32H7xx_HAL_Driver/Src/stm32h7xx_hal_rcc.c ****           assert_param(IS_RCC_PLLFRACN_VALUE(RCC_OscInitStruct->PLL.PLLFRACN));
 877:../../Drivers/STM32H7xx_HAL_Driver/Src/stm32h7xx_hal_rcc.c ****           /* Disable PLL1FRACEN */
 878:../../Drivers/STM32H7xx_HAL_Driver/Src/stm32h7xx_hal_rcc.c ****           __HAL_RCC_PLLFRACN_DISABLE();
 879:../../Drivers/STM32H7xx_HAL_Driver/Src/stm32h7xx_hal_rcc.c ****           /* Get Start Tick*/
 880:../../Drivers/STM32H7xx_HAL_Driver/Src/stm32h7xx_hal_rcc.c ****           tickstart = HAL_GetTick();
 881:../../Drivers/STM32H7xx_HAL_Driver/Src/stm32h7xx_hal_rcc.c ****           /* Wait at least 2 CK_REF (PLL input source divided by M) period to make sure next latche
 882:../../Drivers/STM32H7xx_HAL_Driver/Src/stm32h7xx_hal_rcc.c ****           while ((HAL_GetTick() - tickstart) < PLL_FRAC_TIMEOUT_VALUE)
 883:../../Drivers/STM32H7xx_HAL_Driver/Src/stm32h7xx_hal_rcc.c ****           {
 884:../../Drivers/STM32H7xx_HAL_Driver/Src/stm32h7xx_hal_rcc.c ****           }
 885:../../Drivers/STM32H7xx_HAL_Driver/Src/stm32h7xx_hal_rcc.c ****           /* Configure PLL1 PLL1FRACN */
 886:../../Drivers/STM32H7xx_HAL_Driver/Src/stm32h7xx_hal_rcc.c ****           __HAL_RCC_PLLFRACN_CONFIG(RCC_OscInitStruct->PLL.PLLFRACN);
 887:../../Drivers/STM32H7xx_HAL_Driver/Src/stm32h7xx_hal_rcc.c ****           /* Enable PLL1FRACEN to latch new value. */
 888:../../Drivers/STM32H7xx_HAL_Driver/Src/stm32h7xx_hal_rcc.c ****           __HAL_RCC_PLLFRACN_ENABLE();
 889:../../Drivers/STM32H7xx_HAL_Driver/Src/stm32h7xx_hal_rcc.c ****         }
 890:../../Drivers/STM32H7xx_HAL_Driver/Src/stm32h7xx_hal_rcc.c ****       }
 891:../../Drivers/STM32H7xx_HAL_Driver/Src/stm32h7xx_hal_rcc.c ****     }
 892:../../Drivers/STM32H7xx_HAL_Driver/Src/stm32h7xx_hal_rcc.c ****   }
 893:../../Drivers/STM32H7xx_HAL_Driver/Src/stm32h7xx_hal_rcc.c ****   return HAL_OK;
 1577              		.loc 1 893 10 view .LVU522
 1578 05dc 0020     		movs	r0, #0
 1579 05de 54E0     		b	.L36
 1580              	.L159:
 1581              		.loc 1 893 10 view .LVU523
 1582 05e0 0020     		movs	r0, #0
 1583 05e2 52E0     		b	.L36
 1584              	.LVL122:
 1585              	.L101:
 858:../../Drivers/STM32H7xx_HAL_Driver/Src/stm32h7xx_hal_rcc.c ****       temp2_pllckcfg = RCC->PLL1DIVR;
 1586              		.loc 1 858 7 is_stmt 1 view .LVU524
 858:../../Drivers/STM32H7xx_HAL_Driver/Src/stm32h7xx_hal_rcc.c ****       temp2_pllckcfg = RCC->PLL1DIVR;
 1587              		.loc 1 858 22 is_stmt 0 view .LVU525
 1588 05e4 304A     		ldr	r2, .L170
 1589 05e6 916A     		ldr	r1, [r2, #40]
 1590              	.LVL123:
 859:../../Drivers/STM32H7xx_HAL_Driver/Src/stm32h7xx_hal_rcc.c ****       if (((RCC_OscInitStruct->PLL.PLLState) == RCC_PLL_OFF) ||
 1591              		.loc 1 859 7 is_stmt 1 view .LVU526
 859:../../Drivers/STM32H7xx_HAL_Driver/Src/stm32h7xx_hal_rcc.c ****       if (((RCC_OscInitStruct->PLL.PLLState) == RCC_PLL_OFF) ||
 1592              		.loc 1 859 22 is_stmt 0 view .LVU527
 1593 05e8 106B     		ldr	r0, [r2, #48]
 1594              	.LVL124:
 860:../../Drivers/STM32H7xx_HAL_Driver/Src/stm32h7xx_hal_rcc.c ****           (READ_BIT(temp1_pllckcfg, RCC_PLLCKSELR_PLLSRC) != RCC_OscInitStruct->PLL.PLLSource) ||
 1595              		.loc 1 860 7 is_stmt 1 view .LVU528
 860:../../Drivers/STM32H7xx_HAL_Driver/Src/stm32h7xx_hal_rcc.c ****           (READ_BIT(temp1_pllckcfg, RCC_PLLCKSELR_PLLSRC) != RCC_OscInitStruct->PLL.PLLSource) ||
 1596              		.loc 1 860 10 is_stmt 0 view .LVU529
 1597 05ea 012B     		cmp	r3, #1
 1598 05ec 4ED0     		beq	.L132
 861:../../Drivers/STM32H7xx_HAL_Driver/Src/stm32h7xx_hal_rcc.c ****           ((READ_BIT(temp1_pllckcfg, RCC_PLLCKSELR_DIVM1) >> RCC_PLLCKSELR_DIVM1_Pos) != RCC_OscIni
 1599              		.loc 1 861 12 view .LVU530
 1600 05ee 01F00303 		and	r3, r1, #3
 861:../../Drivers/STM32H7xx_HAL_Driver/Src/stm32h7xx_hal_rcc.c ****           ((READ_BIT(temp1_pllckcfg, RCC_PLLCKSELR_DIVM1) >> RCC_PLLCKSELR_DIVM1_Pos) != RCC_OscIni
 1601              		.loc 1 861 84 view .LVU531
 1602 05f2 A26A     		ldr	r2, [r4, #40]
 860:../../Drivers/STM32H7xx_HAL_Driver/Src/stm32h7xx_hal_rcc.c ****           (READ_BIT(temp1_pllckcfg, RCC_PLLCKSELR_PLLSRC) != RCC_OscInitStruct->PLL.PLLSource) ||
 1603              		.loc 1 860 62 discriminator 1 view .LVU532
 1604 05f4 9342     		cmp	r3, r2
ARM GAS  C:\Users\minis\AppData\Local\Temp\cczlSevg.s 			page 49


 1605 05f6 4BD1     		bne	.L133
 862:../../Drivers/STM32H7xx_HAL_Driver/Src/stm32h7xx_hal_rcc.c ****           (READ_BIT(temp2_pllckcfg, RCC_PLL1DIVR_N1) != (RCC_OscInitStruct->PLL.PLLN - 1U)) ||
 1606              		.loc 1 862 59 view .LVU533
 1607 05f8 C1F30511 		ubfx	r1, r1, #4, #6
 1608              	.LVL125:
 862:../../Drivers/STM32H7xx_HAL_Driver/Src/stm32h7xx_hal_rcc.c ****           (READ_BIT(temp2_pllckcfg, RCC_PLL1DIVR_N1) != (RCC_OscInitStruct->PLL.PLLN - 1U)) ||
 1609              		.loc 1 862 112 view .LVU534
 1610 05fc E36A     		ldr	r3, [r4, #44]
 861:../../Drivers/STM32H7xx_HAL_Driver/Src/stm32h7xx_hal_rcc.c ****           ((READ_BIT(temp1_pllckcfg, RCC_PLLCKSELR_DIVM1) >> RCC_PLLCKSELR_DIVM1_Pos) != RCC_OscIni
 1611              		.loc 1 861 96 view .LVU535
 1612 05fe 9942     		cmp	r1, r3
 1613 0600 48D1     		bne	.L134
 863:../../Drivers/STM32H7xx_HAL_Driver/Src/stm32h7xx_hal_rcc.c ****           ((READ_BIT(temp2_pllckcfg, RCC_PLL1DIVR_P1) >> RCC_PLL1DIVR_P1_Pos) != (RCC_OscInitStruct
 1614              		.loc 1 863 12 view .LVU536
 1615 0602 C0F30802 		ubfx	r2, r0, #0, #9
 863:../../Drivers/STM32H7xx_HAL_Driver/Src/stm32h7xx_hal_rcc.c ****           ((READ_BIT(temp2_pllckcfg, RCC_PLL1DIVR_P1) >> RCC_PLL1DIVR_P1_Pos) != (RCC_OscInitStruct
 1616              		.loc 1 863 80 view .LVU537
 1617 0606 236B     		ldr	r3, [r4, #48]
 863:../../Drivers/STM32H7xx_HAL_Driver/Src/stm32h7xx_hal_rcc.c ****           ((READ_BIT(temp2_pllckcfg, RCC_PLL1DIVR_P1) >> RCC_PLL1DIVR_P1_Pos) != (RCC_OscInitStruct
 1618              		.loc 1 863 86 view .LVU538
 1619 0608 013B     		subs	r3, r3, #1
 862:../../Drivers/STM32H7xx_HAL_Driver/Src/stm32h7xx_hal_rcc.c ****           (READ_BIT(temp2_pllckcfg, RCC_PLL1DIVR_N1) != (RCC_OscInitStruct->PLL.PLLN - 1U)) ||
 1620              		.loc 1 862 119 view .LVU539
 1621 060a 9A42     		cmp	r2, r3
 1622 060c 44D1     		bne	.L135
 864:../../Drivers/STM32H7xx_HAL_Driver/Src/stm32h7xx_hal_rcc.c ****           ((READ_BIT(temp2_pllckcfg, RCC_PLL1DIVR_Q1) >> RCC_PLL1DIVR_Q1_Pos) != (RCC_OscInitStruct
 1623              		.loc 1 864 55 view .LVU540
 1624 060e C0F34622 		ubfx	r2, r0, #9, #7
 864:../../Drivers/STM32H7xx_HAL_Driver/Src/stm32h7xx_hal_rcc.c ****           ((READ_BIT(temp2_pllckcfg, RCC_PLL1DIVR_Q1) >> RCC_PLL1DIVR_Q1_Pos) != (RCC_OscInitStruct
 1625              		.loc 1 864 105 view .LVU541
 1626 0612 636B     		ldr	r3, [r4, #52]
 864:../../Drivers/STM32H7xx_HAL_Driver/Src/stm32h7xx_hal_rcc.c ****           ((READ_BIT(temp2_pllckcfg, RCC_PLL1DIVR_Q1) >> RCC_PLL1DIVR_Q1_Pos) != (RCC_OscInitStruct
 1627              		.loc 1 864 111 view .LVU542
 1628 0614 013B     		subs	r3, r3, #1
 863:../../Drivers/STM32H7xx_HAL_Driver/Src/stm32h7xx_hal_rcc.c ****           ((READ_BIT(temp2_pllckcfg, RCC_PLL1DIVR_P1) >> RCC_PLL1DIVR_P1_Pos) != (RCC_OscInitStruct
 1629              		.loc 1 863 93 view .LVU543
 1630 0616 9A42     		cmp	r2, r3
 1631 0618 40D1     		bne	.L136
 865:../../Drivers/STM32H7xx_HAL_Driver/Src/stm32h7xx_hal_rcc.c ****           ((READ_BIT(temp2_pllckcfg, RCC_PLL1DIVR_R1) >> RCC_PLL1DIVR_R1_Pos) != (RCC_OscInitStruct
 1632              		.loc 1 865 55 view .LVU544
 1633 061a C0F30642 		ubfx	r2, r0, #16, #7
 865:../../Drivers/STM32H7xx_HAL_Driver/Src/stm32h7xx_hal_rcc.c ****           ((READ_BIT(temp2_pllckcfg, RCC_PLL1DIVR_R1) >> RCC_PLL1DIVR_R1_Pos) != (RCC_OscInitStruct
 1634              		.loc 1 865 105 view .LVU545
 1635 061e A36B     		ldr	r3, [r4, #56]
 865:../../Drivers/STM32H7xx_HAL_Driver/Src/stm32h7xx_hal_rcc.c ****           ((READ_BIT(temp2_pllckcfg, RCC_PLL1DIVR_R1) >> RCC_PLL1DIVR_R1_Pos) != (RCC_OscInitStruct
 1636              		.loc 1 865 111 view .LVU546
 1637 0620 013B     		subs	r3, r3, #1
 864:../../Drivers/STM32H7xx_HAL_Driver/Src/stm32h7xx_hal_rcc.c ****           ((READ_BIT(temp2_pllckcfg, RCC_PLL1DIVR_Q1) >> RCC_PLL1DIVR_Q1_Pos) != (RCC_OscInitStruct
 1638              		.loc 1 864 118 view .LVU547
 1639 0622 9A42     		cmp	r2, r3
 1640 0624 3CD1     		bne	.L137
 866:../../Drivers/STM32H7xx_HAL_Driver/Src/stm32h7xx_hal_rcc.c ****       {
 1641              		.loc 1 866 55 view .LVU548
 1642 0626 C0F30660 		ubfx	r0, r0, #24, #7
 1643              	.LVL126:
 866:../../Drivers/STM32H7xx_HAL_Driver/Src/stm32h7xx_hal_rcc.c ****       {
 1644              		.loc 1 866 105 view .LVU549
ARM GAS  C:\Users\minis\AppData\Local\Temp\cczlSevg.s 			page 50


 1645 062a E36B     		ldr	r3, [r4, #60]
 866:../../Drivers/STM32H7xx_HAL_Driver/Src/stm32h7xx_hal_rcc.c ****       {
 1646              		.loc 1 866 111 view .LVU550
 1647 062c 013B     		subs	r3, r3, #1
 865:../../Drivers/STM32H7xx_HAL_Driver/Src/stm32h7xx_hal_rcc.c ****           ((READ_BIT(temp2_pllckcfg, RCC_PLL1DIVR_R1) >> RCC_PLL1DIVR_R1_Pos) != (RCC_OscInitStruct
 1648              		.loc 1 865 118 view .LVU551
 1649 062e 9842     		cmp	r0, r3
 1650 0630 38D1     		bne	.L138
 873:../../Drivers/STM32H7xx_HAL_Driver/Src/stm32h7xx_hal_rcc.c ****         if (RCC_OscInitStruct->PLL.PLLFRACN != temp1_pllckcfg)
 1651              		.loc 1 873 9 is_stmt 1 view .LVU552
 873:../../Drivers/STM32H7xx_HAL_Driver/Src/stm32h7xx_hal_rcc.c ****         if (RCC_OscInitStruct->PLL.PLLFRACN != temp1_pllckcfg)
 1652              		.loc 1 873 31 is_stmt 0 view .LVU553
 1653 0632 1D4B     		ldr	r3, .L170
 1654 0634 5B6B     		ldr	r3, [r3, #52]
 873:../../Drivers/STM32H7xx_HAL_Driver/Src/stm32h7xx_hal_rcc.c ****         if (RCC_OscInitStruct->PLL.PLLFRACN != temp1_pllckcfg)
 1655              		.loc 1 873 24 view .LVU554
 1656 0636 C3F3CC03 		ubfx	r3, r3, #3, #13
 1657              	.LVL127:
 874:../../Drivers/STM32H7xx_HAL_Driver/Src/stm32h7xx_hal_rcc.c ****         {
 1658              		.loc 1 874 9 is_stmt 1 view .LVU555
 874:../../Drivers/STM32H7xx_HAL_Driver/Src/stm32h7xx_hal_rcc.c ****         {
 1659              		.loc 1 874 35 is_stmt 0 view .LVU556
 1660 063a A26C     		ldr	r2, [r4, #72]
 874:../../Drivers/STM32H7xx_HAL_Driver/Src/stm32h7xx_hal_rcc.c ****         {
 1661              		.loc 1 874 12 view .LVU557
 1662 063c 9A42     		cmp	r2, r3
 1663 063e 01D1     		bne	.L165
 1664              		.loc 1 893 10 view .LVU558
 1665 0640 0020     		movs	r0, #0
 1666 0642 22E0     		b	.L36
 1667              	.L165:
 876:../../Drivers/STM32H7xx_HAL_Driver/Src/stm32h7xx_hal_rcc.c ****           /* Disable PLL1FRACEN */
 1668              		.loc 1 876 11 is_stmt 1 view .LVU559
 878:../../Drivers/STM32H7xx_HAL_Driver/Src/stm32h7xx_hal_rcc.c ****           /* Get Start Tick*/
 1669              		.loc 1 878 11 view .LVU560
 1670 0644 184A     		ldr	r2, .L170
 1671 0646 D36A     		ldr	r3, [r2, #44]
 1672              	.LVL128:
 878:../../Drivers/STM32H7xx_HAL_Driver/Src/stm32h7xx_hal_rcc.c ****           /* Get Start Tick*/
 1673              		.loc 1 878 11 is_stmt 0 view .LVU561
 1674 0648 23F00103 		bic	r3, r3, #1
 1675 064c D362     		str	r3, [r2, #44]
 880:../../Drivers/STM32H7xx_HAL_Driver/Src/stm32h7xx_hal_rcc.c ****           /* Wait at least 2 CK_REF (PLL input source divided by M) period to make sure next latche
 1676              		.loc 1 880 11 is_stmt 1 view .LVU562
 880:../../Drivers/STM32H7xx_HAL_Driver/Src/stm32h7xx_hal_rcc.c ****           /* Wait at least 2 CK_REF (PLL input source divided by M) period to make sure next latche
 1677              		.loc 1 880 23 is_stmt 0 view .LVU563
 1678 064e FFF7FEFF 		bl	HAL_GetTick
 1679              	.LVL129:
 1680 0652 0546     		mov	r5, r0
 1681              	.LVL130:
 882:../../Drivers/STM32H7xx_HAL_Driver/Src/stm32h7xx_hal_rcc.c ****           {
 1682              		.loc 1 882 11 is_stmt 1 view .LVU564
 1683              	.L109:
 884:../../Drivers/STM32H7xx_HAL_Driver/Src/stm32h7xx_hal_rcc.c ****           /* Configure PLL1 PLL1FRACN */
 1684              		.loc 1 884 11 view .LVU565
 882:../../Drivers/STM32H7xx_HAL_Driver/Src/stm32h7xx_hal_rcc.c ****           {
 1685              		.loc 1 882 46 discriminator 1 view .LVU566
ARM GAS  C:\Users\minis\AppData\Local\Temp\cczlSevg.s 			page 51


 882:../../Drivers/STM32H7xx_HAL_Driver/Src/stm32h7xx_hal_rcc.c ****           {
 1686              		.loc 1 882 19 is_stmt 0 discriminator 1 view .LVU567
 1687 0654 FFF7FEFF 		bl	HAL_GetTick
 1688              	.LVL131:
 882:../../Drivers/STM32H7xx_HAL_Driver/Src/stm32h7xx_hal_rcc.c ****           {
 1689              		.loc 1 882 46 discriminator 1 view .LVU568
 1690 0658 A842     		cmp	r0, r5
 1691 065a FBD0     		beq	.L109
 886:../../Drivers/STM32H7xx_HAL_Driver/Src/stm32h7xx_hal_rcc.c ****           /* Enable PLL1FRACEN to latch new value. */
 1692              		.loc 1 886 11 is_stmt 1 view .LVU569
 1693 065c 124A     		ldr	r2, .L170
 1694 065e 536B     		ldr	r3, [r2, #52]
 1695 0660 6FF3CF03 		bfc	r3, #3, #13
 1696 0664 A16C     		ldr	r1, [r4, #72]
 1697 0666 43EAC103 		orr	r3, r3, r1, lsl #3
 1698 066a 5363     		str	r3, [r2, #52]
 888:../../Drivers/STM32H7xx_HAL_Driver/Src/stm32h7xx_hal_rcc.c ****         }
 1699              		.loc 1 888 11 view .LVU570
 1700 066c D36A     		ldr	r3, [r2, #44]
 1701 066e 43F00103 		orr	r3, r3, #1
 1702 0672 D362     		str	r3, [r2, #44]
 1703              		.loc 1 893 10 is_stmt 0 view .LVU571
 1704 0674 0020     		movs	r0, #0
 1705 0676 08E0     		b	.L36
 1706              	.LVL132:
 1707              	.L110:
 1708              	.LCFI2:
 1709              		.cfi_def_cfa_offset 0
 1710              		.cfi_restore 3
 1711              		.cfi_restore 4
 1712              		.cfi_restore 5
 1713              		.cfi_restore 14
 413:../../Drivers/STM32H7xx_HAL_Driver/Src/stm32h7xx_hal_rcc.c ****   }
 1714              		.loc 1 413 12 view .LVU572
 1715 0678 0120     		movs	r0, #1
 1716              	.LVL133:
 894:../../Drivers/STM32H7xx_HAL_Driver/Src/stm32h7xx_hal_rcc.c **** }
 1717              		.loc 1 894 1 view .LVU573
 1718 067a 7047     		bx	lr
 1719              	.LVL134:
 1720              	.L146:
 1721              	.LCFI3:
 1722              		.cfi_def_cfa_offset 16
 1723              		.cfi_offset 3, -16
 1724              		.cfi_offset 4, -12
 1725              		.cfi_offset 5, -8
 1726              		.cfi_offset 14, -4
 1727              	.LBB10:
 431:../../Drivers/STM32H7xx_HAL_Driver/Src/stm32h7xx_hal_rcc.c ****       }
 1728              		.loc 1 431 16 view .LVU574
 1729 067c 0120     		movs	r0, #1
 1730              	.LVL135:
 431:../../Drivers/STM32H7xx_HAL_Driver/Src/stm32h7xx_hal_rcc.c ****       }
 1731              		.loc 1 431 16 view .LVU575
 1732 067e 04E0     		b	.L36
 1733              	.LVL136:
 1734              	.L114:
ARM GAS  C:\Users\minis\AppData\Local\Temp\cczlSevg.s 			page 52


 431:../../Drivers/STM32H7xx_HAL_Driver/Src/stm32h7xx_hal_rcc.c ****       }
 1735              		.loc 1 431 16 view .LVU576
 1736              	.LBE10:
 1737              	.LBB11:
 485:../../Drivers/STM32H7xx_HAL_Driver/Src/stm32h7xx_hal_rcc.c ****       }
 1738              		.loc 1 485 16 view .LVU577
 1739 0680 0120     		movs	r0, #1
 1740 0682 02E0     		b	.L36
 1741              	.LVL137:
 1742              	.L118:
 485:../../Drivers/STM32H7xx_HAL_Driver/Src/stm32h7xx_hal_rcc.c ****       }
 1743              		.loc 1 485 16 view .LVU578
 1744              	.LBE11:
 1745              	.LBB12:
 566:../../Drivers/STM32H7xx_HAL_Driver/Src/stm32h7xx_hal_rcc.c ****       }
 1746              		.loc 1 566 16 view .LVU579
 1747 0684 0120     		movs	r0, #1
 1748 0686 00E0     		b	.L36
 1749              	.LVL138:
 1750              	.L128:
 566:../../Drivers/STM32H7xx_HAL_Driver/Src/stm32h7xx_hal_rcc.c ****       }
 1751              		.loc 1 566 16 view .LVU580
 1752              	.LBE12:
 893:../../Drivers/STM32H7xx_HAL_Driver/Src/stm32h7xx_hal_rcc.c **** }
 1753              		.loc 1 893 10 view .LVU581
 1754 0688 0020     		movs	r0, #0
 1755              	.LVL139:
 1756              	.L36:
 1757              		.loc 1 894 1 view .LVU582
 1758 068a 38BD     		pop	{r3, r4, r5, pc}
 1759              	.LVL140:
 1760              	.L132:
 868:../../Drivers/STM32H7xx_HAL_Driver/Src/stm32h7xx_hal_rcc.c ****       }
 1761              		.loc 1 868 16 view .LVU583
 1762 068c 0120     		movs	r0, #1
 1763              	.LVL141:
 868:../../Drivers/STM32H7xx_HAL_Driver/Src/stm32h7xx_hal_rcc.c ****       }
 1764              		.loc 1 868 16 view .LVU584
 1765 068e FCE7     		b	.L36
 1766              	.LVL142:
 1767              	.L133:
 868:../../Drivers/STM32H7xx_HAL_Driver/Src/stm32h7xx_hal_rcc.c ****       }
 1768              		.loc 1 868 16 view .LVU585
 1769 0690 0120     		movs	r0, #1
 1770              	.LVL143:
 868:../../Drivers/STM32H7xx_HAL_Driver/Src/stm32h7xx_hal_rcc.c ****       }
 1771              		.loc 1 868 16 view .LVU586
 1772 0692 FAE7     		b	.L36
 1773              	.LVL144:
 1774              	.L134:
 868:../../Drivers/STM32H7xx_HAL_Driver/Src/stm32h7xx_hal_rcc.c ****       }
 1775              		.loc 1 868 16 view .LVU587
 1776 0694 0120     		movs	r0, #1
 1777              	.LVL145:
 868:../../Drivers/STM32H7xx_HAL_Driver/Src/stm32h7xx_hal_rcc.c ****       }
 1778              		.loc 1 868 16 view .LVU588
 1779 0696 F8E7     		b	.L36
ARM GAS  C:\Users\minis\AppData\Local\Temp\cczlSevg.s 			page 53


 1780              	.LVL146:
 1781              	.L135:
 868:../../Drivers/STM32H7xx_HAL_Driver/Src/stm32h7xx_hal_rcc.c ****       }
 1782              		.loc 1 868 16 view .LVU589
 1783 0698 0120     		movs	r0, #1
 1784              	.LVL147:
 868:../../Drivers/STM32H7xx_HAL_Driver/Src/stm32h7xx_hal_rcc.c ****       }
 1785              		.loc 1 868 16 view .LVU590
 1786 069a F6E7     		b	.L36
 1787              	.LVL148:
 1788              	.L136:
 868:../../Drivers/STM32H7xx_HAL_Driver/Src/stm32h7xx_hal_rcc.c ****       }
 1789              		.loc 1 868 16 view .LVU591
 1790 069c 0120     		movs	r0, #1
 1791              	.LVL149:
 868:../../Drivers/STM32H7xx_HAL_Driver/Src/stm32h7xx_hal_rcc.c ****       }
 1792              		.loc 1 868 16 view .LVU592
 1793 069e F4E7     		b	.L36
 1794              	.LVL150:
 1795              	.L137:
 868:../../Drivers/STM32H7xx_HAL_Driver/Src/stm32h7xx_hal_rcc.c ****       }
 1796              		.loc 1 868 16 view .LVU593
 1797 06a0 0120     		movs	r0, #1
 1798              	.LVL151:
 868:../../Drivers/STM32H7xx_HAL_Driver/Src/stm32h7xx_hal_rcc.c ****       }
 1799              		.loc 1 868 16 view .LVU594
 1800 06a2 F2E7     		b	.L36
 1801              	.L138:
 1802 06a4 0120     		movs	r0, #1
 1803 06a6 F0E7     		b	.L36
 1804              	.L171:
 1805              		.align	2
 1806              	.L170:
 1807 06a8 00440258 		.word	1476543488
 1808 06ac 0CFCFFFF 		.word	-1012
 1809              		.cfi_endproc
 1810              	.LFE145:
 1812              		.section	.text.HAL_RCC_MCOConfig,"ax",%progbits
 1813              		.align	1
 1814              		.global	HAL_RCC_MCOConfig
 1815              		.syntax unified
 1816              		.thumb
 1817              		.thumb_func
 1819              	HAL_RCC_MCOConfig:
 1820              	.LVL152:
 1821              	.LFB147:
 895:../../Drivers/STM32H7xx_HAL_Driver/Src/stm32h7xx_hal_rcc.c **** 
 896:../../Drivers/STM32H7xx_HAL_Driver/Src/stm32h7xx_hal_rcc.c **** /**
 897:../../Drivers/STM32H7xx_HAL_Driver/Src/stm32h7xx_hal_rcc.c ****   * @brief  Initializes the CPU, AHB and APB buses clocks according to the specified
 898:../../Drivers/STM32H7xx_HAL_Driver/Src/stm32h7xx_hal_rcc.c ****   *         parameters in the RCC_ClkInitStruct.
 899:../../Drivers/STM32H7xx_HAL_Driver/Src/stm32h7xx_hal_rcc.c ****   * @param  RCC_ClkInitStruct: pointer to an RCC_OscInitTypeDef structure that
 900:../../Drivers/STM32H7xx_HAL_Driver/Src/stm32h7xx_hal_rcc.c ****   *         contains the configuration information for the RCC peripheral.
 901:../../Drivers/STM32H7xx_HAL_Driver/Src/stm32h7xx_hal_rcc.c ****   * @param  FLatency: FLASH Latency, this parameter depend on device selected
 902:../../Drivers/STM32H7xx_HAL_Driver/Src/stm32h7xx_hal_rcc.c ****   *
 903:../../Drivers/STM32H7xx_HAL_Driver/Src/stm32h7xx_hal_rcc.c ****   * @note   The SystemCoreClock CMSIS variable is used to store System Core Clock Frequency
 904:../../Drivers/STM32H7xx_HAL_Driver/Src/stm32h7xx_hal_rcc.c ****   *         and updated by HAL_InitTick() function called within this function
 905:../../Drivers/STM32H7xx_HAL_Driver/Src/stm32h7xx_hal_rcc.c ****   *
ARM GAS  C:\Users\minis\AppData\Local\Temp\cczlSevg.s 			page 54


 906:../../Drivers/STM32H7xx_HAL_Driver/Src/stm32h7xx_hal_rcc.c ****   * @note   The HSI is used (enabled by hardware) as system clock source after
 907:../../Drivers/STM32H7xx_HAL_Driver/Src/stm32h7xx_hal_rcc.c ****   *         start-up from Reset, wake-up from STOP and STANDBY mode, or in case
 908:../../Drivers/STM32H7xx_HAL_Driver/Src/stm32h7xx_hal_rcc.c ****   *         of failure of the HSE used directly or indirectly as system clock
 909:../../Drivers/STM32H7xx_HAL_Driver/Src/stm32h7xx_hal_rcc.c ****   *         (if the Clock Security System CSS is enabled).
 910:../../Drivers/STM32H7xx_HAL_Driver/Src/stm32h7xx_hal_rcc.c ****   *
 911:../../Drivers/STM32H7xx_HAL_Driver/Src/stm32h7xx_hal_rcc.c ****   * @note   A switch from one clock source to another occurs only if the target
 912:../../Drivers/STM32H7xx_HAL_Driver/Src/stm32h7xx_hal_rcc.c ****   *         clock source is ready (clock stable after start-up delay or PLL locked).
 913:../../Drivers/STM32H7xx_HAL_Driver/Src/stm32h7xx_hal_rcc.c ****   *         If a clock source which is not yet ready is selected, the switch will
 914:../../Drivers/STM32H7xx_HAL_Driver/Src/stm32h7xx_hal_rcc.c ****   *         occur when the clock source will be ready.
 915:../../Drivers/STM32H7xx_HAL_Driver/Src/stm32h7xx_hal_rcc.c ****   *         You can use HAL_RCC_GetClockConfig() function to know which clock is
 916:../../Drivers/STM32H7xx_HAL_Driver/Src/stm32h7xx_hal_rcc.c ****   *         currently used as system clock source.
 917:../../Drivers/STM32H7xx_HAL_Driver/Src/stm32h7xx_hal_rcc.c ****   * @note   Depending on the device voltage range, the software has to set correctly
 918:../../Drivers/STM32H7xx_HAL_Driver/Src/stm32h7xx_hal_rcc.c ****   *         D1CPRE[3:0] bits to ensure that  Domain1 core clock not exceed the maximum allowed freq
 919:../../Drivers/STM32H7xx_HAL_Driver/Src/stm32h7xx_hal_rcc.c ****   *         (for more details refer to section above "Initialization/de-initialization functions")
 920:../../Drivers/STM32H7xx_HAL_Driver/Src/stm32h7xx_hal_rcc.c ****   * @retval None
 921:../../Drivers/STM32H7xx_HAL_Driver/Src/stm32h7xx_hal_rcc.c ****   */
 922:../../Drivers/STM32H7xx_HAL_Driver/Src/stm32h7xx_hal_rcc.c **** HAL_StatusTypeDef HAL_RCC_ClockConfig(const RCC_ClkInitTypeDef  *RCC_ClkInitStruct, uint32_t FLaten
 923:../../Drivers/STM32H7xx_HAL_Driver/Src/stm32h7xx_hal_rcc.c **** {
 924:../../Drivers/STM32H7xx_HAL_Driver/Src/stm32h7xx_hal_rcc.c ****   HAL_StatusTypeDef halstatus;
 925:../../Drivers/STM32H7xx_HAL_Driver/Src/stm32h7xx_hal_rcc.c ****   uint32_t tickstart;
 926:../../Drivers/STM32H7xx_HAL_Driver/Src/stm32h7xx_hal_rcc.c ****   uint32_t common_system_clock;
 927:../../Drivers/STM32H7xx_HAL_Driver/Src/stm32h7xx_hal_rcc.c **** 
 928:../../Drivers/STM32H7xx_HAL_Driver/Src/stm32h7xx_hal_rcc.c ****   /* Check Null pointer */
 929:../../Drivers/STM32H7xx_HAL_Driver/Src/stm32h7xx_hal_rcc.c ****   if (RCC_ClkInitStruct == NULL)
 930:../../Drivers/STM32H7xx_HAL_Driver/Src/stm32h7xx_hal_rcc.c ****   {
 931:../../Drivers/STM32H7xx_HAL_Driver/Src/stm32h7xx_hal_rcc.c ****     return HAL_ERROR;
 932:../../Drivers/STM32H7xx_HAL_Driver/Src/stm32h7xx_hal_rcc.c ****   }
 933:../../Drivers/STM32H7xx_HAL_Driver/Src/stm32h7xx_hal_rcc.c **** 
 934:../../Drivers/STM32H7xx_HAL_Driver/Src/stm32h7xx_hal_rcc.c ****   /* Check the parameters */
 935:../../Drivers/STM32H7xx_HAL_Driver/Src/stm32h7xx_hal_rcc.c ****   assert_param(IS_RCC_CLOCKTYPE(RCC_ClkInitStruct->ClockType));
 936:../../Drivers/STM32H7xx_HAL_Driver/Src/stm32h7xx_hal_rcc.c ****   assert_param(IS_FLASH_LATENCY(FLatency));
 937:../../Drivers/STM32H7xx_HAL_Driver/Src/stm32h7xx_hal_rcc.c **** 
 938:../../Drivers/STM32H7xx_HAL_Driver/Src/stm32h7xx_hal_rcc.c ****   /* To correctly read data from FLASH memory, the number of wait states (LATENCY)
 939:../../Drivers/STM32H7xx_HAL_Driver/Src/stm32h7xx_hal_rcc.c ****     must be correctly programmed according to the frequency of the CPU clock
 940:../../Drivers/STM32H7xx_HAL_Driver/Src/stm32h7xx_hal_rcc.c ****     (HCLK) and the supply voltage of the device. */
 941:../../Drivers/STM32H7xx_HAL_Driver/Src/stm32h7xx_hal_rcc.c **** 
 942:../../Drivers/STM32H7xx_HAL_Driver/Src/stm32h7xx_hal_rcc.c ****   /* Increasing the CPU frequency */
 943:../../Drivers/STM32H7xx_HAL_Driver/Src/stm32h7xx_hal_rcc.c ****   if (FLatency > __HAL_FLASH_GET_LATENCY())
 944:../../Drivers/STM32H7xx_HAL_Driver/Src/stm32h7xx_hal_rcc.c ****   {
 945:../../Drivers/STM32H7xx_HAL_Driver/Src/stm32h7xx_hal_rcc.c ****     /* Program the new number of wait states to the LATENCY bits in the FLASH_ACR register */
 946:../../Drivers/STM32H7xx_HAL_Driver/Src/stm32h7xx_hal_rcc.c ****     __HAL_FLASH_SET_LATENCY(FLatency);
 947:../../Drivers/STM32H7xx_HAL_Driver/Src/stm32h7xx_hal_rcc.c **** 
 948:../../Drivers/STM32H7xx_HAL_Driver/Src/stm32h7xx_hal_rcc.c ****     /* Check that the new number of wait states is taken into account to access the Flash
 949:../../Drivers/STM32H7xx_HAL_Driver/Src/stm32h7xx_hal_rcc.c ****     memory by reading the FLASH_ACR register */
 950:../../Drivers/STM32H7xx_HAL_Driver/Src/stm32h7xx_hal_rcc.c ****     if (__HAL_FLASH_GET_LATENCY() != FLatency)
 951:../../Drivers/STM32H7xx_HAL_Driver/Src/stm32h7xx_hal_rcc.c ****     {
 952:../../Drivers/STM32H7xx_HAL_Driver/Src/stm32h7xx_hal_rcc.c ****       return HAL_ERROR;
 953:../../Drivers/STM32H7xx_HAL_Driver/Src/stm32h7xx_hal_rcc.c ****     }
 954:../../Drivers/STM32H7xx_HAL_Driver/Src/stm32h7xx_hal_rcc.c **** 
 955:../../Drivers/STM32H7xx_HAL_Driver/Src/stm32h7xx_hal_rcc.c ****   }
 956:../../Drivers/STM32H7xx_HAL_Driver/Src/stm32h7xx_hal_rcc.c **** 
 957:../../Drivers/STM32H7xx_HAL_Driver/Src/stm32h7xx_hal_rcc.c ****   /* Increasing the BUS frequency divider */
 958:../../Drivers/STM32H7xx_HAL_Driver/Src/stm32h7xx_hal_rcc.c ****   /*-------------------------- D1PCLK1/CDPCLK1 Configuration ---------------------------*/
 959:../../Drivers/STM32H7xx_HAL_Driver/Src/stm32h7xx_hal_rcc.c ****   if (((RCC_ClkInitStruct->ClockType) & RCC_CLOCKTYPE_D1PCLK1) == RCC_CLOCKTYPE_D1PCLK1)
 960:../../Drivers/STM32H7xx_HAL_Driver/Src/stm32h7xx_hal_rcc.c ****   {
 961:../../Drivers/STM32H7xx_HAL_Driver/Src/stm32h7xx_hal_rcc.c **** #if defined (RCC_D1CFGR_D1PPRE)
 962:../../Drivers/STM32H7xx_HAL_Driver/Src/stm32h7xx_hal_rcc.c ****     if ((RCC_ClkInitStruct->APB3CLKDivider) > (RCC->D1CFGR & RCC_D1CFGR_D1PPRE))
ARM GAS  C:\Users\minis\AppData\Local\Temp\cczlSevg.s 			page 55


 963:../../Drivers/STM32H7xx_HAL_Driver/Src/stm32h7xx_hal_rcc.c ****     {
 964:../../Drivers/STM32H7xx_HAL_Driver/Src/stm32h7xx_hal_rcc.c ****       assert_param(IS_RCC_D1PCLK1(RCC_ClkInitStruct->APB3CLKDivider));
 965:../../Drivers/STM32H7xx_HAL_Driver/Src/stm32h7xx_hal_rcc.c ****       MODIFY_REG(RCC->D1CFGR, RCC_D1CFGR_D1PPRE, RCC_ClkInitStruct->APB3CLKDivider);
 966:../../Drivers/STM32H7xx_HAL_Driver/Src/stm32h7xx_hal_rcc.c ****     }
 967:../../Drivers/STM32H7xx_HAL_Driver/Src/stm32h7xx_hal_rcc.c **** #else
 968:../../Drivers/STM32H7xx_HAL_Driver/Src/stm32h7xx_hal_rcc.c ****     if ((RCC_ClkInitStruct->APB3CLKDivider) > (RCC->CDCFGR1 & RCC_CDCFGR1_CDPPRE))
 969:../../Drivers/STM32H7xx_HAL_Driver/Src/stm32h7xx_hal_rcc.c ****     {
 970:../../Drivers/STM32H7xx_HAL_Driver/Src/stm32h7xx_hal_rcc.c ****       assert_param(IS_RCC_CDPCLK1(RCC_ClkInitStruct->APB3CLKDivider));
 971:../../Drivers/STM32H7xx_HAL_Driver/Src/stm32h7xx_hal_rcc.c ****       MODIFY_REG(RCC->CDCFGR1, RCC_CDCFGR1_CDPPRE, RCC_ClkInitStruct->APB3CLKDivider);
 972:../../Drivers/STM32H7xx_HAL_Driver/Src/stm32h7xx_hal_rcc.c ****     }
 973:../../Drivers/STM32H7xx_HAL_Driver/Src/stm32h7xx_hal_rcc.c **** #endif
 974:../../Drivers/STM32H7xx_HAL_Driver/Src/stm32h7xx_hal_rcc.c ****   }
 975:../../Drivers/STM32H7xx_HAL_Driver/Src/stm32h7xx_hal_rcc.c **** 
 976:../../Drivers/STM32H7xx_HAL_Driver/Src/stm32h7xx_hal_rcc.c ****   /*-------------------------- PCLK1 Configuration ---------------------------*/
 977:../../Drivers/STM32H7xx_HAL_Driver/Src/stm32h7xx_hal_rcc.c ****   if (((RCC_ClkInitStruct->ClockType) & RCC_CLOCKTYPE_PCLK1) == RCC_CLOCKTYPE_PCLK1)
 978:../../Drivers/STM32H7xx_HAL_Driver/Src/stm32h7xx_hal_rcc.c ****   {
 979:../../Drivers/STM32H7xx_HAL_Driver/Src/stm32h7xx_hal_rcc.c **** #if defined (RCC_D2CFGR_D2PPRE1)
 980:../../Drivers/STM32H7xx_HAL_Driver/Src/stm32h7xx_hal_rcc.c ****     if ((RCC_ClkInitStruct->APB1CLKDivider) > (RCC->D2CFGR & RCC_D2CFGR_D2PPRE1))
 981:../../Drivers/STM32H7xx_HAL_Driver/Src/stm32h7xx_hal_rcc.c ****     {
 982:../../Drivers/STM32H7xx_HAL_Driver/Src/stm32h7xx_hal_rcc.c ****       assert_param(IS_RCC_PCLK1(RCC_ClkInitStruct->APB1CLKDivider));
 983:../../Drivers/STM32H7xx_HAL_Driver/Src/stm32h7xx_hal_rcc.c ****       MODIFY_REG(RCC->D2CFGR, RCC_D2CFGR_D2PPRE1, (RCC_ClkInitStruct->APB1CLKDivider));
 984:../../Drivers/STM32H7xx_HAL_Driver/Src/stm32h7xx_hal_rcc.c ****     }
 985:../../Drivers/STM32H7xx_HAL_Driver/Src/stm32h7xx_hal_rcc.c **** #else
 986:../../Drivers/STM32H7xx_HAL_Driver/Src/stm32h7xx_hal_rcc.c ****     if ((RCC_ClkInitStruct->APB1CLKDivider) > (RCC->CDCFGR2 & RCC_CDCFGR2_CDPPRE1))
 987:../../Drivers/STM32H7xx_HAL_Driver/Src/stm32h7xx_hal_rcc.c ****     {
 988:../../Drivers/STM32H7xx_HAL_Driver/Src/stm32h7xx_hal_rcc.c ****       assert_param(IS_RCC_PCLK1(RCC_ClkInitStruct->APB1CLKDivider));
 989:../../Drivers/STM32H7xx_HAL_Driver/Src/stm32h7xx_hal_rcc.c ****       MODIFY_REG(RCC->CDCFGR2, RCC_CDCFGR2_CDPPRE1, (RCC_ClkInitStruct->APB1CLKDivider));
 990:../../Drivers/STM32H7xx_HAL_Driver/Src/stm32h7xx_hal_rcc.c ****     }
 991:../../Drivers/STM32H7xx_HAL_Driver/Src/stm32h7xx_hal_rcc.c **** #endif
 992:../../Drivers/STM32H7xx_HAL_Driver/Src/stm32h7xx_hal_rcc.c ****   }
 993:../../Drivers/STM32H7xx_HAL_Driver/Src/stm32h7xx_hal_rcc.c ****   /*-------------------------- PCLK2 Configuration ---------------------------*/
 994:../../Drivers/STM32H7xx_HAL_Driver/Src/stm32h7xx_hal_rcc.c ****   if (((RCC_ClkInitStruct->ClockType) & RCC_CLOCKTYPE_PCLK2) == RCC_CLOCKTYPE_PCLK2)
 995:../../Drivers/STM32H7xx_HAL_Driver/Src/stm32h7xx_hal_rcc.c ****   {
 996:../../Drivers/STM32H7xx_HAL_Driver/Src/stm32h7xx_hal_rcc.c **** #if defined(RCC_D2CFGR_D2PPRE2)
 997:../../Drivers/STM32H7xx_HAL_Driver/Src/stm32h7xx_hal_rcc.c ****     if ((RCC_ClkInitStruct->APB2CLKDivider) > (RCC->D2CFGR & RCC_D2CFGR_D2PPRE2))
 998:../../Drivers/STM32H7xx_HAL_Driver/Src/stm32h7xx_hal_rcc.c ****     {
 999:../../Drivers/STM32H7xx_HAL_Driver/Src/stm32h7xx_hal_rcc.c ****       assert_param(IS_RCC_PCLK2(RCC_ClkInitStruct->APB2CLKDivider));
1000:../../Drivers/STM32H7xx_HAL_Driver/Src/stm32h7xx_hal_rcc.c ****       MODIFY_REG(RCC->D2CFGR, RCC_D2CFGR_D2PPRE2, (RCC_ClkInitStruct->APB2CLKDivider));
1001:../../Drivers/STM32H7xx_HAL_Driver/Src/stm32h7xx_hal_rcc.c ****     }
1002:../../Drivers/STM32H7xx_HAL_Driver/Src/stm32h7xx_hal_rcc.c **** #else
1003:../../Drivers/STM32H7xx_HAL_Driver/Src/stm32h7xx_hal_rcc.c ****     if ((RCC_ClkInitStruct->APB2CLKDivider) > (RCC->CDCFGR2 & RCC_CDCFGR2_CDPPRE2))
1004:../../Drivers/STM32H7xx_HAL_Driver/Src/stm32h7xx_hal_rcc.c ****     {
1005:../../Drivers/STM32H7xx_HAL_Driver/Src/stm32h7xx_hal_rcc.c ****       assert_param(IS_RCC_PCLK2(RCC_ClkInitStruct->APB2CLKDivider));
1006:../../Drivers/STM32H7xx_HAL_Driver/Src/stm32h7xx_hal_rcc.c ****       MODIFY_REG(RCC->CDCFGR2, RCC_CDCFGR2_CDPPRE2, (RCC_ClkInitStruct->APB2CLKDivider));
1007:../../Drivers/STM32H7xx_HAL_Driver/Src/stm32h7xx_hal_rcc.c ****     }
1008:../../Drivers/STM32H7xx_HAL_Driver/Src/stm32h7xx_hal_rcc.c **** #endif
1009:../../Drivers/STM32H7xx_HAL_Driver/Src/stm32h7xx_hal_rcc.c ****   }
1010:../../Drivers/STM32H7xx_HAL_Driver/Src/stm32h7xx_hal_rcc.c **** 
1011:../../Drivers/STM32H7xx_HAL_Driver/Src/stm32h7xx_hal_rcc.c ****   /*-------------------------- D3PCLK1 Configuration ---------------------------*/
1012:../../Drivers/STM32H7xx_HAL_Driver/Src/stm32h7xx_hal_rcc.c ****   if (((RCC_ClkInitStruct->ClockType) & RCC_CLOCKTYPE_D3PCLK1) == RCC_CLOCKTYPE_D3PCLK1)
1013:../../Drivers/STM32H7xx_HAL_Driver/Src/stm32h7xx_hal_rcc.c ****   {
1014:../../Drivers/STM32H7xx_HAL_Driver/Src/stm32h7xx_hal_rcc.c **** #if defined(RCC_D3CFGR_D3PPRE)
1015:../../Drivers/STM32H7xx_HAL_Driver/Src/stm32h7xx_hal_rcc.c ****     if ((RCC_ClkInitStruct->APB4CLKDivider) > (RCC->D3CFGR & RCC_D3CFGR_D3PPRE))
1016:../../Drivers/STM32H7xx_HAL_Driver/Src/stm32h7xx_hal_rcc.c ****     {
1017:../../Drivers/STM32H7xx_HAL_Driver/Src/stm32h7xx_hal_rcc.c ****       assert_param(IS_RCC_D3PCLK1(RCC_ClkInitStruct->APB4CLKDivider));
1018:../../Drivers/STM32H7xx_HAL_Driver/Src/stm32h7xx_hal_rcc.c ****       MODIFY_REG(RCC->D3CFGR, RCC_D3CFGR_D3PPRE, (RCC_ClkInitStruct->APB4CLKDivider));
1019:../../Drivers/STM32H7xx_HAL_Driver/Src/stm32h7xx_hal_rcc.c ****     }
ARM GAS  C:\Users\minis\AppData\Local\Temp\cczlSevg.s 			page 56


1020:../../Drivers/STM32H7xx_HAL_Driver/Src/stm32h7xx_hal_rcc.c **** #else
1021:../../Drivers/STM32H7xx_HAL_Driver/Src/stm32h7xx_hal_rcc.c ****     if ((RCC_ClkInitStruct->APB4CLKDivider) > (RCC->SRDCFGR & RCC_SRDCFGR_SRDPPRE))
1022:../../Drivers/STM32H7xx_HAL_Driver/Src/stm32h7xx_hal_rcc.c ****     {
1023:../../Drivers/STM32H7xx_HAL_Driver/Src/stm32h7xx_hal_rcc.c ****       assert_param(IS_RCC_D3PCLK1(RCC_ClkInitStruct->APB4CLKDivider));
1024:../../Drivers/STM32H7xx_HAL_Driver/Src/stm32h7xx_hal_rcc.c ****       MODIFY_REG(RCC->SRDCFGR, RCC_SRDCFGR_SRDPPRE, (RCC_ClkInitStruct->APB4CLKDivider));
1025:../../Drivers/STM32H7xx_HAL_Driver/Src/stm32h7xx_hal_rcc.c ****     }
1026:../../Drivers/STM32H7xx_HAL_Driver/Src/stm32h7xx_hal_rcc.c **** #endif
1027:../../Drivers/STM32H7xx_HAL_Driver/Src/stm32h7xx_hal_rcc.c ****   }
1028:../../Drivers/STM32H7xx_HAL_Driver/Src/stm32h7xx_hal_rcc.c **** 
1029:../../Drivers/STM32H7xx_HAL_Driver/Src/stm32h7xx_hal_rcc.c ****   /*-------------------------- HCLK Configuration --------------------------*/
1030:../../Drivers/STM32H7xx_HAL_Driver/Src/stm32h7xx_hal_rcc.c ****   if (((RCC_ClkInitStruct->ClockType) & RCC_CLOCKTYPE_HCLK) == RCC_CLOCKTYPE_HCLK)
1031:../../Drivers/STM32H7xx_HAL_Driver/Src/stm32h7xx_hal_rcc.c ****   {
1032:../../Drivers/STM32H7xx_HAL_Driver/Src/stm32h7xx_hal_rcc.c **** #if defined (RCC_D1CFGR_HPRE)
1033:../../Drivers/STM32H7xx_HAL_Driver/Src/stm32h7xx_hal_rcc.c ****     if ((RCC_ClkInitStruct->AHBCLKDivider) > (RCC->D1CFGR & RCC_D1CFGR_HPRE))
1034:../../Drivers/STM32H7xx_HAL_Driver/Src/stm32h7xx_hal_rcc.c ****     {
1035:../../Drivers/STM32H7xx_HAL_Driver/Src/stm32h7xx_hal_rcc.c ****       /* Set the new HCLK clock divider */
1036:../../Drivers/STM32H7xx_HAL_Driver/Src/stm32h7xx_hal_rcc.c ****       assert_param(IS_RCC_HCLK(RCC_ClkInitStruct->AHBCLKDivider));
1037:../../Drivers/STM32H7xx_HAL_Driver/Src/stm32h7xx_hal_rcc.c ****       MODIFY_REG(RCC->D1CFGR, RCC_D1CFGR_HPRE, RCC_ClkInitStruct->AHBCLKDivider);
1038:../../Drivers/STM32H7xx_HAL_Driver/Src/stm32h7xx_hal_rcc.c ****     }
1039:../../Drivers/STM32H7xx_HAL_Driver/Src/stm32h7xx_hal_rcc.c **** #else
1040:../../Drivers/STM32H7xx_HAL_Driver/Src/stm32h7xx_hal_rcc.c ****     if ((RCC_ClkInitStruct->AHBCLKDivider) > (RCC->CDCFGR1 & RCC_CDCFGR1_HPRE))
1041:../../Drivers/STM32H7xx_HAL_Driver/Src/stm32h7xx_hal_rcc.c ****     {
1042:../../Drivers/STM32H7xx_HAL_Driver/Src/stm32h7xx_hal_rcc.c ****       /* Set the new HCLK clock divider */
1043:../../Drivers/STM32H7xx_HAL_Driver/Src/stm32h7xx_hal_rcc.c ****       assert_param(IS_RCC_HCLK(RCC_ClkInitStruct->AHBCLKDivider));
1044:../../Drivers/STM32H7xx_HAL_Driver/Src/stm32h7xx_hal_rcc.c ****       MODIFY_REG(RCC->CDCFGR1, RCC_CDCFGR1_HPRE, RCC_ClkInitStruct->AHBCLKDivider);
1045:../../Drivers/STM32H7xx_HAL_Driver/Src/stm32h7xx_hal_rcc.c ****     }
1046:../../Drivers/STM32H7xx_HAL_Driver/Src/stm32h7xx_hal_rcc.c **** #endif
1047:../../Drivers/STM32H7xx_HAL_Driver/Src/stm32h7xx_hal_rcc.c ****   }
1048:../../Drivers/STM32H7xx_HAL_Driver/Src/stm32h7xx_hal_rcc.c **** 
1049:../../Drivers/STM32H7xx_HAL_Driver/Src/stm32h7xx_hal_rcc.c ****   /*------------------------- SYSCLK Configuration -------------------------*/
1050:../../Drivers/STM32H7xx_HAL_Driver/Src/stm32h7xx_hal_rcc.c ****   if (((RCC_ClkInitStruct->ClockType) & RCC_CLOCKTYPE_SYSCLK) == RCC_CLOCKTYPE_SYSCLK)
1051:../../Drivers/STM32H7xx_HAL_Driver/Src/stm32h7xx_hal_rcc.c ****   {
1052:../../Drivers/STM32H7xx_HAL_Driver/Src/stm32h7xx_hal_rcc.c ****     assert_param(IS_RCC_SYSCLK(RCC_ClkInitStruct->SYSCLKDivider));
1053:../../Drivers/STM32H7xx_HAL_Driver/Src/stm32h7xx_hal_rcc.c ****     assert_param(IS_RCC_SYSCLKSOURCE(RCC_ClkInitStruct->SYSCLKSource));
1054:../../Drivers/STM32H7xx_HAL_Driver/Src/stm32h7xx_hal_rcc.c **** #if defined(RCC_D1CFGR_D1CPRE)
1055:../../Drivers/STM32H7xx_HAL_Driver/Src/stm32h7xx_hal_rcc.c ****     MODIFY_REG(RCC->D1CFGR, RCC_D1CFGR_D1CPRE, RCC_ClkInitStruct->SYSCLKDivider);
1056:../../Drivers/STM32H7xx_HAL_Driver/Src/stm32h7xx_hal_rcc.c **** #else
1057:../../Drivers/STM32H7xx_HAL_Driver/Src/stm32h7xx_hal_rcc.c ****     MODIFY_REG(RCC->CDCFGR1, RCC_CDCFGR1_CDCPRE, RCC_ClkInitStruct->SYSCLKDivider);
1058:../../Drivers/STM32H7xx_HAL_Driver/Src/stm32h7xx_hal_rcc.c **** #endif
1059:../../Drivers/STM32H7xx_HAL_Driver/Src/stm32h7xx_hal_rcc.c ****     /* HSE is selected as System Clock Source */
1060:../../Drivers/STM32H7xx_HAL_Driver/Src/stm32h7xx_hal_rcc.c ****     if (RCC_ClkInitStruct->SYSCLKSource == RCC_SYSCLKSOURCE_HSE)
1061:../../Drivers/STM32H7xx_HAL_Driver/Src/stm32h7xx_hal_rcc.c ****     {
1062:../../Drivers/STM32H7xx_HAL_Driver/Src/stm32h7xx_hal_rcc.c ****       /* Check the HSE ready flag */
1063:../../Drivers/STM32H7xx_HAL_Driver/Src/stm32h7xx_hal_rcc.c ****       if (__HAL_RCC_GET_FLAG(RCC_FLAG_HSERDY) == 0U)
1064:../../Drivers/STM32H7xx_HAL_Driver/Src/stm32h7xx_hal_rcc.c ****       {
1065:../../Drivers/STM32H7xx_HAL_Driver/Src/stm32h7xx_hal_rcc.c ****         return HAL_ERROR;
1066:../../Drivers/STM32H7xx_HAL_Driver/Src/stm32h7xx_hal_rcc.c ****       }
1067:../../Drivers/STM32H7xx_HAL_Driver/Src/stm32h7xx_hal_rcc.c ****     }
1068:../../Drivers/STM32H7xx_HAL_Driver/Src/stm32h7xx_hal_rcc.c ****     /* PLL is selected as System Clock Source */
1069:../../Drivers/STM32H7xx_HAL_Driver/Src/stm32h7xx_hal_rcc.c ****     else if (RCC_ClkInitStruct->SYSCLKSource == RCC_SYSCLKSOURCE_PLLCLK)
1070:../../Drivers/STM32H7xx_HAL_Driver/Src/stm32h7xx_hal_rcc.c ****     {
1071:../../Drivers/STM32H7xx_HAL_Driver/Src/stm32h7xx_hal_rcc.c ****       /* Check the PLL ready flag */
1072:../../Drivers/STM32H7xx_HAL_Driver/Src/stm32h7xx_hal_rcc.c ****       if (__HAL_RCC_GET_FLAG(RCC_FLAG_PLLRDY) == 0U)
1073:../../Drivers/STM32H7xx_HAL_Driver/Src/stm32h7xx_hal_rcc.c ****       {
1074:../../Drivers/STM32H7xx_HAL_Driver/Src/stm32h7xx_hal_rcc.c ****         return HAL_ERROR;
1075:../../Drivers/STM32H7xx_HAL_Driver/Src/stm32h7xx_hal_rcc.c ****       }
1076:../../Drivers/STM32H7xx_HAL_Driver/Src/stm32h7xx_hal_rcc.c ****     }
ARM GAS  C:\Users\minis\AppData\Local\Temp\cczlSevg.s 			page 57


1077:../../Drivers/STM32H7xx_HAL_Driver/Src/stm32h7xx_hal_rcc.c ****     /* CSI is selected as System Clock Source */
1078:../../Drivers/STM32H7xx_HAL_Driver/Src/stm32h7xx_hal_rcc.c ****     else if (RCC_ClkInitStruct->SYSCLKSource == RCC_SYSCLKSOURCE_CSI)
1079:../../Drivers/STM32H7xx_HAL_Driver/Src/stm32h7xx_hal_rcc.c ****     {
1080:../../Drivers/STM32H7xx_HAL_Driver/Src/stm32h7xx_hal_rcc.c ****       /* Check the PLL ready flag */
1081:../../Drivers/STM32H7xx_HAL_Driver/Src/stm32h7xx_hal_rcc.c ****       if (__HAL_RCC_GET_FLAG(RCC_FLAG_CSIRDY) == 0U)
1082:../../Drivers/STM32H7xx_HAL_Driver/Src/stm32h7xx_hal_rcc.c ****       {
1083:../../Drivers/STM32H7xx_HAL_Driver/Src/stm32h7xx_hal_rcc.c ****         return HAL_ERROR;
1084:../../Drivers/STM32H7xx_HAL_Driver/Src/stm32h7xx_hal_rcc.c ****       }
1085:../../Drivers/STM32H7xx_HAL_Driver/Src/stm32h7xx_hal_rcc.c ****     }
1086:../../Drivers/STM32H7xx_HAL_Driver/Src/stm32h7xx_hal_rcc.c ****     /* HSI is selected as System Clock Source */
1087:../../Drivers/STM32H7xx_HAL_Driver/Src/stm32h7xx_hal_rcc.c ****     else
1088:../../Drivers/STM32H7xx_HAL_Driver/Src/stm32h7xx_hal_rcc.c ****     {
1089:../../Drivers/STM32H7xx_HAL_Driver/Src/stm32h7xx_hal_rcc.c ****       /* Check the HSI ready flag */
1090:../../Drivers/STM32H7xx_HAL_Driver/Src/stm32h7xx_hal_rcc.c ****       if (__HAL_RCC_GET_FLAG(RCC_FLAG_HSIRDY) == 0U)
1091:../../Drivers/STM32H7xx_HAL_Driver/Src/stm32h7xx_hal_rcc.c ****       {
1092:../../Drivers/STM32H7xx_HAL_Driver/Src/stm32h7xx_hal_rcc.c ****         return HAL_ERROR;
1093:../../Drivers/STM32H7xx_HAL_Driver/Src/stm32h7xx_hal_rcc.c ****       }
1094:../../Drivers/STM32H7xx_HAL_Driver/Src/stm32h7xx_hal_rcc.c ****     }
1095:../../Drivers/STM32H7xx_HAL_Driver/Src/stm32h7xx_hal_rcc.c ****     MODIFY_REG(RCC->CFGR, RCC_CFGR_SW, RCC_ClkInitStruct->SYSCLKSource);
1096:../../Drivers/STM32H7xx_HAL_Driver/Src/stm32h7xx_hal_rcc.c **** 
1097:../../Drivers/STM32H7xx_HAL_Driver/Src/stm32h7xx_hal_rcc.c ****     /* Get Start Tick*/
1098:../../Drivers/STM32H7xx_HAL_Driver/Src/stm32h7xx_hal_rcc.c ****     tickstart = HAL_GetTick();
1099:../../Drivers/STM32H7xx_HAL_Driver/Src/stm32h7xx_hal_rcc.c **** 
1100:../../Drivers/STM32H7xx_HAL_Driver/Src/stm32h7xx_hal_rcc.c ****     while (__HAL_RCC_GET_SYSCLK_SOURCE() != (RCC_ClkInitStruct->SYSCLKSource << RCC_CFGR_SWS_Pos))
1101:../../Drivers/STM32H7xx_HAL_Driver/Src/stm32h7xx_hal_rcc.c ****     {
1102:../../Drivers/STM32H7xx_HAL_Driver/Src/stm32h7xx_hal_rcc.c ****       if ((HAL_GetTick() - tickstart) > CLOCKSWITCH_TIMEOUT_VALUE)
1103:../../Drivers/STM32H7xx_HAL_Driver/Src/stm32h7xx_hal_rcc.c ****       {
1104:../../Drivers/STM32H7xx_HAL_Driver/Src/stm32h7xx_hal_rcc.c ****         return HAL_TIMEOUT;
1105:../../Drivers/STM32H7xx_HAL_Driver/Src/stm32h7xx_hal_rcc.c ****       }
1106:../../Drivers/STM32H7xx_HAL_Driver/Src/stm32h7xx_hal_rcc.c ****     }
1107:../../Drivers/STM32H7xx_HAL_Driver/Src/stm32h7xx_hal_rcc.c **** 
1108:../../Drivers/STM32H7xx_HAL_Driver/Src/stm32h7xx_hal_rcc.c ****   }
1109:../../Drivers/STM32H7xx_HAL_Driver/Src/stm32h7xx_hal_rcc.c **** 
1110:../../Drivers/STM32H7xx_HAL_Driver/Src/stm32h7xx_hal_rcc.c ****   /* Decreasing the BUS frequency divider */
1111:../../Drivers/STM32H7xx_HAL_Driver/Src/stm32h7xx_hal_rcc.c ****   /*-------------------------- HCLK Configuration --------------------------*/
1112:../../Drivers/STM32H7xx_HAL_Driver/Src/stm32h7xx_hal_rcc.c ****   if (((RCC_ClkInitStruct->ClockType) & RCC_CLOCKTYPE_HCLK) == RCC_CLOCKTYPE_HCLK)
1113:../../Drivers/STM32H7xx_HAL_Driver/Src/stm32h7xx_hal_rcc.c ****   {
1114:../../Drivers/STM32H7xx_HAL_Driver/Src/stm32h7xx_hal_rcc.c **** #if defined(RCC_D1CFGR_HPRE)
1115:../../Drivers/STM32H7xx_HAL_Driver/Src/stm32h7xx_hal_rcc.c ****     if ((RCC_ClkInitStruct->AHBCLKDivider) < (RCC->D1CFGR & RCC_D1CFGR_HPRE))
1116:../../Drivers/STM32H7xx_HAL_Driver/Src/stm32h7xx_hal_rcc.c ****     {
1117:../../Drivers/STM32H7xx_HAL_Driver/Src/stm32h7xx_hal_rcc.c ****       /* Set the new HCLK clock divider */
1118:../../Drivers/STM32H7xx_HAL_Driver/Src/stm32h7xx_hal_rcc.c ****       assert_param(IS_RCC_HCLK(RCC_ClkInitStruct->AHBCLKDivider));
1119:../../Drivers/STM32H7xx_HAL_Driver/Src/stm32h7xx_hal_rcc.c ****       MODIFY_REG(RCC->D1CFGR, RCC_D1CFGR_HPRE, RCC_ClkInitStruct->AHBCLKDivider);
1120:../../Drivers/STM32H7xx_HAL_Driver/Src/stm32h7xx_hal_rcc.c ****     }
1121:../../Drivers/STM32H7xx_HAL_Driver/Src/stm32h7xx_hal_rcc.c **** #else
1122:../../Drivers/STM32H7xx_HAL_Driver/Src/stm32h7xx_hal_rcc.c ****     if ((RCC_ClkInitStruct->AHBCLKDivider) < (RCC->CDCFGR1 & RCC_CDCFGR1_HPRE))
1123:../../Drivers/STM32H7xx_HAL_Driver/Src/stm32h7xx_hal_rcc.c ****     {
1124:../../Drivers/STM32H7xx_HAL_Driver/Src/stm32h7xx_hal_rcc.c ****       /* Set the new HCLK clock divider */
1125:../../Drivers/STM32H7xx_HAL_Driver/Src/stm32h7xx_hal_rcc.c ****       assert_param(IS_RCC_HCLK(RCC_ClkInitStruct->AHBCLKDivider));
1126:../../Drivers/STM32H7xx_HAL_Driver/Src/stm32h7xx_hal_rcc.c ****       MODIFY_REG(RCC->CDCFGR1, RCC_CDCFGR1_HPRE, RCC_ClkInitStruct->AHBCLKDivider);
1127:../../Drivers/STM32H7xx_HAL_Driver/Src/stm32h7xx_hal_rcc.c ****     }
1128:../../Drivers/STM32H7xx_HAL_Driver/Src/stm32h7xx_hal_rcc.c **** #endif
1129:../../Drivers/STM32H7xx_HAL_Driver/Src/stm32h7xx_hal_rcc.c ****   }
1130:../../Drivers/STM32H7xx_HAL_Driver/Src/stm32h7xx_hal_rcc.c **** 
1131:../../Drivers/STM32H7xx_HAL_Driver/Src/stm32h7xx_hal_rcc.c ****   /* Decreasing the number of wait states because of lower CPU frequency */
1132:../../Drivers/STM32H7xx_HAL_Driver/Src/stm32h7xx_hal_rcc.c ****   if (FLatency < __HAL_FLASH_GET_LATENCY())
1133:../../Drivers/STM32H7xx_HAL_Driver/Src/stm32h7xx_hal_rcc.c ****   {
ARM GAS  C:\Users\minis\AppData\Local\Temp\cczlSevg.s 			page 58


1134:../../Drivers/STM32H7xx_HAL_Driver/Src/stm32h7xx_hal_rcc.c ****     /* Program the new number of wait states to the LATENCY bits in the FLASH_ACR register */
1135:../../Drivers/STM32H7xx_HAL_Driver/Src/stm32h7xx_hal_rcc.c ****     __HAL_FLASH_SET_LATENCY(FLatency);
1136:../../Drivers/STM32H7xx_HAL_Driver/Src/stm32h7xx_hal_rcc.c **** 
1137:../../Drivers/STM32H7xx_HAL_Driver/Src/stm32h7xx_hal_rcc.c ****     /* Check that the new number of wait states is taken into account to access the Flash
1138:../../Drivers/STM32H7xx_HAL_Driver/Src/stm32h7xx_hal_rcc.c ****     memory by reading the FLASH_ACR register */
1139:../../Drivers/STM32H7xx_HAL_Driver/Src/stm32h7xx_hal_rcc.c ****     if (__HAL_FLASH_GET_LATENCY() != FLatency)
1140:../../Drivers/STM32H7xx_HAL_Driver/Src/stm32h7xx_hal_rcc.c ****     {
1141:../../Drivers/STM32H7xx_HAL_Driver/Src/stm32h7xx_hal_rcc.c ****       return HAL_ERROR;
1142:../../Drivers/STM32H7xx_HAL_Driver/Src/stm32h7xx_hal_rcc.c ****     }
1143:../../Drivers/STM32H7xx_HAL_Driver/Src/stm32h7xx_hal_rcc.c ****   }
1144:../../Drivers/STM32H7xx_HAL_Driver/Src/stm32h7xx_hal_rcc.c **** 
1145:../../Drivers/STM32H7xx_HAL_Driver/Src/stm32h7xx_hal_rcc.c ****   /*-------------------------- D1PCLK1/CDPCLK Configuration ---------------------------*/
1146:../../Drivers/STM32H7xx_HAL_Driver/Src/stm32h7xx_hal_rcc.c ****   if (((RCC_ClkInitStruct->ClockType) & RCC_CLOCKTYPE_D1PCLK1) == RCC_CLOCKTYPE_D1PCLK1)
1147:../../Drivers/STM32H7xx_HAL_Driver/Src/stm32h7xx_hal_rcc.c ****   {
1148:../../Drivers/STM32H7xx_HAL_Driver/Src/stm32h7xx_hal_rcc.c **** #if defined(RCC_D1CFGR_D1PPRE)
1149:../../Drivers/STM32H7xx_HAL_Driver/Src/stm32h7xx_hal_rcc.c ****     if ((RCC_ClkInitStruct->APB3CLKDivider) < (RCC->D1CFGR & RCC_D1CFGR_D1PPRE))
1150:../../Drivers/STM32H7xx_HAL_Driver/Src/stm32h7xx_hal_rcc.c ****     {
1151:../../Drivers/STM32H7xx_HAL_Driver/Src/stm32h7xx_hal_rcc.c ****       assert_param(IS_RCC_D1PCLK1(RCC_ClkInitStruct->APB3CLKDivider));
1152:../../Drivers/STM32H7xx_HAL_Driver/Src/stm32h7xx_hal_rcc.c ****       MODIFY_REG(RCC->D1CFGR, RCC_D1CFGR_D1PPRE, RCC_ClkInitStruct->APB3CLKDivider);
1153:../../Drivers/STM32H7xx_HAL_Driver/Src/stm32h7xx_hal_rcc.c ****     }
1154:../../Drivers/STM32H7xx_HAL_Driver/Src/stm32h7xx_hal_rcc.c **** #else
1155:../../Drivers/STM32H7xx_HAL_Driver/Src/stm32h7xx_hal_rcc.c ****     if ((RCC_ClkInitStruct->APB3CLKDivider) < (RCC->CDCFGR1 & RCC_CDCFGR1_CDPPRE))
1156:../../Drivers/STM32H7xx_HAL_Driver/Src/stm32h7xx_hal_rcc.c ****     {
1157:../../Drivers/STM32H7xx_HAL_Driver/Src/stm32h7xx_hal_rcc.c ****       assert_param(IS_RCC_CDPCLK1(RCC_ClkInitStruct->APB3CLKDivider));
1158:../../Drivers/STM32H7xx_HAL_Driver/Src/stm32h7xx_hal_rcc.c ****       MODIFY_REG(RCC->CDCFGR1, RCC_CDCFGR1_CDPPRE, RCC_ClkInitStruct->APB3CLKDivider);
1159:../../Drivers/STM32H7xx_HAL_Driver/Src/stm32h7xx_hal_rcc.c ****     }
1160:../../Drivers/STM32H7xx_HAL_Driver/Src/stm32h7xx_hal_rcc.c **** #endif
1161:../../Drivers/STM32H7xx_HAL_Driver/Src/stm32h7xx_hal_rcc.c ****   }
1162:../../Drivers/STM32H7xx_HAL_Driver/Src/stm32h7xx_hal_rcc.c **** 
1163:../../Drivers/STM32H7xx_HAL_Driver/Src/stm32h7xx_hal_rcc.c ****   /*-------------------------- PCLK1 Configuration ---------------------------*/
1164:../../Drivers/STM32H7xx_HAL_Driver/Src/stm32h7xx_hal_rcc.c ****   if (((RCC_ClkInitStruct->ClockType) & RCC_CLOCKTYPE_PCLK1) == RCC_CLOCKTYPE_PCLK1)
1165:../../Drivers/STM32H7xx_HAL_Driver/Src/stm32h7xx_hal_rcc.c ****   {
1166:../../Drivers/STM32H7xx_HAL_Driver/Src/stm32h7xx_hal_rcc.c **** #if defined(RCC_D2CFGR_D2PPRE1)
1167:../../Drivers/STM32H7xx_HAL_Driver/Src/stm32h7xx_hal_rcc.c ****     if ((RCC_ClkInitStruct->APB1CLKDivider) < (RCC->D2CFGR & RCC_D2CFGR_D2PPRE1))
1168:../../Drivers/STM32H7xx_HAL_Driver/Src/stm32h7xx_hal_rcc.c ****     {
1169:../../Drivers/STM32H7xx_HAL_Driver/Src/stm32h7xx_hal_rcc.c ****       assert_param(IS_RCC_PCLK1(RCC_ClkInitStruct->APB1CLKDivider));
1170:../../Drivers/STM32H7xx_HAL_Driver/Src/stm32h7xx_hal_rcc.c ****       MODIFY_REG(RCC->D2CFGR, RCC_D2CFGR_D2PPRE1, (RCC_ClkInitStruct->APB1CLKDivider));
1171:../../Drivers/STM32H7xx_HAL_Driver/Src/stm32h7xx_hal_rcc.c ****     }
1172:../../Drivers/STM32H7xx_HAL_Driver/Src/stm32h7xx_hal_rcc.c **** #else
1173:../../Drivers/STM32H7xx_HAL_Driver/Src/stm32h7xx_hal_rcc.c ****     if ((RCC_ClkInitStruct->APB1CLKDivider) < (RCC->CDCFGR2 & RCC_CDCFGR2_CDPPRE1))
1174:../../Drivers/STM32H7xx_HAL_Driver/Src/stm32h7xx_hal_rcc.c ****     {
1175:../../Drivers/STM32H7xx_HAL_Driver/Src/stm32h7xx_hal_rcc.c ****       assert_param(IS_RCC_PCLK1(RCC_ClkInitStruct->APB1CLKDivider));
1176:../../Drivers/STM32H7xx_HAL_Driver/Src/stm32h7xx_hal_rcc.c ****       MODIFY_REG(RCC->CDCFGR2, RCC_CDCFGR2_CDPPRE1, (RCC_ClkInitStruct->APB1CLKDivider));
1177:../../Drivers/STM32H7xx_HAL_Driver/Src/stm32h7xx_hal_rcc.c ****     }
1178:../../Drivers/STM32H7xx_HAL_Driver/Src/stm32h7xx_hal_rcc.c **** #endif
1179:../../Drivers/STM32H7xx_HAL_Driver/Src/stm32h7xx_hal_rcc.c ****   }
1180:../../Drivers/STM32H7xx_HAL_Driver/Src/stm32h7xx_hal_rcc.c **** 
1181:../../Drivers/STM32H7xx_HAL_Driver/Src/stm32h7xx_hal_rcc.c ****   /*-------------------------- PCLK2 Configuration ---------------------------*/
1182:../../Drivers/STM32H7xx_HAL_Driver/Src/stm32h7xx_hal_rcc.c ****   if (((RCC_ClkInitStruct->ClockType) & RCC_CLOCKTYPE_PCLK2) == RCC_CLOCKTYPE_PCLK2)
1183:../../Drivers/STM32H7xx_HAL_Driver/Src/stm32h7xx_hal_rcc.c ****   {
1184:../../Drivers/STM32H7xx_HAL_Driver/Src/stm32h7xx_hal_rcc.c **** #if defined (RCC_D2CFGR_D2PPRE2)
1185:../../Drivers/STM32H7xx_HAL_Driver/Src/stm32h7xx_hal_rcc.c ****     if ((RCC_ClkInitStruct->APB2CLKDivider) < (RCC->D2CFGR & RCC_D2CFGR_D2PPRE2))
1186:../../Drivers/STM32H7xx_HAL_Driver/Src/stm32h7xx_hal_rcc.c ****     {
1187:../../Drivers/STM32H7xx_HAL_Driver/Src/stm32h7xx_hal_rcc.c ****       assert_param(IS_RCC_PCLK2(RCC_ClkInitStruct->APB2CLKDivider));
1188:../../Drivers/STM32H7xx_HAL_Driver/Src/stm32h7xx_hal_rcc.c ****       MODIFY_REG(RCC->D2CFGR, RCC_D2CFGR_D2PPRE2, (RCC_ClkInitStruct->APB2CLKDivider));
1189:../../Drivers/STM32H7xx_HAL_Driver/Src/stm32h7xx_hal_rcc.c ****     }
1190:../../Drivers/STM32H7xx_HAL_Driver/Src/stm32h7xx_hal_rcc.c **** #else
ARM GAS  C:\Users\minis\AppData\Local\Temp\cczlSevg.s 			page 59


1191:../../Drivers/STM32H7xx_HAL_Driver/Src/stm32h7xx_hal_rcc.c ****     if ((RCC_ClkInitStruct->APB2CLKDivider) < (RCC->CDCFGR2 & RCC_CDCFGR2_CDPPRE2))
1192:../../Drivers/STM32H7xx_HAL_Driver/Src/stm32h7xx_hal_rcc.c ****     {
1193:../../Drivers/STM32H7xx_HAL_Driver/Src/stm32h7xx_hal_rcc.c ****       assert_param(IS_RCC_PCLK2(RCC_ClkInitStruct->APB2CLKDivider));
1194:../../Drivers/STM32H7xx_HAL_Driver/Src/stm32h7xx_hal_rcc.c ****       MODIFY_REG(RCC->CDCFGR2, RCC_CDCFGR2_CDPPRE2, (RCC_ClkInitStruct->APB2CLKDivider));
1195:../../Drivers/STM32H7xx_HAL_Driver/Src/stm32h7xx_hal_rcc.c ****     }
1196:../../Drivers/STM32H7xx_HAL_Driver/Src/stm32h7xx_hal_rcc.c **** #endif
1197:../../Drivers/STM32H7xx_HAL_Driver/Src/stm32h7xx_hal_rcc.c ****   }
1198:../../Drivers/STM32H7xx_HAL_Driver/Src/stm32h7xx_hal_rcc.c **** 
1199:../../Drivers/STM32H7xx_HAL_Driver/Src/stm32h7xx_hal_rcc.c ****   /*-------------------------- D3PCLK1/SRDPCLK1 Configuration ---------------------------*/
1200:../../Drivers/STM32H7xx_HAL_Driver/Src/stm32h7xx_hal_rcc.c ****   if (((RCC_ClkInitStruct->ClockType) & RCC_CLOCKTYPE_D3PCLK1) == RCC_CLOCKTYPE_D3PCLK1)
1201:../../Drivers/STM32H7xx_HAL_Driver/Src/stm32h7xx_hal_rcc.c ****   {
1202:../../Drivers/STM32H7xx_HAL_Driver/Src/stm32h7xx_hal_rcc.c **** #if defined(RCC_D3CFGR_D3PPRE)
1203:../../Drivers/STM32H7xx_HAL_Driver/Src/stm32h7xx_hal_rcc.c ****     if ((RCC_ClkInitStruct->APB4CLKDivider) < (RCC->D3CFGR & RCC_D3CFGR_D3PPRE))
1204:../../Drivers/STM32H7xx_HAL_Driver/Src/stm32h7xx_hal_rcc.c ****     {
1205:../../Drivers/STM32H7xx_HAL_Driver/Src/stm32h7xx_hal_rcc.c ****       assert_param(IS_RCC_D3PCLK1(RCC_ClkInitStruct->APB4CLKDivider));
1206:../../Drivers/STM32H7xx_HAL_Driver/Src/stm32h7xx_hal_rcc.c ****       MODIFY_REG(RCC->D3CFGR, RCC_D3CFGR_D3PPRE, (RCC_ClkInitStruct->APB4CLKDivider));
1207:../../Drivers/STM32H7xx_HAL_Driver/Src/stm32h7xx_hal_rcc.c ****     }
1208:../../Drivers/STM32H7xx_HAL_Driver/Src/stm32h7xx_hal_rcc.c **** #else
1209:../../Drivers/STM32H7xx_HAL_Driver/Src/stm32h7xx_hal_rcc.c ****     if ((RCC_ClkInitStruct->APB4CLKDivider) < (RCC->SRDCFGR & RCC_SRDCFGR_SRDPPRE))
1210:../../Drivers/STM32H7xx_HAL_Driver/Src/stm32h7xx_hal_rcc.c ****     {
1211:../../Drivers/STM32H7xx_HAL_Driver/Src/stm32h7xx_hal_rcc.c ****       assert_param(IS_RCC_SRDPCLK1(RCC_ClkInitStruct->APB4CLKDivider));
1212:../../Drivers/STM32H7xx_HAL_Driver/Src/stm32h7xx_hal_rcc.c ****       MODIFY_REG(RCC->SRDCFGR, RCC_SRDCFGR_SRDPPRE, (RCC_ClkInitStruct->APB4CLKDivider));
1213:../../Drivers/STM32H7xx_HAL_Driver/Src/stm32h7xx_hal_rcc.c ****     }
1214:../../Drivers/STM32H7xx_HAL_Driver/Src/stm32h7xx_hal_rcc.c **** #endif
1215:../../Drivers/STM32H7xx_HAL_Driver/Src/stm32h7xx_hal_rcc.c ****   }
1216:../../Drivers/STM32H7xx_HAL_Driver/Src/stm32h7xx_hal_rcc.c **** 
1217:../../Drivers/STM32H7xx_HAL_Driver/Src/stm32h7xx_hal_rcc.c ****   /* Update the SystemCoreClock global variable */
1218:../../Drivers/STM32H7xx_HAL_Driver/Src/stm32h7xx_hal_rcc.c **** #if defined(RCC_D1CFGR_D1CPRE)
1219:../../Drivers/STM32H7xx_HAL_Driver/Src/stm32h7xx_hal_rcc.c ****   common_system_clock = HAL_RCC_GetSysClockFreq() >> ((D1CorePrescTable[(RCC->D1CFGR & RCC_D1CFGR_D
1220:../../Drivers/STM32H7xx_HAL_Driver/Src/stm32h7xx_hal_rcc.c **** #else
1221:../../Drivers/STM32H7xx_HAL_Driver/Src/stm32h7xx_hal_rcc.c ****   common_system_clock = HAL_RCC_GetSysClockFreq() >> ((D1CorePrescTable[(RCC->CDCFGR1 & RCC_CDCFGR1
1222:../../Drivers/STM32H7xx_HAL_Driver/Src/stm32h7xx_hal_rcc.c **** #endif
1223:../../Drivers/STM32H7xx_HAL_Driver/Src/stm32h7xx_hal_rcc.c **** 
1224:../../Drivers/STM32H7xx_HAL_Driver/Src/stm32h7xx_hal_rcc.c **** #if defined(RCC_D1CFGR_HPRE)
1225:../../Drivers/STM32H7xx_HAL_Driver/Src/stm32h7xx_hal_rcc.c ****   SystemD2Clock = (common_system_clock >> ((D1CorePrescTable[(RCC->D1CFGR & RCC_D1CFGR_HPRE) >> RCC
1226:../../Drivers/STM32H7xx_HAL_Driver/Src/stm32h7xx_hal_rcc.c **** #else
1227:../../Drivers/STM32H7xx_HAL_Driver/Src/stm32h7xx_hal_rcc.c ****   SystemD2Clock = (common_system_clock >> ((D1CorePrescTable[(RCC->CDCFGR1 & RCC_CDCFGR1_HPRE) >> R
1228:../../Drivers/STM32H7xx_HAL_Driver/Src/stm32h7xx_hal_rcc.c **** #endif
1229:../../Drivers/STM32H7xx_HAL_Driver/Src/stm32h7xx_hal_rcc.c **** 
1230:../../Drivers/STM32H7xx_HAL_Driver/Src/stm32h7xx_hal_rcc.c **** #if defined(DUAL_CORE) && defined(CORE_CM4)
1231:../../Drivers/STM32H7xx_HAL_Driver/Src/stm32h7xx_hal_rcc.c ****   SystemCoreClock = SystemD2Clock;
1232:../../Drivers/STM32H7xx_HAL_Driver/Src/stm32h7xx_hal_rcc.c **** #else
1233:../../Drivers/STM32H7xx_HAL_Driver/Src/stm32h7xx_hal_rcc.c ****   SystemCoreClock = common_system_clock;
1234:../../Drivers/STM32H7xx_HAL_Driver/Src/stm32h7xx_hal_rcc.c **** #endif /* DUAL_CORE && CORE_CM4 */
1235:../../Drivers/STM32H7xx_HAL_Driver/Src/stm32h7xx_hal_rcc.c **** 
1236:../../Drivers/STM32H7xx_HAL_Driver/Src/stm32h7xx_hal_rcc.c ****   /* Configure the source of time base considering new system clocks settings*/
1237:../../Drivers/STM32H7xx_HAL_Driver/Src/stm32h7xx_hal_rcc.c ****   halstatus = HAL_InitTick(uwTickPrio);
1238:../../Drivers/STM32H7xx_HAL_Driver/Src/stm32h7xx_hal_rcc.c **** 
1239:../../Drivers/STM32H7xx_HAL_Driver/Src/stm32h7xx_hal_rcc.c ****   return halstatus;
1240:../../Drivers/STM32H7xx_HAL_Driver/Src/stm32h7xx_hal_rcc.c **** }
1241:../../Drivers/STM32H7xx_HAL_Driver/Src/stm32h7xx_hal_rcc.c **** 
1242:../../Drivers/STM32H7xx_HAL_Driver/Src/stm32h7xx_hal_rcc.c **** /**
1243:../../Drivers/STM32H7xx_HAL_Driver/Src/stm32h7xx_hal_rcc.c ****   * @}
1244:../../Drivers/STM32H7xx_HAL_Driver/Src/stm32h7xx_hal_rcc.c ****   */
1245:../../Drivers/STM32H7xx_HAL_Driver/Src/stm32h7xx_hal_rcc.c **** 
1246:../../Drivers/STM32H7xx_HAL_Driver/Src/stm32h7xx_hal_rcc.c **** /** @defgroup RCC_Exported_Functions_Group2 Peripheral Control functions
1247:../../Drivers/STM32H7xx_HAL_Driver/Src/stm32h7xx_hal_rcc.c ****  *  @brief   RCC clocks control functions
ARM GAS  C:\Users\minis\AppData\Local\Temp\cczlSevg.s 			page 60


1248:../../Drivers/STM32H7xx_HAL_Driver/Src/stm32h7xx_hal_rcc.c ****  *
1249:../../Drivers/STM32H7xx_HAL_Driver/Src/stm32h7xx_hal_rcc.c **** @verbatim
1250:../../Drivers/STM32H7xx_HAL_Driver/Src/stm32h7xx_hal_rcc.c ****  ===============================================================================
1251:../../Drivers/STM32H7xx_HAL_Driver/Src/stm32h7xx_hal_rcc.c ****                       ##### Peripheral Control functions #####
1252:../../Drivers/STM32H7xx_HAL_Driver/Src/stm32h7xx_hal_rcc.c ****  ===============================================================================
1253:../../Drivers/STM32H7xx_HAL_Driver/Src/stm32h7xx_hal_rcc.c ****     [..]
1254:../../Drivers/STM32H7xx_HAL_Driver/Src/stm32h7xx_hal_rcc.c ****     This subsection provides a set of functions allowing to control the RCC Clocks
1255:../../Drivers/STM32H7xx_HAL_Driver/Src/stm32h7xx_hal_rcc.c ****     frequencies.
1256:../../Drivers/STM32H7xx_HAL_Driver/Src/stm32h7xx_hal_rcc.c **** 
1257:../../Drivers/STM32H7xx_HAL_Driver/Src/stm32h7xx_hal_rcc.c **** @endverbatim
1258:../../Drivers/STM32H7xx_HAL_Driver/Src/stm32h7xx_hal_rcc.c ****   * @{
1259:../../Drivers/STM32H7xx_HAL_Driver/Src/stm32h7xx_hal_rcc.c ****   */
1260:../../Drivers/STM32H7xx_HAL_Driver/Src/stm32h7xx_hal_rcc.c **** 
1261:../../Drivers/STM32H7xx_HAL_Driver/Src/stm32h7xx_hal_rcc.c **** /**
1262:../../Drivers/STM32H7xx_HAL_Driver/Src/stm32h7xx_hal_rcc.c ****   * @brief  Selects the clock source to output on MCO1 pin(PA8) or on MCO2 pin(PC9).
1263:../../Drivers/STM32H7xx_HAL_Driver/Src/stm32h7xx_hal_rcc.c ****   * @note   PA8/PC9 should be configured in alternate function mode.
1264:../../Drivers/STM32H7xx_HAL_Driver/Src/stm32h7xx_hal_rcc.c ****   * @param  RCC_MCOx: specifies the output direction for the clock source.
1265:../../Drivers/STM32H7xx_HAL_Driver/Src/stm32h7xx_hal_rcc.c ****   *          This parameter can be one of the following values:
1266:../../Drivers/STM32H7xx_HAL_Driver/Src/stm32h7xx_hal_rcc.c ****   *            @arg RCC_MCO1: Clock source to output on MCO1 pin(PA8).
1267:../../Drivers/STM32H7xx_HAL_Driver/Src/stm32h7xx_hal_rcc.c ****   *            @arg RCC_MCO2: Clock source to output on MCO2 pin(PC9).
1268:../../Drivers/STM32H7xx_HAL_Driver/Src/stm32h7xx_hal_rcc.c ****   * @param  RCC_MCOSource: specifies the clock source to output.
1269:../../Drivers/STM32H7xx_HAL_Driver/Src/stm32h7xx_hal_rcc.c ****   *          This parameter can be one of the following values:
1270:../../Drivers/STM32H7xx_HAL_Driver/Src/stm32h7xx_hal_rcc.c ****   *            @arg RCC_MCO1SOURCE_HSI: HSI clock selected as MCO1 source
1271:../../Drivers/STM32H7xx_HAL_Driver/Src/stm32h7xx_hal_rcc.c ****   *            @arg RCC_MCO1SOURCE_LSE: LSE clock selected as MCO1 source
1272:../../Drivers/STM32H7xx_HAL_Driver/Src/stm32h7xx_hal_rcc.c ****   *            @arg RCC_MCO1SOURCE_HSE: HSE clock selected as MCO1 source
1273:../../Drivers/STM32H7xx_HAL_Driver/Src/stm32h7xx_hal_rcc.c ****   *            @arg RCC_MCO1SOURCE_PLL1QCLK:  PLL1Q clock selected as MCO1 source
1274:../../Drivers/STM32H7xx_HAL_Driver/Src/stm32h7xx_hal_rcc.c ****   *            @arg RCC_MCO1SOURCE_HSI48: HSI48 (48MHZ) selected as MCO1 source
1275:../../Drivers/STM32H7xx_HAL_Driver/Src/stm32h7xx_hal_rcc.c ****   *            @arg RCC_MCO2SOURCE_SYSCLK: System clock (SYSCLK) selected as MCO2 source
1276:../../Drivers/STM32H7xx_HAL_Driver/Src/stm32h7xx_hal_rcc.c ****   *            @arg RCC_MCO2SOURCE_PLL2PCLK: PLL2P clock selected as MCO2 source
1277:../../Drivers/STM32H7xx_HAL_Driver/Src/stm32h7xx_hal_rcc.c ****   *            @arg RCC_MCO2SOURCE_HSE: HSE clock selected as MCO2 source
1278:../../Drivers/STM32H7xx_HAL_Driver/Src/stm32h7xx_hal_rcc.c ****   *            @arg RCC_MCO2SOURCE_PLLCLK:  PLL1P clock selected as MCO2 source
1279:../../Drivers/STM32H7xx_HAL_Driver/Src/stm32h7xx_hal_rcc.c ****   *            @arg RCC_MCO2SOURCE_CSICLK:  CSI clock selected as MCO2 source
1280:../../Drivers/STM32H7xx_HAL_Driver/Src/stm32h7xx_hal_rcc.c ****   *            @arg RCC_MCO2SOURCE_LSICLK:  LSI clock selected as MCO2 source
1281:../../Drivers/STM32H7xx_HAL_Driver/Src/stm32h7xx_hal_rcc.c ****   * @param  RCC_MCODiv: specifies the MCOx pre-scaler.
1282:../../Drivers/STM32H7xx_HAL_Driver/Src/stm32h7xx_hal_rcc.c ****   *          This parameter can be one of the following values:
1283:../../Drivers/STM32H7xx_HAL_Driver/Src/stm32h7xx_hal_rcc.c ****   *            @arg RCC_MCODIV_1 up to RCC_MCODIV_15  : divider applied to MCOx clock
1284:../../Drivers/STM32H7xx_HAL_Driver/Src/stm32h7xx_hal_rcc.c ****   * @retval None
1285:../../Drivers/STM32H7xx_HAL_Driver/Src/stm32h7xx_hal_rcc.c ****   */
1286:../../Drivers/STM32H7xx_HAL_Driver/Src/stm32h7xx_hal_rcc.c **** void HAL_RCC_MCOConfig(uint32_t RCC_MCOx, uint32_t RCC_MCOSource, uint32_t RCC_MCODiv)
1287:../../Drivers/STM32H7xx_HAL_Driver/Src/stm32h7xx_hal_rcc.c **** {
 1822              		.loc 1 1287 1 is_stmt 1 view -0
 1823              		.cfi_startproc
 1824              		@ args = 0, pretend = 0, frame = 32
 1825              		@ frame_needed = 0, uses_anonymous_args = 0
 1826              		.loc 1 1287 1 is_stmt 0 view .LVU596
 1827 0000 70B5     		push	{r4, r5, r6, lr}
 1828              	.LCFI4:
 1829              		.cfi_def_cfa_offset 16
 1830              		.cfi_offset 4, -16
 1831              		.cfi_offset 5, -12
 1832              		.cfi_offset 6, -8
 1833              		.cfi_offset 14, -4
 1834 0002 88B0     		sub	sp, sp, #32
 1835              	.LCFI5:
 1836              		.cfi_def_cfa_offset 48
 1837 0004 0C46     		mov	r4, r1
 1838 0006 1546     		mov	r5, r2
ARM GAS  C:\Users\minis\AppData\Local\Temp\cczlSevg.s 			page 61


1288:../../Drivers/STM32H7xx_HAL_Driver/Src/stm32h7xx_hal_rcc.c ****   GPIO_InitTypeDef GPIO_InitStruct;
 1839              		.loc 1 1288 3 is_stmt 1 view .LVU597
1289:../../Drivers/STM32H7xx_HAL_Driver/Src/stm32h7xx_hal_rcc.c ****   /* Check the parameters */
1290:../../Drivers/STM32H7xx_HAL_Driver/Src/stm32h7xx_hal_rcc.c ****   assert_param(IS_RCC_MCO(RCC_MCOx));
 1840              		.loc 1 1290 3 view .LVU598
1291:../../Drivers/STM32H7xx_HAL_Driver/Src/stm32h7xx_hal_rcc.c ****   assert_param(IS_RCC_MCODIV(RCC_MCODiv));
 1841              		.loc 1 1291 3 view .LVU599
1292:../../Drivers/STM32H7xx_HAL_Driver/Src/stm32h7xx_hal_rcc.c ****   /* RCC_MCO1 */
1293:../../Drivers/STM32H7xx_HAL_Driver/Src/stm32h7xx_hal_rcc.c ****   if (RCC_MCOx == RCC_MCO1)
 1842              		.loc 1 1293 3 view .LVU600
 1843              		.loc 1 1293 6 is_stmt 0 view .LVU601
 1844 0008 10BB     		cbnz	r0, .L173
1294:../../Drivers/STM32H7xx_HAL_Driver/Src/stm32h7xx_hal_rcc.c ****   {
1295:../../Drivers/STM32H7xx_HAL_Driver/Src/stm32h7xx_hal_rcc.c ****     assert_param(IS_RCC_MCO1SOURCE(RCC_MCOSource));
 1845              		.loc 1 1295 5 is_stmt 1 view .LVU602
1296:../../Drivers/STM32H7xx_HAL_Driver/Src/stm32h7xx_hal_rcc.c **** 
1297:../../Drivers/STM32H7xx_HAL_Driver/Src/stm32h7xx_hal_rcc.c ****     /* MCO1 Clock Enable */
1298:../../Drivers/STM32H7xx_HAL_Driver/Src/stm32h7xx_hal_rcc.c ****     MCO1_CLK_ENABLE();
 1846              		.loc 1 1298 5 view .LVU603
 1847              	.LBB13:
 1848              		.loc 1 1298 5 view .LVU604
 1849              		.loc 1 1298 5 view .LVU605
 1850 000a 234E     		ldr	r6, .L176
 1851 000c D6F8E030 		ldr	r3, [r6, #224]
 1852 0010 43F00103 		orr	r3, r3, #1
 1853 0014 C6F8E030 		str	r3, [r6, #224]
 1854              		.loc 1 1298 5 view .LVU606
 1855 0018 D6F8E030 		ldr	r3, [r6, #224]
 1856 001c 03F00103 		and	r3, r3, #1
 1857 0020 0193     		str	r3, [sp, #4]
 1858              		.loc 1 1298 5 view .LVU607
 1859 0022 019B     		ldr	r3, [sp, #4]
 1860              	.LBE13:
 1861              		.loc 1 1298 5 view .LVU608
1299:../../Drivers/STM32H7xx_HAL_Driver/Src/stm32h7xx_hal_rcc.c **** 
1300:../../Drivers/STM32H7xx_HAL_Driver/Src/stm32h7xx_hal_rcc.c ****     /* Configure the MCO1 pin in alternate function mode */
1301:../../Drivers/STM32H7xx_HAL_Driver/Src/stm32h7xx_hal_rcc.c ****     GPIO_InitStruct.Pin = MCO1_PIN;
 1862              		.loc 1 1301 5 view .LVU609
 1863              		.loc 1 1301 25 is_stmt 0 view .LVU610
 1864 0024 4FF48073 		mov	r3, #256
 1865 0028 0393     		str	r3, [sp, #12]
1302:../../Drivers/STM32H7xx_HAL_Driver/Src/stm32h7xx_hal_rcc.c ****     GPIO_InitStruct.Mode = GPIO_MODE_AF_PP;
 1866              		.loc 1 1302 5 is_stmt 1 view .LVU611
 1867              		.loc 1 1302 26 is_stmt 0 view .LVU612
 1868 002a 0223     		movs	r3, #2
 1869 002c 0493     		str	r3, [sp, #16]
1303:../../Drivers/STM32H7xx_HAL_Driver/Src/stm32h7xx_hal_rcc.c ****     GPIO_InitStruct.Speed = GPIO_SPEED_FREQ_VERY_HIGH;
 1870              		.loc 1 1303 5 is_stmt 1 view .LVU613
 1871              		.loc 1 1303 27 is_stmt 0 view .LVU614
 1872 002e 0323     		movs	r3, #3
 1873 0030 0693     		str	r3, [sp, #24]
1304:../../Drivers/STM32H7xx_HAL_Driver/Src/stm32h7xx_hal_rcc.c ****     GPIO_InitStruct.Pull = GPIO_NOPULL;
 1874              		.loc 1 1304 5 is_stmt 1 view .LVU615
 1875              		.loc 1 1304 26 is_stmt 0 view .LVU616
 1876 0032 0023     		movs	r3, #0
 1877 0034 0593     		str	r3, [sp, #20]
1305:../../Drivers/STM32H7xx_HAL_Driver/Src/stm32h7xx_hal_rcc.c ****     GPIO_InitStruct.Alternate = GPIO_AF0_MCO;
ARM GAS  C:\Users\minis\AppData\Local\Temp\cczlSevg.s 			page 62


 1878              		.loc 1 1305 5 is_stmt 1 view .LVU617
 1879              		.loc 1 1305 31 is_stmt 0 view .LVU618
 1880 0036 0793     		str	r3, [sp, #28]
1306:../../Drivers/STM32H7xx_HAL_Driver/Src/stm32h7xx_hal_rcc.c ****     HAL_GPIO_Init(MCO1_GPIO_PORT, &GPIO_InitStruct);
 1881              		.loc 1 1306 5 is_stmt 1 view .LVU619
 1882 0038 03A9     		add	r1, sp, #12
 1883              	.LVL153:
 1884              		.loc 1 1306 5 is_stmt 0 view .LVU620
 1885 003a 1848     		ldr	r0, .L176+4
 1886              	.LVL154:
 1887              		.loc 1 1306 5 view .LVU621
 1888 003c FFF7FEFF 		bl	HAL_GPIO_Init
 1889              	.LVL155:
1307:../../Drivers/STM32H7xx_HAL_Driver/Src/stm32h7xx_hal_rcc.c **** 
1308:../../Drivers/STM32H7xx_HAL_Driver/Src/stm32h7xx_hal_rcc.c ****     /* Mask MCO1 and MCO1PRE[3:0] bits then Select MCO1 clock source and pre-scaler */
1309:../../Drivers/STM32H7xx_HAL_Driver/Src/stm32h7xx_hal_rcc.c ****     MODIFY_REG(RCC->CFGR, (RCC_CFGR_MCO1 | RCC_CFGR_MCO1PRE), (RCC_MCOSource | RCC_MCODiv));
 1890              		.loc 1 1309 5 is_stmt 1 view .LVU622
 1891 0040 3369     		ldr	r3, [r6, #16]
 1892 0042 23F0FE73 		bic	r3, r3, #33292288
 1893 0046 2543     		orrs	r5, r5, r4
 1894              	.LVL156:
 1895              		.loc 1 1309 5 is_stmt 0 view .LVU623
 1896 0048 1D43     		orrs	r5, r5, r3
 1897 004a 3561     		str	r5, [r6, #16]
 1898              	.LVL157:
 1899              	.L172:
1310:../../Drivers/STM32H7xx_HAL_Driver/Src/stm32h7xx_hal_rcc.c ****   }
1311:../../Drivers/STM32H7xx_HAL_Driver/Src/stm32h7xx_hal_rcc.c ****   else
1312:../../Drivers/STM32H7xx_HAL_Driver/Src/stm32h7xx_hal_rcc.c ****   {
1313:../../Drivers/STM32H7xx_HAL_Driver/Src/stm32h7xx_hal_rcc.c ****     assert_param(IS_RCC_MCO2SOURCE(RCC_MCOSource));
1314:../../Drivers/STM32H7xx_HAL_Driver/Src/stm32h7xx_hal_rcc.c **** 
1315:../../Drivers/STM32H7xx_HAL_Driver/Src/stm32h7xx_hal_rcc.c ****     /* MCO2 Clock Enable */
1316:../../Drivers/STM32H7xx_HAL_Driver/Src/stm32h7xx_hal_rcc.c ****     MCO2_CLK_ENABLE();
1317:../../Drivers/STM32H7xx_HAL_Driver/Src/stm32h7xx_hal_rcc.c **** 
1318:../../Drivers/STM32H7xx_HAL_Driver/Src/stm32h7xx_hal_rcc.c ****     /* Configure the MCO2 pin in alternate function mode */
1319:../../Drivers/STM32H7xx_HAL_Driver/Src/stm32h7xx_hal_rcc.c ****     GPIO_InitStruct.Pin = MCO2_PIN;
1320:../../Drivers/STM32H7xx_HAL_Driver/Src/stm32h7xx_hal_rcc.c ****     GPIO_InitStruct.Mode = GPIO_MODE_AF_PP;
1321:../../Drivers/STM32H7xx_HAL_Driver/Src/stm32h7xx_hal_rcc.c ****     GPIO_InitStruct.Speed = GPIO_SPEED_FREQ_VERY_HIGH;
1322:../../Drivers/STM32H7xx_HAL_Driver/Src/stm32h7xx_hal_rcc.c ****     GPIO_InitStruct.Pull = GPIO_NOPULL;
1323:../../Drivers/STM32H7xx_HAL_Driver/Src/stm32h7xx_hal_rcc.c ****     GPIO_InitStruct.Alternate = GPIO_AF0_MCO;
1324:../../Drivers/STM32H7xx_HAL_Driver/Src/stm32h7xx_hal_rcc.c ****     HAL_GPIO_Init(MCO2_GPIO_PORT, &GPIO_InitStruct);
1325:../../Drivers/STM32H7xx_HAL_Driver/Src/stm32h7xx_hal_rcc.c **** 
1326:../../Drivers/STM32H7xx_HAL_Driver/Src/stm32h7xx_hal_rcc.c ****     /* Mask MCO2 and MCO2PRE[3:0] bits then Select MCO2 clock source and pre-scaler */
1327:../../Drivers/STM32H7xx_HAL_Driver/Src/stm32h7xx_hal_rcc.c ****     MODIFY_REG(RCC->CFGR, (RCC_CFGR_MCO2 | RCC_CFGR_MCO2PRE), (RCC_MCOSource | (RCC_MCODiv << 7U)))
1328:../../Drivers/STM32H7xx_HAL_Driver/Src/stm32h7xx_hal_rcc.c ****   }
1329:../../Drivers/STM32H7xx_HAL_Driver/Src/stm32h7xx_hal_rcc.c **** }
 1900              		.loc 1 1329 1 view .LVU624
 1901 004c 08B0     		add	sp, sp, #32
 1902              	.LCFI6:
 1903              		.cfi_remember_state
 1904              		.cfi_def_cfa_offset 16
 1905              		@ sp needed
 1906 004e 70BD     		pop	{r4, r5, r6, pc}
 1907              	.LVL158:
 1908              	.L173:
 1909              	.LCFI7:
 1910              		.cfi_restore_state
ARM GAS  C:\Users\minis\AppData\Local\Temp\cczlSevg.s 			page 63


1313:../../Drivers/STM32H7xx_HAL_Driver/Src/stm32h7xx_hal_rcc.c **** 
 1911              		.loc 1 1313 5 is_stmt 1 view .LVU625
1316:../../Drivers/STM32H7xx_HAL_Driver/Src/stm32h7xx_hal_rcc.c **** 
 1912              		.loc 1 1316 5 view .LVU626
 1913              	.LBB14:
1316:../../Drivers/STM32H7xx_HAL_Driver/Src/stm32h7xx_hal_rcc.c **** 
 1914              		.loc 1 1316 5 view .LVU627
1316:../../Drivers/STM32H7xx_HAL_Driver/Src/stm32h7xx_hal_rcc.c **** 
 1915              		.loc 1 1316 5 view .LVU628
 1916 0050 114E     		ldr	r6, .L176
 1917 0052 D6F8E030 		ldr	r3, [r6, #224]
 1918 0056 43F00403 		orr	r3, r3, #4
 1919 005a C6F8E030 		str	r3, [r6, #224]
1316:../../Drivers/STM32H7xx_HAL_Driver/Src/stm32h7xx_hal_rcc.c **** 
 1920              		.loc 1 1316 5 view .LVU629
 1921 005e D6F8E030 		ldr	r3, [r6, #224]
 1922 0062 03F00403 		and	r3, r3, #4
 1923 0066 0293     		str	r3, [sp, #8]
1316:../../Drivers/STM32H7xx_HAL_Driver/Src/stm32h7xx_hal_rcc.c **** 
 1924              		.loc 1 1316 5 view .LVU630
 1925 0068 029B     		ldr	r3, [sp, #8]
 1926              	.LBE14:
1316:../../Drivers/STM32H7xx_HAL_Driver/Src/stm32h7xx_hal_rcc.c **** 
 1927              		.loc 1 1316 5 view .LVU631
1319:../../Drivers/STM32H7xx_HAL_Driver/Src/stm32h7xx_hal_rcc.c ****     GPIO_InitStruct.Mode = GPIO_MODE_AF_PP;
 1928              		.loc 1 1319 5 view .LVU632
1319:../../Drivers/STM32H7xx_HAL_Driver/Src/stm32h7xx_hal_rcc.c ****     GPIO_InitStruct.Mode = GPIO_MODE_AF_PP;
 1929              		.loc 1 1319 25 is_stmt 0 view .LVU633
 1930 006a 4FF40073 		mov	r3, #512
 1931 006e 0393     		str	r3, [sp, #12]
1320:../../Drivers/STM32H7xx_HAL_Driver/Src/stm32h7xx_hal_rcc.c ****     GPIO_InitStruct.Speed = GPIO_SPEED_FREQ_VERY_HIGH;
 1932              		.loc 1 1320 5 is_stmt 1 view .LVU634
1320:../../Drivers/STM32H7xx_HAL_Driver/Src/stm32h7xx_hal_rcc.c ****     GPIO_InitStruct.Speed = GPIO_SPEED_FREQ_VERY_HIGH;
 1933              		.loc 1 1320 26 is_stmt 0 view .LVU635
 1934 0070 0223     		movs	r3, #2
 1935 0072 0493     		str	r3, [sp, #16]
1321:../../Drivers/STM32H7xx_HAL_Driver/Src/stm32h7xx_hal_rcc.c ****     GPIO_InitStruct.Pull = GPIO_NOPULL;
 1936              		.loc 1 1321 5 is_stmt 1 view .LVU636
1321:../../Drivers/STM32H7xx_HAL_Driver/Src/stm32h7xx_hal_rcc.c ****     GPIO_InitStruct.Pull = GPIO_NOPULL;
 1937              		.loc 1 1321 27 is_stmt 0 view .LVU637
 1938 0074 0323     		movs	r3, #3
 1939 0076 0693     		str	r3, [sp, #24]
1322:../../Drivers/STM32H7xx_HAL_Driver/Src/stm32h7xx_hal_rcc.c ****     GPIO_InitStruct.Alternate = GPIO_AF0_MCO;
 1940              		.loc 1 1322 5 is_stmt 1 view .LVU638
1322:../../Drivers/STM32H7xx_HAL_Driver/Src/stm32h7xx_hal_rcc.c ****     GPIO_InitStruct.Alternate = GPIO_AF0_MCO;
 1941              		.loc 1 1322 26 is_stmt 0 view .LVU639
 1942 0078 0023     		movs	r3, #0
 1943 007a 0593     		str	r3, [sp, #20]
