ARM GAS  C:\Users\minis\AppData\Local\Temp\ccyglIGZ.s 			page 1


   1              		.cpu cortex-m7
   2              		.arch armv7e-m
   3              		.fpu fpv5-d16
   4              		.eabi_attribute 20, 1
   5              		.eabi_attribute 21, 1
   6              		.eabi_attribute 23, 3
   7              		.eabi_attribute 24, 1
   8              		.eabi_attribute 25, 1
   9              		.eabi_attribute 26, 1
  10              		.eabi_attribute 30, 1
  11              		.eabi_attribute 34, 1
  12              		.eabi_attribute 18, 4
  13              		.file	"sys_arch.c"
  14              		.text
  15              	.Ltext0:
  16              		.cfi_sections	.debug_frame
  17              		.file 1 "../../Middlewares/Third_Party/LwIP/system/OS/sys_arch.c"
  18              		.section	.text.sys_mbox_new,"ax",%progbits
  19              		.align	1
  20              		.global	sys_mbox_new
  21              		.syntax unified
  22              		.thumb
  23              		.thumb_func
  25              	sys_mbox_new:
  26              	.LVL0:
  27              	.LFB174:
   1:../../Middlewares/Third_Party/LwIP/system/OS/sys_arch.c **** /*
   2:../../Middlewares/Third_Party/LwIP/system/OS/sys_arch.c ****  * Copyright (c) 2001-2003 Swedish Institute of Computer Science.
   3:../../Middlewares/Third_Party/LwIP/system/OS/sys_arch.c ****  * All rights reserved.
   4:../../Middlewares/Third_Party/LwIP/system/OS/sys_arch.c ****  *
   5:../../Middlewares/Third_Party/LwIP/system/OS/sys_arch.c ****  * Redistribution and use in source and binary forms, with or without modification,
   6:../../Middlewares/Third_Party/LwIP/system/OS/sys_arch.c ****  * are permitted provided that the following conditions are met:
   7:../../Middlewares/Third_Party/LwIP/system/OS/sys_arch.c ****  *
   8:../../Middlewares/Third_Party/LwIP/system/OS/sys_arch.c ****  * 1. Redistributions of source code must retain the above copyright notice,
   9:../../Middlewares/Third_Party/LwIP/system/OS/sys_arch.c ****  *    this list of conditions and the following disclaimer.
  10:../../Middlewares/Third_Party/LwIP/system/OS/sys_arch.c ****  * 2. Redistributions in binary form must reproduce the above copyright notice,
  11:../../Middlewares/Third_Party/LwIP/system/OS/sys_arch.c ****  *    this list of conditions and the following disclaimer in the documentation
  12:../../Middlewares/Third_Party/LwIP/system/OS/sys_arch.c ****  *    and/or other materials provided with the distribution.
  13:../../Middlewares/Third_Party/LwIP/system/OS/sys_arch.c ****  * 3. The name of the author may not be used to endorse or promote products
  14:../../Middlewares/Third_Party/LwIP/system/OS/sys_arch.c ****  *    derived from this software without specific prior written permission.
  15:../../Middlewares/Third_Party/LwIP/system/OS/sys_arch.c ****  *
  16:../../Middlewares/Third_Party/LwIP/system/OS/sys_arch.c ****  * THIS SOFTWARE IS PROVIDED BY THE AUTHOR ``AS IS'' AND ANY EXPRESS OR IMPLIED
  17:../../Middlewares/Third_Party/LwIP/system/OS/sys_arch.c ****  * WARRANTIES, INCLUDING, BUT NOT LIMITED TO, THE IMPLIED WARRANTIES OF
  18:../../Middlewares/Third_Party/LwIP/system/OS/sys_arch.c ****  * MERCHANTABILITY AND FITNESS FOR A PARTICULAR PURPOSE ARE DISCLAIMED. IN NO EVENT
  19:../../Middlewares/Third_Party/LwIP/system/OS/sys_arch.c ****  * SHALL THE AUTHOR BE LIABLE FOR ANY DIRECT, INDIRECT, INCIDENTAL, SPECIAL,
  20:../../Middlewares/Third_Party/LwIP/system/OS/sys_arch.c ****  * EXEMPLARY, OR CONSEQUENTIAL DAMAGES (INCLUDING, BUT NOT LIMITED TO, PROCUREMENT
  21:../../Middlewares/Third_Party/LwIP/system/OS/sys_arch.c ****  * OF SUBSTITUTE GOODS OR SERVICES; LOSS OF USE, DATA, OR PROFITS; OR BUSINESS
  22:../../Middlewares/Third_Party/LwIP/system/OS/sys_arch.c ****  * INTERRUPTION) HOWEVER CAUSED AND ON ANY THEORY OF LIABILITY, WHETHER IN
  23:../../Middlewares/Third_Party/LwIP/system/OS/sys_arch.c ****  * CONTRACT, STRICT LIABILITY, OR TORT (INCLUDING NEGLIGENCE OR OTHERWISE) ARISING
  24:../../Middlewares/Third_Party/LwIP/system/OS/sys_arch.c ****  * IN ANY WAY OUT OF THE USE OF THIS SOFTWARE, EVEN IF ADVISED OF THE POSSIBILITY
  25:../../Middlewares/Third_Party/LwIP/system/OS/sys_arch.c ****  * OF SUCH DAMAGE.
  26:../../Middlewares/Third_Party/LwIP/system/OS/sys_arch.c ****  *
  27:../../Middlewares/Third_Party/LwIP/system/OS/sys_arch.c ****  * This file is part of the lwIP TCP/IP stack.
  28:../../Middlewares/Third_Party/LwIP/system/OS/sys_arch.c ****  *
  29:../../Middlewares/Third_Party/LwIP/system/OS/sys_arch.c ****  * Author: Adam Dunkels <adam@sics.se>
  30:../../Middlewares/Third_Party/LwIP/system/OS/sys_arch.c ****  *
  31:../../Middlewares/Third_Party/LwIP/system/OS/sys_arch.c ****  */
ARM GAS  C:\Users\minis\AppData\Local\Temp\ccyglIGZ.s 			page 2


  32:../../Middlewares/Third_Party/LwIP/system/OS/sys_arch.c **** 
  33:../../Middlewares/Third_Party/LwIP/system/OS/sys_arch.c **** /* lwIP includes. */
  34:../../Middlewares/Third_Party/LwIP/system/OS/sys_arch.c **** #include "lwip/debug.h"
  35:../../Middlewares/Third_Party/LwIP/system/OS/sys_arch.c **** #include "lwip/def.h"
  36:../../Middlewares/Third_Party/LwIP/system/OS/sys_arch.c **** #include "lwip/sys.h"
  37:../../Middlewares/Third_Party/LwIP/system/OS/sys_arch.c **** #include "lwip/mem.h"
  38:../../Middlewares/Third_Party/LwIP/system/OS/sys_arch.c **** #include "lwip/stats.h"
  39:../../Middlewares/Third_Party/LwIP/system/OS/sys_arch.c **** 
  40:../../Middlewares/Third_Party/LwIP/system/OS/sys_arch.c **** #if !NO_SYS
  41:../../Middlewares/Third_Party/LwIP/system/OS/sys_arch.c **** 
  42:../../Middlewares/Third_Party/LwIP/system/OS/sys_arch.c **** #include "cmsis_os.h"
  43:../../Middlewares/Third_Party/LwIP/system/OS/sys_arch.c **** 
  44:../../Middlewares/Third_Party/LwIP/system/OS/sys_arch.c **** #if defined(LWIP_PROVIDE_ERRNO) && !defined(__NEWLIB__)
  45:../../Middlewares/Third_Party/LwIP/system/OS/sys_arch.c **** int errno;
  46:../../Middlewares/Third_Party/LwIP/system/OS/sys_arch.c **** #endif
  47:../../Middlewares/Third_Party/LwIP/system/OS/sys_arch.c **** 
  48:../../Middlewares/Third_Party/LwIP/system/OS/sys_arch.c **** /*-----------------------------------------------------------------------------------*/
  49:../../Middlewares/Third_Party/LwIP/system/OS/sys_arch.c **** //  Creates an empty mailbox.
  50:../../Middlewares/Third_Party/LwIP/system/OS/sys_arch.c **** err_t sys_mbox_new(sys_mbox_t *mbox, int size)
  51:../../Middlewares/Third_Party/LwIP/system/OS/sys_arch.c **** {
  28              		.loc 1 51 1 view -0
  29              		.cfi_startproc
  30              		@ args = 0, pretend = 0, frame = 0
  31              		@ frame_needed = 0, uses_anonymous_args = 0
  32              		.loc 1 51 1 is_stmt 0 view .LVU1
  33 0000 10B5     		push	{r4, lr}
  34              	.LCFI0:
  35              		.cfi_def_cfa_offset 8
  36              		.cfi_offset 4, -8
  37              		.cfi_offset 14, -4
  38 0002 0446     		mov	r4, r0
  39 0004 0846     		mov	r0, r1
  40              	.LVL1:
  52:../../Middlewares/Third_Party/LwIP/system/OS/sys_arch.c **** #if (osCMSIS < 0x20000U)
  53:../../Middlewares/Third_Party/LwIP/system/OS/sys_arch.c ****   osMessageQDef(QUEUE, size, void *);
  54:../../Middlewares/Third_Party/LwIP/system/OS/sys_arch.c ****   *mbox = osMessageCreate(osMessageQ(QUEUE), NULL);
  55:../../Middlewares/Third_Party/LwIP/system/OS/sys_arch.c **** #else
  56:../../Middlewares/Third_Party/LwIP/system/OS/sys_arch.c ****   *mbox = osMessageQueueNew(size, sizeof(void *), NULL);
  41              		.loc 1 56 3 is_stmt 1 view .LVU2
  42              		.loc 1 56 11 is_stmt 0 view .LVU3
  43 0006 0022     		movs	r2, #0
  44 0008 0421     		movs	r1, #4
  45              	.LVL2:
  46              		.loc 1 56 11 view .LVU4
  47 000a FFF7FEFF 		bl	osMessageQueueNew
  48              	.LVL3:
  49              		.loc 1 56 9 discriminator 1 view .LVU5
  50 000e 2060     		str	r0, [r4]
  57:../../Middlewares/Third_Party/LwIP/system/OS/sys_arch.c **** #endif
  58:../../Middlewares/Third_Party/LwIP/system/OS/sys_arch.c **** #if SYS_STATS
  59:../../Middlewares/Third_Party/LwIP/system/OS/sys_arch.c ****   ++lwip_stats.sys.mbox.used;
  60:../../Middlewares/Third_Party/LwIP/system/OS/sys_arch.c ****   if(lwip_stats.sys.mbox.max < lwip_stats.sys.mbox.used)
  61:../../Middlewares/Third_Party/LwIP/system/OS/sys_arch.c ****   {
  62:../../Middlewares/Third_Party/LwIP/system/OS/sys_arch.c ****     lwip_stats.sys.mbox.max = lwip_stats.sys.mbox.used;
  63:../../Middlewares/Third_Party/LwIP/system/OS/sys_arch.c ****   }
  64:../../Middlewares/Third_Party/LwIP/system/OS/sys_arch.c **** #endif /* SYS_STATS */
  65:../../Middlewares/Third_Party/LwIP/system/OS/sys_arch.c ****   if(*mbox == NULL)
ARM GAS  C:\Users\minis\AppData\Local\Temp\ccyglIGZ.s 			page 3


  51              		.loc 1 65 3 is_stmt 1 view .LVU6
  52              		.loc 1 65 5 is_stmt 0 view .LVU7
  53 0010 08B1     		cbz	r0, .L3
  66:../../Middlewares/Third_Party/LwIP/system/OS/sys_arch.c ****     return ERR_MEM;
  67:../../Middlewares/Third_Party/LwIP/system/OS/sys_arch.c **** 
  68:../../Middlewares/Third_Party/LwIP/system/OS/sys_arch.c ****   return ERR_OK;
  54              		.loc 1 68 10 view .LVU8
  55 0012 0020     		movs	r0, #0
  56              	.L2:
  69:../../Middlewares/Third_Party/LwIP/system/OS/sys_arch.c **** }
  57              		.loc 1 69 1 view .LVU9
  58 0014 10BD     		pop	{r4, pc}
  59              	.LVL4:
  60              	.L3:
  66:../../Middlewares/Third_Party/LwIP/system/OS/sys_arch.c ****     return ERR_MEM;
  61              		.loc 1 66 12 view .LVU10
  62 0016 4FF0FF30 		mov	r0, #-1
  63 001a FBE7     		b	.L2
  64              		.cfi_endproc
  65              	.LFE174:
  67              		.section	.text.sys_mbox_free,"ax",%progbits
  68              		.align	1
  69              		.global	sys_mbox_free
  70              		.syntax unified
  71              		.thumb
  72              		.thumb_func
  74              	sys_mbox_free:
  75              	.LVL5:
  76              	.LFB175:
  70:../../Middlewares/Third_Party/LwIP/system/OS/sys_arch.c **** 
  71:../../Middlewares/Third_Party/LwIP/system/OS/sys_arch.c **** /*-----------------------------------------------------------------------------------*/
  72:../../Middlewares/Third_Party/LwIP/system/OS/sys_arch.c **** /*
  73:../../Middlewares/Third_Party/LwIP/system/OS/sys_arch.c ****   Deallocates a mailbox. If there are messages still present in the
  74:../../Middlewares/Third_Party/LwIP/system/OS/sys_arch.c ****   mailbox when the mailbox is deallocated, it is an indication of a
  75:../../Middlewares/Third_Party/LwIP/system/OS/sys_arch.c ****   programming error in lwIP and the developer should be notified.
  76:../../Middlewares/Third_Party/LwIP/system/OS/sys_arch.c **** */
  77:../../Middlewares/Third_Party/LwIP/system/OS/sys_arch.c **** void sys_mbox_free(sys_mbox_t *mbox)
  78:../../Middlewares/Third_Party/LwIP/system/OS/sys_arch.c **** {
  77              		.loc 1 78 1 is_stmt 1 view -0
  78              		.cfi_startproc
  79              		@ args = 0, pretend = 0, frame = 0
  80              		@ frame_needed = 0, uses_anonymous_args = 0
  81              		.loc 1 78 1 is_stmt 0 view .LVU12
  82 0000 10B5     		push	{r4, lr}
  83              	.LCFI1:
  84              		.cfi_def_cfa_offset 8
  85              		.cfi_offset 4, -8
  86              		.cfi_offset 14, -4
  87 0002 0446     		mov	r4, r0
  79:../../Middlewares/Third_Party/LwIP/system/OS/sys_arch.c **** #if (osCMSIS < 0x20000U)
  80:../../Middlewares/Third_Party/LwIP/system/OS/sys_arch.c ****   if(osMessageWaiting(*mbox))
  81:../../Middlewares/Third_Party/LwIP/system/OS/sys_arch.c **** #else
  82:../../Middlewares/Third_Party/LwIP/system/OS/sys_arch.c ****   if(osMessageQueueGetCount(*mbox))
  88              		.loc 1 82 3 is_stmt 1 view .LVU13
  89              		.loc 1 82 6 is_stmt 0 view .LVU14
  90 0004 0068     		ldr	r0, [r0]
  91              	.LVL6:
ARM GAS  C:\Users\minis\AppData\Local\Temp\ccyglIGZ.s 			page 4


  92              		.loc 1 82 6 view .LVU15
  93 0006 FFF7FEFF 		bl	osMessageQueueGetCount
  94              	.LVL7:
  83:../../Middlewares/Third_Party/LwIP/system/OS/sys_arch.c **** #endif
  84:../../Middlewares/Third_Party/LwIP/system/OS/sys_arch.c ****   {
  85:../../Middlewares/Third_Party/LwIP/system/OS/sys_arch.c ****     /* Line for breakpoint.  Should never break here! */
  86:../../Middlewares/Third_Party/LwIP/system/OS/sys_arch.c ****     portNOP();
  95              		.loc 1 86 14 is_stmt 1 view .LVU16
  87:../../Middlewares/Third_Party/LwIP/system/OS/sys_arch.c **** #if SYS_STATS
  88:../../Middlewares/Third_Party/LwIP/system/OS/sys_arch.c ****     lwip_stats.sys.mbox.err++;
  89:../../Middlewares/Third_Party/LwIP/system/OS/sys_arch.c **** #endif /* SYS_STATS */
  90:../../Middlewares/Third_Party/LwIP/system/OS/sys_arch.c **** 
  91:../../Middlewares/Third_Party/LwIP/system/OS/sys_arch.c ****   }
  92:../../Middlewares/Third_Party/LwIP/system/OS/sys_arch.c **** #if (osCMSIS < 0x20000U)
  93:../../Middlewares/Third_Party/LwIP/system/OS/sys_arch.c ****   osMessageDelete(*mbox);
  94:../../Middlewares/Third_Party/LwIP/system/OS/sys_arch.c **** #else
  95:../../Middlewares/Third_Party/LwIP/system/OS/sys_arch.c ****   osMessageQueueDelete(*mbox);
  96              		.loc 1 95 3 view .LVU17
  97 000a 2068     		ldr	r0, [r4]
  98 000c FFF7FEFF 		bl	osMessageQueueDelete
  99              	.LVL8:
  96:../../Middlewares/Third_Party/LwIP/system/OS/sys_arch.c **** #endif
  97:../../Middlewares/Third_Party/LwIP/system/OS/sys_arch.c **** #if SYS_STATS
  98:../../Middlewares/Third_Party/LwIP/system/OS/sys_arch.c ****   --lwip_stats.sys.mbox.used;
  99:../../Middlewares/Third_Party/LwIP/system/OS/sys_arch.c **** #endif /* SYS_STATS */
 100:../../Middlewares/Third_Party/LwIP/system/OS/sys_arch.c **** }
 100              		.loc 1 100 1 is_stmt 0 view .LVU18
 101 0010 10BD     		pop	{r4, pc}
 102              		.loc 1 100 1 view .LVU19
 103              		.cfi_endproc
 104              	.LFE175:
 106              		.section	.text.sys_mbox_post,"ax",%progbits
 107              		.align	1
 108              		.global	sys_mbox_post
 109              		.syntax unified
 110              		.thumb
 111              		.thumb_func
 113              	sys_mbox_post:
 114              	.LVL9:
 115              	.LFB176:
 101:../../Middlewares/Third_Party/LwIP/system/OS/sys_arch.c **** 
 102:../../Middlewares/Third_Party/LwIP/system/OS/sys_arch.c **** /*-----------------------------------------------------------------------------------*/
 103:../../Middlewares/Third_Party/LwIP/system/OS/sys_arch.c **** //   Posts the "msg" to the mailbox.
 104:../../Middlewares/Third_Party/LwIP/system/OS/sys_arch.c **** void sys_mbox_post(sys_mbox_t *mbox, void *data)
 105:../../Middlewares/Third_Party/LwIP/system/OS/sys_arch.c **** {
 116              		.loc 1 105 1 is_stmt 1 view -0
 117              		.cfi_startproc
 118              		@ args = 0, pretend = 0, frame = 8
 119              		@ frame_needed = 0, uses_anonymous_args = 0
 120              		.loc 1 105 1 is_stmt 0 view .LVU21
 121 0000 10B5     		push	{r4, lr}
 122              	.LCFI2:
 123              		.cfi_def_cfa_offset 8
 124              		.cfi_offset 4, -8
 125              		.cfi_offset 14, -4
 126 0002 82B0     		sub	sp, sp, #8
 127              	.LCFI3:
ARM GAS  C:\Users\minis\AppData\Local\Temp\ccyglIGZ.s 			page 5


 128              		.cfi_def_cfa_offset 16
 129 0004 0446     		mov	r4, r0
 130 0006 0191     		str	r1, [sp, #4]
 106:../../Middlewares/Third_Party/LwIP/system/OS/sys_arch.c **** #if (osCMSIS < 0x20000U)
 107:../../Middlewares/Third_Party/LwIP/system/OS/sys_arch.c ****   while(osMessagePut(*mbox, (uint32_t)data, osWaitForever) != osOK);
 108:../../Middlewares/Third_Party/LwIP/system/OS/sys_arch.c **** #else
 109:../../Middlewares/Third_Party/LwIP/system/OS/sys_arch.c ****   while(osMessageQueuePut(*mbox, &data, 0, osWaitForever) != osOK);
 131              		.loc 1 109 3 is_stmt 1 view .LVU22
 132              	.LVL10:
 133              	.L8:
 134              		.loc 1 109 59 discriminator 1 view .LVU23
 135              		.loc 1 109 9 is_stmt 0 discriminator 1 view .LVU24
 136 0008 4FF0FF33 		mov	r3, #-1
 137 000c 0022     		movs	r2, #0
 138 000e 01A9     		add	r1, sp, #4
 139 0010 2068     		ldr	r0, [r4]
 140 0012 FFF7FEFF 		bl	osMessageQueuePut
 141              	.LVL11:
 142              		.loc 1 109 59 discriminator 1 view .LVU25
 143 0016 0028     		cmp	r0, #0
 144 0018 F6D1     		bne	.L8
 110:../../Middlewares/Third_Party/LwIP/system/OS/sys_arch.c **** #endif
 111:../../Middlewares/Third_Party/LwIP/system/OS/sys_arch.c **** }
 145              		.loc 1 111 1 view .LVU26
 146 001a 02B0     		add	sp, sp, #8
 147              	.LCFI4:
 148              		.cfi_def_cfa_offset 8
 149              		@ sp needed
 150 001c 10BD     		pop	{r4, pc}
 151              		.loc 1 111 1 view .LVU27
 152              		.cfi_endproc
 153              	.LFE176:
 155              		.section	.text.sys_mbox_trypost,"ax",%progbits
 156              		.align	1
 157              		.global	sys_mbox_trypost
 158              		.syntax unified
 159              		.thumb
 160              		.thumb_func
 162              	sys_mbox_trypost:
 163              	.LVL12:
 164              	.LFB177:
 112:../../Middlewares/Third_Party/LwIP/system/OS/sys_arch.c **** 
 113:../../Middlewares/Third_Party/LwIP/system/OS/sys_arch.c **** 
 114:../../Middlewares/Third_Party/LwIP/system/OS/sys_arch.c **** /*-----------------------------------------------------------------------------------*/
 115:../../Middlewares/Third_Party/LwIP/system/OS/sys_arch.c **** //   Try to post the "msg" to the mailbox.
 116:../../Middlewares/Third_Party/LwIP/system/OS/sys_arch.c **** err_t sys_mbox_trypost(sys_mbox_t *mbox, void *msg)
 117:../../Middlewares/Third_Party/LwIP/system/OS/sys_arch.c **** {
 165              		.loc 1 117 1 is_stmt 1 view -0
 166              		.cfi_startproc
 167              		@ args = 0, pretend = 0, frame = 8
 168              		@ frame_needed = 0, uses_anonymous_args = 0
 169              		.loc 1 117 1 is_stmt 0 view .LVU29
 170 0000 00B5     		push	{lr}
 171              	.LCFI5:
 172              		.cfi_def_cfa_offset 4
 173              		.cfi_offset 14, -4
 174 0002 83B0     		sub	sp, sp, #12
ARM GAS  C:\Users\minis\AppData\Local\Temp\ccyglIGZ.s 			page 6


 175              	.LCFI6:
 176              		.cfi_def_cfa_offset 16
 177 0004 0191     		str	r1, [sp, #4]
 118:../../Middlewares/Third_Party/LwIP/system/OS/sys_arch.c ****   err_t result;
 178              		.loc 1 118 3 is_stmt 1 view .LVU30
 119:../../Middlewares/Third_Party/LwIP/system/OS/sys_arch.c **** #if (osCMSIS < 0x20000U)
 120:../../Middlewares/Third_Party/LwIP/system/OS/sys_arch.c ****   if(osMessagePut(*mbox, (uint32_t)msg, 0) == osOK)
 121:../../Middlewares/Third_Party/LwIP/system/OS/sys_arch.c **** #else
 122:../../Middlewares/Third_Party/LwIP/system/OS/sys_arch.c ****   if(osMessageQueuePut(*mbox, &msg, 0, 0) == osOK)
 179              		.loc 1 122 3 view .LVU31
 180              		.loc 1 122 6 is_stmt 0 view .LVU32
 181 0006 0023     		movs	r3, #0
 182 0008 1A46     		mov	r2, r3
 183 000a 01A9     		add	r1, sp, #4
 184              	.LVL13:
 185              		.loc 1 122 6 view .LVU33
 186 000c 0068     		ldr	r0, [r0]
 187              	.LVL14:
 188              		.loc 1 122 6 view .LVU34
 189 000e FFF7FEFF 		bl	osMessageQueuePut
 190              	.LVL15:
 191              		.loc 1 122 5 discriminator 1 view .LVU35
 192 0012 10B9     		cbnz	r0, .L14
 193              	.L11:
 194              	.LVL16:
 123:../../Middlewares/Third_Party/LwIP/system/OS/sys_arch.c **** #endif
 124:../../Middlewares/Third_Party/LwIP/system/OS/sys_arch.c ****   {
 125:../../Middlewares/Third_Party/LwIP/system/OS/sys_arch.c ****     result = ERR_OK;
 126:../../Middlewares/Third_Party/LwIP/system/OS/sys_arch.c ****   }
 127:../../Middlewares/Third_Party/LwIP/system/OS/sys_arch.c ****   else
 128:../../Middlewares/Third_Party/LwIP/system/OS/sys_arch.c ****   {
 129:../../Middlewares/Third_Party/LwIP/system/OS/sys_arch.c ****     // could not post, queue must be full
 130:../../Middlewares/Third_Party/LwIP/system/OS/sys_arch.c ****     result = ERR_MEM;
 131:../../Middlewares/Third_Party/LwIP/system/OS/sys_arch.c **** 
 132:../../Middlewares/Third_Party/LwIP/system/OS/sys_arch.c **** #if SYS_STATS
 133:../../Middlewares/Third_Party/LwIP/system/OS/sys_arch.c ****     lwip_stats.sys.mbox.err++;
 134:../../Middlewares/Third_Party/LwIP/system/OS/sys_arch.c **** #endif /* SYS_STATS */
 135:../../Middlewares/Third_Party/LwIP/system/OS/sys_arch.c ****   }
 136:../../Middlewares/Third_Party/LwIP/system/OS/sys_arch.c **** 
 137:../../Middlewares/Third_Party/LwIP/system/OS/sys_arch.c ****   return result;
 195              		.loc 1 137 3 is_stmt 1 view .LVU36
 138:../../Middlewares/Third_Party/LwIP/system/OS/sys_arch.c **** }
 196              		.loc 1 138 1 is_stmt 0 view .LVU37
 197 0014 03B0     		add	sp, sp, #12
 198              	.LCFI7:
 199              		.cfi_remember_state
 200              		.cfi_def_cfa_offset 4
 201              		@ sp needed
 202 0016 5DF804FB 		ldr	pc, [sp], #4
 203              	.LVL17:
 204              	.L14:
 205              	.LCFI8:
 206              		.cfi_restore_state
 130:../../Middlewares/Third_Party/LwIP/system/OS/sys_arch.c **** 
 207              		.loc 1 130 12 view .LVU38
 208 001a 4FF0FF30 		mov	r0, #-1
 209 001e F9E7     		b	.L11
ARM GAS  C:\Users\minis\AppData\Local\Temp\ccyglIGZ.s 			page 7


 210              		.cfi_endproc
 211              	.LFE177:
 213              		.section	.text.sys_mbox_trypost_fromisr,"ax",%progbits
 214              		.align	1
 215              		.global	sys_mbox_trypost_fromisr
 216              		.syntax unified
 217              		.thumb
 218              		.thumb_func
 220              	sys_mbox_trypost_fromisr:
 221              	.LVL18:
 222              	.LFB178:
 139:../../Middlewares/Third_Party/LwIP/system/OS/sys_arch.c **** 
 140:../../Middlewares/Third_Party/LwIP/system/OS/sys_arch.c **** 
 141:../../Middlewares/Third_Party/LwIP/system/OS/sys_arch.c **** /*-----------------------------------------------------------------------------------*/
 142:../../Middlewares/Third_Party/LwIP/system/OS/sys_arch.c **** //   Try to post the "msg" to the mailbox.
 143:../../Middlewares/Third_Party/LwIP/system/OS/sys_arch.c **** err_t sys_mbox_trypost_fromisr(sys_mbox_t *mbox, void *msg)
 144:../../Middlewares/Third_Party/LwIP/system/OS/sys_arch.c **** {
 223              		.loc 1 144 1 is_stmt 1 view -0
 224              		.cfi_startproc
 225              		@ args = 0, pretend = 0, frame = 0
 226              		@ frame_needed = 0, uses_anonymous_args = 0
 227              		.loc 1 144 1 is_stmt 0 view .LVU40
 228 0000 08B5     		push	{r3, lr}
 229              	.LCFI9:
 230              		.cfi_def_cfa_offset 8
 231              		.cfi_offset 3, -8
 232              		.cfi_offset 14, -4
 145:../../Middlewares/Third_Party/LwIP/system/OS/sys_arch.c ****   return sys_mbox_trypost(mbox, msg);
 233              		.loc 1 145 3 is_stmt 1 view .LVU41
 234              		.loc 1 145 10 is_stmt 0 view .LVU42
 235 0002 FFF7FEFF 		bl	sys_mbox_trypost
 236              	.LVL19:
 146:../../Middlewares/Third_Party/LwIP/system/OS/sys_arch.c **** }
 237              		.loc 1 146 1 view .LVU43
 238 0006 08BD     		pop	{r3, pc}
 239              		.cfi_endproc
 240              	.LFE178:
 242              		.section	.text.sys_arch_mbox_fetch,"ax",%progbits
 243              		.align	1
 244              		.global	sys_arch_mbox_fetch
 245              		.syntax unified
 246              		.thumb
 247              		.thumb_func
 249              	sys_arch_mbox_fetch:
 250              	.LVL20:
 251              	.LFB179:
 147:../../Middlewares/Third_Party/LwIP/system/OS/sys_arch.c **** 
 148:../../Middlewares/Third_Party/LwIP/system/OS/sys_arch.c **** /*-----------------------------------------------------------------------------------*/
 149:../../Middlewares/Third_Party/LwIP/system/OS/sys_arch.c **** /*
 150:../../Middlewares/Third_Party/LwIP/system/OS/sys_arch.c ****   Blocks the thread until a message arrives in the mailbox, but does
 151:../../Middlewares/Third_Party/LwIP/system/OS/sys_arch.c ****   not block the thread longer than "timeout" milliseconds (similar to
 152:../../Middlewares/Third_Party/LwIP/system/OS/sys_arch.c ****   the sys_arch_sem_wait() function). The "msg" argument is a result
 153:../../Middlewares/Third_Party/LwIP/system/OS/sys_arch.c ****   parameter that is set by the function (i.e., by doing "*msg =
 154:../../Middlewares/Third_Party/LwIP/system/OS/sys_arch.c ****   ptr"). The "msg" parameter maybe NULL to indicate that the message
 155:../../Middlewares/Third_Party/LwIP/system/OS/sys_arch.c ****   should be dropped.
 156:../../Middlewares/Third_Party/LwIP/system/OS/sys_arch.c **** 
 157:../../Middlewares/Third_Party/LwIP/system/OS/sys_arch.c ****   The return values are the same as for the sys_arch_sem_wait() function:
ARM GAS  C:\Users\minis\AppData\Local\Temp\ccyglIGZ.s 			page 8


 158:../../Middlewares/Third_Party/LwIP/system/OS/sys_arch.c ****   Number of milliseconds spent waiting or SYS_ARCH_TIMEOUT if there was a
 159:../../Middlewares/Third_Party/LwIP/system/OS/sys_arch.c ****   timeout.
 160:../../Middlewares/Third_Party/LwIP/system/OS/sys_arch.c **** 
 161:../../Middlewares/Third_Party/LwIP/system/OS/sys_arch.c ****   Note that a function with a similar name, sys_mbox_fetch(), is
 162:../../Middlewares/Third_Party/LwIP/system/OS/sys_arch.c ****   implemented by lwIP.
 163:../../Middlewares/Third_Party/LwIP/system/OS/sys_arch.c **** */
 164:../../Middlewares/Third_Party/LwIP/system/OS/sys_arch.c **** u32_t sys_arch_mbox_fetch(sys_mbox_t *mbox, void **msg, u32_t timeout)
 165:../../Middlewares/Third_Party/LwIP/system/OS/sys_arch.c **** {
 252              		.loc 1 165 1 is_stmt 1 view -0
 253              		.cfi_startproc
 254              		@ args = 0, pretend = 0, frame = 0
 255              		@ frame_needed = 0, uses_anonymous_args = 0
 256              		.loc 1 165 1 is_stmt 0 view .LVU45
 257 0000 F8B5     		push	{r3, r4, r5, r6, r7, lr}
 258              	.LCFI10:
 259              		.cfi_def_cfa_offset 24
 260              		.cfi_offset 3, -24
 261              		.cfi_offset 4, -20
 262              		.cfi_offset 5, -16
 263              		.cfi_offset 6, -12
 264              		.cfi_offset 7, -8
 265              		.cfi_offset 14, -4
 266 0002 0646     		mov	r6, r0
 267 0004 0F46     		mov	r7, r1
 268 0006 1546     		mov	r5, r2
 166:../../Middlewares/Third_Party/LwIP/system/OS/sys_arch.c **** #if (osCMSIS < 0x20000U)
 167:../../Middlewares/Third_Party/LwIP/system/OS/sys_arch.c ****   osEvent event;
 168:../../Middlewares/Third_Party/LwIP/system/OS/sys_arch.c ****   uint32_t starttime = osKernelSysTick();
 169:../../Middlewares/Third_Party/LwIP/system/OS/sys_arch.c **** #else
 170:../../Middlewares/Third_Party/LwIP/system/OS/sys_arch.c ****   osStatus_t status;
 269              		.loc 1 170 3 is_stmt 1 view .LVU46
 171:../../Middlewares/Third_Party/LwIP/system/OS/sys_arch.c ****   uint32_t starttime = osKernelGetTickCount();
 270              		.loc 1 171 3 view .LVU47
 271              		.loc 1 171 24 is_stmt 0 view .LVU48
 272 0008 FFF7FEFF 		bl	osKernelGetTickCount
 273              	.LVL21:
 274              		.loc 1 171 24 view .LVU49
 275 000c 0446     		mov	r4, r0
 276              	.LVL22:
 172:../../Middlewares/Third_Party/LwIP/system/OS/sys_arch.c **** #endif
 173:../../Middlewares/Third_Party/LwIP/system/OS/sys_arch.c ****   if(timeout != 0)
 277              		.loc 1 173 3 is_stmt 1 view .LVU50
 278              		.loc 1 173 5 is_stmt 0 view .LVU51
 279 000e 6DB1     		cbz	r5, .L18
 174:../../Middlewares/Third_Party/LwIP/system/OS/sys_arch.c ****   {
 175:../../Middlewares/Third_Party/LwIP/system/OS/sys_arch.c **** #if (osCMSIS < 0x20000U)
 176:../../Middlewares/Third_Party/LwIP/system/OS/sys_arch.c ****     event = osMessageGet (*mbox, timeout);
 177:../../Middlewares/Third_Party/LwIP/system/OS/sys_arch.c **** 
 178:../../Middlewares/Third_Party/LwIP/system/OS/sys_arch.c ****     if(event.status == osEventMessage)
 179:../../Middlewares/Third_Party/LwIP/system/OS/sys_arch.c ****     {
 180:../../Middlewares/Third_Party/LwIP/system/OS/sys_arch.c ****       *msg = (void *)event.value.v;
 181:../../Middlewares/Third_Party/LwIP/system/OS/sys_arch.c ****       return (osKernelSysTick() - starttime);
 182:../../Middlewares/Third_Party/LwIP/system/OS/sys_arch.c ****     }
 183:../../Middlewares/Third_Party/LwIP/system/OS/sys_arch.c **** #else
 184:../../Middlewares/Third_Party/LwIP/system/OS/sys_arch.c ****     status = osMessageQueueGet(*mbox, msg, 0, timeout);
 280              		.loc 1 184 5 is_stmt 1 view .LVU52
 281              		.loc 1 184 14 is_stmt 0 view .LVU53
ARM GAS  C:\Users\minis\AppData\Local\Temp\ccyglIGZ.s 			page 9


 282 0010 2B46     		mov	r3, r5
 283 0012 0022     		movs	r2, #0
 284 0014 3946     		mov	r1, r7
 285 0016 3068     		ldr	r0, [r6]
 286              	.LVL23:
 287              		.loc 1 184 14 view .LVU54
 288 0018 FFF7FEFF 		bl	osMessageQueueGet
 289              	.LVL24:
 185:../../Middlewares/Third_Party/LwIP/system/OS/sys_arch.c ****     if (status == osOK)
 290              		.loc 1 185 5 is_stmt 1 view .LVU55
 291              		.loc 1 185 8 is_stmt 0 view .LVU56
 292 001c 10B1     		cbz	r0, .L22
 186:../../Middlewares/Third_Party/LwIP/system/OS/sys_arch.c ****     {
 187:../../Middlewares/Third_Party/LwIP/system/OS/sys_arch.c ****       return (osKernelGetTickCount() - starttime);
 188:../../Middlewares/Third_Party/LwIP/system/OS/sys_arch.c ****     }
 189:../../Middlewares/Third_Party/LwIP/system/OS/sys_arch.c **** #endif
 190:../../Middlewares/Third_Party/LwIP/system/OS/sys_arch.c ****     else
 191:../../Middlewares/Third_Party/LwIP/system/OS/sys_arch.c ****     {
 192:../../Middlewares/Third_Party/LwIP/system/OS/sys_arch.c ****       return SYS_ARCH_TIMEOUT;
 293              		.loc 1 192 14 view .LVU57
 294 001e 4FF0FF30 		mov	r0, #-1
 295              	.LVL25:
 296              	.L17:
 193:../../Middlewares/Third_Party/LwIP/system/OS/sys_arch.c ****     }
 194:../../Middlewares/Third_Party/LwIP/system/OS/sys_arch.c ****   }
 195:../../Middlewares/Third_Party/LwIP/system/OS/sys_arch.c ****   else
 196:../../Middlewares/Third_Party/LwIP/system/OS/sys_arch.c ****   {
 197:../../Middlewares/Third_Party/LwIP/system/OS/sys_arch.c **** #if (osCMSIS < 0x20000U)
 198:../../Middlewares/Third_Party/LwIP/system/OS/sys_arch.c ****     event = osMessageGet (*mbox, osWaitForever);
 199:../../Middlewares/Third_Party/LwIP/system/OS/sys_arch.c ****     *msg = (void *)event.value.v;
 200:../../Middlewares/Third_Party/LwIP/system/OS/sys_arch.c ****     return (osKernelSysTick() - starttime);
 201:../../Middlewares/Third_Party/LwIP/system/OS/sys_arch.c **** #else
 202:../../Middlewares/Third_Party/LwIP/system/OS/sys_arch.c ****     osMessageQueueGet(*mbox, msg, 0, osWaitForever );
 203:../../Middlewares/Third_Party/LwIP/system/OS/sys_arch.c ****     return (osKernelGetTickCount() - starttime);
 204:../../Middlewares/Third_Party/LwIP/system/OS/sys_arch.c **** #endif
 205:../../Middlewares/Third_Party/LwIP/system/OS/sys_arch.c ****   }
 206:../../Middlewares/Third_Party/LwIP/system/OS/sys_arch.c **** }
 297              		.loc 1 206 1 view .LVU58
 298 0022 F8BD     		pop	{r3, r4, r5, r6, r7, pc}
 299              	.LVL26:
 300              	.L22:
 187:../../Middlewares/Third_Party/LwIP/system/OS/sys_arch.c ****     }
 301              		.loc 1 187 7 is_stmt 1 view .LVU59
 187:../../Middlewares/Third_Party/LwIP/system/OS/sys_arch.c ****     }
 302              		.loc 1 187 15 is_stmt 0 view .LVU60
 303 0024 FFF7FEFF 		bl	osKernelGetTickCount
 304              	.LVL27:
 187:../../Middlewares/Third_Party/LwIP/system/OS/sys_arch.c ****     }
 305              		.loc 1 187 38 discriminator 1 view .LVU61
 306 0028 001B     		subs	r0, r0, r4
 187:../../Middlewares/Third_Party/LwIP/system/OS/sys_arch.c ****     }
 307              		.loc 1 187 38 view .LVU62
 308 002a FAE7     		b	.L17
 309              	.LVL28:
 310              	.L18:
 202:../../Middlewares/Third_Party/LwIP/system/OS/sys_arch.c ****     return (osKernelGetTickCount() - starttime);
 311              		.loc 1 202 5 is_stmt 1 view .LVU63
ARM GAS  C:\Users\minis\AppData\Local\Temp\ccyglIGZ.s 			page 10


 312 002c 4FF0FF33 		mov	r3, #-1
 313 0030 0022     		movs	r2, #0
 314 0032 3946     		mov	r1, r7
 315 0034 3068     		ldr	r0, [r6]
 316              	.LVL29:
 202:../../Middlewares/Third_Party/LwIP/system/OS/sys_arch.c ****     return (osKernelGetTickCount() - starttime);
 317              		.loc 1 202 5 is_stmt 0 view .LVU64
 318 0036 FFF7FEFF 		bl	osMessageQueueGet
 319              	.LVL30:
 203:../../Middlewares/Third_Party/LwIP/system/OS/sys_arch.c **** #endif
 320              		.loc 1 203 5 is_stmt 1 view .LVU65
 203:../../Middlewares/Third_Party/LwIP/system/OS/sys_arch.c **** #endif
 321              		.loc 1 203 13 is_stmt 0 view .LVU66
 322 003a FFF7FEFF 		bl	osKernelGetTickCount
 323              	.LVL31:
 203:../../Middlewares/Third_Party/LwIP/system/OS/sys_arch.c **** #endif
 324              		.loc 1 203 36 discriminator 1 view .LVU67
 325 003e 001B     		subs	r0, r0, r4
 203:../../Middlewares/Third_Party/LwIP/system/OS/sys_arch.c **** #endif
 326              		.loc 1 203 36 view .LVU68
 327 0040 EFE7     		b	.L17
 328              		.cfi_endproc
 329              	.LFE179:
 331              		.section	.text.sys_arch_mbox_tryfetch,"ax",%progbits
 332              		.align	1
 333              		.global	sys_arch_mbox_tryfetch
 334              		.syntax unified
 335              		.thumb
 336              		.thumb_func
 338              	sys_arch_mbox_tryfetch:
 339              	.LVL32:
 340              	.LFB180:
 207:../../Middlewares/Third_Party/LwIP/system/OS/sys_arch.c **** 
 208:../../Middlewares/Third_Party/LwIP/system/OS/sys_arch.c **** /*-----------------------------------------------------------------------------------*/
 209:../../Middlewares/Third_Party/LwIP/system/OS/sys_arch.c **** /*
 210:../../Middlewares/Third_Party/LwIP/system/OS/sys_arch.c ****   Similar to sys_arch_mbox_fetch, but if message is not ready immediately, we'll
 211:../../Middlewares/Third_Party/LwIP/system/OS/sys_arch.c ****   return with SYS_MBOX_EMPTY.  On success, 0 is returned.
 212:../../Middlewares/Third_Party/LwIP/system/OS/sys_arch.c **** */
 213:../../Middlewares/Third_Party/LwIP/system/OS/sys_arch.c **** u32_t sys_arch_mbox_tryfetch(sys_mbox_t *mbox, void **msg)
 214:../../Middlewares/Third_Party/LwIP/system/OS/sys_arch.c **** {
 341              		.loc 1 214 1 is_stmt 1 view -0
 342              		.cfi_startproc
 343              		@ args = 0, pretend = 0, frame = 0
 344              		@ frame_needed = 0, uses_anonymous_args = 0
 345              		.loc 1 214 1 is_stmt 0 view .LVU70
 346 0000 08B5     		push	{r3, lr}
 347              	.LCFI11:
 348              		.cfi_def_cfa_offset 8
 349              		.cfi_offset 3, -8
 350              		.cfi_offset 14, -4
 215:../../Middlewares/Third_Party/LwIP/system/OS/sys_arch.c **** #if (osCMSIS < 0x20000U)
 216:../../Middlewares/Third_Party/LwIP/system/OS/sys_arch.c ****   osEvent event;
 217:../../Middlewares/Third_Party/LwIP/system/OS/sys_arch.c **** 
 218:../../Middlewares/Third_Party/LwIP/system/OS/sys_arch.c ****   event = osMessageGet (*mbox, 0);
 219:../../Middlewares/Third_Party/LwIP/system/OS/sys_arch.c **** 
 220:../../Middlewares/Third_Party/LwIP/system/OS/sys_arch.c ****   if(event.status == osEventMessage)
 221:../../Middlewares/Third_Party/LwIP/system/OS/sys_arch.c ****   {
ARM GAS  C:\Users\minis\AppData\Local\Temp\ccyglIGZ.s 			page 11


 222:../../Middlewares/Third_Party/LwIP/system/OS/sys_arch.c ****     *msg = (void *)event.value.v;
 223:../../Middlewares/Third_Party/LwIP/system/OS/sys_arch.c **** #else
 224:../../Middlewares/Third_Party/LwIP/system/OS/sys_arch.c ****   if (osMessageQueueGet(*mbox, msg, 0, 0) == osOK)
 351              		.loc 1 224 3 is_stmt 1 view .LVU71
 352              		.loc 1 224 7 is_stmt 0 view .LVU72
 353 0002 0023     		movs	r3, #0
 354 0004 1A46     		mov	r2, r3
 355 0006 0068     		ldr	r0, [r0]
 356              	.LVL33:
 357              		.loc 1 224 7 view .LVU73
 358 0008 FFF7FEFF 		bl	osMessageQueueGet
 359              	.LVL34:
 360              		.loc 1 224 6 discriminator 1 view .LVU74
 361 000c 00B9     		cbnz	r0, .L27
 362              	.L23:
 225:../../Middlewares/Third_Party/LwIP/system/OS/sys_arch.c ****   {
 226:../../Middlewares/Third_Party/LwIP/system/OS/sys_arch.c **** #endif
 227:../../Middlewares/Third_Party/LwIP/system/OS/sys_arch.c ****     return ERR_OK;
 228:../../Middlewares/Third_Party/LwIP/system/OS/sys_arch.c ****   }
 229:../../Middlewares/Third_Party/LwIP/system/OS/sys_arch.c ****   else
 230:../../Middlewares/Third_Party/LwIP/system/OS/sys_arch.c ****   {
 231:../../Middlewares/Third_Party/LwIP/system/OS/sys_arch.c ****     return SYS_MBOX_EMPTY;
 232:../../Middlewares/Third_Party/LwIP/system/OS/sys_arch.c ****   }
 233:../../Middlewares/Third_Party/LwIP/system/OS/sys_arch.c **** }
 363              		.loc 1 233 1 view .LVU75
 364 000e 08BD     		pop	{r3, pc}
 365              	.L27:
 231:../../Middlewares/Third_Party/LwIP/system/OS/sys_arch.c ****   }
 366              		.loc 1 231 12 view .LVU76
 367 0010 4FF0FF30 		mov	r0, #-1
 368 0014 FBE7     		b	.L23
 369              		.cfi_endproc
 370              	.LFE180:
 372              		.section	.text.sys_mbox_valid,"ax",%progbits
 373              		.align	1
 374              		.global	sys_mbox_valid
 375              		.syntax unified
 376              		.thumb
 377              		.thumb_func
 379              	sys_mbox_valid:
 380              	.LVL35:
 381              	.LFB181:
 234:../../Middlewares/Third_Party/LwIP/system/OS/sys_arch.c **** /*----------------------------------------------------------------------------------*/
 235:../../Middlewares/Third_Party/LwIP/system/OS/sys_arch.c **** int sys_mbox_valid(sys_mbox_t *mbox)
 236:../../Middlewares/Third_Party/LwIP/system/OS/sys_arch.c **** {
 382              		.loc 1 236 1 is_stmt 1 view -0
 383              		.cfi_startproc
 384              		@ args = 0, pretend = 0, frame = 0
 385              		@ frame_needed = 0, uses_anonymous_args = 0
 386              		@ link register save eliminated.
 237:../../Middlewares/Third_Party/LwIP/system/OS/sys_arch.c ****   if (*mbox == SYS_MBOX_NULL)
 387              		.loc 1 237 3 view .LVU78
 388              		.loc 1 237 7 is_stmt 0 view .LVU79
 389 0000 0368     		ldr	r3, [r0]
 390              		.loc 1 237 6 view .LVU80
 391 0002 0BB1     		cbz	r3, .L31
 238:../../Middlewares/Third_Party/LwIP/system/OS/sys_arch.c ****     return 0;
ARM GAS  C:\Users\minis\AppData\Local\Temp\ccyglIGZ.s 			page 12


 239:../../Middlewares/Third_Party/LwIP/system/OS/sys_arch.c ****   else
 240:../../Middlewares/Third_Party/LwIP/system/OS/sys_arch.c ****     return 1;
 392              		.loc 1 240 12 view .LVU81
 393 0004 0120     		movs	r0, #1
 394              	.LVL36:
 241:../../Middlewares/Third_Party/LwIP/system/OS/sys_arch.c **** }
 395              		.loc 1 241 1 view .LVU82
 396 0006 7047     		bx	lr
 397              	.LVL37:
 398              	.L31:
 238:../../Middlewares/Third_Party/LwIP/system/OS/sys_arch.c ****     return 0;
 399              		.loc 1 238 12 view .LVU83
 400 0008 0020     		movs	r0, #0
 401              	.LVL38:
 238:../../Middlewares/Third_Party/LwIP/system/OS/sys_arch.c ****     return 0;
 402              		.loc 1 238 12 view .LVU84
 403 000a 7047     		bx	lr
 404              		.cfi_endproc
 405              	.LFE181:
 407              		.section	.text.sys_mbox_set_invalid,"ax",%progbits
 408              		.align	1
 409              		.global	sys_mbox_set_invalid
 410              		.syntax unified
 411              		.thumb
 412              		.thumb_func
 414              	sys_mbox_set_invalid:
 415              	.LVL39:
 416              	.LFB182:
 242:../../Middlewares/Third_Party/LwIP/system/OS/sys_arch.c **** /*-----------------------------------------------------------------------------------*/
 243:../../Middlewares/Third_Party/LwIP/system/OS/sys_arch.c **** void sys_mbox_set_invalid(sys_mbox_t *mbox)
 244:../../Middlewares/Third_Party/LwIP/system/OS/sys_arch.c **** {
 417              		.loc 1 244 1 is_stmt 1 view -0
 418              		.cfi_startproc
 419              		@ args = 0, pretend = 0, frame = 0
 420              		@ frame_needed = 0, uses_anonymous_args = 0
 421              		@ link register save eliminated.
 245:../../Middlewares/Third_Party/LwIP/system/OS/sys_arch.c ****   *mbox = SYS_MBOX_NULL;
 422              		.loc 1 245 3 view .LVU86
 423              		.loc 1 245 9 is_stmt 0 view .LVU87
 424 0000 0023     		movs	r3, #0
 425 0002 0360     		str	r3, [r0]
 246:../../Middlewares/Third_Party/LwIP/system/OS/sys_arch.c **** }
 426              		.loc 1 246 1 view .LVU88
 427 0004 7047     		bx	lr
 428              		.cfi_endproc
 429              	.LFE182:
 431              		.section	.text.sys_sem_new,"ax",%progbits
 432              		.align	1
 433              		.global	sys_sem_new
 434              		.syntax unified
 435              		.thumb
 436              		.thumb_func
 438              	sys_sem_new:
 439              	.LVL40:
 440              	.LFB183:
 247:../../Middlewares/Third_Party/LwIP/system/OS/sys_arch.c **** 
 248:../../Middlewares/Third_Party/LwIP/system/OS/sys_arch.c **** /*-----------------------------------------------------------------------------------*/
ARM GAS  C:\Users\minis\AppData\Local\Temp\ccyglIGZ.s 			page 13


 249:../../Middlewares/Third_Party/LwIP/system/OS/sys_arch.c **** //  Creates a new semaphore. The "count" argument specifies
 250:../../Middlewares/Third_Party/LwIP/system/OS/sys_arch.c **** //  the initial state of the semaphore.
 251:../../Middlewares/Third_Party/LwIP/system/OS/sys_arch.c **** err_t sys_sem_new(sys_sem_t *sem, u8_t count)
 252:../../Middlewares/Third_Party/LwIP/system/OS/sys_arch.c **** {
 441              		.loc 1 252 1 is_stmt 1 view -0
 442              		.cfi_startproc
 443              		@ args = 0, pretend = 0, frame = 0
 444              		@ frame_needed = 0, uses_anonymous_args = 0
 445              		.loc 1 252 1 is_stmt 0 view .LVU90
 446 0000 38B5     		push	{r3, r4, r5, lr}
 447              	.LCFI12:
 448              		.cfi_def_cfa_offset 16
 449              		.cfi_offset 3, -16
 450              		.cfi_offset 4, -12
 451              		.cfi_offset 5, -8
 452              		.cfi_offset 14, -4
 453 0002 0446     		mov	r4, r0
 454 0004 0D46     		mov	r5, r1
 253:../../Middlewares/Third_Party/LwIP/system/OS/sys_arch.c **** #if (osCMSIS < 0x20000U)
 254:../../Middlewares/Third_Party/LwIP/system/OS/sys_arch.c ****   osSemaphoreDef(SEM);
 255:../../Middlewares/Third_Party/LwIP/system/OS/sys_arch.c ****   *sem = osSemaphoreCreate (osSemaphore(SEM), 1);
 256:../../Middlewares/Third_Party/LwIP/system/OS/sys_arch.c **** #else
 257:../../Middlewares/Third_Party/LwIP/system/OS/sys_arch.c ****   *sem = osSemaphoreNew(UINT16_MAX, count, NULL);
 455              		.loc 1 257 3 is_stmt 1 view .LVU91
 456              		.loc 1 257 10 is_stmt 0 view .LVU92
 457 0006 0022     		movs	r2, #0
 458 0008 4FF6FF70 		movw	r0, #65535
 459              	.LVL41:
 460              		.loc 1 257 10 view .LVU93
 461 000c FFF7FEFF 		bl	osSemaphoreNew
 462              	.LVL42:
 463              		.loc 1 257 8 discriminator 1 view .LVU94
 464 0010 2060     		str	r0, [r4]
 258:../../Middlewares/Third_Party/LwIP/system/OS/sys_arch.c **** #endif
 259:../../Middlewares/Third_Party/LwIP/system/OS/sys_arch.c **** 
 260:../../Middlewares/Third_Party/LwIP/system/OS/sys_arch.c ****   if(*sem == NULL)
 465              		.loc 1 260 3 is_stmt 1 view .LVU95
 466              		.loc 1 260 5 is_stmt 0 view .LVU96
 467 0012 38B1     		cbz	r0, .L35
 261:../../Middlewares/Third_Party/LwIP/system/OS/sys_arch.c ****   {
 262:../../Middlewares/Third_Party/LwIP/system/OS/sys_arch.c **** #if SYS_STATS
 263:../../Middlewares/Third_Party/LwIP/system/OS/sys_arch.c ****     ++lwip_stats.sys.sem.err;
 264:../../Middlewares/Third_Party/LwIP/system/OS/sys_arch.c **** #endif /* SYS_STATS */
 265:../../Middlewares/Third_Party/LwIP/system/OS/sys_arch.c ****     return ERR_MEM;
 266:../../Middlewares/Third_Party/LwIP/system/OS/sys_arch.c ****   }
 267:../../Middlewares/Third_Party/LwIP/system/OS/sys_arch.c **** 
 268:../../Middlewares/Third_Party/LwIP/system/OS/sys_arch.c ****   if(count == 0)	// Means it can't be taken
 468              		.loc 1 268 3 is_stmt 1 view .LVU97
 469              		.loc 1 268 5 is_stmt 0 view .LVU98
 470 0014 0DB1     		cbz	r5, .L38
 269:../../Middlewares/Third_Party/LwIP/system/OS/sys_arch.c ****   {
 270:../../Middlewares/Third_Party/LwIP/system/OS/sys_arch.c **** #if (osCMSIS < 0x20000U)
 271:../../Middlewares/Third_Party/LwIP/system/OS/sys_arch.c ****     osSemaphoreWait(*sem, 0);
 272:../../Middlewares/Third_Party/LwIP/system/OS/sys_arch.c **** #else
 273:../../Middlewares/Third_Party/LwIP/system/OS/sys_arch.c ****     osSemaphoreAcquire(*sem, 0);
 274:../../Middlewares/Third_Party/LwIP/system/OS/sys_arch.c **** #endif
 275:../../Middlewares/Third_Party/LwIP/system/OS/sys_arch.c ****   }
ARM GAS  C:\Users\minis\AppData\Local\Temp\ccyglIGZ.s 			page 14


 276:../../Middlewares/Third_Party/LwIP/system/OS/sys_arch.c **** 
 277:../../Middlewares/Third_Party/LwIP/system/OS/sys_arch.c **** #if SYS_STATS
 278:../../Middlewares/Third_Party/LwIP/system/OS/sys_arch.c ****   ++lwip_stats.sys.sem.used;
 279:../../Middlewares/Third_Party/LwIP/system/OS/sys_arch.c ****   if (lwip_stats.sys.sem.max < lwip_stats.sys.sem.used) {
 280:../../Middlewares/Third_Party/LwIP/system/OS/sys_arch.c ****     lwip_stats.sys.sem.max = lwip_stats.sys.sem.used;
 281:../../Middlewares/Third_Party/LwIP/system/OS/sys_arch.c ****   }
 282:../../Middlewares/Third_Party/LwIP/system/OS/sys_arch.c **** #endif /* SYS_STATS */
 283:../../Middlewares/Third_Party/LwIP/system/OS/sys_arch.c **** 
 284:../../Middlewares/Third_Party/LwIP/system/OS/sys_arch.c ****   return ERR_OK;
 471              		.loc 1 284 10 view .LVU99
 472 0016 0020     		movs	r0, #0
 473              	.L34:
 285:../../Middlewares/Third_Party/LwIP/system/OS/sys_arch.c **** }
 474              		.loc 1 285 1 view .LVU100
 475 0018 38BD     		pop	{r3, r4, r5, pc}
 476              	.LVL43:
 477              	.L38:
 273:../../Middlewares/Third_Party/LwIP/system/OS/sys_arch.c **** #endif
 478              		.loc 1 273 5 is_stmt 1 view .LVU101
 479 001a 0021     		movs	r1, #0
 480 001c FFF7FEFF 		bl	osSemaphoreAcquire
 481              	.LVL44:
 284:../../Middlewares/Third_Party/LwIP/system/OS/sys_arch.c **** }
 482              		.loc 1 284 10 is_stmt 0 view .LVU102
 483 0020 0020     		movs	r0, #0
 484 0022 F9E7     		b	.L34
 485              	.L35:
 265:../../Middlewares/Third_Party/LwIP/system/OS/sys_arch.c ****   }
 486              		.loc 1 265 12 view .LVU103
 487 0024 4FF0FF30 		mov	r0, #-1
 488 0028 F6E7     		b	.L34
 489              		.cfi_endproc
 490              	.LFE183:
 492              		.section	.text.sys_arch_sem_wait,"ax",%progbits
 493              		.align	1
 494              		.global	sys_arch_sem_wait
 495              		.syntax unified
 496              		.thumb
 497              		.thumb_func
 499              	sys_arch_sem_wait:
 500              	.LVL45:
 501              	.LFB184:
 286:../../Middlewares/Third_Party/LwIP/system/OS/sys_arch.c **** 
 287:../../Middlewares/Third_Party/LwIP/system/OS/sys_arch.c **** /*-----------------------------------------------------------------------------------*/
 288:../../Middlewares/Third_Party/LwIP/system/OS/sys_arch.c **** /*
 289:../../Middlewares/Third_Party/LwIP/system/OS/sys_arch.c ****   Blocks the thread while waiting for the semaphore to be
 290:../../Middlewares/Third_Party/LwIP/system/OS/sys_arch.c ****   signaled. If the "timeout" argument is non-zero, the thread should
 291:../../Middlewares/Third_Party/LwIP/system/OS/sys_arch.c ****   only be blocked for the specified time (measured in
 292:../../Middlewares/Third_Party/LwIP/system/OS/sys_arch.c ****   milliseconds).
 293:../../Middlewares/Third_Party/LwIP/system/OS/sys_arch.c **** 
 294:../../Middlewares/Third_Party/LwIP/system/OS/sys_arch.c ****   If the timeout argument is non-zero, the return value is the number of
 295:../../Middlewares/Third_Party/LwIP/system/OS/sys_arch.c ****   milliseconds spent waiting for the semaphore to be signaled. If the
 296:../../Middlewares/Third_Party/LwIP/system/OS/sys_arch.c ****   semaphore wasn't signaled within the specified time, the return value is
 297:../../Middlewares/Third_Party/LwIP/system/OS/sys_arch.c ****   SYS_ARCH_TIMEOUT. If the thread didn't have to wait for the semaphore
 298:../../Middlewares/Third_Party/LwIP/system/OS/sys_arch.c ****   (i.e., it was already signaled), the function may return zero.
 299:../../Middlewares/Third_Party/LwIP/system/OS/sys_arch.c **** 
 300:../../Middlewares/Third_Party/LwIP/system/OS/sys_arch.c ****   Notice that lwIP implements a function with a similar name,
ARM GAS  C:\Users\minis\AppData\Local\Temp\ccyglIGZ.s 			page 15


 301:../../Middlewares/Third_Party/LwIP/system/OS/sys_arch.c ****   sys_sem_wait(), that uses the sys_arch_sem_wait() function.
 302:../../Middlewares/Third_Party/LwIP/system/OS/sys_arch.c **** */
 303:../../Middlewares/Third_Party/LwIP/system/OS/sys_arch.c **** u32_t sys_arch_sem_wait(sys_sem_t *sem, u32_t timeout)
 304:../../Middlewares/Third_Party/LwIP/system/OS/sys_arch.c **** {
 502              		.loc 1 304 1 is_stmt 1 view -0
 503              		.cfi_startproc
 504              		@ args = 0, pretend = 0, frame = 0
 505              		@ frame_needed = 0, uses_anonymous_args = 0
 506              		.loc 1 304 1 is_stmt 0 view .LVU105
 507 0000 70B5     		push	{r4, r5, r6, lr}
 508              	.LCFI13:
 509              		.cfi_def_cfa_offset 16
 510              		.cfi_offset 4, -16
 511              		.cfi_offset 5, -12
 512              		.cfi_offset 6, -8
 513              		.cfi_offset 14, -4
 514 0002 0446     		mov	r4, r0
 515 0004 0E46     		mov	r6, r1
 305:../../Middlewares/Third_Party/LwIP/system/OS/sys_arch.c **** #if (osCMSIS < 0x20000U)
 306:../../Middlewares/Third_Party/LwIP/system/OS/sys_arch.c ****   uint32_t starttime = osKernelSysTick();
 307:../../Middlewares/Third_Party/LwIP/system/OS/sys_arch.c **** #else
 308:../../Middlewares/Third_Party/LwIP/system/OS/sys_arch.c ****   uint32_t starttime = osKernelGetTickCount();
 516              		.loc 1 308 3 is_stmt 1 view .LVU106
 517              		.loc 1 308 24 is_stmt 0 view .LVU107
 518 0006 FFF7FEFF 		bl	osKernelGetTickCount
 519              	.LVL46:
 520              		.loc 1 308 24 view .LVU108
 521 000a 0546     		mov	r5, r0
 522              	.LVL47:
 309:../../Middlewares/Third_Party/LwIP/system/OS/sys_arch.c **** #endif
 310:../../Middlewares/Third_Party/LwIP/system/OS/sys_arch.c ****   if(timeout != 0)
 523              		.loc 1 310 3 is_stmt 1 view .LVU109
 524              		.loc 1 310 5 is_stmt 0 view .LVU110
 525 000c 56B9     		cbnz	r6, .L44
 526              	.LVL48:
 527              	.L40:
 311:../../Middlewares/Third_Party/LwIP/system/OS/sys_arch.c ****   {
 312:../../Middlewares/Third_Party/LwIP/system/OS/sys_arch.c **** #if (osCMSIS < 0x20000U)
 313:../../Middlewares/Third_Party/LwIP/system/OS/sys_arch.c ****     if(osSemaphoreWait (*sem, timeout) == osOK)
 314:../../Middlewares/Third_Party/LwIP/system/OS/sys_arch.c ****     {
 315:../../Middlewares/Third_Party/LwIP/system/OS/sys_arch.c ****       return (osKernelSysTick() - starttime);
 316:../../Middlewares/Third_Party/LwIP/system/OS/sys_arch.c **** #else
 317:../../Middlewares/Third_Party/LwIP/system/OS/sys_arch.c ****     if(osSemaphoreAcquire(*sem, timeout) == osOK)
 318:../../Middlewares/Third_Party/LwIP/system/OS/sys_arch.c ****     {
 319:../../Middlewares/Third_Party/LwIP/system/OS/sys_arch.c ****         return (osKernelGetTickCount() - starttime);
 320:../../Middlewares/Third_Party/LwIP/system/OS/sys_arch.c **** #endif
 321:../../Middlewares/Third_Party/LwIP/system/OS/sys_arch.c ****     }
 322:../../Middlewares/Third_Party/LwIP/system/OS/sys_arch.c ****     else
 323:../../Middlewares/Third_Party/LwIP/system/OS/sys_arch.c ****     {
 324:../../Middlewares/Third_Party/LwIP/system/OS/sys_arch.c ****       return SYS_ARCH_TIMEOUT;
 325:../../Middlewares/Third_Party/LwIP/system/OS/sys_arch.c ****     }
 326:../../Middlewares/Third_Party/LwIP/system/OS/sys_arch.c ****   }
 327:../../Middlewares/Third_Party/LwIP/system/OS/sys_arch.c ****   else
 328:../../Middlewares/Third_Party/LwIP/system/OS/sys_arch.c ****   {
 329:../../Middlewares/Third_Party/LwIP/system/OS/sys_arch.c **** #if (osCMSIS < 0x20000U)
 330:../../Middlewares/Third_Party/LwIP/system/OS/sys_arch.c ****     while(osSemaphoreWait (*sem, osWaitForever) != osOK);
 331:../../Middlewares/Third_Party/LwIP/system/OS/sys_arch.c ****     return (osKernelSysTick() - starttime);
ARM GAS  C:\Users\minis\AppData\Local\Temp\ccyglIGZ.s 			page 16


 332:../../Middlewares/Third_Party/LwIP/system/OS/sys_arch.c **** #else
 333:../../Middlewares/Third_Party/LwIP/system/OS/sys_arch.c ****     while(osSemaphoreAcquire(*sem, osWaitForever) != osOK);
 528              		.loc 1 333 51 is_stmt 1 discriminator 1 view .LVU111
 529              		.loc 1 333 11 is_stmt 0 discriminator 1 view .LVU112
 530 000e 4FF0FF31 		mov	r1, #-1
 531 0012 2068     		ldr	r0, [r4]
 532 0014 FFF7FEFF 		bl	osSemaphoreAcquire
 533              	.LVL49:
 534              		.loc 1 333 51 discriminator 1 view .LVU113
 535 0018 0028     		cmp	r0, #0
 536 001a F8D1     		bne	.L40
 334:../../Middlewares/Third_Party/LwIP/system/OS/sys_arch.c ****     return (osKernelGetTickCount() - starttime);
 537              		.loc 1 334 5 is_stmt 1 view .LVU114
 538              		.loc 1 334 13 is_stmt 0 view .LVU115
 539 001c FFF7FEFF 		bl	osKernelGetTickCount
 540              	.LVL50:
 541              		.loc 1 334 36 discriminator 1 view .LVU116
 542 0020 401B     		subs	r0, r0, r5
 543              	.L39:
 335:../../Middlewares/Third_Party/LwIP/system/OS/sys_arch.c **** #endif
 336:../../Middlewares/Third_Party/LwIP/system/OS/sys_arch.c ****   }
 337:../../Middlewares/Third_Party/LwIP/system/OS/sys_arch.c **** }
 544              		.loc 1 337 1 view .LVU117
 545 0022 70BD     		pop	{r4, r5, r6, pc}
 546              	.LVL51:
 547              	.L44:
 317:../../Middlewares/Third_Party/LwIP/system/OS/sys_arch.c ****     {
 548              		.loc 1 317 5 is_stmt 1 view .LVU118
 317:../../Middlewares/Third_Party/LwIP/system/OS/sys_arch.c ****     {
 549              		.loc 1 317 8 is_stmt 0 view .LVU119
 550 0024 3146     		mov	r1, r6
 551 0026 2068     		ldr	r0, [r4]
 552              	.LVL52:
 317:../../Middlewares/Third_Party/LwIP/system/OS/sys_arch.c ****     {
 553              		.loc 1 317 8 view .LVU120
 554 0028 FFF7FEFF 		bl	osSemaphoreAcquire
 555              	.LVL53:
 317:../../Middlewares/Third_Party/LwIP/system/OS/sys_arch.c ****     {
 556              		.loc 1 317 7 discriminator 1 view .LVU121
 557 002c 10B1     		cbz	r0, .L45
 324:../../Middlewares/Third_Party/LwIP/system/OS/sys_arch.c ****     }
 558              		.loc 1 324 14 view .LVU122
 559 002e 4FF0FF30 		mov	r0, #-1
 560 0032 F6E7     		b	.L39
 561              	.L45:
 319:../../Middlewares/Third_Party/LwIP/system/OS/sys_arch.c **** #endif
 562              		.loc 1 319 9 is_stmt 1 view .LVU123
 319:../../Middlewares/Third_Party/LwIP/system/OS/sys_arch.c **** #endif
 563              		.loc 1 319 17 is_stmt 0 view .LVU124
 564 0034 FFF7FEFF 		bl	osKernelGetTickCount
 565              	.LVL54:
 319:../../Middlewares/Third_Party/LwIP/system/OS/sys_arch.c **** #endif
 566              		.loc 1 319 40 discriminator 1 view .LVU125
 567 0038 401B     		subs	r0, r0, r5
 319:../../Middlewares/Third_Party/LwIP/system/OS/sys_arch.c **** #endif
 568              		.loc 1 319 40 view .LVU126
 569 003a F2E7     		b	.L39
ARM GAS  C:\Users\minis\AppData\Local\Temp\ccyglIGZ.s 			page 17


 570              		.cfi_endproc
 571              	.LFE184:
 573              		.section	.text.sys_sem_signal,"ax",%progbits
 574              		.align	1
 575              		.global	sys_sem_signal
 576              		.syntax unified
 577              		.thumb
 578              		.thumb_func
 580              	sys_sem_signal:
 581              	.LVL55:
 582              	.LFB185:
 338:../../Middlewares/Third_Party/LwIP/system/OS/sys_arch.c **** 
 339:../../Middlewares/Third_Party/LwIP/system/OS/sys_arch.c **** /*-----------------------------------------------------------------------------------*/
 340:../../Middlewares/Third_Party/LwIP/system/OS/sys_arch.c **** // Signals a semaphore
 341:../../Middlewares/Third_Party/LwIP/system/OS/sys_arch.c **** void sys_sem_signal(sys_sem_t *sem)
 342:../../Middlewares/Third_Party/LwIP/system/OS/sys_arch.c **** {
 583              		.loc 1 342 1 is_stmt 1 view -0
 584              		.cfi_startproc
 585              		@ args = 0, pretend = 0, frame = 0
 586              		@ frame_needed = 0, uses_anonymous_args = 0
 587              		.loc 1 342 1 is_stmt 0 view .LVU128
 588 0000 08B5     		push	{r3, lr}
 589              	.LCFI14:
 590              		.cfi_def_cfa_offset 8
 591              		.cfi_offset 3, -8
 592              		.cfi_offset 14, -4
 343:../../Middlewares/Third_Party/LwIP/system/OS/sys_arch.c ****   osSemaphoreRelease(*sem);
 593              		.loc 1 343 3 is_stmt 1 view .LVU129
 594 0002 0068     		ldr	r0, [r0]
 595              	.LVL56:
 596              		.loc 1 343 3 is_stmt 0 view .LVU130
 597 0004 FFF7FEFF 		bl	osSemaphoreRelease
 598              	.LVL57:
 344:../../Middlewares/Third_Party/LwIP/system/OS/sys_arch.c **** }
 599              		.loc 1 344 1 view .LVU131
 600 0008 08BD     		pop	{r3, pc}
 601              		.cfi_endproc
 602              	.LFE185:
 604              		.section	.text.sys_sem_free,"ax",%progbits
 605              		.align	1
 606              		.global	sys_sem_free
 607              		.syntax unified
 608              		.thumb
 609              		.thumb_func
 611              	sys_sem_free:
 612              	.LVL58:
 613              	.LFB186:
 345:../../Middlewares/Third_Party/LwIP/system/OS/sys_arch.c **** 
 346:../../Middlewares/Third_Party/LwIP/system/OS/sys_arch.c **** /*-----------------------------------------------------------------------------------*/
 347:../../Middlewares/Third_Party/LwIP/system/OS/sys_arch.c **** // Deallocates a semaphore
 348:../../Middlewares/Third_Party/LwIP/system/OS/sys_arch.c **** void sys_sem_free(sys_sem_t *sem)
 349:../../Middlewares/Third_Party/LwIP/system/OS/sys_arch.c **** {
 614              		.loc 1 349 1 is_stmt 1 view -0
 615              		.cfi_startproc
 616              		@ args = 0, pretend = 0, frame = 0
 617              		@ frame_needed = 0, uses_anonymous_args = 0
 618              		.loc 1 349 1 is_stmt 0 view .LVU133
ARM GAS  C:\Users\minis\AppData\Local\Temp\ccyglIGZ.s 			page 18


 619 0000 08B5     		push	{r3, lr}
 620              	.LCFI15:
 621              		.cfi_def_cfa_offset 8
 622              		.cfi_offset 3, -8
 623              		.cfi_offset 14, -4
 350:../../Middlewares/Third_Party/LwIP/system/OS/sys_arch.c **** #if SYS_STATS
 351:../../Middlewares/Third_Party/LwIP/system/OS/sys_arch.c ****   --lwip_stats.sys.sem.used;
 352:../../Middlewares/Third_Party/LwIP/system/OS/sys_arch.c **** #endif /* SYS_STATS */
 353:../../Middlewares/Third_Party/LwIP/system/OS/sys_arch.c **** 
 354:../../Middlewares/Third_Party/LwIP/system/OS/sys_arch.c ****   osSemaphoreDelete(*sem);
 624              		.loc 1 354 3 is_stmt 1 view .LVU134
 625 0002 0068     		ldr	r0, [r0]
 626              	.LVL59:
 627              		.loc 1 354 3 is_stmt 0 view .LVU135
 628 0004 FFF7FEFF 		bl	osSemaphoreDelete
 629              	.LVL60:
 355:../../Middlewares/Third_Party/LwIP/system/OS/sys_arch.c **** }
 630              		.loc 1 355 1 view .LVU136
 631 0008 08BD     		pop	{r3, pc}
 632              		.cfi_endproc
 633              	.LFE186:
 635              		.section	.text.sys_sem_valid,"ax",%progbits
 636              		.align	1
 637              		.global	sys_sem_valid
 638              		.syntax unified
 639              		.thumb
 640              		.thumb_func
 642              	sys_sem_valid:
 643              	.LVL61:
 644              	.LFB187:
 356:../../Middlewares/Third_Party/LwIP/system/OS/sys_arch.c **** /*-----------------------------------------------------------------------------------*/
 357:../../Middlewares/Third_Party/LwIP/system/OS/sys_arch.c **** int sys_sem_valid(sys_sem_t *sem)
 358:../../Middlewares/Third_Party/LwIP/system/OS/sys_arch.c **** {
 645              		.loc 1 358 1 is_stmt 1 view -0
 646              		.cfi_startproc
 647              		@ args = 0, pretend = 0, frame = 0
 648              		@ frame_needed = 0, uses_anonymous_args = 0
 649              		@ link register save eliminated.
 359:../../Middlewares/Third_Party/LwIP/system/OS/sys_arch.c ****   if (*sem == SYS_SEM_NULL)
 650              		.loc 1 359 3 view .LVU138
 651              		.loc 1 359 7 is_stmt 0 view .LVU139
 652 0000 0368     		ldr	r3, [r0]
 653              		.loc 1 359 6 view .LVU140
 654 0002 0BB1     		cbz	r3, .L53
 360:../../Middlewares/Third_Party/LwIP/system/OS/sys_arch.c ****     return 0;
 361:../../Middlewares/Third_Party/LwIP/system/OS/sys_arch.c ****   else
 362:../../Middlewares/Third_Party/LwIP/system/OS/sys_arch.c ****     return 1;
 655              		.loc 1 362 12 view .LVU141
 656 0004 0120     		movs	r0, #1
 657              	.LVL62:
 363:../../Middlewares/Third_Party/LwIP/system/OS/sys_arch.c **** }
 658              		.loc 1 363 1 view .LVU142
 659 0006 7047     		bx	lr
 660              	.LVL63:
 661              	.L53:
 360:../../Middlewares/Third_Party/LwIP/system/OS/sys_arch.c ****     return 0;
 662              		.loc 1 360 12 view .LVU143
ARM GAS  C:\Users\minis\AppData\Local\Temp\ccyglIGZ.s 			page 19


 663 0008 0020     		movs	r0, #0
 664              	.LVL64:
 360:../../Middlewares/Third_Party/LwIP/system/OS/sys_arch.c ****     return 0;
 665              		.loc 1 360 12 view .LVU144
 666 000a 7047     		bx	lr
 667              		.cfi_endproc
 668              	.LFE187:
 670              		.section	.text.sys_sem_set_invalid,"ax",%progbits
 671              		.align	1
 672              		.global	sys_sem_set_invalid
 673              		.syntax unified
 674              		.thumb
 675              		.thumb_func
 677              	sys_sem_set_invalid:
 678              	.LVL65:
 679              	.LFB188:
 364:../../Middlewares/Third_Party/LwIP/system/OS/sys_arch.c **** 
 365:../../Middlewares/Third_Party/LwIP/system/OS/sys_arch.c **** /*-----------------------------------------------------------------------------------*/
 366:../../Middlewares/Third_Party/LwIP/system/OS/sys_arch.c **** void sys_sem_set_invalid(sys_sem_t *sem)
 367:../../Middlewares/Third_Party/LwIP/system/OS/sys_arch.c **** {
 680              		.loc 1 367 1 is_stmt 1 view -0
 681              		.cfi_startproc
 682              		@ args = 0, pretend = 0, frame = 0
 683              		@ frame_needed = 0, uses_anonymous_args = 0
 684              		@ link register save eliminated.
 368:../../Middlewares/Third_Party/LwIP/system/OS/sys_arch.c ****   *sem = SYS_SEM_NULL;
 685              		.loc 1 368 3 view .LVU146
 686              		.loc 1 368 8 is_stmt 0 view .LVU147
 687 0000 0023     		movs	r3, #0
 688 0002 0360     		str	r3, [r0]
 369:../../Middlewares/Third_Party/LwIP/system/OS/sys_arch.c **** }
 689              		.loc 1 369 1 view .LVU148
 690 0004 7047     		bx	lr
 691              		.cfi_endproc
 692              	.LFE188:
 694              		.section	.text.sys_init,"ax",%progbits
 695              		.align	1
 696              		.global	sys_init
 697              		.syntax unified
 698              		.thumb
 699              		.thumb_func
 701              	sys_init:
 702              	.LFB189:
 370:../../Middlewares/Third_Party/LwIP/system/OS/sys_arch.c **** 
 371:../../Middlewares/Third_Party/LwIP/system/OS/sys_arch.c **** /*-----------------------------------------------------------------------------------*/
 372:../../Middlewares/Third_Party/LwIP/system/OS/sys_arch.c **** #if (osCMSIS < 0x20000U)
 373:../../Middlewares/Third_Party/LwIP/system/OS/sys_arch.c **** osMutexId lwip_sys_mutex;
 374:../../Middlewares/Third_Party/LwIP/system/OS/sys_arch.c **** osMutexDef(lwip_sys_mutex);
 375:../../Middlewares/Third_Party/LwIP/system/OS/sys_arch.c **** #else
 376:../../Middlewares/Third_Party/LwIP/system/OS/sys_arch.c **** osMutexId_t lwip_sys_mutex;
 377:../../Middlewares/Third_Party/LwIP/system/OS/sys_arch.c **** #endif
 378:../../Middlewares/Third_Party/LwIP/system/OS/sys_arch.c **** // Initialize sys arch
 379:../../Middlewares/Third_Party/LwIP/system/OS/sys_arch.c **** void sys_init(void)
 380:../../Middlewares/Third_Party/LwIP/system/OS/sys_arch.c **** {
 703              		.loc 1 380 1 is_stmt 1 view -0
 704              		.cfi_startproc
 705              		@ args = 0, pretend = 0, frame = 0
ARM GAS  C:\Users\minis\AppData\Local\Temp\ccyglIGZ.s 			page 20


 706              		@ frame_needed = 0, uses_anonymous_args = 0
 707 0000 08B5     		push	{r3, lr}
 708              	.LCFI16:
 709              		.cfi_def_cfa_offset 8
 710              		.cfi_offset 3, -8
 711              		.cfi_offset 14, -4
 381:../../Middlewares/Third_Party/LwIP/system/OS/sys_arch.c **** #if (osCMSIS < 0x20000U)
 382:../../Middlewares/Third_Party/LwIP/system/OS/sys_arch.c ****   lwip_sys_mutex = osMutexCreate(osMutex(lwip_sys_mutex));
 383:../../Middlewares/Third_Party/LwIP/system/OS/sys_arch.c **** #else
 384:../../Middlewares/Third_Party/LwIP/system/OS/sys_arch.c ****   lwip_sys_mutex = osMutexNew(NULL);
 712              		.loc 1 384 3 view .LVU150
 713              		.loc 1 384 20 is_stmt 0 view .LVU151
 714 0002 0020     		movs	r0, #0
 715 0004 FFF7FEFF 		bl	osMutexNew
 716              	.LVL66:
 717              		.loc 1 384 18 discriminator 1 view .LVU152
 718 0008 014B     		ldr	r3, .L57
 719 000a 1860     		str	r0, [r3]
 385:../../Middlewares/Third_Party/LwIP/system/OS/sys_arch.c **** #endif
 386:../../Middlewares/Third_Party/LwIP/system/OS/sys_arch.c **** }
 720              		.loc 1 386 1 view .LVU153
 721 000c 08BD     		pop	{r3, pc}
 722              	.L58:
 723 000e 00BF     		.align	2
 724              	.L57:
 725 0010 00000000 		.word	lwip_sys_mutex
 726              		.cfi_endproc
 727              	.LFE189:
 729              		.section	.text.sys_mutex_new,"ax",%progbits
 730              		.align	1
 731              		.global	sys_mutex_new
 732              		.syntax unified
 733              		.thumb
 734              		.thumb_func
 736              	sys_mutex_new:
 737              	.LVL67:
 738              	.LFB190:
 387:../../Middlewares/Third_Party/LwIP/system/OS/sys_arch.c **** /*-----------------------------------------------------------------------------------*/
 388:../../Middlewares/Third_Party/LwIP/system/OS/sys_arch.c ****                                       /* Mutexes*/
 389:../../Middlewares/Third_Party/LwIP/system/OS/sys_arch.c **** /*-----------------------------------------------------------------------------------*/
 390:../../Middlewares/Third_Party/LwIP/system/OS/sys_arch.c **** /*-----------------------------------------------------------------------------------*/
 391:../../Middlewares/Third_Party/LwIP/system/OS/sys_arch.c **** #if LWIP_COMPAT_MUTEX == 0
 392:../../Middlewares/Third_Party/LwIP/system/OS/sys_arch.c **** /* Create a new mutex*/
 393:../../Middlewares/Third_Party/LwIP/system/OS/sys_arch.c **** err_t sys_mutex_new(sys_mutex_t *mutex) {
 739              		.loc 1 393 41 is_stmt 1 view -0
 740              		.cfi_startproc
 741              		@ args = 0, pretend = 0, frame = 0
 742              		@ frame_needed = 0, uses_anonymous_args = 0
 743              		.loc 1 393 41 is_stmt 0 view .LVU155
 744 0000 10B5     		push	{r4, lr}
 745              	.LCFI17:
 746              		.cfi_def_cfa_offset 8
 747              		.cfi_offset 4, -8
 748              		.cfi_offset 14, -4
 749 0002 0446     		mov	r4, r0
 394:../../Middlewares/Third_Party/LwIP/system/OS/sys_arch.c **** 
 395:../../Middlewares/Third_Party/LwIP/system/OS/sys_arch.c **** #if (osCMSIS < 0x20000U)
ARM GAS  C:\Users\minis\AppData\Local\Temp\ccyglIGZ.s 			page 21


 396:../../Middlewares/Third_Party/LwIP/system/OS/sys_arch.c ****   osMutexDef(MUTEX);
 397:../../Middlewares/Third_Party/LwIP/system/OS/sys_arch.c ****   *mutex = osMutexCreate(osMutex(MUTEX));
 398:../../Middlewares/Third_Party/LwIP/system/OS/sys_arch.c **** #else
 399:../../Middlewares/Third_Party/LwIP/system/OS/sys_arch.c ****   *mutex = osMutexNew(NULL);
 750              		.loc 1 399 3 is_stmt 1 view .LVU156
 751              		.loc 1 399 12 is_stmt 0 view .LVU157
 752 0004 0020     		movs	r0, #0
 753              	.LVL68:
 754              		.loc 1 399 12 view .LVU158
 755 0006 FFF7FEFF 		bl	osMutexNew
 756              	.LVL69:
 757              		.loc 1 399 10 discriminator 1 view .LVU159
 758 000a 2060     		str	r0, [r4]
 400:../../Middlewares/Third_Party/LwIP/system/OS/sys_arch.c **** #endif
 401:../../Middlewares/Third_Party/LwIP/system/OS/sys_arch.c **** 
 402:../../Middlewares/Third_Party/LwIP/system/OS/sys_arch.c ****   if(*mutex == NULL)
 759              		.loc 1 402 3 is_stmt 1 view .LVU160
 760              		.loc 1 402 5 is_stmt 0 view .LVU161
 761 000c 08B1     		cbz	r0, .L61
 403:../../Middlewares/Third_Party/LwIP/system/OS/sys_arch.c ****   {
 404:../../Middlewares/Third_Party/LwIP/system/OS/sys_arch.c **** #if SYS_STATS
 405:../../Middlewares/Third_Party/LwIP/system/OS/sys_arch.c ****     ++lwip_stats.sys.mutex.err;
 406:../../Middlewares/Third_Party/LwIP/system/OS/sys_arch.c **** #endif /* SYS_STATS */
 407:../../Middlewares/Third_Party/LwIP/system/OS/sys_arch.c ****     return ERR_MEM;
 408:../../Middlewares/Third_Party/LwIP/system/OS/sys_arch.c ****   }
 409:../../Middlewares/Third_Party/LwIP/system/OS/sys_arch.c **** 
 410:../../Middlewares/Third_Party/LwIP/system/OS/sys_arch.c **** #if SYS_STATS
 411:../../Middlewares/Third_Party/LwIP/system/OS/sys_arch.c ****   ++lwip_stats.sys.mutex.used;
 412:../../Middlewares/Third_Party/LwIP/system/OS/sys_arch.c ****   if (lwip_stats.sys.mutex.max < lwip_stats.sys.mutex.used) {
 413:../../Middlewares/Third_Party/LwIP/system/OS/sys_arch.c ****     lwip_stats.sys.mutex.max = lwip_stats.sys.mutex.used;
 414:../../Middlewares/Third_Party/LwIP/system/OS/sys_arch.c ****   }
 415:../../Middlewares/Third_Party/LwIP/system/OS/sys_arch.c **** #endif /* SYS_STATS */
 416:../../Middlewares/Third_Party/LwIP/system/OS/sys_arch.c ****   return ERR_OK;
 762              		.loc 1 416 10 view .LVU162
 763 000e 0020     		movs	r0, #0
 764              	.L60:
 417:../../Middlewares/Third_Party/LwIP/system/OS/sys_arch.c **** }
 765              		.loc 1 417 1 view .LVU163
 766 0010 10BD     		pop	{r4, pc}
 767              	.LVL70:
 768              	.L61:
 407:../../Middlewares/Third_Party/LwIP/system/OS/sys_arch.c ****   }
 769              		.loc 1 407 12 view .LVU164
 770 0012 4FF0FF30 		mov	r0, #-1
 771 0016 FBE7     		b	.L60
 772              		.cfi_endproc
 773              	.LFE190:
 775              		.section	.text.sys_mutex_free,"ax",%progbits
 776              		.align	1
 777              		.global	sys_mutex_free
 778              		.syntax unified
 779              		.thumb
 780              		.thumb_func
 782              	sys_mutex_free:
 783              	.LVL71:
 784              	.LFB191:
 418:../../Middlewares/Third_Party/LwIP/system/OS/sys_arch.c **** /*-----------------------------------------------------------------------------------*/
ARM GAS  C:\Users\minis\AppData\Local\Temp\ccyglIGZ.s 			page 22


 419:../../Middlewares/Third_Party/LwIP/system/OS/sys_arch.c **** /* Deallocate a mutex*/
 420:../../Middlewares/Third_Party/LwIP/system/OS/sys_arch.c **** void sys_mutex_free(sys_mutex_t *mutex)
 421:../../Middlewares/Third_Party/LwIP/system/OS/sys_arch.c **** {
 785              		.loc 1 421 1 is_stmt 1 view -0
 786              		.cfi_startproc
 787              		@ args = 0, pretend = 0, frame = 0
 788              		@ frame_needed = 0, uses_anonymous_args = 0
 789              		.loc 1 421 1 is_stmt 0 view .LVU166
 790 0000 08B5     		push	{r3, lr}
 791              	.LCFI18:
 792              		.cfi_def_cfa_offset 8
 793              		.cfi_offset 3, -8
 794              		.cfi_offset 14, -4
 422:../../Middlewares/Third_Party/LwIP/system/OS/sys_arch.c **** #if SYS_STATS
 423:../../Middlewares/Third_Party/LwIP/system/OS/sys_arch.c ****       --lwip_stats.sys.mutex.used;
 424:../../Middlewares/Third_Party/LwIP/system/OS/sys_arch.c **** #endif /* SYS_STATS */
 425:../../Middlewares/Third_Party/LwIP/system/OS/sys_arch.c **** 
 426:../../Middlewares/Third_Party/LwIP/system/OS/sys_arch.c ****   osMutexDelete(*mutex);
 795              		.loc 1 426 3 is_stmt 1 view .LVU167
 796 0002 0068     		ldr	r0, [r0]
 797              	.LVL72:
 798              		.loc 1 426 3 is_stmt 0 view .LVU168
 799 0004 FFF7FEFF 		bl	osMutexDelete
 800              	.LVL73:
 427:../../Middlewares/Third_Party/LwIP/system/OS/sys_arch.c **** }
 801              		.loc 1 427 1 view .LVU169
 802 0008 08BD     		pop	{r3, pc}
 803              		.cfi_endproc
 804              	.LFE191:
 806              		.section	.text.sys_mutex_lock,"ax",%progbits
 807              		.align	1
 808              		.global	sys_mutex_lock
 809              		.syntax unified
 810              		.thumb
 811              		.thumb_func
 813              	sys_mutex_lock:
 814              	.LVL74:
 815              	.LFB192:
 428:../../Middlewares/Third_Party/LwIP/system/OS/sys_arch.c **** /*-----------------------------------------------------------------------------------*/
 429:../../Middlewares/Third_Party/LwIP/system/OS/sys_arch.c **** /* Lock a mutex*/
 430:../../Middlewares/Third_Party/LwIP/system/OS/sys_arch.c **** void sys_mutex_lock(sys_mutex_t *mutex)
 431:../../Middlewares/Third_Party/LwIP/system/OS/sys_arch.c **** {
 816              		.loc 1 431 1 is_stmt 1 view -0
 817              		.cfi_startproc
 818              		@ args = 0, pretend = 0, frame = 0
 819              		@ frame_needed = 0, uses_anonymous_args = 0
 820              		.loc 1 431 1 is_stmt 0 view .LVU171
 821 0000 08B5     		push	{r3, lr}
 822              	.LCFI19:
 823              		.cfi_def_cfa_offset 8
 824              		.cfi_offset 3, -8
 825              		.cfi_offset 14, -4
 432:../../Middlewares/Third_Party/LwIP/system/OS/sys_arch.c **** #if (osCMSIS < 0x20000U)
 433:../../Middlewares/Third_Party/LwIP/system/OS/sys_arch.c ****   osMutexWait(*mutex, osWaitForever);
 434:../../Middlewares/Third_Party/LwIP/system/OS/sys_arch.c **** #else
 435:../../Middlewares/Third_Party/LwIP/system/OS/sys_arch.c ****   osMutexAcquire(*mutex, osWaitForever);
 826              		.loc 1 435 3 is_stmt 1 view .LVU172
ARM GAS  C:\Users\minis\AppData\Local\Temp\ccyglIGZ.s 			page 23


 827 0002 4FF0FF31 		mov	r1, #-1
 828 0006 0068     		ldr	r0, [r0]
 829              	.LVL75:
 830              		.loc 1 435 3 is_stmt 0 view .LVU173
 831 0008 FFF7FEFF 		bl	osMutexAcquire
 832              	.LVL76:
 436:../../Middlewares/Third_Party/LwIP/system/OS/sys_arch.c **** #endif
 437:../../Middlewares/Third_Party/LwIP/system/OS/sys_arch.c **** }
 833              		.loc 1 437 1 view .LVU174
 834 000c 08BD     		pop	{r3, pc}
 835              		.cfi_endproc
 836              	.LFE192:
 838              		.section	.text.sys_mutex_unlock,"ax",%progbits
 839              		.align	1
 840              		.global	sys_mutex_unlock
 841              		.syntax unified
 842              		.thumb
 843              		.thumb_func
 845              	sys_mutex_unlock:
 846              	.LVL77:
 847              	.LFB193:
 438:../../Middlewares/Third_Party/LwIP/system/OS/sys_arch.c **** 
 439:../../Middlewares/Third_Party/LwIP/system/OS/sys_arch.c **** /*-----------------------------------------------------------------------------------*/
 440:../../Middlewares/Third_Party/LwIP/system/OS/sys_arch.c **** /* Unlock a mutex*/
 441:../../Middlewares/Third_Party/LwIP/system/OS/sys_arch.c **** void sys_mutex_unlock(sys_mutex_t *mutex)
 442:../../Middlewares/Third_Party/LwIP/system/OS/sys_arch.c **** {
 848              		.loc 1 442 1 is_stmt 1 view -0
 849              		.cfi_startproc
 850              		@ args = 0, pretend = 0, frame = 0
 851              		@ frame_needed = 0, uses_anonymous_args = 0
 852              		.loc 1 442 1 is_stmt 0 view .LVU176
 853 0000 08B5     		push	{r3, lr}
 854              	.LCFI20:
 855              		.cfi_def_cfa_offset 8
 856              		.cfi_offset 3, -8
 857              		.cfi_offset 14, -4
 443:../../Middlewares/Third_Party/LwIP/system/OS/sys_arch.c ****   osMutexRelease(*mutex);
 858              		.loc 1 443 3 is_stmt 1 view .LVU177
 859 0002 0068     		ldr	r0, [r0]
 860              	.LVL78:
 861              		.loc 1 443 3 is_stmt 0 view .LVU178
 862 0004 FFF7FEFF 		bl	osMutexRelease
 863              	.LVL79:
 444:../../Middlewares/Third_Party/LwIP/system/OS/sys_arch.c **** }
 864              		.loc 1 444 1 view .LVU179
 865 0008 08BD     		pop	{r3, pc}
 866              		.cfi_endproc
 867              	.LFE193:
 869              		.section	.text.sys_thread_new,"ax",%progbits
 870              		.align	1
 871              		.global	sys_thread_new
 872              		.syntax unified
 873              		.thumb
 874              		.thumb_func
 876              	sys_thread_new:
 877              	.LVL80:
 878              	.LFB194:
ARM GAS  C:\Users\minis\AppData\Local\Temp\ccyglIGZ.s 			page 24


 445:../../Middlewares/Third_Party/LwIP/system/OS/sys_arch.c **** #endif /*LWIP_COMPAT_MUTEX*/
 446:../../Middlewares/Third_Party/LwIP/system/OS/sys_arch.c **** /*-----------------------------------------------------------------------------------*/
 447:../../Middlewares/Third_Party/LwIP/system/OS/sys_arch.c **** // TODO
 448:../../Middlewares/Third_Party/LwIP/system/OS/sys_arch.c **** /*-----------------------------------------------------------------------------------*/
 449:../../Middlewares/Third_Party/LwIP/system/OS/sys_arch.c **** /*
 450:../../Middlewares/Third_Party/LwIP/system/OS/sys_arch.c ****   Starts a new thread with priority "prio" that will begin its execution in the
 451:../../Middlewares/Third_Party/LwIP/system/OS/sys_arch.c ****   function "thread()". The "arg" argument will be passed as an argument to the
 452:../../Middlewares/Third_Party/LwIP/system/OS/sys_arch.c ****   thread() function. The id of the new thread is returned. Both the id and
 453:../../Middlewares/Third_Party/LwIP/system/OS/sys_arch.c ****   the priority are system dependent.
 454:../../Middlewares/Third_Party/LwIP/system/OS/sys_arch.c **** */
 455:../../Middlewares/Third_Party/LwIP/system/OS/sys_arch.c **** sys_thread_t sys_thread_new(const char *name, lwip_thread_fn thread , void *arg, int stacksize, int
 456:../../Middlewares/Third_Party/LwIP/system/OS/sys_arch.c **** {
 879              		.loc 1 456 1 is_stmt 1 view -0
 880              		.cfi_startproc
 881              		@ args = 4, pretend = 0, frame = 56
 882              		@ frame_needed = 0, uses_anonymous_args = 0
 883              		.loc 1 456 1 is_stmt 0 view .LVU181
 884 0000 2DE9F041 		push	{r4, r5, r6, r7, r8, lr}
 885              	.LCFI21:
 886              		.cfi_def_cfa_offset 24
 887              		.cfi_offset 4, -24
 888              		.cfi_offset 5, -20
 889              		.cfi_offset 6, -16
 890              		.cfi_offset 7, -12
 891              		.cfi_offset 8, -8
 892              		.cfi_offset 14, -4
 893 0004 8EB0     		sub	sp, sp, #56
 894              	.LCFI22:
 895              		.cfi_def_cfa_offset 80
 896 0006 8046     		mov	r8, r0
 897 0008 0D46     		mov	r5, r1
 898 000a 1646     		mov	r6, r2
 899 000c 1F46     		mov	r7, r3
 457:../../Middlewares/Third_Party/LwIP/system/OS/sys_arch.c ****   // DEBUG: 1 green blink = entering sys_thread_new
 458:../../Middlewares/Third_Party/LwIP/system/OS/sys_arch.c ****   GPIOB->BSRR = (1 << 0);
 900              		.loc 1 458 3 is_stmt 1 view .LVU182
 901              		.loc 1 458 15 is_stmt 0 view .LVU183
 902 000e 244B     		ldr	r3, .L79
 903              	.LVL81:
 904              		.loc 1 458 15 view .LVU184
 905 0010 0122     		movs	r2, #1
 906              	.LVL82:
 907              		.loc 1 458 15 view .LVU185
 908 0012 9A61     		str	r2, [r3, #24]
 909              	.LVL83:
 459:../../Middlewares/Third_Party/LwIP/system/OS/sys_arch.c ****   for(volatile int i = 0; i < 200000; i++);
 910              		.loc 1 459 3 is_stmt 1 view .LVU186
 911              	.LBB2:
 912              		.loc 1 459 7 view .LVU187
 913              		.loc 1 459 20 is_stmt 0 view .LVU188
 914 0014 0023     		movs	r3, #0
 915 0016 0193     		str	r3, [sp, #4]
 916              		.loc 1 459 3 view .LVU189
 917 0018 02E0     		b	.L70
 918              	.L71:
 919              		.loc 1 459 40 is_stmt 1 discriminator 3 view .LVU190
 920 001a 019A     		ldr	r2, [sp, #4]
ARM GAS  C:\Users\minis\AppData\Local\Temp\ccyglIGZ.s 			page 25


 921 001c 0132     		adds	r2, r2, #1
 922 001e 0192     		str	r2, [sp, #4]
 923              	.L70:
 924              		.loc 1 459 29 discriminator 1 view .LVU191
 925 0020 019A     		ldr	r2, [sp, #4]
 926 0022 204B     		ldr	r3, .L79+4
 927 0024 9A42     		cmp	r2, r3
 928 0026 F8DD     		ble	.L71
 929              	.LBE2:
 460:../../Middlewares/Third_Party/LwIP/system/OS/sys_arch.c ****   GPIOB->BSRR = (1 << 16);
 930              		.loc 1 460 3 view .LVU192
 931              		.loc 1 460 15 is_stmt 0 view .LVU193
 932 0028 1D4B     		ldr	r3, .L79
 933 002a 4FF48032 		mov	r2, #65536
 934 002e 9A61     		str	r2, [r3, #24]
 461:../../Middlewares/Third_Party/LwIP/system/OS/sys_arch.c ****   for(volatile int i = 0; i < 200000; i++);
 935              		.loc 1 461 3 is_stmt 1 view .LVU194
 936              	.LBB3:
 937              		.loc 1 461 7 view .LVU195
 938              		.loc 1 461 20 is_stmt 0 view .LVU196
 939 0030 0023     		movs	r3, #0
 940 0032 0293     		str	r3, [sp, #8]
 941              		.loc 1 461 3 view .LVU197
 942 0034 02E0     		b	.L72
 943              	.L73:
 944              		.loc 1 461 40 is_stmt 1 discriminator 3 view .LVU198
 945 0036 029C     		ldr	r4, [sp, #8]
 946 0038 0134     		adds	r4, r4, #1
 947 003a 0294     		str	r4, [sp, #8]
 948              	.L72:
 949              		.loc 1 461 29 discriminator 1 view .LVU199
 950 003c 029A     		ldr	r2, [sp, #8]
 951 003e 194B     		ldr	r3, .L79+4
 952 0040 9A42     		cmp	r2, r3
 953 0042 F8DD     		ble	.L73
 954              	.LBE3:
 462:../../Middlewares/Third_Party/LwIP/system/OS/sys_arch.c **** 
 463:../../Middlewares/Third_Party/LwIP/system/OS/sys_arch.c **** #if (osCMSIS < 0x20000U)
 464:../../Middlewares/Third_Party/LwIP/system/OS/sys_arch.c ****   const osThreadDef_t os_thread_def = { (char *)name, (os_pthread)thread, (osPriority)prio, 0, stac
 465:../../Middlewares/Third_Party/LwIP/system/OS/sys_arch.c ****   // DEBUG: 2 green blinks = before osThreadCreate
 466:../../Middlewares/Third_Party/LwIP/system/OS/sys_arch.c ****   GPIOB->BSRR = (1 << 0);
 467:../../Middlewares/Third_Party/LwIP/system/OS/sys_arch.c ****   for(volatile int i = 0; i < 200000; i++);
 468:../../Middlewares/Third_Party/LwIP/system/OS/sys_arch.c ****   GPIOB->BSRR = (1 << 16);
 469:../../Middlewares/Third_Party/LwIP/system/OS/sys_arch.c ****   for(volatile int i = 0; i < 200000; i++);
 470:../../Middlewares/Third_Party/LwIP/system/OS/sys_arch.c ****   return osThreadCreate(&os_thread_def, arg);
 471:../../Middlewares/Third_Party/LwIP/system/OS/sys_arch.c **** #else
 472:../../Middlewares/Third_Party/LwIP/system/OS/sys_arch.c ****   const osThreadAttr_t attributes = {
 955              		.loc 1 472 3 view .LVU200
 956              		.loc 1 472 24 is_stmt 0 view .LVU201
 957 0044 2422     		movs	r2, #36
 958 0046 0021     		movs	r1, #0
 959              	.LVL84:
 960              		.loc 1 472 24 view .LVU202
 961 0048 05A8     		add	r0, sp, #20
 962              	.LVL85:
 963              		.loc 1 472 24 view .LVU203
 964 004a FFF7FEFF 		bl	memset
ARM GAS  C:\Users\minis\AppData\Local\Temp\ccyglIGZ.s 			page 26


 965              	.LVL86:
 966 004e CDF81480 		str	r8, [sp, #20]
 967 0052 0A97     		str	r7, [sp, #40]
 968 0054 149B     		ldr	r3, [sp, #80]
 969 0056 0B93     		str	r3, [sp, #44]
 473:../../Middlewares/Third_Party/LwIP/system/OS/sys_arch.c ****                         .name = name,
 474:../../Middlewares/Third_Party/LwIP/system/OS/sys_arch.c ****                         .stack_size = stacksize,
 475:../../Middlewares/Third_Party/LwIP/system/OS/sys_arch.c ****                         .priority = (osPriority_t)prio,
 476:../../Middlewares/Third_Party/LwIP/system/OS/sys_arch.c ****                       };
 477:../../Middlewares/Third_Party/LwIP/system/OS/sys_arch.c ****   
 478:../../Middlewares/Third_Party/LwIP/system/OS/sys_arch.c ****   // DEBUG: 2 green blinks = before osThreadNew
 479:../../Middlewares/Third_Party/LwIP/system/OS/sys_arch.c ****   GPIOB->BSRR = (1 << 0);
 970              		.loc 1 479 3 is_stmt 1 view .LVU204
 971              		.loc 1 479 15 is_stmt 0 view .LVU205
 972 0058 114B     		ldr	r3, .L79
 973 005a 0122     		movs	r2, #1
 974 005c 9A61     		str	r2, [r3, #24]
 480:../../Middlewares/Third_Party/LwIP/system/OS/sys_arch.c ****   for(volatile int i = 0; i < 200000; i++);
 975              		.loc 1 480 3 is_stmt 1 view .LVU206
 976              	.LBB4:
 977              		.loc 1 480 7 view .LVU207
 978              		.loc 1 480 20 is_stmt 0 view .LVU208
 979 005e 0023     		movs	r3, #0
 980 0060 0393     		str	r3, [sp, #12]
 981              		.loc 1 480 3 view .LVU209
 982 0062 02E0     		b	.L74
 983              	.L75:
 984              		.loc 1 480 40 is_stmt 1 discriminator 3 view .LVU210
 985 0064 039B     		ldr	r3, [sp, #12]
 986 0066 0133     		adds	r3, r3, #1
 987 0068 0393     		str	r3, [sp, #12]
 988              	.L74:
 989              		.loc 1 480 29 discriminator 1 view .LVU211
 990 006a 039A     		ldr	r2, [sp, #12]
 991 006c 0D4B     		ldr	r3, .L79+4
 992 006e 9A42     		cmp	r2, r3
 993 0070 F8DD     		ble	.L75
 994              	.LBE4:
 481:../../Middlewares/Third_Party/LwIP/system/OS/sys_arch.c ****   GPIOB->BSRR = (1 << 16);
 995              		.loc 1 481 3 view .LVU212
 996              		.loc 1 481 15 is_stmt 0 view .LVU213
 997 0072 0B4B     		ldr	r3, .L79
 998 0074 4FF48032 		mov	r2, #65536
 999 0078 9A61     		str	r2, [r3, #24]
 482:../../Middlewares/Third_Party/LwIP/system/OS/sys_arch.c ****   for(volatile int i = 0; i < 200000; i++);
 1000              		.loc 1 482 3 is_stmt 1 view .LVU214
 1001              	.LBB5:
 1002              		.loc 1 482 7 view .LVU215
 1003              		.loc 1 482 20 is_stmt 0 view .LVU216
 1004 007a 0023     		movs	r3, #0
 1005 007c 0493     		str	r3, [sp, #16]
 1006              		.loc 1 482 3 view .LVU217
 1007 007e 02E0     		b	.L76
 1008              	.L77:
 1009              		.loc 1 482 40 is_stmt 1 discriminator 3 view .LVU218
 1010 0080 049B     		ldr	r3, [sp, #16]
 1011 0082 0133     		adds	r3, r3, #1
ARM GAS  C:\Users\minis\AppData\Local\Temp\ccyglIGZ.s 			page 27


 1012 0084 0493     		str	r3, [sp, #16]
 1013              	.L76:
 1014              		.loc 1 482 29 discriminator 1 view .LVU219
 1015 0086 049A     		ldr	r2, [sp, #16]
 1016 0088 064B     		ldr	r3, .L79+4
 1017 008a 9A42     		cmp	r2, r3
 1018 008c F8DD     		ble	.L77
 1019              	.LBE5:
 483:../../Middlewares/Third_Party/LwIP/system/OS/sys_arch.c ****   
 484:../../Middlewares/Third_Party/LwIP/system/OS/sys_arch.c ****   return osThreadNew(thread, arg, &attributes);
 1020              		.loc 1 484 3 view .LVU220
 1021              		.loc 1 484 10 is_stmt 0 view .LVU221
 1022 008e 05AA     		add	r2, sp, #20
 1023 0090 3146     		mov	r1, r6
 1024 0092 2846     		mov	r0, r5
 1025 0094 FFF7FEFF 		bl	osThreadNew
 1026              	.LVL87:
 485:../../Middlewares/Third_Party/LwIP/system/OS/sys_arch.c **** #endif
 486:../../Middlewares/Third_Party/LwIP/system/OS/sys_arch.c **** }
 1027              		.loc 1 486 1 view .LVU222
 1028 0098 0EB0     		add	sp, sp, #56
 1029              	.LCFI23:
 1030              		.cfi_def_cfa_offset 24
 1031              		@ sp needed
 1032 009a BDE8F081 		pop	{r4, r5, r6, r7, r8, pc}
 1033              	.LVL88:
 1034              	.L80:
 1035              		.loc 1 486 1 view .LVU223
 1036 009e 00BF     		.align	2
 1037              	.L79:
 1038 00a0 00040258 		.word	1476527104
 1039 00a4 3F0D0300 		.word	199999
 1040              		.cfi_endproc
 1041              	.LFE194:
 1043              		.section	.text.sys_arch_protect,"ax",%progbits
 1044              		.align	1
 1045              		.global	sys_arch_protect
 1046              		.syntax unified
 1047              		.thumb
 1048              		.thumb_func
 1050              	sys_arch_protect:
 1051              	.LFB195:
 487:../../Middlewares/Third_Party/LwIP/system/OS/sys_arch.c **** 
 488:../../Middlewares/Third_Party/LwIP/system/OS/sys_arch.c **** /*
 489:../../Middlewares/Third_Party/LwIP/system/OS/sys_arch.c ****   This optional function does a "fast" critical region protection and returns
 490:../../Middlewares/Third_Party/LwIP/system/OS/sys_arch.c ****   the previous protection level. This function is only called during very short
 491:../../Middlewares/Third_Party/LwIP/system/OS/sys_arch.c ****   critical regions. An embedded system which supports ISR-based drivers might
 492:../../Middlewares/Third_Party/LwIP/system/OS/sys_arch.c ****   want to implement this function by disabling interrupts. Task-based systems
 493:../../Middlewares/Third_Party/LwIP/system/OS/sys_arch.c ****   might want to implement this by using a mutex or disabling tasking. This
 494:../../Middlewares/Third_Party/LwIP/system/OS/sys_arch.c ****   function should support recursive calls from the same task or interrupt. In
 495:../../Middlewares/Third_Party/LwIP/system/OS/sys_arch.c ****   other words, sys_arch_protect() could be called while already protected. In
 496:../../Middlewares/Third_Party/LwIP/system/OS/sys_arch.c ****   that case the return value indicates that it is already protected.
 497:../../Middlewares/Third_Party/LwIP/system/OS/sys_arch.c **** 
 498:../../Middlewares/Third_Party/LwIP/system/OS/sys_arch.c ****   sys_arch_protect() is only required if your port is supporting an operating
 499:../../Middlewares/Third_Party/LwIP/system/OS/sys_arch.c ****   system.
 500:../../Middlewares/Third_Party/LwIP/system/OS/sys_arch.c **** 
 501:../../Middlewares/Third_Party/LwIP/system/OS/sys_arch.c ****   Note: This function is based on FreeRTOS API, because no equivalent CMSIS-RTOS
ARM GAS  C:\Users\minis\AppData\Local\Temp\ccyglIGZ.s 			page 28


 502:../../Middlewares/Third_Party/LwIP/system/OS/sys_arch.c ****         API is available
 503:../../Middlewares/Third_Party/LwIP/system/OS/sys_arch.c **** */
 504:../../Middlewares/Third_Party/LwIP/system/OS/sys_arch.c **** sys_prot_t sys_arch_protect(void)
 505:../../Middlewares/Third_Party/LwIP/system/OS/sys_arch.c **** {
 1052              		.loc 1 505 1 is_stmt 1 view -0
 1053              		.cfi_startproc
 1054              		@ args = 0, pretend = 0, frame = 0
 1055              		@ frame_needed = 0, uses_anonymous_args = 0
 1056 0000 08B5     		push	{r3, lr}
 1057              	.LCFI24:
 1058              		.cfi_def_cfa_offset 8
 1059              		.cfi_offset 3, -8
 1060              		.cfi_offset 14, -4
 506:../../Middlewares/Third_Party/LwIP/system/OS/sys_arch.c **** #if (osCMSIS < 0x20000U)
 507:../../Middlewares/Third_Party/LwIP/system/OS/sys_arch.c ****   osMutexWait(lwip_sys_mutex, osWaitForever);
 508:../../Middlewares/Third_Party/LwIP/system/OS/sys_arch.c **** #else
 509:../../Middlewares/Third_Party/LwIP/system/OS/sys_arch.c ****   osMutexAcquire(lwip_sys_mutex, osWaitForever);
 1061              		.loc 1 509 3 view .LVU225
 1062 0002 4FF0FF31 		mov	r1, #-1
 1063 0006 034B     		ldr	r3, .L83
 1064 0008 1868     		ldr	r0, [r3]
 1065 000a FFF7FEFF 		bl	osMutexAcquire
 1066              	.LVL89:
 510:../../Middlewares/Third_Party/LwIP/system/OS/sys_arch.c **** #endif
 511:../../Middlewares/Third_Party/LwIP/system/OS/sys_arch.c ****   return (sys_prot_t)1;
 1067              		.loc 1 511 3 view .LVU226
 512:../../Middlewares/Third_Party/LwIP/system/OS/sys_arch.c **** }
 1068              		.loc 1 512 1 is_stmt 0 view .LVU227
 1069 000e 0120     		movs	r0, #1
 1070 0010 08BD     		pop	{r3, pc}
 1071              	.L84:
 1072 0012 00BF     		.align	2
 1073              	.L83:
 1074 0014 00000000 		.word	lwip_sys_mutex
 1075              		.cfi_endproc
 1076              	.LFE195:
 1078              		.section	.text.sys_arch_unprotect,"ax",%progbits
 1079              		.align	1
 1080              		.global	sys_arch_unprotect
 1081              		.syntax unified
 1082              		.thumb
 1083              		.thumb_func
 1085              	sys_arch_unprotect:
 1086              	.LVL90:
 1087              	.LFB196:
 513:../../Middlewares/Third_Party/LwIP/system/OS/sys_arch.c **** 
 514:../../Middlewares/Third_Party/LwIP/system/OS/sys_arch.c **** 
 515:../../Middlewares/Third_Party/LwIP/system/OS/sys_arch.c **** /*
 516:../../Middlewares/Third_Party/LwIP/system/OS/sys_arch.c ****   This optional function does a "fast" set of critical region protection to the
 517:../../Middlewares/Third_Party/LwIP/system/OS/sys_arch.c ****   value specified by pval. See the documentation for sys_arch_protect() for
 518:../../Middlewares/Third_Party/LwIP/system/OS/sys_arch.c ****   more information. This function is only required if your port is supporting
 519:../../Middlewares/Third_Party/LwIP/system/OS/sys_arch.c ****   an operating system.
 520:../../Middlewares/Third_Party/LwIP/system/OS/sys_arch.c **** 
 521:../../Middlewares/Third_Party/LwIP/system/OS/sys_arch.c ****   Note: This function is based on FreeRTOS API, because no equivalent CMSIS-RTOS
 522:../../Middlewares/Third_Party/LwIP/system/OS/sys_arch.c ****         API is available
 523:../../Middlewares/Third_Party/LwIP/system/OS/sys_arch.c **** */
 524:../../Middlewares/Third_Party/LwIP/system/OS/sys_arch.c **** void sys_arch_unprotect(sys_prot_t pval)
ARM GAS  C:\Users\minis\AppData\Local\Temp\ccyglIGZ.s 			page 29


 525:../../Middlewares/Third_Party/LwIP/system/OS/sys_arch.c **** {
 1088              		.loc 1 525 1 is_stmt 1 view -0
 1089              		.cfi_startproc
 1090              		@ args = 0, pretend = 0, frame = 0
 1091              		@ frame_needed = 0, uses_anonymous_args = 0
 1092              		.loc 1 525 1 is_stmt 0 view .LVU229
 1093 0000 08B5     		push	{r3, lr}
 1094              	.LCFI25:
 1095              		.cfi_def_cfa_offset 8
 1096              		.cfi_offset 3, -8
 1097              		.cfi_offset 14, -4
 526:../../Middlewares/Third_Party/LwIP/system/OS/sys_arch.c ****   ( void ) pval;
 1098              		.loc 1 526 3 is_stmt 1 view .LVU230
 527:../../Middlewares/Third_Party/LwIP/system/OS/sys_arch.c ****   osMutexRelease(lwip_sys_mutex);
 1099              		.loc 1 527 3 view .LVU231
 1100 0002 024B     		ldr	r3, .L87
 1101 0004 1868     		ldr	r0, [r3]
 1102              	.LVL91:
 1103              		.loc 1 527 3 is_stmt 0 view .LVU232
 1104 0006 FFF7FEFF 		bl	osMutexRelease
 1105              	.LVL92:
 528:../../Middlewares/Third_Party/LwIP/system/OS/sys_arch.c **** }
 1106              		.loc 1 528 1 view .LVU233
 1107 000a 08BD     		pop	{r3, pc}
 1108              	.L88:
 1109              		.align	2
 1110              	.L87:
 1111 000c 00000000 		.word	lwip_sys_mutex
 1112              		.cfi_endproc
 1113              	.LFE196:
 1115              		.global	lwip_sys_mutex
 1116              		.section	.bss.lwip_sys_mutex,"aw",%nobits
 1117              		.align	2
 1120              	lwip_sys_mutex:
 1121 0000 00000000 		.space	4
 1122              		.text
 1123              	.Letext0:
 1124              		.file 2 "C:/Program Files (x86)/Arm GNU Toolchain arm-none-eabi/14.3 rel1/arm-none-eabi/include/ma
 1125              		.file 3 "../../Middlewares/Third_Party/LwIP/system/arch/cc.h"
 1126              		.file 4 "C:/Program Files (x86)/Arm GNU Toolchain arm-none-eabi/14.3 rel1/arm-none-eabi/include/sy
 1127              		.file 5 "../../Middlewares/Third_Party/LwIP/src/include/lwip/arch.h"
 1128              		.file 6 "../../Drivers/CMSIS/Device/ST/STM32H7xx/Include/stm32h755xx.h"
 1129              		.file 7 "../../Middlewares/Third_Party/LwIP/src/include/lwip/err.h"
 1130              		.file 8 "../../Middlewares/Third_Party/FreeRTOS/Source/CMSIS_RTOS_V2/cmsis_os2.h"
 1131              		.file 9 "../../Middlewares/Third_Party/LwIP/system/arch/sys_arch.h"
 1132              		.file 10 "../../Middlewares/Third_Party/LwIP/src/include/lwip/sys.h"
 1133              		.file 11 "../../Middlewares/Third_Party/LwIP/src/include/lwip/memp.h"
 1134              		.file 12 "<built-in>"
ARM GAS  C:\Users\minis\AppData\Local\Temp\ccyglIGZ.s 			page 30

