ARM GAS  C:\Users\minis\AppData\Local\Temp\cc2ZMwrX.s 			page 1


   1              		.cpu cortex-m7
   2              		.arch armv7e-m
   3              		.fpu fpv5-d16
   4              		.eabi_attribute 20, 1
   5              		.eabi_attribute 21, 1
   6              		.eabi_attribute 23, 3
   7              		.eabi_attribute 24, 1
   8              		.eabi_attribute 25, 1
   9              		.eabi_attribute 26, 1
  10              		.eabi_attribute 30, 1
  11              		.eabi_attribute 34, 1
  12              		.eabi_attribute 18, 4
  13              		.file	"tcp_out.c"
  14              		.text
  15              	.Ltext0:
  16              		.cfi_sections	.debug_frame
  17              		.file 1 "../../Middlewares/Third_Party/LwIP/src/core/tcp_out.c"
  18              		.section	.rodata.tcp_write_checks.str1.4,"aMS",%progbits,1
  19              		.align	2
  20              	.LC0:
  21 0000 2E2E2F2E 		.ascii	"../../Middlewares/Third_Party/LwIP/src/core/tcp_out"
  21      2E2F4D69 
  21      64646C65 
  21      77617265 
  21      732F5468 
  22 0033 2E6300   		.ascii	".c\000"
  23 0036 0000     		.align	2
  24              	.LC1:
  25 0038 7463705F 		.ascii	"tcp_write_checks: invalid pcb\000"
  25      77726974 
  25      655F6368 
  25      65636B73 
  25      3A20696E 
  26 0056 0000     		.align	2
  27              	.LC2:
  28 0058 41737365 		.ascii	"Assertion \"%s\" failed at line %d in %s\012\000"
  28      7274696F 
  28      6E202225 
  28      73222066 
  28      61696C65 
  29              		.align	2
  30              	.LC3:
  31 0080 7463705F 		.ascii	"tcp_write: pbufs on queue => at least one queue non"
  31      77726974 
  31      653A2070 
  31      62756673 
  31      206F6E20 
  32 00b3 2D656D70 		.ascii	"-empty\000"
  32      747900
  33 00ba 0000     		.align	2
  34              	.LC4:
  35 00bc 7463705F 		.ascii	"tcp_write: no pbufs on queue => both queues empty\000"
  35      77726974 
  35      653A206E 
  35      6F207062 
  35      75667320 
  36              		.section	.text.tcp_write_checks,"ax",%progbits
ARM GAS  C:\Users\minis\AppData\Local\Temp\cc2ZMwrX.s 			page 2


  37              		.align	1
  38              		.syntax unified
  39              		.thumb
  40              		.thumb_func
  42              	tcp_write_checks:
  43              	.LVL0:
  44              	.LFB173:
   1:../../Middlewares/Third_Party/LwIP/src/core/tcp_out.c **** /**
   2:../../Middlewares/Third_Party/LwIP/src/core/tcp_out.c ****  * @file
   3:../../Middlewares/Third_Party/LwIP/src/core/tcp_out.c ****  * Transmission Control Protocol, outgoing traffic
   4:../../Middlewares/Third_Party/LwIP/src/core/tcp_out.c ****  *
   5:../../Middlewares/Third_Party/LwIP/src/core/tcp_out.c ****  * The output functions of TCP.
   6:../../Middlewares/Third_Party/LwIP/src/core/tcp_out.c ****  *
   7:../../Middlewares/Third_Party/LwIP/src/core/tcp_out.c ****  * There are two distinct ways for TCP segments to get sent:
   8:../../Middlewares/Third_Party/LwIP/src/core/tcp_out.c ****  * - queued data: these are segments transferring data or segments containing
   9:../../Middlewares/Third_Party/LwIP/src/core/tcp_out.c ****  *   SYN or FIN (which both count as one sequence number). They are created as
  10:../../Middlewares/Third_Party/LwIP/src/core/tcp_out.c ****  *   struct @ref pbuf together with a struct tcp_seg and enqueue to the
  11:../../Middlewares/Third_Party/LwIP/src/core/tcp_out.c ****  *   unsent list of the pcb. They are sent by tcp_output:
  12:../../Middlewares/Third_Party/LwIP/src/core/tcp_out.c ****  *   - @ref tcp_write : creates data segments
  13:../../Middlewares/Third_Party/LwIP/src/core/tcp_out.c ****  *   - @ref tcp_split_unsent_seg : splits a data segment
  14:../../Middlewares/Third_Party/LwIP/src/core/tcp_out.c ****  *   - @ref tcp_enqueue_flags : creates SYN-only or FIN-only segments
  15:../../Middlewares/Third_Party/LwIP/src/core/tcp_out.c ****  *   - @ref tcp_output / tcp_output_segment : finalize the tcp header
  16:../../Middlewares/Third_Party/LwIP/src/core/tcp_out.c ****  *      (e.g. sequence numbers, options, checksum) and output to IP
  17:../../Middlewares/Third_Party/LwIP/src/core/tcp_out.c ****  *   - the various tcp_rexmit functions shuffle around segments between the
  18:../../Middlewares/Third_Party/LwIP/src/core/tcp_out.c ****  *     unsent an unacked lists to retransmit them
  19:../../Middlewares/Third_Party/LwIP/src/core/tcp_out.c ****  *   - tcp_create_segment and tcp_pbuf_prealloc allocate pbuf and
  20:../../Middlewares/Third_Party/LwIP/src/core/tcp_out.c ****  *     segment for these functions
  21:../../Middlewares/Third_Party/LwIP/src/core/tcp_out.c ****  * - direct send: these segments don't contain data but control the connection
  22:../../Middlewares/Third_Party/LwIP/src/core/tcp_out.c ****  *   behaviour. They are created as pbuf only and sent directly without
  23:../../Middlewares/Third_Party/LwIP/src/core/tcp_out.c ****  *   enqueueing them:
  24:../../Middlewares/Third_Party/LwIP/src/core/tcp_out.c ****  *   - @ref tcp_send_empty_ack sends an ACK-only segment
  25:../../Middlewares/Third_Party/LwIP/src/core/tcp_out.c ****  *   - @ref tcp_rst sends a RST segment
  26:../../Middlewares/Third_Party/LwIP/src/core/tcp_out.c ****  *   - @ref tcp_keepalive sends a keepalive segment
  27:../../Middlewares/Third_Party/LwIP/src/core/tcp_out.c ****  *   - @ref tcp_zero_window_probe sends a window probe segment
  28:../../Middlewares/Third_Party/LwIP/src/core/tcp_out.c ****  *   - tcp_output_alloc_header allocates a header-only pbuf for these functions
  29:../../Middlewares/Third_Party/LwIP/src/core/tcp_out.c ****  */
  30:../../Middlewares/Third_Party/LwIP/src/core/tcp_out.c **** 
  31:../../Middlewares/Third_Party/LwIP/src/core/tcp_out.c **** /*
  32:../../Middlewares/Third_Party/LwIP/src/core/tcp_out.c ****  * Copyright (c) 2001-2004 Swedish Institute of Computer Science.
  33:../../Middlewares/Third_Party/LwIP/src/core/tcp_out.c ****  * All rights reserved.
  34:../../Middlewares/Third_Party/LwIP/src/core/tcp_out.c ****  *
  35:../../Middlewares/Third_Party/LwIP/src/core/tcp_out.c ****  * Redistribution and use in source and binary forms, with or without modification,
  36:../../Middlewares/Third_Party/LwIP/src/core/tcp_out.c ****  * are permitted provided that the following conditions are met:
  37:../../Middlewares/Third_Party/LwIP/src/core/tcp_out.c ****  *
  38:../../Middlewares/Third_Party/LwIP/src/core/tcp_out.c ****  * 1. Redistributions of source code must retain the above copyright notice,
  39:../../Middlewares/Third_Party/LwIP/src/core/tcp_out.c ****  *    this list of conditions and the following disclaimer.
  40:../../Middlewares/Third_Party/LwIP/src/core/tcp_out.c ****  * 2. Redistributions in binary form must reproduce the above copyright notice,
  41:../../Middlewares/Third_Party/LwIP/src/core/tcp_out.c ****  *    this list of conditions and the following disclaimer in the documentation
  42:../../Middlewares/Third_Party/LwIP/src/core/tcp_out.c ****  *    and/or other materials provided with the distribution.
  43:../../Middlewares/Third_Party/LwIP/src/core/tcp_out.c ****  * 3. The name of the author may not be used to endorse or promote products
  44:../../Middlewares/Third_Party/LwIP/src/core/tcp_out.c ****  *    derived from this software without specific prior written permission.
  45:../../Middlewares/Third_Party/LwIP/src/core/tcp_out.c ****  *
  46:../../Middlewares/Third_Party/LwIP/src/core/tcp_out.c ****  * THIS SOFTWARE IS PROVIDED BY THE AUTHOR ``AS IS'' AND ANY EXPRESS OR IMPLIED
  47:../../Middlewares/Third_Party/LwIP/src/core/tcp_out.c ****  * WARRANTIES, INCLUDING, BUT NOT LIMITED TO, THE IMPLIED WARRANTIES OF
  48:../../Middlewares/Third_Party/LwIP/src/core/tcp_out.c ****  * MERCHANTABILITY AND FITNESS FOR A PARTICULAR PURPOSE ARE DISCLAIMED. IN NO EVENT
  49:../../Middlewares/Third_Party/LwIP/src/core/tcp_out.c ****  * SHALL THE AUTHOR BE LIABLE FOR ANY DIRECT, INDIRECT, INCIDENTAL, SPECIAL,
  50:../../Middlewares/Third_Party/LwIP/src/core/tcp_out.c ****  * EXEMPLARY, OR CONSEQUENTIAL DAMAGES (INCLUDING, BUT NOT LIMITED TO, PROCUREMENT
ARM GAS  C:\Users\minis\AppData\Local\Temp\cc2ZMwrX.s 			page 3


  51:../../Middlewares/Third_Party/LwIP/src/core/tcp_out.c ****  * OF SUBSTITUTE GOODS OR SERVICES; LOSS OF USE, DATA, OR PROFITS; OR BUSINESS
  52:../../Middlewares/Third_Party/LwIP/src/core/tcp_out.c ****  * INTERRUPTION) HOWEVER CAUSED AND ON ANY THEORY OF LIABILITY, WHETHER IN
  53:../../Middlewares/Third_Party/LwIP/src/core/tcp_out.c ****  * CONTRACT, STRICT LIABILITY, OR TORT (INCLUDING NEGLIGENCE OR OTHERWISE) ARISING
  54:../../Middlewares/Third_Party/LwIP/src/core/tcp_out.c ****  * IN ANY WAY OUT OF THE USE OF THIS SOFTWARE, EVEN IF ADVISED OF THE POSSIBILITY
  55:../../Middlewares/Third_Party/LwIP/src/core/tcp_out.c ****  * OF SUCH DAMAGE.
  56:../../Middlewares/Third_Party/LwIP/src/core/tcp_out.c ****  *
  57:../../Middlewares/Third_Party/LwIP/src/core/tcp_out.c ****  * This file is part of the lwIP TCP/IP stack.
  58:../../Middlewares/Third_Party/LwIP/src/core/tcp_out.c ****  *
  59:../../Middlewares/Third_Party/LwIP/src/core/tcp_out.c ****  * Author: Adam Dunkels <adam@sics.se>
  60:../../Middlewares/Third_Party/LwIP/src/core/tcp_out.c ****  *
  61:../../Middlewares/Third_Party/LwIP/src/core/tcp_out.c ****  */
  62:../../Middlewares/Third_Party/LwIP/src/core/tcp_out.c **** 
  63:../../Middlewares/Third_Party/LwIP/src/core/tcp_out.c **** #include "lwip/opt.h"
  64:../../Middlewares/Third_Party/LwIP/src/core/tcp_out.c **** 
  65:../../Middlewares/Third_Party/LwIP/src/core/tcp_out.c **** #if LWIP_TCP /* don't build if not configured for use in lwipopts.h */
  66:../../Middlewares/Third_Party/LwIP/src/core/tcp_out.c **** 
  67:../../Middlewares/Third_Party/LwIP/src/core/tcp_out.c **** #include "lwip/priv/tcp_priv.h"
  68:../../Middlewares/Third_Party/LwIP/src/core/tcp_out.c **** #include "lwip/def.h"
  69:../../Middlewares/Third_Party/LwIP/src/core/tcp_out.c **** #include "lwip/mem.h"
  70:../../Middlewares/Third_Party/LwIP/src/core/tcp_out.c **** #include "lwip/memp.h"
  71:../../Middlewares/Third_Party/LwIP/src/core/tcp_out.c **** #include "lwip/ip_addr.h"
  72:../../Middlewares/Third_Party/LwIP/src/core/tcp_out.c **** #include "lwip/netif.h"
  73:../../Middlewares/Third_Party/LwIP/src/core/tcp_out.c **** #include "lwip/inet_chksum.h"
  74:../../Middlewares/Third_Party/LwIP/src/core/tcp_out.c **** #include "lwip/stats.h"
  75:../../Middlewares/Third_Party/LwIP/src/core/tcp_out.c **** #include "lwip/ip6.h"
  76:../../Middlewares/Third_Party/LwIP/src/core/tcp_out.c **** #include "lwip/ip6_addr.h"
  77:../../Middlewares/Third_Party/LwIP/src/core/tcp_out.c **** #if LWIP_TCP_TIMESTAMPS
  78:../../Middlewares/Third_Party/LwIP/src/core/tcp_out.c **** #include "lwip/sys.h"
  79:../../Middlewares/Third_Party/LwIP/src/core/tcp_out.c **** #endif
  80:../../Middlewares/Third_Party/LwIP/src/core/tcp_out.c **** 
  81:../../Middlewares/Third_Party/LwIP/src/core/tcp_out.c **** #include <string.h>
  82:../../Middlewares/Third_Party/LwIP/src/core/tcp_out.c **** 
  83:../../Middlewares/Third_Party/LwIP/src/core/tcp_out.c **** #ifdef LWIP_HOOK_FILENAME
  84:../../Middlewares/Third_Party/LwIP/src/core/tcp_out.c **** #include LWIP_HOOK_FILENAME
  85:../../Middlewares/Third_Party/LwIP/src/core/tcp_out.c **** #endif
  86:../../Middlewares/Third_Party/LwIP/src/core/tcp_out.c **** 
  87:../../Middlewares/Third_Party/LwIP/src/core/tcp_out.c **** /* Allow to add custom TCP header options by defining this hook */
  88:../../Middlewares/Third_Party/LwIP/src/core/tcp_out.c **** #ifdef LWIP_HOOK_TCP_OUT_TCPOPT_LENGTH
  89:../../Middlewares/Third_Party/LwIP/src/core/tcp_out.c **** #define LWIP_TCP_OPT_LENGTH_SEGMENT(flags, pcb) LWIP_HOOK_TCP_OUT_TCPOPT_LENGTH(pcb, LWIP_TCP_OPT_L
  90:../../Middlewares/Third_Party/LwIP/src/core/tcp_out.c **** #else
  91:../../Middlewares/Third_Party/LwIP/src/core/tcp_out.c **** #define LWIP_TCP_OPT_LENGTH_SEGMENT(flags, pcb) LWIP_TCP_OPT_LENGTH(flags)
  92:../../Middlewares/Third_Party/LwIP/src/core/tcp_out.c **** #endif
  93:../../Middlewares/Third_Party/LwIP/src/core/tcp_out.c **** 
  94:../../Middlewares/Third_Party/LwIP/src/core/tcp_out.c **** /* Define some copy-macros for checksum-on-copy so that the code looks
  95:../../Middlewares/Third_Party/LwIP/src/core/tcp_out.c ****    nicer by preventing too many ifdef's. */
  96:../../Middlewares/Third_Party/LwIP/src/core/tcp_out.c **** #if TCP_CHECKSUM_ON_COPY
  97:../../Middlewares/Third_Party/LwIP/src/core/tcp_out.c **** #define TCP_DATA_COPY(dst, src, len, seg) do { \
  98:../../Middlewares/Third_Party/LwIP/src/core/tcp_out.c ****   tcp_seg_add_chksum(LWIP_CHKSUM_COPY(dst, src, len), \
  99:../../Middlewares/Third_Party/LwIP/src/core/tcp_out.c ****                      len, &seg->chksum, &seg->chksum_swapped); \
 100:../../Middlewares/Third_Party/LwIP/src/core/tcp_out.c ****   seg->flags |= TF_SEG_DATA_CHECKSUMMED; } while(0)
 101:../../Middlewares/Third_Party/LwIP/src/core/tcp_out.c **** #define TCP_DATA_COPY2(dst, src, len, chksum, chksum_swapped)  \
 102:../../Middlewares/Third_Party/LwIP/src/core/tcp_out.c ****   tcp_seg_add_chksum(LWIP_CHKSUM_COPY(dst, src, len), len, chksum, chksum_swapped);
 103:../../Middlewares/Third_Party/LwIP/src/core/tcp_out.c **** #else /* TCP_CHECKSUM_ON_COPY*/
 104:../../Middlewares/Third_Party/LwIP/src/core/tcp_out.c **** #define TCP_DATA_COPY(dst, src, len, seg)                     MEMCPY(dst, src, len)
 105:../../Middlewares/Third_Party/LwIP/src/core/tcp_out.c **** #define TCP_DATA_COPY2(dst, src, len, chksum, chksum_swapped) MEMCPY(dst, src, len)
 106:../../Middlewares/Third_Party/LwIP/src/core/tcp_out.c **** #endif /* TCP_CHECKSUM_ON_COPY*/
 107:../../Middlewares/Third_Party/LwIP/src/core/tcp_out.c **** 
ARM GAS  C:\Users\minis\AppData\Local\Temp\cc2ZMwrX.s 			page 4


 108:../../Middlewares/Third_Party/LwIP/src/core/tcp_out.c **** /** Define this to 1 for an extra check that the output checksum is valid
 109:../../Middlewares/Third_Party/LwIP/src/core/tcp_out.c ****  * (usefule when the checksum is generated by the application, not the stack) */
 110:../../Middlewares/Third_Party/LwIP/src/core/tcp_out.c **** #ifndef TCP_CHECKSUM_ON_COPY_SANITY_CHECK
 111:../../Middlewares/Third_Party/LwIP/src/core/tcp_out.c **** #define TCP_CHECKSUM_ON_COPY_SANITY_CHECK   0
 112:../../Middlewares/Third_Party/LwIP/src/core/tcp_out.c **** #endif
 113:../../Middlewares/Third_Party/LwIP/src/core/tcp_out.c **** /* Allow to override the failure of sanity check from warning to e.g. hard failure */
 114:../../Middlewares/Third_Party/LwIP/src/core/tcp_out.c **** #if TCP_CHECKSUM_ON_COPY_SANITY_CHECK
 115:../../Middlewares/Third_Party/LwIP/src/core/tcp_out.c **** #ifndef TCP_CHECKSUM_ON_COPY_SANITY_CHECK_FAIL
 116:../../Middlewares/Third_Party/LwIP/src/core/tcp_out.c **** #define TCP_CHECKSUM_ON_COPY_SANITY_CHECK_FAIL(msg) LWIP_DEBUGF(TCP_DEBUG | LWIP_DBG_LEVEL_WARNING,
 117:../../Middlewares/Third_Party/LwIP/src/core/tcp_out.c **** #endif
 118:../../Middlewares/Third_Party/LwIP/src/core/tcp_out.c **** #endif
 119:../../Middlewares/Third_Party/LwIP/src/core/tcp_out.c **** 
 120:../../Middlewares/Third_Party/LwIP/src/core/tcp_out.c **** #if TCP_OVERSIZE
 121:../../Middlewares/Third_Party/LwIP/src/core/tcp_out.c **** /** The size of segment pbufs created when TCP_OVERSIZE is enabled */
 122:../../Middlewares/Third_Party/LwIP/src/core/tcp_out.c **** #ifndef TCP_OVERSIZE_CALC_LENGTH
 123:../../Middlewares/Third_Party/LwIP/src/core/tcp_out.c **** #define TCP_OVERSIZE_CALC_LENGTH(length) ((length) + TCP_OVERSIZE)
 124:../../Middlewares/Third_Party/LwIP/src/core/tcp_out.c **** #endif
 125:../../Middlewares/Third_Party/LwIP/src/core/tcp_out.c **** #endif
 126:../../Middlewares/Third_Party/LwIP/src/core/tcp_out.c **** 
 127:../../Middlewares/Third_Party/LwIP/src/core/tcp_out.c **** /* Forward declarations.*/
 128:../../Middlewares/Third_Party/LwIP/src/core/tcp_out.c **** static err_t tcp_output_segment(struct tcp_seg *seg, struct tcp_pcb *pcb, struct netif *netif);
 129:../../Middlewares/Third_Party/LwIP/src/core/tcp_out.c **** 
 130:../../Middlewares/Third_Party/LwIP/src/core/tcp_out.c **** /* tcp_route: common code that returns a fixed bound netif or calls ip_route */
 131:../../Middlewares/Third_Party/LwIP/src/core/tcp_out.c **** static struct netif *
 132:../../Middlewares/Third_Party/LwIP/src/core/tcp_out.c **** tcp_route(const struct tcp_pcb *pcb, const ip_addr_t *src, const ip_addr_t *dst)
 133:../../Middlewares/Third_Party/LwIP/src/core/tcp_out.c **** {
 134:../../Middlewares/Third_Party/LwIP/src/core/tcp_out.c ****   LWIP_UNUSED_ARG(src); /* in case IPv4-only and source-based routing is disabled */
 135:../../Middlewares/Third_Party/LwIP/src/core/tcp_out.c **** 
 136:../../Middlewares/Third_Party/LwIP/src/core/tcp_out.c ****   if ((pcb != NULL) && (pcb->netif_idx != NETIF_NO_INDEX)) {
 137:../../Middlewares/Third_Party/LwIP/src/core/tcp_out.c ****     return netif_get_by_index(pcb->netif_idx);
 138:../../Middlewares/Third_Party/LwIP/src/core/tcp_out.c ****   } else {
 139:../../Middlewares/Third_Party/LwIP/src/core/tcp_out.c ****     return ip_route(src, dst);
 140:../../Middlewares/Third_Party/LwIP/src/core/tcp_out.c ****   }
 141:../../Middlewares/Third_Party/LwIP/src/core/tcp_out.c **** }
 142:../../Middlewares/Third_Party/LwIP/src/core/tcp_out.c **** 
 143:../../Middlewares/Third_Party/LwIP/src/core/tcp_out.c **** /**
 144:../../Middlewares/Third_Party/LwIP/src/core/tcp_out.c ****  * Create a TCP segment with prefilled header.
 145:../../Middlewares/Third_Party/LwIP/src/core/tcp_out.c ****  *
 146:../../Middlewares/Third_Party/LwIP/src/core/tcp_out.c ****  * Called by @ref tcp_write, @ref tcp_enqueue_flags and @ref tcp_split_unsent_seg
 147:../../Middlewares/Third_Party/LwIP/src/core/tcp_out.c ****  *
 148:../../Middlewares/Third_Party/LwIP/src/core/tcp_out.c ****  * @param pcb Protocol control block for the TCP connection.
 149:../../Middlewares/Third_Party/LwIP/src/core/tcp_out.c ****  * @param p pbuf that is used to hold the TCP header.
 150:../../Middlewares/Third_Party/LwIP/src/core/tcp_out.c ****  * @param hdrflags TCP flags for header.
 151:../../Middlewares/Third_Party/LwIP/src/core/tcp_out.c ****  * @param seqno TCP sequence number of this packet
 152:../../Middlewares/Third_Party/LwIP/src/core/tcp_out.c ****  * @param optflags options to include in TCP header
 153:../../Middlewares/Third_Party/LwIP/src/core/tcp_out.c ****  * @return a new tcp_seg pointing to p, or NULL.
 154:../../Middlewares/Third_Party/LwIP/src/core/tcp_out.c ****  * The TCP header is filled in except ackno and wnd.
 155:../../Middlewares/Third_Party/LwIP/src/core/tcp_out.c ****  * p is freed on failure.
 156:../../Middlewares/Third_Party/LwIP/src/core/tcp_out.c ****  */
 157:../../Middlewares/Third_Party/LwIP/src/core/tcp_out.c **** static struct tcp_seg *
 158:../../Middlewares/Third_Party/LwIP/src/core/tcp_out.c **** tcp_create_segment(const struct tcp_pcb *pcb, struct pbuf *p, u8_t hdrflags, u32_t seqno, u8_t optf
 159:../../Middlewares/Third_Party/LwIP/src/core/tcp_out.c **** {
 160:../../Middlewares/Third_Party/LwIP/src/core/tcp_out.c ****   struct tcp_seg *seg;
 161:../../Middlewares/Third_Party/LwIP/src/core/tcp_out.c ****   u8_t optlen;
 162:../../Middlewares/Third_Party/LwIP/src/core/tcp_out.c **** 
 163:../../Middlewares/Third_Party/LwIP/src/core/tcp_out.c ****   LWIP_ASSERT("tcp_create_segment: invalid pcb", pcb != NULL);
 164:../../Middlewares/Third_Party/LwIP/src/core/tcp_out.c ****   LWIP_ASSERT("tcp_create_segment: invalid pbuf", p != NULL);
ARM GAS  C:\Users\minis\AppData\Local\Temp\cc2ZMwrX.s 			page 5


 165:../../Middlewares/Third_Party/LwIP/src/core/tcp_out.c **** 
 166:../../Middlewares/Third_Party/LwIP/src/core/tcp_out.c ****   optlen = LWIP_TCP_OPT_LENGTH_SEGMENT(optflags, pcb);
 167:../../Middlewares/Third_Party/LwIP/src/core/tcp_out.c **** 
 168:../../Middlewares/Third_Party/LwIP/src/core/tcp_out.c ****   if ((seg = (struct tcp_seg *)memp_malloc(MEMP_TCP_SEG)) == NULL) {
 169:../../Middlewares/Third_Party/LwIP/src/core/tcp_out.c ****     LWIP_DEBUGF(TCP_OUTPUT_DEBUG | LWIP_DBG_LEVEL_SERIOUS, ("tcp_create_segment: no memory.\n"));
 170:../../Middlewares/Third_Party/LwIP/src/core/tcp_out.c ****     pbuf_free(p);
 171:../../Middlewares/Third_Party/LwIP/src/core/tcp_out.c ****     return NULL;
 172:../../Middlewares/Third_Party/LwIP/src/core/tcp_out.c ****   }
 173:../../Middlewares/Third_Party/LwIP/src/core/tcp_out.c ****   seg->flags = optflags;
 174:../../Middlewares/Third_Party/LwIP/src/core/tcp_out.c ****   seg->next = NULL;
 175:../../Middlewares/Third_Party/LwIP/src/core/tcp_out.c ****   seg->p = p;
 176:../../Middlewares/Third_Party/LwIP/src/core/tcp_out.c ****   LWIP_ASSERT("p->tot_len >= optlen", p->tot_len >= optlen);
 177:../../Middlewares/Third_Party/LwIP/src/core/tcp_out.c ****   seg->len = p->tot_len - optlen;
 178:../../Middlewares/Third_Party/LwIP/src/core/tcp_out.c **** #if TCP_OVERSIZE_DBGCHECK
 179:../../Middlewares/Third_Party/LwIP/src/core/tcp_out.c ****   seg->oversize_left = 0;
 180:../../Middlewares/Third_Party/LwIP/src/core/tcp_out.c **** #endif /* TCP_OVERSIZE_DBGCHECK */
 181:../../Middlewares/Third_Party/LwIP/src/core/tcp_out.c **** #if TCP_CHECKSUM_ON_COPY
 182:../../Middlewares/Third_Party/LwIP/src/core/tcp_out.c ****   seg->chksum = 0;
 183:../../Middlewares/Third_Party/LwIP/src/core/tcp_out.c ****   seg->chksum_swapped = 0;
 184:../../Middlewares/Third_Party/LwIP/src/core/tcp_out.c ****   /* check optflags */
 185:../../Middlewares/Third_Party/LwIP/src/core/tcp_out.c ****   LWIP_ASSERT("invalid optflags passed: TF_SEG_DATA_CHECKSUMMED",
 186:../../Middlewares/Third_Party/LwIP/src/core/tcp_out.c ****               (optflags & TF_SEG_DATA_CHECKSUMMED) == 0);
 187:../../Middlewares/Third_Party/LwIP/src/core/tcp_out.c **** #endif /* TCP_CHECKSUM_ON_COPY */
 188:../../Middlewares/Third_Party/LwIP/src/core/tcp_out.c **** 
 189:../../Middlewares/Third_Party/LwIP/src/core/tcp_out.c ****   /* build TCP header */
 190:../../Middlewares/Third_Party/LwIP/src/core/tcp_out.c ****   if (pbuf_add_header(p, TCP_HLEN)) {
 191:../../Middlewares/Third_Party/LwIP/src/core/tcp_out.c ****     LWIP_DEBUGF(TCP_OUTPUT_DEBUG | LWIP_DBG_LEVEL_SERIOUS, ("tcp_create_segment: no room for TCP he
 192:../../Middlewares/Third_Party/LwIP/src/core/tcp_out.c ****     TCP_STATS_INC(tcp.err);
 193:../../Middlewares/Third_Party/LwIP/src/core/tcp_out.c ****     tcp_seg_free(seg);
 194:../../Middlewares/Third_Party/LwIP/src/core/tcp_out.c ****     return NULL;
 195:../../Middlewares/Third_Party/LwIP/src/core/tcp_out.c ****   }
 196:../../Middlewares/Third_Party/LwIP/src/core/tcp_out.c ****   seg->tcphdr = (struct tcp_hdr *)seg->p->payload;
 197:../../Middlewares/Third_Party/LwIP/src/core/tcp_out.c ****   seg->tcphdr->src = lwip_htons(pcb->local_port);
 198:../../Middlewares/Third_Party/LwIP/src/core/tcp_out.c ****   seg->tcphdr->dest = lwip_htons(pcb->remote_port);
 199:../../Middlewares/Third_Party/LwIP/src/core/tcp_out.c ****   seg->tcphdr->seqno = lwip_htonl(seqno);
 200:../../Middlewares/Third_Party/LwIP/src/core/tcp_out.c ****   /* ackno is set in tcp_output */
 201:../../Middlewares/Third_Party/LwIP/src/core/tcp_out.c ****   TCPH_HDRLEN_FLAGS_SET(seg->tcphdr, (5 + optlen / 4), hdrflags);
 202:../../Middlewares/Third_Party/LwIP/src/core/tcp_out.c ****   /* wnd and chksum are set in tcp_output */
 203:../../Middlewares/Third_Party/LwIP/src/core/tcp_out.c ****   seg->tcphdr->urgp = 0;
 204:../../Middlewares/Third_Party/LwIP/src/core/tcp_out.c ****   return seg;
 205:../../Middlewares/Third_Party/LwIP/src/core/tcp_out.c **** }
 206:../../Middlewares/Third_Party/LwIP/src/core/tcp_out.c **** 
 207:../../Middlewares/Third_Party/LwIP/src/core/tcp_out.c **** /**
 208:../../Middlewares/Third_Party/LwIP/src/core/tcp_out.c ****  * Allocate a PBUF_RAM pbuf, perhaps with extra space at the end.
 209:../../Middlewares/Third_Party/LwIP/src/core/tcp_out.c ****  *
 210:../../Middlewares/Third_Party/LwIP/src/core/tcp_out.c ****  * This function is like pbuf_alloc(layer, length, PBUF_RAM) except
 211:../../Middlewares/Third_Party/LwIP/src/core/tcp_out.c ****  * there may be extra bytes available at the end.
 212:../../Middlewares/Third_Party/LwIP/src/core/tcp_out.c ****  *
 213:../../Middlewares/Third_Party/LwIP/src/core/tcp_out.c ****  * Called by @ref tcp_write
 214:../../Middlewares/Third_Party/LwIP/src/core/tcp_out.c ****  *
 215:../../Middlewares/Third_Party/LwIP/src/core/tcp_out.c ****  * @param layer flag to define header size.
 216:../../Middlewares/Third_Party/LwIP/src/core/tcp_out.c ****  * @param length size of the pbuf's payload.
 217:../../Middlewares/Third_Party/LwIP/src/core/tcp_out.c ****  * @param max_length maximum usable size of payload+oversize.
 218:../../Middlewares/Third_Party/LwIP/src/core/tcp_out.c ****  * @param oversize pointer to a u16_t that will receive the number of usable tail bytes.
 219:../../Middlewares/Third_Party/LwIP/src/core/tcp_out.c ****  * @param pcb The TCP connection that will enqueue the pbuf.
 220:../../Middlewares/Third_Party/LwIP/src/core/tcp_out.c ****  * @param apiflags API flags given to tcp_write.
 221:../../Middlewares/Third_Party/LwIP/src/core/tcp_out.c ****  * @param first_seg true when this pbuf will be used in the first enqueued segment.
ARM GAS  C:\Users\minis\AppData\Local\Temp\cc2ZMwrX.s 			page 6


 222:../../Middlewares/Third_Party/LwIP/src/core/tcp_out.c ****  */
 223:../../Middlewares/Third_Party/LwIP/src/core/tcp_out.c **** #if TCP_OVERSIZE
 224:../../Middlewares/Third_Party/LwIP/src/core/tcp_out.c **** static struct pbuf *
 225:../../Middlewares/Third_Party/LwIP/src/core/tcp_out.c **** tcp_pbuf_prealloc(pbuf_layer layer, u16_t length, u16_t max_length,
 226:../../Middlewares/Third_Party/LwIP/src/core/tcp_out.c ****                   u16_t *oversize, const struct tcp_pcb *pcb, u8_t apiflags,
 227:../../Middlewares/Third_Party/LwIP/src/core/tcp_out.c ****                   u8_t first_seg)
 228:../../Middlewares/Third_Party/LwIP/src/core/tcp_out.c **** {
 229:../../Middlewares/Third_Party/LwIP/src/core/tcp_out.c ****   struct pbuf *p;
 230:../../Middlewares/Third_Party/LwIP/src/core/tcp_out.c ****   u16_t alloc = length;
 231:../../Middlewares/Third_Party/LwIP/src/core/tcp_out.c **** 
 232:../../Middlewares/Third_Party/LwIP/src/core/tcp_out.c ****   LWIP_ASSERT("tcp_pbuf_prealloc: invalid oversize", oversize != NULL);
 233:../../Middlewares/Third_Party/LwIP/src/core/tcp_out.c ****   LWIP_ASSERT("tcp_pbuf_prealloc: invalid pcb", pcb != NULL);
 234:../../Middlewares/Third_Party/LwIP/src/core/tcp_out.c **** 
 235:../../Middlewares/Third_Party/LwIP/src/core/tcp_out.c **** #if LWIP_NETIF_TX_SINGLE_PBUF
 236:../../Middlewares/Third_Party/LwIP/src/core/tcp_out.c ****   LWIP_UNUSED_ARG(max_length);
 237:../../Middlewares/Third_Party/LwIP/src/core/tcp_out.c ****   LWIP_UNUSED_ARG(pcb);
 238:../../Middlewares/Third_Party/LwIP/src/core/tcp_out.c ****   LWIP_UNUSED_ARG(apiflags);
 239:../../Middlewares/Third_Party/LwIP/src/core/tcp_out.c ****   LWIP_UNUSED_ARG(first_seg);
 240:../../Middlewares/Third_Party/LwIP/src/core/tcp_out.c ****   alloc = max_length;
 241:../../Middlewares/Third_Party/LwIP/src/core/tcp_out.c **** #else /* LWIP_NETIF_TX_SINGLE_PBUF */
 242:../../Middlewares/Third_Party/LwIP/src/core/tcp_out.c ****   if (length < max_length) {
 243:../../Middlewares/Third_Party/LwIP/src/core/tcp_out.c ****     /* Should we allocate an oversized pbuf, or just the minimum
 244:../../Middlewares/Third_Party/LwIP/src/core/tcp_out.c ****      * length required? If tcp_write is going to be called again
 245:../../Middlewares/Third_Party/LwIP/src/core/tcp_out.c ****      * before this segment is transmitted, we want the oversized
 246:../../Middlewares/Third_Party/LwIP/src/core/tcp_out.c ****      * buffer. If the segment will be transmitted immediately, we can
 247:../../Middlewares/Third_Party/LwIP/src/core/tcp_out.c ****      * save memory by allocating only length. We use a simple
 248:../../Middlewares/Third_Party/LwIP/src/core/tcp_out.c ****      * heuristic based on the following information:
 249:../../Middlewares/Third_Party/LwIP/src/core/tcp_out.c ****      *
 250:../../Middlewares/Third_Party/LwIP/src/core/tcp_out.c ****      * Did the user set TCP_WRITE_FLAG_MORE?
 251:../../Middlewares/Third_Party/LwIP/src/core/tcp_out.c ****      *
 252:../../Middlewares/Third_Party/LwIP/src/core/tcp_out.c ****      * Will the Nagle algorithm defer transmission of this segment?
 253:../../Middlewares/Third_Party/LwIP/src/core/tcp_out.c ****      */
 254:../../Middlewares/Third_Party/LwIP/src/core/tcp_out.c ****     if ((apiflags & TCP_WRITE_FLAG_MORE) ||
 255:../../Middlewares/Third_Party/LwIP/src/core/tcp_out.c ****         (!(pcb->flags & TF_NODELAY) &&
 256:../../Middlewares/Third_Party/LwIP/src/core/tcp_out.c ****          (!first_seg ||
 257:../../Middlewares/Third_Party/LwIP/src/core/tcp_out.c ****           pcb->unsent != NULL ||
 258:../../Middlewares/Third_Party/LwIP/src/core/tcp_out.c ****           pcb->unacked != NULL))) {
 259:../../Middlewares/Third_Party/LwIP/src/core/tcp_out.c ****       alloc = LWIP_MIN(max_length, LWIP_MEM_ALIGN_SIZE(TCP_OVERSIZE_CALC_LENGTH(length)));
 260:../../Middlewares/Third_Party/LwIP/src/core/tcp_out.c ****     }
 261:../../Middlewares/Third_Party/LwIP/src/core/tcp_out.c ****   }
 262:../../Middlewares/Third_Party/LwIP/src/core/tcp_out.c **** #endif /* LWIP_NETIF_TX_SINGLE_PBUF */
 263:../../Middlewares/Third_Party/LwIP/src/core/tcp_out.c ****   p = pbuf_alloc(layer, alloc, PBUF_RAM);
 264:../../Middlewares/Third_Party/LwIP/src/core/tcp_out.c ****   if (p == NULL) {
 265:../../Middlewares/Third_Party/LwIP/src/core/tcp_out.c ****     return NULL;
 266:../../Middlewares/Third_Party/LwIP/src/core/tcp_out.c ****   }
 267:../../Middlewares/Third_Party/LwIP/src/core/tcp_out.c ****   LWIP_ASSERT("need unchained pbuf", p->next == NULL);
 268:../../Middlewares/Third_Party/LwIP/src/core/tcp_out.c ****   *oversize = p->len - length;
 269:../../Middlewares/Third_Party/LwIP/src/core/tcp_out.c ****   /* trim p->len to the currently used size */
 270:../../Middlewares/Third_Party/LwIP/src/core/tcp_out.c ****   p->len = p->tot_len = length;
 271:../../Middlewares/Third_Party/LwIP/src/core/tcp_out.c ****   return p;
 272:../../Middlewares/Third_Party/LwIP/src/core/tcp_out.c **** }
 273:../../Middlewares/Third_Party/LwIP/src/core/tcp_out.c **** #else /* TCP_OVERSIZE */
 274:../../Middlewares/Third_Party/LwIP/src/core/tcp_out.c **** #define tcp_pbuf_prealloc(layer, length, mx, os, pcb, api, fst) pbuf_alloc((layer), (length), PBUF_
 275:../../Middlewares/Third_Party/LwIP/src/core/tcp_out.c **** #endif /* TCP_OVERSIZE */
 276:../../Middlewares/Third_Party/LwIP/src/core/tcp_out.c **** 
 277:../../Middlewares/Third_Party/LwIP/src/core/tcp_out.c **** #if TCP_CHECKSUM_ON_COPY
 278:../../Middlewares/Third_Party/LwIP/src/core/tcp_out.c **** /** Add a checksum of newly added data to the segment.
ARM GAS  C:\Users\minis\AppData\Local\Temp\cc2ZMwrX.s 			page 7


 279:../../Middlewares/Third_Party/LwIP/src/core/tcp_out.c ****  *
 280:../../Middlewares/Third_Party/LwIP/src/core/tcp_out.c ****  * Called by tcp_write and tcp_split_unsent_seg.
 281:../../Middlewares/Third_Party/LwIP/src/core/tcp_out.c ****  */
 282:../../Middlewares/Third_Party/LwIP/src/core/tcp_out.c **** static void
 283:../../Middlewares/Third_Party/LwIP/src/core/tcp_out.c **** tcp_seg_add_chksum(u16_t chksum, u16_t len, u16_t *seg_chksum,
 284:../../Middlewares/Third_Party/LwIP/src/core/tcp_out.c ****                    u8_t *seg_chksum_swapped)
 285:../../Middlewares/Third_Party/LwIP/src/core/tcp_out.c **** {
 286:../../Middlewares/Third_Party/LwIP/src/core/tcp_out.c ****   u32_t helper;
 287:../../Middlewares/Third_Party/LwIP/src/core/tcp_out.c ****   /* add chksum to old chksum and fold to u16_t */
 288:../../Middlewares/Third_Party/LwIP/src/core/tcp_out.c ****   helper = chksum + *seg_chksum;
 289:../../Middlewares/Third_Party/LwIP/src/core/tcp_out.c ****   chksum = FOLD_U32T(helper);
 290:../../Middlewares/Third_Party/LwIP/src/core/tcp_out.c ****   if ((len & 1) != 0) {
 291:../../Middlewares/Third_Party/LwIP/src/core/tcp_out.c ****     *seg_chksum_swapped = 1 - *seg_chksum_swapped;
 292:../../Middlewares/Third_Party/LwIP/src/core/tcp_out.c ****     chksum = SWAP_BYTES_IN_WORD(chksum);
 293:../../Middlewares/Third_Party/LwIP/src/core/tcp_out.c ****   }
 294:../../Middlewares/Third_Party/LwIP/src/core/tcp_out.c ****   *seg_chksum = chksum;
 295:../../Middlewares/Third_Party/LwIP/src/core/tcp_out.c **** }
 296:../../Middlewares/Third_Party/LwIP/src/core/tcp_out.c **** #endif /* TCP_CHECKSUM_ON_COPY */
 297:../../Middlewares/Third_Party/LwIP/src/core/tcp_out.c **** 
 298:../../Middlewares/Third_Party/LwIP/src/core/tcp_out.c **** /** Checks if tcp_write is allowed or not (checks state, snd_buf and snd_queuelen).
 299:../../Middlewares/Third_Party/LwIP/src/core/tcp_out.c ****  *
 300:../../Middlewares/Third_Party/LwIP/src/core/tcp_out.c ****  * @param pcb the tcp pcb to check for
 301:../../Middlewares/Third_Party/LwIP/src/core/tcp_out.c ****  * @param len length of data to send (checked agains snd_buf)
 302:../../Middlewares/Third_Party/LwIP/src/core/tcp_out.c ****  * @return ERR_OK if tcp_write is allowed to proceed, another err_t otherwise
 303:../../Middlewares/Third_Party/LwIP/src/core/tcp_out.c ****  */
 304:../../Middlewares/Third_Party/LwIP/src/core/tcp_out.c **** static err_t
 305:../../Middlewares/Third_Party/LwIP/src/core/tcp_out.c **** tcp_write_checks(struct tcp_pcb *pcb, u16_t len)
 306:../../Middlewares/Third_Party/LwIP/src/core/tcp_out.c **** {
  45              		.loc 1 306 1 view -0
  46              		.cfi_startproc
  47              		@ args = 0, pretend = 0, frame = 0
  48              		@ frame_needed = 0, uses_anonymous_args = 0
  49              		.loc 1 306 1 is_stmt 0 view .LVU1
  50 0000 38B5     		push	{r3, r4, r5, lr}
  51              	.LCFI0:
  52              		.cfi_def_cfa_offset 16
  53              		.cfi_offset 3, -16
  54              		.cfi_offset 4, -12
  55              		.cfi_offset 5, -8
  56              		.cfi_offset 14, -4
  57 0002 0C46     		mov	r4, r1
 307:../../Middlewares/Third_Party/LwIP/src/core/tcp_out.c ****   LWIP_ASSERT("tcp_write_checks: invalid pcb", pcb != NULL);
  58              		.loc 1 307 3 is_stmt 1 view .LVU2
  59              		.loc 1 307 3 view .LVU3
  60 0004 0546     		mov	r5, r0
  61 0006 B8B1     		cbz	r0, .L15
  62              	.LVL1:
  63              	.L2:
  64              		.loc 1 307 3 view .LVU4
  65              		.loc 1 307 3 view .LVU5
 308:../../Middlewares/Third_Party/LwIP/src/core/tcp_out.c **** 
 309:../../Middlewares/Third_Party/LwIP/src/core/tcp_out.c ****   /* connection is in invalid state for data transmission? */
 310:../../Middlewares/Third_Party/LwIP/src/core/tcp_out.c ****   if ((pcb->state != ESTABLISHED) &&
  66              		.loc 1 310 3 view .LVU6
  67              		.loc 1 310 11 is_stmt 0 view .LVU7
  68 0008 2B7D     		ldrb	r3, [r5, #20]	@ zero_extendqisi2
  69              		.loc 1 310 6 view .LVU8
ARM GAS  C:\Users\minis\AppData\Local\Temp\cc2ZMwrX.s 			page 8


  70 000a 042B     		cmp	r3, #4
  71 000c 18BF     		it	ne
  72 000e 072B     		cmpne	r3, #7
  73 0010 03D0     		beq	.L3
 311:../../Middlewares/Third_Party/LwIP/src/core/tcp_out.c ****       (pcb->state != CLOSE_WAIT) &&
  74              		.loc 1 311 34 view .LVU9
  75 0012 022B     		cmp	r3, #2
  76 0014 01D0     		beq	.L3
 312:../../Middlewares/Third_Party/LwIP/src/core/tcp_out.c ****       (pcb->state != SYN_SENT) &&
  77              		.loc 1 312 32 view .LVU10
  78 0016 032B     		cmp	r3, #3
  79 0018 41D1     		bne	.L9
  80              	.L3:
 313:../../Middlewares/Third_Party/LwIP/src/core/tcp_out.c ****       (pcb->state != SYN_RCVD)) {
 314:../../Middlewares/Third_Party/LwIP/src/core/tcp_out.c ****     LWIP_DEBUGF(TCP_OUTPUT_DEBUG | LWIP_DBG_STATE | LWIP_DBG_LEVEL_SEVERE, ("tcp_write() called in 
 315:../../Middlewares/Third_Party/LwIP/src/core/tcp_out.c ****     return ERR_CONN;
 316:../../Middlewares/Third_Party/LwIP/src/core/tcp_out.c ****   } else if (len == 0) {
  81              		.loc 1 316 10 is_stmt 1 view .LVU11
  82              		.loc 1 316 13 is_stmt 0 view .LVU12
  83 001a 002C     		cmp	r4, #0
  84 001c 42D0     		beq	.L10
 317:../../Middlewares/Third_Party/LwIP/src/core/tcp_out.c ****     return ERR_OK;
 318:../../Middlewares/Third_Party/LwIP/src/core/tcp_out.c ****   }
 319:../../Middlewares/Third_Party/LwIP/src/core/tcp_out.c **** 
 320:../../Middlewares/Third_Party/LwIP/src/core/tcp_out.c ****   /* fail on too much data */
 321:../../Middlewares/Third_Party/LwIP/src/core/tcp_out.c ****   if (len > pcb->snd_buf) {
  85              		.loc 1 321 3 is_stmt 1 view .LVU13
  86              		.loc 1 321 16 is_stmt 0 view .LVU14
  87 001e B5F86430 		ldrh	r3, [r5, #100]
  88              		.loc 1 321 6 view .LVU15
  89 0022 A342     		cmp	r3, r4
  90 0024 10D3     		bcc	.L16
 322:../../Middlewares/Third_Party/LwIP/src/core/tcp_out.c ****     LWIP_DEBUGF(TCP_OUTPUT_DEBUG | LWIP_DBG_LEVEL_SEVERE, ("tcp_write: too much data (len=%"U16_F" 
 323:../../Middlewares/Third_Party/LwIP/src/core/tcp_out.c ****                 len, pcb->snd_buf));
 324:../../Middlewares/Third_Party/LwIP/src/core/tcp_out.c ****     tcp_set_flags(pcb, TF_NAGLEMEMERR);
 325:../../Middlewares/Third_Party/LwIP/src/core/tcp_out.c ****     return ERR_MEM;
 326:../../Middlewares/Third_Party/LwIP/src/core/tcp_out.c ****   }
 327:../../Middlewares/Third_Party/LwIP/src/core/tcp_out.c **** 
 328:../../Middlewares/Third_Party/LwIP/src/core/tcp_out.c ****   LWIP_DEBUGF(TCP_QLEN_DEBUG, ("tcp_write: queuelen: %"TCPWNDSIZE_F"\n", (tcpwnd_size_t)pcb->snd_qu
  91              		.loc 1 328 108 is_stmt 1 view .LVU16
 329:../../Middlewares/Third_Party/LwIP/src/core/tcp_out.c **** 
 330:../../Middlewares/Third_Party/LwIP/src/core/tcp_out.c ****   /* If total number of pbufs on the unsent/unacked queues exceeds the
 331:../../Middlewares/Third_Party/LwIP/src/core/tcp_out.c ****    * configured maximum, return an error */
 332:../../Middlewares/Third_Party/LwIP/src/core/tcp_out.c ****   /* check for configured max queuelen and possible overflow */
 333:../../Middlewares/Third_Party/LwIP/src/core/tcp_out.c ****   if (pcb->snd_queuelen >= LWIP_MIN(TCP_SND_QUEUELEN, (TCP_SNDQUEUELEN_OVERFLOW + 1))) {
  92              		.loc 1 333 3 view .LVU17
  93              		.loc 1 333 10 is_stmt 0 view .LVU18
  94 0026 B5F86630 		ldrh	r3, [r5, #102]
  95              		.loc 1 333 6 view .LVU19
  96 002a 0F2B     		cmp	r3, #15
  97 002c 13D8     		bhi	.L17
 334:../../Middlewares/Third_Party/LwIP/src/core/tcp_out.c ****     LWIP_DEBUGF(TCP_OUTPUT_DEBUG | LWIP_DBG_LEVEL_SEVERE, ("tcp_write: too long queue %"U16_F" (max
 335:../../Middlewares/Third_Party/LwIP/src/core/tcp_out.c ****                 pcb->snd_queuelen, (u16_t)TCP_SND_QUEUELEN));
 336:../../Middlewares/Third_Party/LwIP/src/core/tcp_out.c ****     TCP_STATS_INC(tcp.memerr);
 337:../../Middlewares/Third_Party/LwIP/src/core/tcp_out.c ****     tcp_set_flags(pcb, TF_NAGLEMEMERR);
 338:../../Middlewares/Third_Party/LwIP/src/core/tcp_out.c ****     return ERR_MEM;
 339:../../Middlewares/Third_Party/LwIP/src/core/tcp_out.c ****   }
ARM GAS  C:\Users\minis\AppData\Local\Temp\cc2ZMwrX.s 			page 9


 340:../../Middlewares/Third_Party/LwIP/src/core/tcp_out.c ****   if (pcb->snd_queuelen != 0) {
  98              		.loc 1 340 3 is_stmt 1 view .LVU20
  99              		.loc 1 340 6 is_stmt 0 view .LVU21
 100 002e 33B3     		cbz	r3, .L7
 341:../../Middlewares/Third_Party/LwIP/src/core/tcp_out.c ****     LWIP_ASSERT("tcp_write: pbufs on queue => at least one queue non-empty",
 101              		.loc 1 341 5 is_stmt 1 view .LVU22
 102              		.loc 1 341 5 view .LVU23
 103 0030 2B6F     		ldr	r3, [r5, #112]
 104 0032 BBB1     		cbz	r3, .L18
 342:../../Middlewares/Third_Party/LwIP/src/core/tcp_out.c ****                 pcb->unacked != NULL || pcb->unsent != NULL);
 343:../../Middlewares/Third_Party/LwIP/src/core/tcp_out.c ****   } else {
 344:../../Middlewares/Third_Party/LwIP/src/core/tcp_out.c ****     LWIP_ASSERT("tcp_write: no pbufs on queue => both queues empty",
 345:../../Middlewares/Third_Party/LwIP/src/core/tcp_out.c ****                 pcb->unacked == NULL && pcb->unsent == NULL);
 346:../../Middlewares/Third_Party/LwIP/src/core/tcp_out.c ****   }
 347:../../Middlewares/Third_Party/LwIP/src/core/tcp_out.c ****   return ERR_OK;
 105              		.loc 1 347 10 is_stmt 0 view .LVU24
 106 0034 0020     		movs	r0, #0
 107 0036 36E0     		b	.L4
 108              	.LVL2:
 109              	.L15:
 307:../../Middlewares/Third_Party/LwIP/src/core/tcp_out.c **** 
 110              		.loc 1 307 3 is_stmt 1 discriminator 1 view .LVU25
 307:../../Middlewares/Third_Party/LwIP/src/core/tcp_out.c **** 
 111              		.loc 1 307 3 discriminator 1 view .LVU26
 112 0038 1B4B     		ldr	r3, .L21
 113 003a 40F23312 		movw	r2, #307
 114 003e 1B49     		ldr	r1, .L21+4
 115              	.LVL3:
 307:../../Middlewares/Third_Party/LwIP/src/core/tcp_out.c **** 
 116              		.loc 1 307 3 is_stmt 0 discriminator 1 view .LVU27
 117 0040 1B48     		ldr	r0, .L21+8
 118              	.LVL4:
 307:../../Middlewares/Third_Party/LwIP/src/core/tcp_out.c **** 
 119              		.loc 1 307 3 discriminator 1 view .LVU28
 120 0042 FFF7FEFF 		bl	printf
 121              	.LVL5:
 122 0046 DFE7     		b	.L2
 123              	.L16:
 323:../../Middlewares/Third_Party/LwIP/src/core/tcp_out.c ****     tcp_set_flags(pcb, TF_NAGLEMEMERR);
 124              		.loc 1 323 36 is_stmt 1 view .LVU29
 324:../../Middlewares/Third_Party/LwIP/src/core/tcp_out.c ****     return ERR_MEM;
 125              		.loc 1 324 5 view .LVU30
 324:../../Middlewares/Third_Party/LwIP/src/core/tcp_out.c ****     return ERR_MEM;
 126              		.loc 1 324 5 view .LVU31
 127 0048 6B8B     		ldrh	r3, [r5, #26]
 128 004a 43F08003 		orr	r3, r3, #128
 129 004e 6B83     		strh	r3, [r5, #26]	@ movhi
 324:../../Middlewares/Third_Party/LwIP/src/core/tcp_out.c ****     return ERR_MEM;
 130              		.loc 1 324 5 view .LVU32
 325:../../Middlewares/Third_Party/LwIP/src/core/tcp_out.c ****   }
 131              		.loc 1 325 5 view .LVU33
 325:../../Middlewares/Third_Party/LwIP/src/core/tcp_out.c ****   }
 132              		.loc 1 325 12 is_stmt 0 view .LVU34
 133 0050 4FF0FF30 		mov	r0, #-1
 134 0054 27E0     		b	.L4
 135              	.L17:
 335:../../Middlewares/Third_Party/LwIP/src/core/tcp_out.c ****     TCP_STATS_INC(tcp.memerr);
ARM GAS  C:\Users\minis\AppData\Local\Temp\cc2ZMwrX.s 			page 10


 136              		.loc 1 335 61 is_stmt 1 view .LVU35
 336:../../Middlewares/Third_Party/LwIP/src/core/tcp_out.c ****     tcp_set_flags(pcb, TF_NAGLEMEMERR);
 137              		.loc 1 336 30 view .LVU36
 337:../../Middlewares/Third_Party/LwIP/src/core/tcp_out.c ****     return ERR_MEM;
 138              		.loc 1 337 5 view .LVU37
 337:../../Middlewares/Third_Party/LwIP/src/core/tcp_out.c ****     return ERR_MEM;
 139              		.loc 1 337 5 view .LVU38
 140 0056 6B8B     		ldrh	r3, [r5, #26]
 141 0058 43F08003 		orr	r3, r3, #128
 142 005c 6B83     		strh	r3, [r5, #26]	@ movhi
 337:../../Middlewares/Third_Party/LwIP/src/core/tcp_out.c ****     return ERR_MEM;
 143              		.loc 1 337 5 view .LVU39
 338:../../Middlewares/Third_Party/LwIP/src/core/tcp_out.c ****   }
 144              		.loc 1 338 5 view .LVU40
 338:../../Middlewares/Third_Party/LwIP/src/core/tcp_out.c ****   }
 145              		.loc 1 338 12 is_stmt 0 view .LVU41
 146 005e 4FF0FF30 		mov	r0, #-1
 147 0062 20E0     		b	.L4
 148              	.L18:
 341:../../Middlewares/Third_Party/LwIP/src/core/tcp_out.c ****                 pcb->unacked != NULL || pcb->unsent != NULL);
 149              		.loc 1 341 5 discriminator 1 view .LVU42
 150 0064 EB6E     		ldr	r3, [r5, #108]
 151 0066 0BB1     		cbz	r3, .L19
 152              		.loc 1 347 10 view .LVU43
 153 0068 0020     		movs	r0, #0
 154 006a 1CE0     		b	.L4
 155              	.L19:
 341:../../Middlewares/Third_Party/LwIP/src/core/tcp_out.c ****                 pcb->unacked != NULL || pcb->unsent != NULL);
 156              		.loc 1 341 5 is_stmt 1 discriminator 2 view .LVU44
 341:../../Middlewares/Third_Party/LwIP/src/core/tcp_out.c ****                 pcb->unacked != NULL || pcb->unsent != NULL);
 157              		.loc 1 341 5 discriminator 2 view .LVU45
 158 006c 0E4B     		ldr	r3, .L21
 159 006e 40F25512 		movw	r2, #341
 160 0072 1049     		ldr	r1, .L21+12
 161 0074 0E48     		ldr	r0, .L21+8
 162 0076 FFF7FEFF 		bl	printf
 163              	.LVL6:
 164              		.loc 1 347 10 is_stmt 0 view .LVU46
 165 007a 0020     		movs	r0, #0
 166 007c 13E0     		b	.L4
 167              	.L7:
 344:../../Middlewares/Third_Party/LwIP/src/core/tcp_out.c ****                 pcb->unacked == NULL && pcb->unsent == NULL);
 168              		.loc 1 344 5 is_stmt 1 view .LVU47
 344:../../Middlewares/Third_Party/LwIP/src/core/tcp_out.c ****                 pcb->unacked == NULL && pcb->unsent == NULL);
 169              		.loc 1 344 5 view .LVU48
 170 007e 2B6F     		ldr	r3, [r5, #112]
 171 0080 43B1     		cbz	r3, .L20
 172              	.L8:
 344:../../Middlewares/Third_Party/LwIP/src/core/tcp_out.c ****                 pcb->unacked == NULL && pcb->unsent == NULL);
 173              		.loc 1 344 5 discriminator 3 view .LVU49
 344:../../Middlewares/Third_Party/LwIP/src/core/tcp_out.c ****                 pcb->unacked == NULL && pcb->unsent == NULL);
 174              		.loc 1 344 5 discriminator 3 view .LVU50
 175 0082 094B     		ldr	r3, .L21
 176 0084 4FF4AC72 		mov	r2, #344
 177 0088 0B49     		ldr	r1, .L21+16
 178 008a 0948     		ldr	r0, .L21+8
 179 008c FFF7FEFF 		bl	printf
ARM GAS  C:\Users\minis\AppData\Local\Temp\cc2ZMwrX.s 			page 11


 180              	.LVL7:
 181              		.loc 1 347 10 is_stmt 0 view .LVU51
 182 0090 0020     		movs	r0, #0
 183 0092 08E0     		b	.L4
 184              	.L20:
 344:../../Middlewares/Third_Party/LwIP/src/core/tcp_out.c ****                 pcb->unacked == NULL && pcb->unsent == NULL);
 185              		.loc 1 344 5 discriminator 2 view .LVU52
 186 0094 EB6E     		ldr	r3, [r5, #108]
 187 0096 002B     		cmp	r3, #0
 188 0098 F3D1     		bne	.L8
 189              		.loc 1 347 10 view .LVU53
 190 009a 0020     		movs	r0, #0
 191 009c 03E0     		b	.L4
 192              	.L9:
 315:../../Middlewares/Third_Party/LwIP/src/core/tcp_out.c ****   } else if (len == 0) {
 193              		.loc 1 315 12 view .LVU54
 194 009e 6FF00A00 		mvn	r0, #10
 195 00a2 00E0     		b	.L4
 196              	.L10:
 317:../../Middlewares/Third_Party/LwIP/src/core/tcp_out.c ****   }
 197              		.loc 1 317 12 view .LVU55
 198 00a4 0020     		movs	r0, #0
 199              	.L4:
 348:../../Middlewares/Third_Party/LwIP/src/core/tcp_out.c **** }
 200              		.loc 1 348 1 view .LVU56
 201 00a6 38BD     		pop	{r3, r4, r5, pc}
 202              	.LVL8:
 203              	.L22:
 204              		.loc 1 348 1 view .LVU57
 205              		.align	2
 206              	.L21:
 207 00a8 00000000 		.word	.LC0
 208 00ac 38000000 		.word	.LC1
 209 00b0 58000000 		.word	.LC2
 210 00b4 80000000 		.word	.LC3
 211 00b8 BC000000 		.word	.LC4
 212              		.cfi_endproc
 213              	.LFE173:
 215              		.section	.rodata.tcp_output_segment_busy.str1.4,"aMS",%progbits,1
 216              		.align	2
 217              	.LC5:
 218 0000 7463705F 		.ascii	"tcp_output_segment_busy: invalid seg\000"
 218      6F757470 
 218      75745F73 
 218      65676D65 
 218      6E745F62 
 219              		.section	.text.tcp_output_segment_busy,"ax",%progbits
 220              		.align	1
 221              		.syntax unified
 222              		.thumb
 223              		.thumb_func
 225              	tcp_output_segment_busy:
 226              	.LVL9:
 227              	.LFB179:
 349:../../Middlewares/Third_Party/LwIP/src/core/tcp_out.c **** 
 350:../../Middlewares/Third_Party/LwIP/src/core/tcp_out.c **** /**
 351:../../Middlewares/Third_Party/LwIP/src/core/tcp_out.c ****  * @ingroup tcp_raw
ARM GAS  C:\Users\minis\AppData\Local\Temp\cc2ZMwrX.s 			page 12


 352:../../Middlewares/Third_Party/LwIP/src/core/tcp_out.c ****  * Write data for sending (but does not send it immediately).
 353:../../Middlewares/Third_Party/LwIP/src/core/tcp_out.c ****  *
 354:../../Middlewares/Third_Party/LwIP/src/core/tcp_out.c ****  * It waits in the expectation of more data being sent soon (as
 355:../../Middlewares/Third_Party/LwIP/src/core/tcp_out.c ****  * it can send them more efficiently by combining them together).
 356:../../Middlewares/Third_Party/LwIP/src/core/tcp_out.c ****  * To prompt the system to send data now, call tcp_output() after
 357:../../Middlewares/Third_Party/LwIP/src/core/tcp_out.c ****  * calling tcp_write().
 358:../../Middlewares/Third_Party/LwIP/src/core/tcp_out.c ****  * 
 359:../../Middlewares/Third_Party/LwIP/src/core/tcp_out.c ****  * This function enqueues the data pointed to by the argument dataptr. The length of
 360:../../Middlewares/Third_Party/LwIP/src/core/tcp_out.c ****  * the data is passed as the len parameter. The apiflags can be one or more of:
 361:../../Middlewares/Third_Party/LwIP/src/core/tcp_out.c ****  * - TCP_WRITE_FLAG_COPY: indicates whether the new memory should be allocated
 362:../../Middlewares/Third_Party/LwIP/src/core/tcp_out.c ****  *   for the data to be copied into. If this flag is not given, no new memory
 363:../../Middlewares/Third_Party/LwIP/src/core/tcp_out.c ****  *   should be allocated and the data should only be referenced by pointer. This
 364:../../Middlewares/Third_Party/LwIP/src/core/tcp_out.c ****  *   also means that the memory behind dataptr must not change until the data is
 365:../../Middlewares/Third_Party/LwIP/src/core/tcp_out.c ****  *   ACKed by the remote host
 366:../../Middlewares/Third_Party/LwIP/src/core/tcp_out.c ****  * - TCP_WRITE_FLAG_MORE: indicates that more data follows. If this is omitted,
 367:../../Middlewares/Third_Party/LwIP/src/core/tcp_out.c ****  *   the PSH flag is set in the last segment created by this call to tcp_write.
 368:../../Middlewares/Third_Party/LwIP/src/core/tcp_out.c ****  *   If this flag is given, the PSH flag is not set.
 369:../../Middlewares/Third_Party/LwIP/src/core/tcp_out.c ****  *
 370:../../Middlewares/Third_Party/LwIP/src/core/tcp_out.c ****  * The tcp_write() function will fail and return ERR_MEM if the length
 371:../../Middlewares/Third_Party/LwIP/src/core/tcp_out.c ****  * of the data exceeds the current send buffer size or if the length of
 372:../../Middlewares/Third_Party/LwIP/src/core/tcp_out.c ****  * the queue of outgoing segment is larger than the upper limit defined
 373:../../Middlewares/Third_Party/LwIP/src/core/tcp_out.c ****  * in lwipopts.h. The number of bytes available in the output queue can
 374:../../Middlewares/Third_Party/LwIP/src/core/tcp_out.c ****  * be retrieved with the tcp_sndbuf() function.
 375:../../Middlewares/Third_Party/LwIP/src/core/tcp_out.c ****  *
 376:../../Middlewares/Third_Party/LwIP/src/core/tcp_out.c ****  * The proper way to use this function is to call the function with at
 377:../../Middlewares/Third_Party/LwIP/src/core/tcp_out.c ****  * most tcp_sndbuf() bytes of data. If the function returns ERR_MEM,
 378:../../Middlewares/Third_Party/LwIP/src/core/tcp_out.c ****  * the application should wait until some of the currently enqueued
 379:../../Middlewares/Third_Party/LwIP/src/core/tcp_out.c ****  * data has been successfully received by the other host and try again.
 380:../../Middlewares/Third_Party/LwIP/src/core/tcp_out.c ****  *
 381:../../Middlewares/Third_Party/LwIP/src/core/tcp_out.c ****  * @param pcb Protocol control block for the TCP connection to enqueue data for.
 382:../../Middlewares/Third_Party/LwIP/src/core/tcp_out.c ****  * @param arg Pointer to the data to be enqueued for sending.
 383:../../Middlewares/Third_Party/LwIP/src/core/tcp_out.c ****  * @param len Data length in bytes
 384:../../Middlewares/Third_Party/LwIP/src/core/tcp_out.c ****  * @param apiflags combination of following flags :
 385:../../Middlewares/Third_Party/LwIP/src/core/tcp_out.c ****  * - TCP_WRITE_FLAG_COPY (0x01) data will be copied into memory belonging to the stack
 386:../../Middlewares/Third_Party/LwIP/src/core/tcp_out.c ****  * - TCP_WRITE_FLAG_MORE (0x02) for TCP connection, PSH flag will not be set on last segment sent,
 387:../../Middlewares/Third_Party/LwIP/src/core/tcp_out.c ****  * @return ERR_OK if enqueued, another err_t on error
 388:../../Middlewares/Third_Party/LwIP/src/core/tcp_out.c ****  */
 389:../../Middlewares/Third_Party/LwIP/src/core/tcp_out.c **** err_t
 390:../../Middlewares/Third_Party/LwIP/src/core/tcp_out.c **** tcp_write(struct tcp_pcb *pcb, const void *arg, u16_t len, u8_t apiflags)
 391:../../Middlewares/Third_Party/LwIP/src/core/tcp_out.c **** {
 392:../../Middlewares/Third_Party/LwIP/src/core/tcp_out.c ****   struct pbuf *concat_p = NULL;
 393:../../Middlewares/Third_Party/LwIP/src/core/tcp_out.c ****   struct tcp_seg *last_unsent = NULL, *seg = NULL, *prev_seg = NULL, *queue = NULL;
 394:../../Middlewares/Third_Party/LwIP/src/core/tcp_out.c ****   u16_t pos = 0; /* position in 'arg' data */
 395:../../Middlewares/Third_Party/LwIP/src/core/tcp_out.c ****   u16_t queuelen;
 396:../../Middlewares/Third_Party/LwIP/src/core/tcp_out.c ****   u8_t optlen;
 397:../../Middlewares/Third_Party/LwIP/src/core/tcp_out.c ****   u8_t optflags = 0;
 398:../../Middlewares/Third_Party/LwIP/src/core/tcp_out.c **** #if TCP_OVERSIZE
 399:../../Middlewares/Third_Party/LwIP/src/core/tcp_out.c ****   u16_t oversize = 0;
 400:../../Middlewares/Third_Party/LwIP/src/core/tcp_out.c ****   u16_t oversize_used = 0;
 401:../../Middlewares/Third_Party/LwIP/src/core/tcp_out.c **** #if TCP_OVERSIZE_DBGCHECK
 402:../../Middlewares/Third_Party/LwIP/src/core/tcp_out.c ****   u16_t oversize_add = 0;
 403:../../Middlewares/Third_Party/LwIP/src/core/tcp_out.c **** #endif /* TCP_OVERSIZE_DBGCHECK*/
 404:../../Middlewares/Third_Party/LwIP/src/core/tcp_out.c **** #endif /* TCP_OVERSIZE */
 405:../../Middlewares/Third_Party/LwIP/src/core/tcp_out.c ****   u16_t extendlen = 0;
 406:../../Middlewares/Third_Party/LwIP/src/core/tcp_out.c **** #if TCP_CHECKSUM_ON_COPY
 407:../../Middlewares/Third_Party/LwIP/src/core/tcp_out.c ****   u16_t concat_chksum = 0;
 408:../../Middlewares/Third_Party/LwIP/src/core/tcp_out.c ****   u8_t concat_chksum_swapped = 0;
ARM GAS  C:\Users\minis\AppData\Local\Temp\cc2ZMwrX.s 			page 13


 409:../../Middlewares/Third_Party/LwIP/src/core/tcp_out.c ****   u16_t concat_chksummed = 0;
 410:../../Middlewares/Third_Party/LwIP/src/core/tcp_out.c **** #endif /* TCP_CHECKSUM_ON_COPY */
 411:../../Middlewares/Third_Party/LwIP/src/core/tcp_out.c ****   err_t err;
 412:../../Middlewares/Third_Party/LwIP/src/core/tcp_out.c ****   u16_t mss_local;
 413:../../Middlewares/Third_Party/LwIP/src/core/tcp_out.c **** 
 414:../../Middlewares/Third_Party/LwIP/src/core/tcp_out.c ****   LWIP_ERROR("tcp_write: invalid pcb", pcb != NULL, return ERR_ARG);
 415:../../Middlewares/Third_Party/LwIP/src/core/tcp_out.c **** 
 416:../../Middlewares/Third_Party/LwIP/src/core/tcp_out.c ****   /* don't allocate segments bigger than half the maximum window we ever received */
 417:../../Middlewares/Third_Party/LwIP/src/core/tcp_out.c ****   mss_local = LWIP_MIN(pcb->mss, TCPWND_MIN16(pcb->snd_wnd_max / 2));
 418:../../Middlewares/Third_Party/LwIP/src/core/tcp_out.c ****   mss_local = mss_local ? mss_local : pcb->mss;
 419:../../Middlewares/Third_Party/LwIP/src/core/tcp_out.c **** 
 420:../../Middlewares/Third_Party/LwIP/src/core/tcp_out.c ****   LWIP_ASSERT_CORE_LOCKED();
 421:../../Middlewares/Third_Party/LwIP/src/core/tcp_out.c **** 
 422:../../Middlewares/Third_Party/LwIP/src/core/tcp_out.c **** #if LWIP_NETIF_TX_SINGLE_PBUF
 423:../../Middlewares/Third_Party/LwIP/src/core/tcp_out.c ****   /* Always copy to try to create single pbufs for TX */
 424:../../Middlewares/Third_Party/LwIP/src/core/tcp_out.c ****   apiflags |= TCP_WRITE_FLAG_COPY;
 425:../../Middlewares/Third_Party/LwIP/src/core/tcp_out.c **** #endif /* LWIP_NETIF_TX_SINGLE_PBUF */
 426:../../Middlewares/Third_Party/LwIP/src/core/tcp_out.c **** 
 427:../../Middlewares/Third_Party/LwIP/src/core/tcp_out.c ****   LWIP_DEBUGF(TCP_OUTPUT_DEBUG, ("tcp_write(pcb=%p, data=%p, len=%"U16_F", apiflags=%"U16_F")\n",
 428:../../Middlewares/Third_Party/LwIP/src/core/tcp_out.c ****                                  (void *)pcb, arg, len, (u16_t)apiflags));
 429:../../Middlewares/Third_Party/LwIP/src/core/tcp_out.c ****   LWIP_ERROR("tcp_write: arg == NULL (programmer violates API)",
 430:../../Middlewares/Third_Party/LwIP/src/core/tcp_out.c ****              arg != NULL, return ERR_ARG;);
 431:../../Middlewares/Third_Party/LwIP/src/core/tcp_out.c **** 
 432:../../Middlewares/Third_Party/LwIP/src/core/tcp_out.c ****   err = tcp_write_checks(pcb, len);
 433:../../Middlewares/Third_Party/LwIP/src/core/tcp_out.c ****   if (err != ERR_OK) {
 434:../../Middlewares/Third_Party/LwIP/src/core/tcp_out.c ****     return err;
 435:../../Middlewares/Third_Party/LwIP/src/core/tcp_out.c ****   }
 436:../../Middlewares/Third_Party/LwIP/src/core/tcp_out.c ****   queuelen = pcb->snd_queuelen;
 437:../../Middlewares/Third_Party/LwIP/src/core/tcp_out.c **** 
 438:../../Middlewares/Third_Party/LwIP/src/core/tcp_out.c **** #if LWIP_TCP_TIMESTAMPS
 439:../../Middlewares/Third_Party/LwIP/src/core/tcp_out.c ****   if ((pcb->flags & TF_TIMESTAMP)) {
 440:../../Middlewares/Third_Party/LwIP/src/core/tcp_out.c ****     /* Make sure the timestamp option is only included in data segments if we
 441:../../Middlewares/Third_Party/LwIP/src/core/tcp_out.c ****        agreed about it with the remote host. */
 442:../../Middlewares/Third_Party/LwIP/src/core/tcp_out.c ****     optflags = TF_SEG_OPTS_TS;
 443:../../Middlewares/Third_Party/LwIP/src/core/tcp_out.c ****     optlen = LWIP_TCP_OPT_LENGTH_SEGMENT(TF_SEG_OPTS_TS, pcb);
 444:../../Middlewares/Third_Party/LwIP/src/core/tcp_out.c ****     /* ensure that segments can hold at least one data byte... */
 445:../../Middlewares/Third_Party/LwIP/src/core/tcp_out.c ****     mss_local = LWIP_MAX(mss_local, LWIP_TCP_OPT_LEN_TS + 1);
 446:../../Middlewares/Third_Party/LwIP/src/core/tcp_out.c ****   } else
 447:../../Middlewares/Third_Party/LwIP/src/core/tcp_out.c **** #endif /* LWIP_TCP_TIMESTAMPS */
 448:../../Middlewares/Third_Party/LwIP/src/core/tcp_out.c ****   {
 449:../../Middlewares/Third_Party/LwIP/src/core/tcp_out.c ****     optlen = LWIP_TCP_OPT_LENGTH_SEGMENT(0, pcb);
 450:../../Middlewares/Third_Party/LwIP/src/core/tcp_out.c ****   }
 451:../../Middlewares/Third_Party/LwIP/src/core/tcp_out.c **** 
 452:../../Middlewares/Third_Party/LwIP/src/core/tcp_out.c **** 
 453:../../Middlewares/Third_Party/LwIP/src/core/tcp_out.c ****   /*
 454:../../Middlewares/Third_Party/LwIP/src/core/tcp_out.c ****    * TCP segmentation is done in three phases with increasing complexity:
 455:../../Middlewares/Third_Party/LwIP/src/core/tcp_out.c ****    *
 456:../../Middlewares/Third_Party/LwIP/src/core/tcp_out.c ****    * 1. Copy data directly into an oversized pbuf.
 457:../../Middlewares/Third_Party/LwIP/src/core/tcp_out.c ****    * 2. Chain a new pbuf to the end of pcb->unsent.
 458:../../Middlewares/Third_Party/LwIP/src/core/tcp_out.c ****    * 3. Create new segments.
 459:../../Middlewares/Third_Party/LwIP/src/core/tcp_out.c ****    *
 460:../../Middlewares/Third_Party/LwIP/src/core/tcp_out.c ****    * We may run out of memory at any point. In that case we must
 461:../../Middlewares/Third_Party/LwIP/src/core/tcp_out.c ****    * return ERR_MEM and not change anything in pcb. Therefore, all
 462:../../Middlewares/Third_Party/LwIP/src/core/tcp_out.c ****    * changes are recorded in local variables and committed at the end
 463:../../Middlewares/Third_Party/LwIP/src/core/tcp_out.c ****    * of the function. Some pcb fields are maintained in local copies:
 464:../../Middlewares/Third_Party/LwIP/src/core/tcp_out.c ****    *
 465:../../Middlewares/Third_Party/LwIP/src/core/tcp_out.c ****    * queuelen = pcb->snd_queuelen
ARM GAS  C:\Users\minis\AppData\Local\Temp\cc2ZMwrX.s 			page 14


 466:../../Middlewares/Third_Party/LwIP/src/core/tcp_out.c ****    * oversize = pcb->unsent_oversize
 467:../../Middlewares/Third_Party/LwIP/src/core/tcp_out.c ****    *
 468:../../Middlewares/Third_Party/LwIP/src/core/tcp_out.c ****    * These variables are set consistently by the phases:
 469:../../Middlewares/Third_Party/LwIP/src/core/tcp_out.c ****    *
 470:../../Middlewares/Third_Party/LwIP/src/core/tcp_out.c ****    * seg points to the last segment tampered with.
 471:../../Middlewares/Third_Party/LwIP/src/core/tcp_out.c ****    *
 472:../../Middlewares/Third_Party/LwIP/src/core/tcp_out.c ****    * pos records progress as data is segmented.
 473:../../Middlewares/Third_Party/LwIP/src/core/tcp_out.c ****    */
 474:../../Middlewares/Third_Party/LwIP/src/core/tcp_out.c **** 
 475:../../Middlewares/Third_Party/LwIP/src/core/tcp_out.c ****   /* Find the tail of the unsent queue. */
 476:../../Middlewares/Third_Party/LwIP/src/core/tcp_out.c ****   if (pcb->unsent != NULL) {
 477:../../Middlewares/Third_Party/LwIP/src/core/tcp_out.c ****     u16_t space;
 478:../../Middlewares/Third_Party/LwIP/src/core/tcp_out.c ****     u16_t unsent_optlen;
 479:../../Middlewares/Third_Party/LwIP/src/core/tcp_out.c **** 
 480:../../Middlewares/Third_Party/LwIP/src/core/tcp_out.c ****     /* @todo: this could be sped up by keeping last_unsent in the pcb */
 481:../../Middlewares/Third_Party/LwIP/src/core/tcp_out.c ****     for (last_unsent = pcb->unsent; last_unsent->next != NULL;
 482:../../Middlewares/Third_Party/LwIP/src/core/tcp_out.c ****          last_unsent = last_unsent->next);
 483:../../Middlewares/Third_Party/LwIP/src/core/tcp_out.c **** 
 484:../../Middlewares/Third_Party/LwIP/src/core/tcp_out.c ****     /* Usable space at the end of the last unsent segment */
 485:../../Middlewares/Third_Party/LwIP/src/core/tcp_out.c ****     unsent_optlen = LWIP_TCP_OPT_LENGTH_SEGMENT(last_unsent->flags, pcb);
 486:../../Middlewares/Third_Party/LwIP/src/core/tcp_out.c ****     LWIP_ASSERT("mss_local is too small", mss_local >= last_unsent->len + unsent_optlen);
 487:../../Middlewares/Third_Party/LwIP/src/core/tcp_out.c ****     space = mss_local - (last_unsent->len + unsent_optlen);
 488:../../Middlewares/Third_Party/LwIP/src/core/tcp_out.c **** 
 489:../../Middlewares/Third_Party/LwIP/src/core/tcp_out.c ****     /*
 490:../../Middlewares/Third_Party/LwIP/src/core/tcp_out.c ****      * Phase 1: Copy data directly into an oversized pbuf.
 491:../../Middlewares/Third_Party/LwIP/src/core/tcp_out.c ****      *
 492:../../Middlewares/Third_Party/LwIP/src/core/tcp_out.c ****      * The number of bytes copied is recorded in the oversize_used
 493:../../Middlewares/Third_Party/LwIP/src/core/tcp_out.c ****      * variable. The actual copying is done at the bottom of the
 494:../../Middlewares/Third_Party/LwIP/src/core/tcp_out.c ****      * function.
 495:../../Middlewares/Third_Party/LwIP/src/core/tcp_out.c ****      */
 496:../../Middlewares/Third_Party/LwIP/src/core/tcp_out.c **** #if TCP_OVERSIZE
 497:../../Middlewares/Third_Party/LwIP/src/core/tcp_out.c **** #if TCP_OVERSIZE_DBGCHECK
 498:../../Middlewares/Third_Party/LwIP/src/core/tcp_out.c ****     /* check that pcb->unsent_oversize matches last_unsent->oversize_left */
 499:../../Middlewares/Third_Party/LwIP/src/core/tcp_out.c ****     LWIP_ASSERT("unsent_oversize mismatch (pcb vs. last_unsent)",
 500:../../Middlewares/Third_Party/LwIP/src/core/tcp_out.c ****                 pcb->unsent_oversize == last_unsent->oversize_left);
 501:../../Middlewares/Third_Party/LwIP/src/core/tcp_out.c **** #endif /* TCP_OVERSIZE_DBGCHECK */
 502:../../Middlewares/Third_Party/LwIP/src/core/tcp_out.c ****     oversize = pcb->unsent_oversize;
 503:../../Middlewares/Third_Party/LwIP/src/core/tcp_out.c ****     if (oversize > 0) {
 504:../../Middlewares/Third_Party/LwIP/src/core/tcp_out.c ****       LWIP_ASSERT("inconsistent oversize vs. space", oversize <= space);
 505:../../Middlewares/Third_Party/LwIP/src/core/tcp_out.c ****       seg = last_unsent;
 506:../../Middlewares/Third_Party/LwIP/src/core/tcp_out.c ****       oversize_used = LWIP_MIN(space, LWIP_MIN(oversize, len));
 507:../../Middlewares/Third_Party/LwIP/src/core/tcp_out.c ****       pos += oversize_used;
 508:../../Middlewares/Third_Party/LwIP/src/core/tcp_out.c ****       oversize -= oversize_used;
 509:../../Middlewares/Third_Party/LwIP/src/core/tcp_out.c ****       space -= oversize_used;
 510:../../Middlewares/Third_Party/LwIP/src/core/tcp_out.c ****     }
 511:../../Middlewares/Third_Party/LwIP/src/core/tcp_out.c ****     /* now we are either finished or oversize is zero */
 512:../../Middlewares/Third_Party/LwIP/src/core/tcp_out.c ****     LWIP_ASSERT("inconsistent oversize vs. len", (oversize == 0) || (pos == len));
 513:../../Middlewares/Third_Party/LwIP/src/core/tcp_out.c **** #endif /* TCP_OVERSIZE */
 514:../../Middlewares/Third_Party/LwIP/src/core/tcp_out.c **** 
 515:../../Middlewares/Third_Party/LwIP/src/core/tcp_out.c **** #if !LWIP_NETIF_TX_SINGLE_PBUF
 516:../../Middlewares/Third_Party/LwIP/src/core/tcp_out.c ****     /*
 517:../../Middlewares/Third_Party/LwIP/src/core/tcp_out.c ****      * Phase 2: Chain a new pbuf to the end of pcb->unsent.
 518:../../Middlewares/Third_Party/LwIP/src/core/tcp_out.c ****      *
 519:../../Middlewares/Third_Party/LwIP/src/core/tcp_out.c ****      * As an exception when NOT copying the data, if the given data buffer
 520:../../Middlewares/Third_Party/LwIP/src/core/tcp_out.c ****      * directly follows the last unsent data buffer in memory, extend the last
 521:../../Middlewares/Third_Party/LwIP/src/core/tcp_out.c ****      * ROM pbuf reference to the buffer, thus saving a ROM pbuf allocation.
 522:../../Middlewares/Third_Party/LwIP/src/core/tcp_out.c ****      *
ARM GAS  C:\Users\minis\AppData\Local\Temp\cc2ZMwrX.s 			page 15


 523:../../Middlewares/Third_Party/LwIP/src/core/tcp_out.c ****      * We don't extend segments containing SYN/FIN flags or options
 524:../../Middlewares/Third_Party/LwIP/src/core/tcp_out.c ****      * (len==0). The new pbuf is kept in concat_p and pbuf_cat'ed at
 525:../../Middlewares/Third_Party/LwIP/src/core/tcp_out.c ****      * the end.
 526:../../Middlewares/Third_Party/LwIP/src/core/tcp_out.c ****      *
 527:../../Middlewares/Third_Party/LwIP/src/core/tcp_out.c ****      * This phase is skipped for LWIP_NETIF_TX_SINGLE_PBUF as we could only execute
 528:../../Middlewares/Third_Party/LwIP/src/core/tcp_out.c ****      * it after rexmit puts a segment from unacked to unsent and at this point,
 529:../../Middlewares/Third_Party/LwIP/src/core/tcp_out.c ****      * oversize info is lost.
 530:../../Middlewares/Third_Party/LwIP/src/core/tcp_out.c ****      */
 531:../../Middlewares/Third_Party/LwIP/src/core/tcp_out.c ****     if ((pos < len) && (space > 0) && (last_unsent->len > 0)) {
 532:../../Middlewares/Third_Party/LwIP/src/core/tcp_out.c ****       u16_t seglen = LWIP_MIN(space, len - pos);
 533:../../Middlewares/Third_Party/LwIP/src/core/tcp_out.c ****       seg = last_unsent;
 534:../../Middlewares/Third_Party/LwIP/src/core/tcp_out.c **** 
 535:../../Middlewares/Third_Party/LwIP/src/core/tcp_out.c ****       /* Create a pbuf with a copy or reference to seglen bytes. We
 536:../../Middlewares/Third_Party/LwIP/src/core/tcp_out.c ****        * can use PBUF_RAW here since the data appears in the middle of
 537:../../Middlewares/Third_Party/LwIP/src/core/tcp_out.c ****        * a segment. A header will never be prepended. */
 538:../../Middlewares/Third_Party/LwIP/src/core/tcp_out.c ****       if (apiflags & TCP_WRITE_FLAG_COPY) {
 539:../../Middlewares/Third_Party/LwIP/src/core/tcp_out.c ****         /* Data is copied */
 540:../../Middlewares/Third_Party/LwIP/src/core/tcp_out.c ****         if ((concat_p = tcp_pbuf_prealloc(PBUF_RAW, seglen, space, &oversize, pcb, apiflags, 1)) ==
 541:../../Middlewares/Third_Party/LwIP/src/core/tcp_out.c ****           LWIP_DEBUGF(TCP_OUTPUT_DEBUG | LWIP_DBG_LEVEL_SERIOUS,
 542:../../Middlewares/Third_Party/LwIP/src/core/tcp_out.c ****                       ("tcp_write : could not allocate memory for pbuf copy size %"U16_F"\n",
 543:../../Middlewares/Third_Party/LwIP/src/core/tcp_out.c ****                        seglen));
 544:../../Middlewares/Third_Party/LwIP/src/core/tcp_out.c ****           goto memerr;
 545:../../Middlewares/Third_Party/LwIP/src/core/tcp_out.c ****         }
 546:../../Middlewares/Third_Party/LwIP/src/core/tcp_out.c **** #if TCP_OVERSIZE_DBGCHECK
 547:../../Middlewares/Third_Party/LwIP/src/core/tcp_out.c ****         oversize_add = oversize;
 548:../../Middlewares/Third_Party/LwIP/src/core/tcp_out.c **** #endif /* TCP_OVERSIZE_DBGCHECK */
 549:../../Middlewares/Third_Party/LwIP/src/core/tcp_out.c ****         TCP_DATA_COPY2(concat_p->payload, (const u8_t *)arg + pos, seglen, &concat_chksum, &concat_
 550:../../Middlewares/Third_Party/LwIP/src/core/tcp_out.c **** #if TCP_CHECKSUM_ON_COPY
 551:../../Middlewares/Third_Party/LwIP/src/core/tcp_out.c ****         concat_chksummed += seglen;
 552:../../Middlewares/Third_Party/LwIP/src/core/tcp_out.c **** #endif /* TCP_CHECKSUM_ON_COPY */
 553:../../Middlewares/Third_Party/LwIP/src/core/tcp_out.c ****         queuelen += pbuf_clen(concat_p);
 554:../../Middlewares/Third_Party/LwIP/src/core/tcp_out.c ****       } else {
 555:../../Middlewares/Third_Party/LwIP/src/core/tcp_out.c ****         /* Data is not copied */
 556:../../Middlewares/Third_Party/LwIP/src/core/tcp_out.c ****         /* If the last unsent pbuf is of type PBUF_ROM, try to extend it. */
 557:../../Middlewares/Third_Party/LwIP/src/core/tcp_out.c ****         struct pbuf *p;
 558:../../Middlewares/Third_Party/LwIP/src/core/tcp_out.c ****         for (p = last_unsent->p; p->next != NULL; p = p->next);
 559:../../Middlewares/Third_Party/LwIP/src/core/tcp_out.c ****         if (((p->type_internal & (PBUF_TYPE_FLAG_STRUCT_DATA_CONTIGUOUS | PBUF_TYPE_FLAG_DATA_VOLAT
 560:../../Middlewares/Third_Party/LwIP/src/core/tcp_out.c ****             (const u8_t *)p->payload + p->len == (const u8_t *)arg) {
 561:../../Middlewares/Third_Party/LwIP/src/core/tcp_out.c ****           LWIP_ASSERT("tcp_write: ROM pbufs cannot be oversized", pos == 0);
 562:../../Middlewares/Third_Party/LwIP/src/core/tcp_out.c ****           extendlen = seglen;
 563:../../Middlewares/Third_Party/LwIP/src/core/tcp_out.c ****         } else {
 564:../../Middlewares/Third_Party/LwIP/src/core/tcp_out.c ****           if ((concat_p = pbuf_alloc(PBUF_RAW, seglen, PBUF_ROM)) == NULL) {
 565:../../Middlewares/Third_Party/LwIP/src/core/tcp_out.c ****             LWIP_DEBUGF(TCP_OUTPUT_DEBUG | LWIP_DBG_LEVEL_SERIOUS,
 566:../../Middlewares/Third_Party/LwIP/src/core/tcp_out.c ****                         ("tcp_write: could not allocate memory for zero-copy pbuf\n"));
 567:../../Middlewares/Third_Party/LwIP/src/core/tcp_out.c ****             goto memerr;
 568:../../Middlewares/Third_Party/LwIP/src/core/tcp_out.c ****           }
 569:../../Middlewares/Third_Party/LwIP/src/core/tcp_out.c ****           /* reference the non-volatile payload data */
 570:../../Middlewares/Third_Party/LwIP/src/core/tcp_out.c ****           ((struct pbuf_rom *)concat_p)->payload = (const u8_t *)arg + pos;
 571:../../Middlewares/Third_Party/LwIP/src/core/tcp_out.c ****           queuelen += pbuf_clen(concat_p);
 572:../../Middlewares/Third_Party/LwIP/src/core/tcp_out.c ****         }
 573:../../Middlewares/Third_Party/LwIP/src/core/tcp_out.c **** #if TCP_CHECKSUM_ON_COPY
 574:../../Middlewares/Third_Party/LwIP/src/core/tcp_out.c ****         /* calculate the checksum of nocopy-data */
 575:../../Middlewares/Third_Party/LwIP/src/core/tcp_out.c ****         tcp_seg_add_chksum(~inet_chksum((const u8_t *)arg + pos, seglen), seglen,
 576:../../Middlewares/Third_Party/LwIP/src/core/tcp_out.c ****                            &concat_chksum, &concat_chksum_swapped);
 577:../../Middlewares/Third_Party/LwIP/src/core/tcp_out.c ****         concat_chksummed += seglen;
 578:../../Middlewares/Third_Party/LwIP/src/core/tcp_out.c **** #endif /* TCP_CHECKSUM_ON_COPY */
 579:../../Middlewares/Third_Party/LwIP/src/core/tcp_out.c ****       }
ARM GAS  C:\Users\minis\AppData\Local\Temp\cc2ZMwrX.s 			page 16


 580:../../Middlewares/Third_Party/LwIP/src/core/tcp_out.c **** 
 581:../../Middlewares/Third_Party/LwIP/src/core/tcp_out.c ****       pos += seglen;
 582:../../Middlewares/Third_Party/LwIP/src/core/tcp_out.c ****     }
 583:../../Middlewares/Third_Party/LwIP/src/core/tcp_out.c **** #endif /* !LWIP_NETIF_TX_SINGLE_PBUF */
 584:../../Middlewares/Third_Party/LwIP/src/core/tcp_out.c ****   } else {
 585:../../Middlewares/Third_Party/LwIP/src/core/tcp_out.c **** #if TCP_OVERSIZE
 586:../../Middlewares/Third_Party/LwIP/src/core/tcp_out.c ****     LWIP_ASSERT("unsent_oversize mismatch (pcb->unsent is NULL)",
 587:../../Middlewares/Third_Party/LwIP/src/core/tcp_out.c ****                 pcb->unsent_oversize == 0);
 588:../../Middlewares/Third_Party/LwIP/src/core/tcp_out.c **** #endif /* TCP_OVERSIZE */
 589:../../Middlewares/Third_Party/LwIP/src/core/tcp_out.c ****   }
 590:../../Middlewares/Third_Party/LwIP/src/core/tcp_out.c **** 
 591:../../Middlewares/Third_Party/LwIP/src/core/tcp_out.c ****   /*
 592:../../Middlewares/Third_Party/LwIP/src/core/tcp_out.c ****    * Phase 3: Create new segments.
 593:../../Middlewares/Third_Party/LwIP/src/core/tcp_out.c ****    *
 594:../../Middlewares/Third_Party/LwIP/src/core/tcp_out.c ****    * The new segments are chained together in the local 'queue'
 595:../../Middlewares/Third_Party/LwIP/src/core/tcp_out.c ****    * variable, ready to be appended to pcb->unsent.
 596:../../Middlewares/Third_Party/LwIP/src/core/tcp_out.c ****    */
 597:../../Middlewares/Third_Party/LwIP/src/core/tcp_out.c ****   while (pos < len) {
 598:../../Middlewares/Third_Party/LwIP/src/core/tcp_out.c ****     struct pbuf *p;
 599:../../Middlewares/Third_Party/LwIP/src/core/tcp_out.c ****     u16_t left = len - pos;
 600:../../Middlewares/Third_Party/LwIP/src/core/tcp_out.c ****     u16_t max_len = mss_local - optlen;
 601:../../Middlewares/Third_Party/LwIP/src/core/tcp_out.c ****     u16_t seglen = LWIP_MIN(left, max_len);
 602:../../Middlewares/Third_Party/LwIP/src/core/tcp_out.c **** #if TCP_CHECKSUM_ON_COPY
 603:../../Middlewares/Third_Party/LwIP/src/core/tcp_out.c ****     u16_t chksum = 0;
 604:../../Middlewares/Third_Party/LwIP/src/core/tcp_out.c ****     u8_t chksum_swapped = 0;
 605:../../Middlewares/Third_Party/LwIP/src/core/tcp_out.c **** #endif /* TCP_CHECKSUM_ON_COPY */
 606:../../Middlewares/Third_Party/LwIP/src/core/tcp_out.c **** 
 607:../../Middlewares/Third_Party/LwIP/src/core/tcp_out.c ****     if (apiflags & TCP_WRITE_FLAG_COPY) {
 608:../../Middlewares/Third_Party/LwIP/src/core/tcp_out.c ****       /* If copy is set, memory should be allocated and data copied
 609:../../Middlewares/Third_Party/LwIP/src/core/tcp_out.c ****        * into pbuf */
 610:../../Middlewares/Third_Party/LwIP/src/core/tcp_out.c ****       if ((p = tcp_pbuf_prealloc(PBUF_TRANSPORT, seglen + optlen, mss_local, &oversize, pcb, apifla
 611:../../Middlewares/Third_Party/LwIP/src/core/tcp_out.c ****         LWIP_DEBUGF(TCP_OUTPUT_DEBUG | LWIP_DBG_LEVEL_SERIOUS, ("tcp_write : could not allocate mem
 612:../../Middlewares/Third_Party/LwIP/src/core/tcp_out.c ****         goto memerr;
 613:../../Middlewares/Third_Party/LwIP/src/core/tcp_out.c ****       }
 614:../../Middlewares/Third_Party/LwIP/src/core/tcp_out.c ****       LWIP_ASSERT("tcp_write: check that first pbuf can hold the complete seglen",
 615:../../Middlewares/Third_Party/LwIP/src/core/tcp_out.c ****                   (p->len >= seglen));
 616:../../Middlewares/Third_Party/LwIP/src/core/tcp_out.c ****       TCP_DATA_COPY2((char *)p->payload + optlen, (const u8_t *)arg + pos, seglen, &chksum, &chksum
 617:../../Middlewares/Third_Party/LwIP/src/core/tcp_out.c ****     } else {
 618:../../Middlewares/Third_Party/LwIP/src/core/tcp_out.c ****       /* Copy is not set: First allocate a pbuf for holding the data.
 619:../../Middlewares/Third_Party/LwIP/src/core/tcp_out.c ****        * Since the referenced data is available at least until it is
 620:../../Middlewares/Third_Party/LwIP/src/core/tcp_out.c ****        * sent out on the link (as it has to be ACKed by the remote
 621:../../Middlewares/Third_Party/LwIP/src/core/tcp_out.c ****        * party) we can safely use PBUF_ROM instead of PBUF_REF here.
 622:../../Middlewares/Third_Party/LwIP/src/core/tcp_out.c ****        */
 623:../../Middlewares/Third_Party/LwIP/src/core/tcp_out.c ****       struct pbuf *p2;
 624:../../Middlewares/Third_Party/LwIP/src/core/tcp_out.c **** #if TCP_OVERSIZE
 625:../../Middlewares/Third_Party/LwIP/src/core/tcp_out.c ****       LWIP_ASSERT("oversize == 0", oversize == 0);
 626:../../Middlewares/Third_Party/LwIP/src/core/tcp_out.c **** #endif /* TCP_OVERSIZE */
 627:../../Middlewares/Third_Party/LwIP/src/core/tcp_out.c ****       if ((p2 = pbuf_alloc(PBUF_TRANSPORT, seglen, PBUF_ROM)) == NULL) {
 628:../../Middlewares/Third_Party/LwIP/src/core/tcp_out.c ****         LWIP_DEBUGF(TCP_OUTPUT_DEBUG | LWIP_DBG_LEVEL_SERIOUS, ("tcp_write: could not allocate memo
 629:../../Middlewares/Third_Party/LwIP/src/core/tcp_out.c ****         goto memerr;
 630:../../Middlewares/Third_Party/LwIP/src/core/tcp_out.c ****       }
 631:../../Middlewares/Third_Party/LwIP/src/core/tcp_out.c **** #if TCP_CHECKSUM_ON_COPY
 632:../../Middlewares/Third_Party/LwIP/src/core/tcp_out.c ****       /* calculate the checksum of nocopy-data */
 633:../../Middlewares/Third_Party/LwIP/src/core/tcp_out.c ****       chksum = ~inet_chksum((const u8_t *)arg + pos, seglen);
 634:../../Middlewares/Third_Party/LwIP/src/core/tcp_out.c ****       if (seglen & 1) {
 635:../../Middlewares/Third_Party/LwIP/src/core/tcp_out.c ****         chksum_swapped = 1;
 636:../../Middlewares/Third_Party/LwIP/src/core/tcp_out.c ****         chksum = SWAP_BYTES_IN_WORD(chksum);
ARM GAS  C:\Users\minis\AppData\Local\Temp\cc2ZMwrX.s 			page 17


 637:../../Middlewares/Third_Party/LwIP/src/core/tcp_out.c ****       }
 638:../../Middlewares/Third_Party/LwIP/src/core/tcp_out.c **** #endif /* TCP_CHECKSUM_ON_COPY */
 639:../../Middlewares/Third_Party/LwIP/src/core/tcp_out.c ****       /* reference the non-volatile payload data */
 640:../../Middlewares/Third_Party/LwIP/src/core/tcp_out.c ****       ((struct pbuf_rom *)p2)->payload = (const u8_t *)arg + pos;
 641:../../Middlewares/Third_Party/LwIP/src/core/tcp_out.c **** 
 642:../../Middlewares/Third_Party/LwIP/src/core/tcp_out.c ****       /* Second, allocate a pbuf for the headers. */
 643:../../Middlewares/Third_Party/LwIP/src/core/tcp_out.c ****       if ((p = pbuf_alloc(PBUF_TRANSPORT, optlen, PBUF_RAM)) == NULL) {
 644:../../Middlewares/Third_Party/LwIP/src/core/tcp_out.c ****         /* If allocation fails, we have to deallocate the data pbuf as
 645:../../Middlewares/Third_Party/LwIP/src/core/tcp_out.c ****          * well. */
 646:../../Middlewares/Third_Party/LwIP/src/core/tcp_out.c ****         pbuf_free(p2);
 647:../../Middlewares/Third_Party/LwIP/src/core/tcp_out.c ****         LWIP_DEBUGF(TCP_OUTPUT_DEBUG | LWIP_DBG_LEVEL_SERIOUS, ("tcp_write: could not allocate memo
 648:../../Middlewares/Third_Party/LwIP/src/core/tcp_out.c ****         goto memerr;
 649:../../Middlewares/Third_Party/LwIP/src/core/tcp_out.c ****       }
 650:../../Middlewares/Third_Party/LwIP/src/core/tcp_out.c ****       /* Concatenate the headers and data pbufs together. */
 651:../../Middlewares/Third_Party/LwIP/src/core/tcp_out.c ****       pbuf_cat(p/*header*/, p2/*data*/);
 652:../../Middlewares/Third_Party/LwIP/src/core/tcp_out.c ****     }
 653:../../Middlewares/Third_Party/LwIP/src/core/tcp_out.c **** 
 654:../../Middlewares/Third_Party/LwIP/src/core/tcp_out.c ****     queuelen += pbuf_clen(p);
 655:../../Middlewares/Third_Party/LwIP/src/core/tcp_out.c **** 
 656:../../Middlewares/Third_Party/LwIP/src/core/tcp_out.c ****     /* Now that there are more segments queued, we check again if the
 657:../../Middlewares/Third_Party/LwIP/src/core/tcp_out.c ****      * length of the queue exceeds the configured maximum or
 658:../../Middlewares/Third_Party/LwIP/src/core/tcp_out.c ****      * overflows. */
 659:../../Middlewares/Third_Party/LwIP/src/core/tcp_out.c ****     if (queuelen > LWIP_MIN(TCP_SND_QUEUELEN, TCP_SNDQUEUELEN_OVERFLOW)) {
 660:../../Middlewares/Third_Party/LwIP/src/core/tcp_out.c ****       LWIP_DEBUGF(TCP_OUTPUT_DEBUG | LWIP_DBG_LEVEL_SERIOUS, ("tcp_write: queue too long %"U16_F" (
 661:../../Middlewares/Third_Party/LwIP/src/core/tcp_out.c ****                   queuelen, (int)TCP_SND_QUEUELEN));
 662:../../Middlewares/Third_Party/LwIP/src/core/tcp_out.c ****       pbuf_free(p);
 663:../../Middlewares/Third_Party/LwIP/src/core/tcp_out.c ****       goto memerr;
 664:../../Middlewares/Third_Party/LwIP/src/core/tcp_out.c ****     }
 665:../../Middlewares/Third_Party/LwIP/src/core/tcp_out.c **** 
 666:../../Middlewares/Third_Party/LwIP/src/core/tcp_out.c ****     if ((seg = tcp_create_segment(pcb, p, 0, pcb->snd_lbb + pos, optflags)) == NULL) {
 667:../../Middlewares/Third_Party/LwIP/src/core/tcp_out.c ****       goto memerr;
 668:../../Middlewares/Third_Party/LwIP/src/core/tcp_out.c ****     }
 669:../../Middlewares/Third_Party/LwIP/src/core/tcp_out.c **** #if TCP_OVERSIZE_DBGCHECK
 670:../../Middlewares/Third_Party/LwIP/src/core/tcp_out.c ****     seg->oversize_left = oversize;
 671:../../Middlewares/Third_Party/LwIP/src/core/tcp_out.c **** #endif /* TCP_OVERSIZE_DBGCHECK */
 672:../../Middlewares/Third_Party/LwIP/src/core/tcp_out.c **** #if TCP_CHECKSUM_ON_COPY
 673:../../Middlewares/Third_Party/LwIP/src/core/tcp_out.c ****     seg->chksum = chksum;
 674:../../Middlewares/Third_Party/LwIP/src/core/tcp_out.c ****     seg->chksum_swapped = chksum_swapped;
 675:../../Middlewares/Third_Party/LwIP/src/core/tcp_out.c ****     seg->flags |= TF_SEG_DATA_CHECKSUMMED;
 676:../../Middlewares/Third_Party/LwIP/src/core/tcp_out.c **** #endif /* TCP_CHECKSUM_ON_COPY */
 677:../../Middlewares/Third_Party/LwIP/src/core/tcp_out.c **** 
 678:../../Middlewares/Third_Party/LwIP/src/core/tcp_out.c ****     /* first segment of to-be-queued data? */
 679:../../Middlewares/Third_Party/LwIP/src/core/tcp_out.c ****     if (queue == NULL) {
 680:../../Middlewares/Third_Party/LwIP/src/core/tcp_out.c ****       queue = seg;
 681:../../Middlewares/Third_Party/LwIP/src/core/tcp_out.c ****     } else {
 682:../../Middlewares/Third_Party/LwIP/src/core/tcp_out.c ****       /* Attach the segment to the end of the queued segments */
 683:../../Middlewares/Third_Party/LwIP/src/core/tcp_out.c ****       LWIP_ASSERT("prev_seg != NULL", prev_seg != NULL);
 684:../../Middlewares/Third_Party/LwIP/src/core/tcp_out.c ****       prev_seg->next = seg;
 685:../../Middlewares/Third_Party/LwIP/src/core/tcp_out.c ****     }
 686:../../Middlewares/Third_Party/LwIP/src/core/tcp_out.c ****     /* remember last segment of to-be-queued data for next iteration */
 687:../../Middlewares/Third_Party/LwIP/src/core/tcp_out.c ****     prev_seg = seg;
 688:../../Middlewares/Third_Party/LwIP/src/core/tcp_out.c **** 
 689:../../Middlewares/Third_Party/LwIP/src/core/tcp_out.c ****     LWIP_DEBUGF(TCP_OUTPUT_DEBUG | LWIP_DBG_TRACE, ("tcp_write: queueing %"U32_F":%"U32_F"\n",
 690:../../Middlewares/Third_Party/LwIP/src/core/tcp_out.c ****                 lwip_ntohl(seg->tcphdr->seqno),
 691:../../Middlewares/Third_Party/LwIP/src/core/tcp_out.c ****                 lwip_ntohl(seg->tcphdr->seqno) + TCP_TCPLEN(seg)));
 692:../../Middlewares/Third_Party/LwIP/src/core/tcp_out.c **** 
 693:../../Middlewares/Third_Party/LwIP/src/core/tcp_out.c ****     pos += seglen;
ARM GAS  C:\Users\minis\AppData\Local\Temp\cc2ZMwrX.s 			page 18


 694:../../Middlewares/Third_Party/LwIP/src/core/tcp_out.c ****   }
 695:../../Middlewares/Third_Party/LwIP/src/core/tcp_out.c **** 
 696:../../Middlewares/Third_Party/LwIP/src/core/tcp_out.c ****   /*
 697:../../Middlewares/Third_Party/LwIP/src/core/tcp_out.c ****    * All three segmentation phases were successful. We can commit the
 698:../../Middlewares/Third_Party/LwIP/src/core/tcp_out.c ****    * transaction.
 699:../../Middlewares/Third_Party/LwIP/src/core/tcp_out.c ****    */
 700:../../Middlewares/Third_Party/LwIP/src/core/tcp_out.c **** #if TCP_OVERSIZE_DBGCHECK
 701:../../Middlewares/Third_Party/LwIP/src/core/tcp_out.c ****   if ((last_unsent != NULL) && (oversize_add != 0)) {
 702:../../Middlewares/Third_Party/LwIP/src/core/tcp_out.c ****     last_unsent->oversize_left += oversize_add;
 703:../../Middlewares/Third_Party/LwIP/src/core/tcp_out.c ****   }
 704:../../Middlewares/Third_Party/LwIP/src/core/tcp_out.c **** #endif /* TCP_OVERSIZE_DBGCHECK */
 705:../../Middlewares/Third_Party/LwIP/src/core/tcp_out.c **** 
 706:../../Middlewares/Third_Party/LwIP/src/core/tcp_out.c ****   /*
 707:../../Middlewares/Third_Party/LwIP/src/core/tcp_out.c ****    * Phase 1: If data has been added to the preallocated tail of
 708:../../Middlewares/Third_Party/LwIP/src/core/tcp_out.c ****    * last_unsent, we update the length fields of the pbuf chain.
 709:../../Middlewares/Third_Party/LwIP/src/core/tcp_out.c ****    */
 710:../../Middlewares/Third_Party/LwIP/src/core/tcp_out.c **** #if TCP_OVERSIZE
 711:../../Middlewares/Third_Party/LwIP/src/core/tcp_out.c ****   if (oversize_used > 0) {
 712:../../Middlewares/Third_Party/LwIP/src/core/tcp_out.c ****     struct pbuf *p;
 713:../../Middlewares/Third_Party/LwIP/src/core/tcp_out.c ****     /* Bump tot_len of whole chain, len of tail */
 714:../../Middlewares/Third_Party/LwIP/src/core/tcp_out.c ****     for (p = last_unsent->p; p; p = p->next) {
 715:../../Middlewares/Third_Party/LwIP/src/core/tcp_out.c ****       p->tot_len += oversize_used;
 716:../../Middlewares/Third_Party/LwIP/src/core/tcp_out.c ****       if (p->next == NULL) {
 717:../../Middlewares/Third_Party/LwIP/src/core/tcp_out.c ****         TCP_DATA_COPY((char *)p->payload + p->len, arg, oversize_used, last_unsent);
 718:../../Middlewares/Third_Party/LwIP/src/core/tcp_out.c ****         p->len += oversize_used;
 719:../../Middlewares/Third_Party/LwIP/src/core/tcp_out.c ****       }
 720:../../Middlewares/Third_Party/LwIP/src/core/tcp_out.c ****     }
 721:../../Middlewares/Third_Party/LwIP/src/core/tcp_out.c ****     last_unsent->len += oversize_used;
 722:../../Middlewares/Third_Party/LwIP/src/core/tcp_out.c **** #if TCP_OVERSIZE_DBGCHECK
 723:../../Middlewares/Third_Party/LwIP/src/core/tcp_out.c ****     LWIP_ASSERT("last_unsent->oversize_left >= oversize_used",
 724:../../Middlewares/Third_Party/LwIP/src/core/tcp_out.c ****                 last_unsent->oversize_left >= oversize_used);
 725:../../Middlewares/Third_Party/LwIP/src/core/tcp_out.c ****     last_unsent->oversize_left -= oversize_used;
 726:../../Middlewares/Third_Party/LwIP/src/core/tcp_out.c **** #endif /* TCP_OVERSIZE_DBGCHECK */
 727:../../Middlewares/Third_Party/LwIP/src/core/tcp_out.c ****   }
 728:../../Middlewares/Third_Party/LwIP/src/core/tcp_out.c ****   pcb->unsent_oversize = oversize;
 729:../../Middlewares/Third_Party/LwIP/src/core/tcp_out.c **** #endif /* TCP_OVERSIZE */
 730:../../Middlewares/Third_Party/LwIP/src/core/tcp_out.c **** 
 731:../../Middlewares/Third_Party/LwIP/src/core/tcp_out.c ****   /*
 732:../../Middlewares/Third_Party/LwIP/src/core/tcp_out.c ****    * Phase 2: concat_p can be concatenated onto last_unsent->p, unless we
 733:../../Middlewares/Third_Party/LwIP/src/core/tcp_out.c ****    * determined that the last ROM pbuf can be extended to include the new data.
 734:../../Middlewares/Third_Party/LwIP/src/core/tcp_out.c ****    */
 735:../../Middlewares/Third_Party/LwIP/src/core/tcp_out.c ****   if (concat_p != NULL) {
 736:../../Middlewares/Third_Party/LwIP/src/core/tcp_out.c ****     LWIP_ASSERT("tcp_write: cannot concatenate when pcb->unsent is empty",
 737:../../Middlewares/Third_Party/LwIP/src/core/tcp_out.c ****                 (last_unsent != NULL));
 738:../../Middlewares/Third_Party/LwIP/src/core/tcp_out.c ****     pbuf_cat(last_unsent->p, concat_p);
 739:../../Middlewares/Third_Party/LwIP/src/core/tcp_out.c ****     last_unsent->len += concat_p->tot_len;
 740:../../Middlewares/Third_Party/LwIP/src/core/tcp_out.c ****   } else if (extendlen > 0) {
 741:../../Middlewares/Third_Party/LwIP/src/core/tcp_out.c ****     struct pbuf *p;
 742:../../Middlewares/Third_Party/LwIP/src/core/tcp_out.c ****     LWIP_ASSERT("tcp_write: extension of reference requires reference",
 743:../../Middlewares/Third_Party/LwIP/src/core/tcp_out.c ****                 last_unsent != NULL && last_unsent->p != NULL);
 744:../../Middlewares/Third_Party/LwIP/src/core/tcp_out.c ****     for (p = last_unsent->p; p->next != NULL; p = p->next) {
 745:../../Middlewares/Third_Party/LwIP/src/core/tcp_out.c ****       p->tot_len += extendlen;
 746:../../Middlewares/Third_Party/LwIP/src/core/tcp_out.c ****     }
 747:../../Middlewares/Third_Party/LwIP/src/core/tcp_out.c ****     p->tot_len += extendlen;
 748:../../Middlewares/Third_Party/LwIP/src/core/tcp_out.c ****     p->len += extendlen;
 749:../../Middlewares/Third_Party/LwIP/src/core/tcp_out.c ****     last_unsent->len += extendlen;
 750:../../Middlewares/Third_Party/LwIP/src/core/tcp_out.c ****   }
ARM GAS  C:\Users\minis\AppData\Local\Temp\cc2ZMwrX.s 			page 19


 751:../../Middlewares/Third_Party/LwIP/src/core/tcp_out.c **** 
 752:../../Middlewares/Third_Party/LwIP/src/core/tcp_out.c **** #if TCP_CHECKSUM_ON_COPY
 753:../../Middlewares/Third_Party/LwIP/src/core/tcp_out.c ****   if (concat_chksummed) {
 754:../../Middlewares/Third_Party/LwIP/src/core/tcp_out.c ****     LWIP_ASSERT("tcp_write: concat checksum needs concatenated data",
 755:../../Middlewares/Third_Party/LwIP/src/core/tcp_out.c ****                 concat_p != NULL || extendlen > 0);
 756:../../Middlewares/Third_Party/LwIP/src/core/tcp_out.c ****     /*if concat checksumm swapped - swap it back */
 757:../../Middlewares/Third_Party/LwIP/src/core/tcp_out.c ****     if (concat_chksum_swapped) {
 758:../../Middlewares/Third_Party/LwIP/src/core/tcp_out.c ****       concat_chksum = SWAP_BYTES_IN_WORD(concat_chksum);
 759:../../Middlewares/Third_Party/LwIP/src/core/tcp_out.c ****     }
 760:../../Middlewares/Third_Party/LwIP/src/core/tcp_out.c ****     tcp_seg_add_chksum(concat_chksum, concat_chksummed, &last_unsent->chksum,
 761:../../Middlewares/Third_Party/LwIP/src/core/tcp_out.c ****                        &last_unsent->chksum_swapped);
 762:../../Middlewares/Third_Party/LwIP/src/core/tcp_out.c ****     last_unsent->flags |= TF_SEG_DATA_CHECKSUMMED;
 763:../../Middlewares/Third_Party/LwIP/src/core/tcp_out.c ****   }
 764:../../Middlewares/Third_Party/LwIP/src/core/tcp_out.c **** #endif /* TCP_CHECKSUM_ON_COPY */
 765:../../Middlewares/Third_Party/LwIP/src/core/tcp_out.c **** 
 766:../../Middlewares/Third_Party/LwIP/src/core/tcp_out.c ****   /*
 767:../../Middlewares/Third_Party/LwIP/src/core/tcp_out.c ****    * Phase 3: Append queue to pcb->unsent. Queue may be NULL, but that
 768:../../Middlewares/Third_Party/LwIP/src/core/tcp_out.c ****    * is harmless
 769:../../Middlewares/Third_Party/LwIP/src/core/tcp_out.c ****    */
 770:../../Middlewares/Third_Party/LwIP/src/core/tcp_out.c ****   if (last_unsent == NULL) {
 771:../../Middlewares/Third_Party/LwIP/src/core/tcp_out.c ****     pcb->unsent = queue;
 772:../../Middlewares/Third_Party/LwIP/src/core/tcp_out.c ****   } else {
 773:../../Middlewares/Third_Party/LwIP/src/core/tcp_out.c ****     last_unsent->next = queue;
 774:../../Middlewares/Third_Party/LwIP/src/core/tcp_out.c ****   }
 775:../../Middlewares/Third_Party/LwIP/src/core/tcp_out.c **** 
 776:../../Middlewares/Third_Party/LwIP/src/core/tcp_out.c ****   /*
 777:../../Middlewares/Third_Party/LwIP/src/core/tcp_out.c ****    * Finally update the pcb state.
 778:../../Middlewares/Third_Party/LwIP/src/core/tcp_out.c ****    */
 779:../../Middlewares/Third_Party/LwIP/src/core/tcp_out.c ****   pcb->snd_lbb += len;
 780:../../Middlewares/Third_Party/LwIP/src/core/tcp_out.c ****   pcb->snd_buf -= len;
 781:../../Middlewares/Third_Party/LwIP/src/core/tcp_out.c ****   pcb->snd_queuelen = queuelen;
 782:../../Middlewares/Third_Party/LwIP/src/core/tcp_out.c **** 
 783:../../Middlewares/Third_Party/LwIP/src/core/tcp_out.c ****   LWIP_DEBUGF(TCP_QLEN_DEBUG, ("tcp_write: %"S16_F" (after enqueued)\n",
 784:../../Middlewares/Third_Party/LwIP/src/core/tcp_out.c ****                                pcb->snd_queuelen));
 785:../../Middlewares/Third_Party/LwIP/src/core/tcp_out.c ****   if (pcb->snd_queuelen != 0) {
 786:../../Middlewares/Third_Party/LwIP/src/core/tcp_out.c ****     LWIP_ASSERT("tcp_write: valid queue length",
 787:../../Middlewares/Third_Party/LwIP/src/core/tcp_out.c ****                 pcb->unacked != NULL || pcb->unsent != NULL);
 788:../../Middlewares/Third_Party/LwIP/src/core/tcp_out.c ****   }
 789:../../Middlewares/Third_Party/LwIP/src/core/tcp_out.c **** 
 790:../../Middlewares/Third_Party/LwIP/src/core/tcp_out.c ****   /* Set the PSH flag in the last segment that we enqueued. */
 791:../../Middlewares/Third_Party/LwIP/src/core/tcp_out.c ****   if (seg != NULL && seg->tcphdr != NULL && ((apiflags & TCP_WRITE_FLAG_MORE) == 0)) {
 792:../../Middlewares/Third_Party/LwIP/src/core/tcp_out.c ****     TCPH_SET_FLAG(seg->tcphdr, TCP_PSH);
 793:../../Middlewares/Third_Party/LwIP/src/core/tcp_out.c ****   }
 794:../../Middlewares/Third_Party/LwIP/src/core/tcp_out.c **** 
 795:../../Middlewares/Third_Party/LwIP/src/core/tcp_out.c ****   return ERR_OK;
 796:../../Middlewares/Third_Party/LwIP/src/core/tcp_out.c **** memerr:
 797:../../Middlewares/Third_Party/LwIP/src/core/tcp_out.c ****   tcp_set_flags(pcb, TF_NAGLEMEMERR);
 798:../../Middlewares/Third_Party/LwIP/src/core/tcp_out.c ****   TCP_STATS_INC(tcp.memerr);
 799:../../Middlewares/Third_Party/LwIP/src/core/tcp_out.c **** 
 800:../../Middlewares/Third_Party/LwIP/src/core/tcp_out.c ****   if (concat_p != NULL) {
 801:../../Middlewares/Third_Party/LwIP/src/core/tcp_out.c ****     pbuf_free(concat_p);
 802:../../Middlewares/Third_Party/LwIP/src/core/tcp_out.c ****   }
 803:../../Middlewares/Third_Party/LwIP/src/core/tcp_out.c ****   if (queue != NULL) {
 804:../../Middlewares/Third_Party/LwIP/src/core/tcp_out.c ****     tcp_segs_free(queue);
 805:../../Middlewares/Third_Party/LwIP/src/core/tcp_out.c ****   }
 806:../../Middlewares/Third_Party/LwIP/src/core/tcp_out.c ****   if (pcb->snd_queuelen != 0) {
 807:../../Middlewares/Third_Party/LwIP/src/core/tcp_out.c ****     LWIP_ASSERT("tcp_write: valid queue length", pcb->unacked != NULL ||
ARM GAS  C:\Users\minis\AppData\Local\Temp\cc2ZMwrX.s 			page 20


 808:../../Middlewares/Third_Party/LwIP/src/core/tcp_out.c ****                 pcb->unsent != NULL);
 809:../../Middlewares/Third_Party/LwIP/src/core/tcp_out.c ****   }
 810:../../Middlewares/Third_Party/LwIP/src/core/tcp_out.c ****   LWIP_DEBUGF(TCP_QLEN_DEBUG | LWIP_DBG_STATE, ("tcp_write: %"S16_F" (with mem err)\n", pcb->snd_qu
 811:../../Middlewares/Third_Party/LwIP/src/core/tcp_out.c ****   return ERR_MEM;
 812:../../Middlewares/Third_Party/LwIP/src/core/tcp_out.c **** }
 813:../../Middlewares/Third_Party/LwIP/src/core/tcp_out.c **** 
 814:../../Middlewares/Third_Party/LwIP/src/core/tcp_out.c **** /**
 815:../../Middlewares/Third_Party/LwIP/src/core/tcp_out.c ****  * Split segment on the head of the unsent queue.  If return is not
 816:../../Middlewares/Third_Party/LwIP/src/core/tcp_out.c ****  * ERR_OK, existing head remains intact
 817:../../Middlewares/Third_Party/LwIP/src/core/tcp_out.c ****  *
 818:../../Middlewares/Third_Party/LwIP/src/core/tcp_out.c ****  * The split is accomplished by creating a new TCP segment and pbuf
 819:../../Middlewares/Third_Party/LwIP/src/core/tcp_out.c ****  * which holds the remainder payload after the split.  The original
 820:../../Middlewares/Third_Party/LwIP/src/core/tcp_out.c ****  * pbuf is trimmed to new length.  This allows splitting of read-only
 821:../../Middlewares/Third_Party/LwIP/src/core/tcp_out.c ****  * pbufs
 822:../../Middlewares/Third_Party/LwIP/src/core/tcp_out.c ****  *
 823:../../Middlewares/Third_Party/LwIP/src/core/tcp_out.c ****  * @param pcb the tcp_pcb for which to split the unsent head
 824:../../Middlewares/Third_Party/LwIP/src/core/tcp_out.c ****  * @param split the amount of payload to remain in the head
 825:../../Middlewares/Third_Party/LwIP/src/core/tcp_out.c ****  */
 826:../../Middlewares/Third_Party/LwIP/src/core/tcp_out.c **** err_t
 827:../../Middlewares/Third_Party/LwIP/src/core/tcp_out.c **** tcp_split_unsent_seg(struct tcp_pcb *pcb, u16_t split)
 828:../../Middlewares/Third_Party/LwIP/src/core/tcp_out.c **** {
 829:../../Middlewares/Third_Party/LwIP/src/core/tcp_out.c ****   struct tcp_seg *seg = NULL, *useg = NULL;
 830:../../Middlewares/Third_Party/LwIP/src/core/tcp_out.c ****   struct pbuf *p = NULL;
 831:../../Middlewares/Third_Party/LwIP/src/core/tcp_out.c ****   u8_t optlen;
 832:../../Middlewares/Third_Party/LwIP/src/core/tcp_out.c ****   u8_t optflags;
 833:../../Middlewares/Third_Party/LwIP/src/core/tcp_out.c ****   u8_t split_flags;
 834:../../Middlewares/Third_Party/LwIP/src/core/tcp_out.c ****   u8_t remainder_flags;
 835:../../Middlewares/Third_Party/LwIP/src/core/tcp_out.c ****   u16_t remainder;
 836:../../Middlewares/Third_Party/LwIP/src/core/tcp_out.c ****   u16_t offset;
 837:../../Middlewares/Third_Party/LwIP/src/core/tcp_out.c **** #if TCP_CHECKSUM_ON_COPY
 838:../../Middlewares/Third_Party/LwIP/src/core/tcp_out.c ****   u16_t chksum = 0;
 839:../../Middlewares/Third_Party/LwIP/src/core/tcp_out.c ****   u8_t chksum_swapped = 0;
 840:../../Middlewares/Third_Party/LwIP/src/core/tcp_out.c ****   struct pbuf *q;
 841:../../Middlewares/Third_Party/LwIP/src/core/tcp_out.c **** #endif /* TCP_CHECKSUM_ON_COPY */
 842:../../Middlewares/Third_Party/LwIP/src/core/tcp_out.c **** 
 843:../../Middlewares/Third_Party/LwIP/src/core/tcp_out.c ****   LWIP_ASSERT("tcp_split_unsent_seg: invalid pcb", pcb != NULL);
 844:../../Middlewares/Third_Party/LwIP/src/core/tcp_out.c **** 
 845:../../Middlewares/Third_Party/LwIP/src/core/tcp_out.c ****   useg = pcb->unsent;
 846:../../Middlewares/Third_Party/LwIP/src/core/tcp_out.c ****   if (useg == NULL) {
 847:../../Middlewares/Third_Party/LwIP/src/core/tcp_out.c ****     return ERR_MEM;
 848:../../Middlewares/Third_Party/LwIP/src/core/tcp_out.c ****   }
 849:../../Middlewares/Third_Party/LwIP/src/core/tcp_out.c **** 
 850:../../Middlewares/Third_Party/LwIP/src/core/tcp_out.c ****   if (split == 0) {
 851:../../Middlewares/Third_Party/LwIP/src/core/tcp_out.c ****     LWIP_ASSERT("Can't split segment into length 0", 0);
 852:../../Middlewares/Third_Party/LwIP/src/core/tcp_out.c ****     return ERR_VAL;
 853:../../Middlewares/Third_Party/LwIP/src/core/tcp_out.c ****   }
 854:../../Middlewares/Third_Party/LwIP/src/core/tcp_out.c **** 
 855:../../Middlewares/Third_Party/LwIP/src/core/tcp_out.c ****   if (useg->len <= split) {
 856:../../Middlewares/Third_Party/LwIP/src/core/tcp_out.c ****     return ERR_OK;
 857:../../Middlewares/Third_Party/LwIP/src/core/tcp_out.c ****   }
 858:../../Middlewares/Third_Party/LwIP/src/core/tcp_out.c **** 
 859:../../Middlewares/Third_Party/LwIP/src/core/tcp_out.c ****   LWIP_ASSERT("split <= mss", split <= pcb->mss);
 860:../../Middlewares/Third_Party/LwIP/src/core/tcp_out.c ****   LWIP_ASSERT("useg->len > 0", useg->len > 0);
 861:../../Middlewares/Third_Party/LwIP/src/core/tcp_out.c **** 
 862:../../Middlewares/Third_Party/LwIP/src/core/tcp_out.c ****   /* We should check that we don't exceed TCP_SND_QUEUELEN but we need
 863:../../Middlewares/Third_Party/LwIP/src/core/tcp_out.c ****    * to split this packet so we may actually exceed the max value by
 864:../../Middlewares/Third_Party/LwIP/src/core/tcp_out.c ****    * one!
ARM GAS  C:\Users\minis\AppData\Local\Temp\cc2ZMwrX.s 			page 21


 865:../../Middlewares/Third_Party/LwIP/src/core/tcp_out.c ****    */
 866:../../Middlewares/Third_Party/LwIP/src/core/tcp_out.c ****   LWIP_DEBUGF(TCP_QLEN_DEBUG, ("tcp_enqueue: split_unsent_seg: %u\n", (unsigned int)pcb->snd_queuel
 867:../../Middlewares/Third_Party/LwIP/src/core/tcp_out.c **** 
 868:../../Middlewares/Third_Party/LwIP/src/core/tcp_out.c ****   optflags = useg->flags;
 869:../../Middlewares/Third_Party/LwIP/src/core/tcp_out.c **** #if TCP_CHECKSUM_ON_COPY
 870:../../Middlewares/Third_Party/LwIP/src/core/tcp_out.c ****   /* Remove since checksum is not stored until after tcp_create_segment() */
 871:../../Middlewares/Third_Party/LwIP/src/core/tcp_out.c ****   optflags &= ~TF_SEG_DATA_CHECKSUMMED;
 872:../../Middlewares/Third_Party/LwIP/src/core/tcp_out.c **** #endif /* TCP_CHECKSUM_ON_COPY */
 873:../../Middlewares/Third_Party/LwIP/src/core/tcp_out.c ****   optlen = LWIP_TCP_OPT_LENGTH(optflags);
 874:../../Middlewares/Third_Party/LwIP/src/core/tcp_out.c ****   remainder = useg->len - split;
 875:../../Middlewares/Third_Party/LwIP/src/core/tcp_out.c **** 
 876:../../Middlewares/Third_Party/LwIP/src/core/tcp_out.c ****   /* Create new pbuf for the remainder of the split */
 877:../../Middlewares/Third_Party/LwIP/src/core/tcp_out.c ****   p = pbuf_alloc(PBUF_TRANSPORT, remainder + optlen, PBUF_RAM);
 878:../../Middlewares/Third_Party/LwIP/src/core/tcp_out.c ****   if (p == NULL) {
 879:../../Middlewares/Third_Party/LwIP/src/core/tcp_out.c ****     LWIP_DEBUGF(TCP_OUTPUT_DEBUG | LWIP_DBG_LEVEL_SERIOUS,
 880:../../Middlewares/Third_Party/LwIP/src/core/tcp_out.c ****                 ("tcp_split_unsent_seg: could not allocate memory for pbuf remainder %u\n", remaind
 881:../../Middlewares/Third_Party/LwIP/src/core/tcp_out.c ****     goto memerr;
 882:../../Middlewares/Third_Party/LwIP/src/core/tcp_out.c ****   }
 883:../../Middlewares/Third_Party/LwIP/src/core/tcp_out.c **** 
 884:../../Middlewares/Third_Party/LwIP/src/core/tcp_out.c ****   /* Offset into the original pbuf is past TCP/IP headers, options, and split amount */
 885:../../Middlewares/Third_Party/LwIP/src/core/tcp_out.c ****   offset = useg->p->tot_len - useg->len + split;
 886:../../Middlewares/Third_Party/LwIP/src/core/tcp_out.c ****   /* Copy remainder into new pbuf, headers and options will not be filled out */
 887:../../Middlewares/Third_Party/LwIP/src/core/tcp_out.c ****   if (pbuf_copy_partial(useg->p, (u8_t *)p->payload + optlen, remainder, offset ) != remainder) {
 888:../../Middlewares/Third_Party/LwIP/src/core/tcp_out.c ****     LWIP_DEBUGF(TCP_OUTPUT_DEBUG | LWIP_DBG_LEVEL_SERIOUS,
 889:../../Middlewares/Third_Party/LwIP/src/core/tcp_out.c ****                 ("tcp_split_unsent_seg: could not copy pbuf remainder %u\n", remainder));
 890:../../Middlewares/Third_Party/LwIP/src/core/tcp_out.c ****     goto memerr;
 891:../../Middlewares/Third_Party/LwIP/src/core/tcp_out.c ****   }
 892:../../Middlewares/Third_Party/LwIP/src/core/tcp_out.c **** #if TCP_CHECKSUM_ON_COPY
 893:../../Middlewares/Third_Party/LwIP/src/core/tcp_out.c ****   /* calculate the checksum on remainder data */
 894:../../Middlewares/Third_Party/LwIP/src/core/tcp_out.c ****   tcp_seg_add_chksum(~inet_chksum((const u8_t *)p->payload + optlen, remainder), remainder,
 895:../../Middlewares/Third_Party/LwIP/src/core/tcp_out.c ****                      &chksum, &chksum_swapped);
 896:../../Middlewares/Third_Party/LwIP/src/core/tcp_out.c **** #endif /* TCP_CHECKSUM_ON_COPY */
 897:../../Middlewares/Third_Party/LwIP/src/core/tcp_out.c **** 
 898:../../Middlewares/Third_Party/LwIP/src/core/tcp_out.c ****   /* Options are created when calling tcp_output() */
 899:../../Middlewares/Third_Party/LwIP/src/core/tcp_out.c **** 
 900:../../Middlewares/Third_Party/LwIP/src/core/tcp_out.c ****   /* Migrate flags from original segment */
 901:../../Middlewares/Third_Party/LwIP/src/core/tcp_out.c ****   split_flags = TCPH_FLAGS(useg->tcphdr);
 902:../../Middlewares/Third_Party/LwIP/src/core/tcp_out.c ****   remainder_flags = 0; /* ACK added in tcp_output() */
 903:../../Middlewares/Third_Party/LwIP/src/core/tcp_out.c **** 
 904:../../Middlewares/Third_Party/LwIP/src/core/tcp_out.c ****   if (split_flags & TCP_PSH) {
 905:../../Middlewares/Third_Party/LwIP/src/core/tcp_out.c ****     split_flags &= ~TCP_PSH;
 906:../../Middlewares/Third_Party/LwIP/src/core/tcp_out.c ****     remainder_flags |= TCP_PSH;
 907:../../Middlewares/Third_Party/LwIP/src/core/tcp_out.c ****   }
 908:../../Middlewares/Third_Party/LwIP/src/core/tcp_out.c ****   if (split_flags & TCP_FIN) {
 909:../../Middlewares/Third_Party/LwIP/src/core/tcp_out.c ****     split_flags &= ~TCP_FIN;
 910:../../Middlewares/Third_Party/LwIP/src/core/tcp_out.c ****     remainder_flags |= TCP_FIN;
 911:../../Middlewares/Third_Party/LwIP/src/core/tcp_out.c ****   }
 912:../../Middlewares/Third_Party/LwIP/src/core/tcp_out.c ****   /* SYN should be left on split, RST should not be present with data */
 913:../../Middlewares/Third_Party/LwIP/src/core/tcp_out.c **** 
 914:../../Middlewares/Third_Party/LwIP/src/core/tcp_out.c ****   seg = tcp_create_segment(pcb, p, remainder_flags, lwip_ntohl(useg->tcphdr->seqno) + split, optfla
 915:../../Middlewares/Third_Party/LwIP/src/core/tcp_out.c ****   if (seg == NULL) {
 916:../../Middlewares/Third_Party/LwIP/src/core/tcp_out.c ****     LWIP_DEBUGF(TCP_OUTPUT_DEBUG | LWIP_DBG_LEVEL_SERIOUS,
 917:../../Middlewares/Third_Party/LwIP/src/core/tcp_out.c ****                 ("tcp_split_unsent_seg: could not create new TCP segment\n"));
 918:../../Middlewares/Third_Party/LwIP/src/core/tcp_out.c ****     goto memerr;
 919:../../Middlewares/Third_Party/LwIP/src/core/tcp_out.c ****   }
 920:../../Middlewares/Third_Party/LwIP/src/core/tcp_out.c **** 
 921:../../Middlewares/Third_Party/LwIP/src/core/tcp_out.c **** #if TCP_CHECKSUM_ON_COPY
ARM GAS  C:\Users\minis\AppData\Local\Temp\cc2ZMwrX.s 			page 22


 922:../../Middlewares/Third_Party/LwIP/src/core/tcp_out.c ****   seg->chksum = chksum;
 923:../../Middlewares/Third_Party/LwIP/src/core/tcp_out.c ****   seg->chksum_swapped = chksum_swapped;
 924:../../Middlewares/Third_Party/LwIP/src/core/tcp_out.c ****   seg->flags |= TF_SEG_DATA_CHECKSUMMED;
 925:../../Middlewares/Third_Party/LwIP/src/core/tcp_out.c **** #endif /* TCP_CHECKSUM_ON_COPY */
 926:../../Middlewares/Third_Party/LwIP/src/core/tcp_out.c **** 
 927:../../Middlewares/Third_Party/LwIP/src/core/tcp_out.c ****   /* Remove this segment from the queue since trimming it may free pbufs */
 928:../../Middlewares/Third_Party/LwIP/src/core/tcp_out.c ****   pcb->snd_queuelen -= pbuf_clen(useg->p);
 929:../../Middlewares/Third_Party/LwIP/src/core/tcp_out.c **** 
 930:../../Middlewares/Third_Party/LwIP/src/core/tcp_out.c ****   /* Trim the original pbuf into our split size.  At this point our remainder segment must be setup
 931:../../Middlewares/Third_Party/LwIP/src/core/tcp_out.c ****   successfully because we are modifying the original segment */
 932:../../Middlewares/Third_Party/LwIP/src/core/tcp_out.c ****   pbuf_realloc(useg->p, useg->p->tot_len - remainder);
 933:../../Middlewares/Third_Party/LwIP/src/core/tcp_out.c ****   useg->len -= remainder;
 934:../../Middlewares/Third_Party/LwIP/src/core/tcp_out.c ****   TCPH_SET_FLAG(useg->tcphdr, split_flags);
 935:../../Middlewares/Third_Party/LwIP/src/core/tcp_out.c **** #if TCP_OVERSIZE_DBGCHECK
 936:../../Middlewares/Third_Party/LwIP/src/core/tcp_out.c ****   /* By trimming, realloc may have actually shrunk the pbuf, so clear oversize_left */
 937:../../Middlewares/Third_Party/LwIP/src/core/tcp_out.c ****   useg->oversize_left = 0;
 938:../../Middlewares/Third_Party/LwIP/src/core/tcp_out.c **** #endif /* TCP_OVERSIZE_DBGCHECK */
 939:../../Middlewares/Third_Party/LwIP/src/core/tcp_out.c **** 
 940:../../Middlewares/Third_Party/LwIP/src/core/tcp_out.c ****   /* Add back to the queue with new trimmed pbuf */
 941:../../Middlewares/Third_Party/LwIP/src/core/tcp_out.c ****   pcb->snd_queuelen += pbuf_clen(useg->p);
 942:../../Middlewares/Third_Party/LwIP/src/core/tcp_out.c **** 
 943:../../Middlewares/Third_Party/LwIP/src/core/tcp_out.c **** #if TCP_CHECKSUM_ON_COPY
 944:../../Middlewares/Third_Party/LwIP/src/core/tcp_out.c ****   /* The checksum on the split segment is now incorrect. We need to re-run it over the split */
 945:../../Middlewares/Third_Party/LwIP/src/core/tcp_out.c ****   useg->chksum = 0;
 946:../../Middlewares/Third_Party/LwIP/src/core/tcp_out.c ****   useg->chksum_swapped = 0;
 947:../../Middlewares/Third_Party/LwIP/src/core/tcp_out.c ****   q = useg->p;
 948:../../Middlewares/Third_Party/LwIP/src/core/tcp_out.c ****   offset = q->tot_len - useg->len; /* Offset due to exposed headers */
 949:../../Middlewares/Third_Party/LwIP/src/core/tcp_out.c **** 
 950:../../Middlewares/Third_Party/LwIP/src/core/tcp_out.c ****   /* Advance to the pbuf where the offset ends */
 951:../../Middlewares/Third_Party/LwIP/src/core/tcp_out.c ****   while (q != NULL && offset > q->len) {
 952:../../Middlewares/Third_Party/LwIP/src/core/tcp_out.c ****     offset -= q->len;
 953:../../Middlewares/Third_Party/LwIP/src/core/tcp_out.c ****     q = q->next;
 954:../../Middlewares/Third_Party/LwIP/src/core/tcp_out.c ****   }
 955:../../Middlewares/Third_Party/LwIP/src/core/tcp_out.c ****   LWIP_ASSERT("Found start of payload pbuf", q != NULL);
 956:../../Middlewares/Third_Party/LwIP/src/core/tcp_out.c ****   /* Checksum the first payload pbuf accounting for offset, then other pbufs are all payload */
 957:../../Middlewares/Third_Party/LwIP/src/core/tcp_out.c ****   for (; q != NULL; offset = 0, q = q->next) {
 958:../../Middlewares/Third_Party/LwIP/src/core/tcp_out.c ****     tcp_seg_add_chksum(~inet_chksum((const u8_t *)q->payload + offset, q->len - offset), q->len - o
 959:../../Middlewares/Third_Party/LwIP/src/core/tcp_out.c ****                        &useg->chksum, &useg->chksum_swapped);
 960:../../Middlewares/Third_Party/LwIP/src/core/tcp_out.c ****   }
 961:../../Middlewares/Third_Party/LwIP/src/core/tcp_out.c **** #endif /* TCP_CHECKSUM_ON_COPY */
 962:../../Middlewares/Third_Party/LwIP/src/core/tcp_out.c **** 
 963:../../Middlewares/Third_Party/LwIP/src/core/tcp_out.c ****   /* Update number of segments on the queues. Note that length now may
 964:../../Middlewares/Third_Party/LwIP/src/core/tcp_out.c ****    * exceed TCP_SND_QUEUELEN! We don't have to touch pcb->snd_buf
 965:../../Middlewares/Third_Party/LwIP/src/core/tcp_out.c ****    * because the total amount of data is constant when packet is split */
 966:../../Middlewares/Third_Party/LwIP/src/core/tcp_out.c ****   pcb->snd_queuelen += pbuf_clen(seg->p);
 967:../../Middlewares/Third_Party/LwIP/src/core/tcp_out.c **** 
 968:../../Middlewares/Third_Party/LwIP/src/core/tcp_out.c ****   /* Finally insert remainder into queue after split (which stays head) */
 969:../../Middlewares/Third_Party/LwIP/src/core/tcp_out.c ****   seg->next = useg->next;
 970:../../Middlewares/Third_Party/LwIP/src/core/tcp_out.c ****   useg->next = seg;
 971:../../Middlewares/Third_Party/LwIP/src/core/tcp_out.c **** 
 972:../../Middlewares/Third_Party/LwIP/src/core/tcp_out.c **** #if TCP_OVERSIZE
 973:../../Middlewares/Third_Party/LwIP/src/core/tcp_out.c ****   /* If remainder is last segment on the unsent, ensure we clear the oversize amount
 974:../../Middlewares/Third_Party/LwIP/src/core/tcp_out.c ****    * because the remainder is always sized to the exact remaining amount */
 975:../../Middlewares/Third_Party/LwIP/src/core/tcp_out.c ****   if (seg->next == NULL) {
 976:../../Middlewares/Third_Party/LwIP/src/core/tcp_out.c ****     pcb->unsent_oversize = 0;
 977:../../Middlewares/Third_Party/LwIP/src/core/tcp_out.c ****   }
 978:../../Middlewares/Third_Party/LwIP/src/core/tcp_out.c **** #endif /* TCP_OVERSIZE */
ARM GAS  C:\Users\minis\AppData\Local\Temp\cc2ZMwrX.s 			page 23


 979:../../Middlewares/Third_Party/LwIP/src/core/tcp_out.c **** 
 980:../../Middlewares/Third_Party/LwIP/src/core/tcp_out.c ****   return ERR_OK;
 981:../../Middlewares/Third_Party/LwIP/src/core/tcp_out.c **** memerr:
 982:../../Middlewares/Third_Party/LwIP/src/core/tcp_out.c ****   TCP_STATS_INC(tcp.memerr);
 983:../../Middlewares/Third_Party/LwIP/src/core/tcp_out.c **** 
 984:../../Middlewares/Third_Party/LwIP/src/core/tcp_out.c ****   LWIP_ASSERT("seg == NULL", seg == NULL);
 985:../../Middlewares/Third_Party/LwIP/src/core/tcp_out.c ****   if (p != NULL) {
 986:../../Middlewares/Third_Party/LwIP/src/core/tcp_out.c ****     pbuf_free(p);
 987:../../Middlewares/Third_Party/LwIP/src/core/tcp_out.c ****   }
 988:../../Middlewares/Third_Party/LwIP/src/core/tcp_out.c **** 
 989:../../Middlewares/Third_Party/LwIP/src/core/tcp_out.c ****   return ERR_MEM;
 990:../../Middlewares/Third_Party/LwIP/src/core/tcp_out.c **** }
 991:../../Middlewares/Third_Party/LwIP/src/core/tcp_out.c **** 
 992:../../Middlewares/Third_Party/LwIP/src/core/tcp_out.c **** /**
 993:../../Middlewares/Third_Party/LwIP/src/core/tcp_out.c ****  * Called by tcp_close() to send a segment including FIN flag but not data.
 994:../../Middlewares/Third_Party/LwIP/src/core/tcp_out.c ****  * This FIN may be added to an existing segment or a new, otherwise empty
 995:../../Middlewares/Third_Party/LwIP/src/core/tcp_out.c ****  * segment is enqueued.
 996:../../Middlewares/Third_Party/LwIP/src/core/tcp_out.c ****  *
 997:../../Middlewares/Third_Party/LwIP/src/core/tcp_out.c ****  * @param pcb the tcp_pcb over which to send a segment
 998:../../Middlewares/Third_Party/LwIP/src/core/tcp_out.c ****  * @return ERR_OK if sent, another err_t otherwise
 999:../../Middlewares/Third_Party/LwIP/src/core/tcp_out.c ****  */
1000:../../Middlewares/Third_Party/LwIP/src/core/tcp_out.c **** err_t
1001:../../Middlewares/Third_Party/LwIP/src/core/tcp_out.c **** tcp_send_fin(struct tcp_pcb *pcb)
1002:../../Middlewares/Third_Party/LwIP/src/core/tcp_out.c **** {
1003:../../Middlewares/Third_Party/LwIP/src/core/tcp_out.c ****   LWIP_ASSERT("tcp_send_fin: invalid pcb", pcb != NULL);
1004:../../Middlewares/Third_Party/LwIP/src/core/tcp_out.c **** 
1005:../../Middlewares/Third_Party/LwIP/src/core/tcp_out.c ****   /* first, try to add the fin to the last unsent segment */
1006:../../Middlewares/Third_Party/LwIP/src/core/tcp_out.c ****   if (pcb->unsent != NULL) {
1007:../../Middlewares/Third_Party/LwIP/src/core/tcp_out.c ****     struct tcp_seg *last_unsent;
1008:../../Middlewares/Third_Party/LwIP/src/core/tcp_out.c ****     for (last_unsent = pcb->unsent; last_unsent->next != NULL;
1009:../../Middlewares/Third_Party/LwIP/src/core/tcp_out.c ****          last_unsent = last_unsent->next);
1010:../../Middlewares/Third_Party/LwIP/src/core/tcp_out.c **** 
1011:../../Middlewares/Third_Party/LwIP/src/core/tcp_out.c ****     if ((TCPH_FLAGS(last_unsent->tcphdr) & (TCP_SYN | TCP_FIN | TCP_RST)) == 0) {
1012:../../Middlewares/Third_Party/LwIP/src/core/tcp_out.c ****       /* no SYN/FIN/RST flag in the header, we can add the FIN flag */
1013:../../Middlewares/Third_Party/LwIP/src/core/tcp_out.c ****       TCPH_SET_FLAG(last_unsent->tcphdr, TCP_FIN);
1014:../../Middlewares/Third_Party/LwIP/src/core/tcp_out.c ****       tcp_set_flags(pcb, TF_FIN);
1015:../../Middlewares/Third_Party/LwIP/src/core/tcp_out.c ****       return ERR_OK;
1016:../../Middlewares/Third_Party/LwIP/src/core/tcp_out.c ****     }
1017:../../Middlewares/Third_Party/LwIP/src/core/tcp_out.c ****   }
1018:../../Middlewares/Third_Party/LwIP/src/core/tcp_out.c ****   /* no data, no length, flags, copy=1, no optdata */
1019:../../Middlewares/Third_Party/LwIP/src/core/tcp_out.c ****   return tcp_enqueue_flags(pcb, TCP_FIN);
1020:../../Middlewares/Third_Party/LwIP/src/core/tcp_out.c **** }
1021:../../Middlewares/Third_Party/LwIP/src/core/tcp_out.c **** 
1022:../../Middlewares/Third_Party/LwIP/src/core/tcp_out.c **** /**
1023:../../Middlewares/Third_Party/LwIP/src/core/tcp_out.c ****  * Enqueue SYN or FIN for transmission.
1024:../../Middlewares/Third_Party/LwIP/src/core/tcp_out.c ****  *
1025:../../Middlewares/Third_Party/LwIP/src/core/tcp_out.c ****  * Called by @ref tcp_connect, tcp_listen_input, and @ref tcp_close
1026:../../Middlewares/Third_Party/LwIP/src/core/tcp_out.c ****  * (via @ref tcp_send_fin)
1027:../../Middlewares/Third_Party/LwIP/src/core/tcp_out.c ****  *
1028:../../Middlewares/Third_Party/LwIP/src/core/tcp_out.c ****  * @param pcb Protocol control block for the TCP connection.
1029:../../Middlewares/Third_Party/LwIP/src/core/tcp_out.c ****  * @param flags TCP header flags to set in the outgoing segment.
1030:../../Middlewares/Third_Party/LwIP/src/core/tcp_out.c ****  */
1031:../../Middlewares/Third_Party/LwIP/src/core/tcp_out.c **** err_t
1032:../../Middlewares/Third_Party/LwIP/src/core/tcp_out.c **** tcp_enqueue_flags(struct tcp_pcb *pcb, u8_t flags)
1033:../../Middlewares/Third_Party/LwIP/src/core/tcp_out.c **** {
1034:../../Middlewares/Third_Party/LwIP/src/core/tcp_out.c ****   struct pbuf *p;
1035:../../Middlewares/Third_Party/LwIP/src/core/tcp_out.c ****   struct tcp_seg *seg;
ARM GAS  C:\Users\minis\AppData\Local\Temp\cc2ZMwrX.s 			page 24


1036:../../Middlewares/Third_Party/LwIP/src/core/tcp_out.c ****   u8_t optflags = 0;
1037:../../Middlewares/Third_Party/LwIP/src/core/tcp_out.c ****   u8_t optlen = 0;
1038:../../Middlewares/Third_Party/LwIP/src/core/tcp_out.c **** 
1039:../../Middlewares/Third_Party/LwIP/src/core/tcp_out.c ****   LWIP_DEBUGF(TCP_QLEN_DEBUG, ("tcp_enqueue_flags: queuelen: %"U16_F"\n", (u16_t)pcb->snd_queuelen)
1040:../../Middlewares/Third_Party/LwIP/src/core/tcp_out.c **** 
1041:../../Middlewares/Third_Party/LwIP/src/core/tcp_out.c ****   LWIP_ASSERT("tcp_enqueue_flags: need either TCP_SYN or TCP_FIN in flags (programmer violates API)
1042:../../Middlewares/Third_Party/LwIP/src/core/tcp_out.c ****               (flags & (TCP_SYN | TCP_FIN)) != 0);
1043:../../Middlewares/Third_Party/LwIP/src/core/tcp_out.c ****   LWIP_ASSERT("tcp_enqueue_flags: invalid pcb", pcb != NULL);
1044:../../Middlewares/Third_Party/LwIP/src/core/tcp_out.c **** 
1045:../../Middlewares/Third_Party/LwIP/src/core/tcp_out.c ****   /* No need to check pcb->snd_queuelen if only SYN or FIN are allowed! */
1046:../../Middlewares/Third_Party/LwIP/src/core/tcp_out.c **** 
1047:../../Middlewares/Third_Party/LwIP/src/core/tcp_out.c ****   /* Get options for this segment. This is a special case since this is the
1048:../../Middlewares/Third_Party/LwIP/src/core/tcp_out.c ****      only place where a SYN can be sent. */
1049:../../Middlewares/Third_Party/LwIP/src/core/tcp_out.c ****   if (flags & TCP_SYN) {
1050:../../Middlewares/Third_Party/LwIP/src/core/tcp_out.c ****     optflags = TF_SEG_OPTS_MSS;
1051:../../Middlewares/Third_Party/LwIP/src/core/tcp_out.c **** #if LWIP_WND_SCALE
1052:../../Middlewares/Third_Party/LwIP/src/core/tcp_out.c ****     if ((pcb->state != SYN_RCVD) || (pcb->flags & TF_WND_SCALE)) {
1053:../../Middlewares/Third_Party/LwIP/src/core/tcp_out.c ****       /* In a <SYN,ACK> (sent in state SYN_RCVD), the window scale option may only
1054:../../Middlewares/Third_Party/LwIP/src/core/tcp_out.c ****          be sent if we received a window scale option from the remote host. */
1055:../../Middlewares/Third_Party/LwIP/src/core/tcp_out.c ****       optflags |= TF_SEG_OPTS_WND_SCALE;
1056:../../Middlewares/Third_Party/LwIP/src/core/tcp_out.c ****     }
1057:../../Middlewares/Third_Party/LwIP/src/core/tcp_out.c **** #endif /* LWIP_WND_SCALE */
1058:../../Middlewares/Third_Party/LwIP/src/core/tcp_out.c **** #if LWIP_TCP_SACK_OUT
1059:../../Middlewares/Third_Party/LwIP/src/core/tcp_out.c ****     if ((pcb->state != SYN_RCVD) || (pcb->flags & TF_SACK)) {
1060:../../Middlewares/Third_Party/LwIP/src/core/tcp_out.c ****       /* In a <SYN,ACK> (sent in state SYN_RCVD), the SACK_PERM option may only
1061:../../Middlewares/Third_Party/LwIP/src/core/tcp_out.c ****          be sent if we received a SACK_PERM option from the remote host. */
1062:../../Middlewares/Third_Party/LwIP/src/core/tcp_out.c ****       optflags |= TF_SEG_OPTS_SACK_PERM;
1063:../../Middlewares/Third_Party/LwIP/src/core/tcp_out.c ****     }
1064:../../Middlewares/Third_Party/LwIP/src/core/tcp_out.c **** #endif /* LWIP_TCP_SACK_OUT */
1065:../../Middlewares/Third_Party/LwIP/src/core/tcp_out.c ****   }
1066:../../Middlewares/Third_Party/LwIP/src/core/tcp_out.c **** #if LWIP_TCP_TIMESTAMPS
1067:../../Middlewares/Third_Party/LwIP/src/core/tcp_out.c ****   if ((pcb->flags & TF_TIMESTAMP) || ((flags & TCP_SYN) && (pcb->state != SYN_RCVD))) {
1068:../../Middlewares/Third_Party/LwIP/src/core/tcp_out.c ****     /* Make sure the timestamp option is only included in data segments if we
1069:../../Middlewares/Third_Party/LwIP/src/core/tcp_out.c ****        agreed about it with the remote host (and in active open SYN segments). */
1070:../../Middlewares/Third_Party/LwIP/src/core/tcp_out.c ****     optflags |= TF_SEG_OPTS_TS;
1071:../../Middlewares/Third_Party/LwIP/src/core/tcp_out.c ****   }
1072:../../Middlewares/Third_Party/LwIP/src/core/tcp_out.c **** #endif /* LWIP_TCP_TIMESTAMPS */
1073:../../Middlewares/Third_Party/LwIP/src/core/tcp_out.c ****   optlen = LWIP_TCP_OPT_LENGTH_SEGMENT(optflags, pcb);
1074:../../Middlewares/Third_Party/LwIP/src/core/tcp_out.c **** 
1075:../../Middlewares/Third_Party/LwIP/src/core/tcp_out.c ****   /* Allocate pbuf with room for TCP header + options */
1076:../../Middlewares/Third_Party/LwIP/src/core/tcp_out.c ****   if ((p = pbuf_alloc(PBUF_TRANSPORT, optlen, PBUF_RAM)) == NULL) {
1077:../../Middlewares/Third_Party/LwIP/src/core/tcp_out.c ****     tcp_set_flags(pcb, TF_NAGLEMEMERR);
1078:../../Middlewares/Third_Party/LwIP/src/core/tcp_out.c ****     TCP_STATS_INC(tcp.memerr);
1079:../../Middlewares/Third_Party/LwIP/src/core/tcp_out.c ****     return ERR_MEM;
1080:../../Middlewares/Third_Party/LwIP/src/core/tcp_out.c ****   }
1081:../../Middlewares/Third_Party/LwIP/src/core/tcp_out.c ****   LWIP_ASSERT("tcp_enqueue_flags: check that first pbuf can hold optlen",
1082:../../Middlewares/Third_Party/LwIP/src/core/tcp_out.c ****               (p->len >= optlen));
1083:../../Middlewares/Third_Party/LwIP/src/core/tcp_out.c **** 
1084:../../Middlewares/Third_Party/LwIP/src/core/tcp_out.c ****   /* Allocate memory for tcp_seg, and fill in fields. */
1085:../../Middlewares/Third_Party/LwIP/src/core/tcp_out.c ****   if ((seg = tcp_create_segment(pcb, p, flags, pcb->snd_lbb, optflags)) == NULL) {
1086:../../Middlewares/Third_Party/LwIP/src/core/tcp_out.c ****     tcp_set_flags(pcb, TF_NAGLEMEMERR);
1087:../../Middlewares/Third_Party/LwIP/src/core/tcp_out.c ****     TCP_STATS_INC(tcp.memerr);
1088:../../Middlewares/Third_Party/LwIP/src/core/tcp_out.c ****     return ERR_MEM;
1089:../../Middlewares/Third_Party/LwIP/src/core/tcp_out.c ****   }
1090:../../Middlewares/Third_Party/LwIP/src/core/tcp_out.c ****   LWIP_ASSERT("seg->tcphdr not aligned", ((mem_ptr_t)seg->tcphdr % LWIP_MIN(MEM_ALIGNMENT, 4)) == 0
1091:../../Middlewares/Third_Party/LwIP/src/core/tcp_out.c ****   LWIP_ASSERT("tcp_enqueue_flags: invalid segment length", seg->len == 0);
1092:../../Middlewares/Third_Party/LwIP/src/core/tcp_out.c **** 
ARM GAS  C:\Users\minis\AppData\Local\Temp\cc2ZMwrX.s 			page 25


1093:../../Middlewares/Third_Party/LwIP/src/core/tcp_out.c ****   LWIP_DEBUGF(TCP_OUTPUT_DEBUG | LWIP_DBG_TRACE,
1094:../../Middlewares/Third_Party/LwIP/src/core/tcp_out.c ****               ("tcp_enqueue_flags: queueing %"U32_F":%"U32_F" (0x%"X16_F")\n",
1095:../../Middlewares/Third_Party/LwIP/src/core/tcp_out.c ****                lwip_ntohl(seg->tcphdr->seqno),
1096:../../Middlewares/Third_Party/LwIP/src/core/tcp_out.c ****                lwip_ntohl(seg->tcphdr->seqno) + TCP_TCPLEN(seg),
1097:../../Middlewares/Third_Party/LwIP/src/core/tcp_out.c ****                (u16_t)flags));
1098:../../Middlewares/Third_Party/LwIP/src/core/tcp_out.c **** 
1099:../../Middlewares/Third_Party/LwIP/src/core/tcp_out.c ****   /* Now append seg to pcb->unsent queue */
1100:../../Middlewares/Third_Party/LwIP/src/core/tcp_out.c ****   if (pcb->unsent == NULL) {
1101:../../Middlewares/Third_Party/LwIP/src/core/tcp_out.c ****     pcb->unsent = seg;
1102:../../Middlewares/Third_Party/LwIP/src/core/tcp_out.c ****   } else {
1103:../../Middlewares/Third_Party/LwIP/src/core/tcp_out.c ****     struct tcp_seg *useg;
1104:../../Middlewares/Third_Party/LwIP/src/core/tcp_out.c ****     for (useg = pcb->unsent; useg->next != NULL; useg = useg->next);
1105:../../Middlewares/Third_Party/LwIP/src/core/tcp_out.c ****     useg->next = seg;
1106:../../Middlewares/Third_Party/LwIP/src/core/tcp_out.c ****   }
1107:../../Middlewares/Third_Party/LwIP/src/core/tcp_out.c **** #if TCP_OVERSIZE
1108:../../Middlewares/Third_Party/LwIP/src/core/tcp_out.c ****   /* The new unsent tail has no space */
1109:../../Middlewares/Third_Party/LwIP/src/core/tcp_out.c ****   pcb->unsent_oversize = 0;
1110:../../Middlewares/Third_Party/LwIP/src/core/tcp_out.c **** #endif /* TCP_OVERSIZE */
1111:../../Middlewares/Third_Party/LwIP/src/core/tcp_out.c **** 
1112:../../Middlewares/Third_Party/LwIP/src/core/tcp_out.c ****   /* SYN and FIN bump the sequence number */
1113:../../Middlewares/Third_Party/LwIP/src/core/tcp_out.c ****   if ((flags & TCP_SYN) || (flags & TCP_FIN)) {
1114:../../Middlewares/Third_Party/LwIP/src/core/tcp_out.c ****     pcb->snd_lbb++;
1115:../../Middlewares/Third_Party/LwIP/src/core/tcp_out.c ****     /* optlen does not influence snd_buf */
1116:../../Middlewares/Third_Party/LwIP/src/core/tcp_out.c ****   }
1117:../../Middlewares/Third_Party/LwIP/src/core/tcp_out.c ****   if (flags & TCP_FIN) {
1118:../../Middlewares/Third_Party/LwIP/src/core/tcp_out.c ****     tcp_set_flags(pcb, TF_FIN);
1119:../../Middlewares/Third_Party/LwIP/src/core/tcp_out.c ****   }
1120:../../Middlewares/Third_Party/LwIP/src/core/tcp_out.c **** 
1121:../../Middlewares/Third_Party/LwIP/src/core/tcp_out.c ****   /* update number of segments on the queues */
1122:../../Middlewares/Third_Party/LwIP/src/core/tcp_out.c ****   pcb->snd_queuelen += pbuf_clen(seg->p);
1123:../../Middlewares/Third_Party/LwIP/src/core/tcp_out.c ****   LWIP_DEBUGF(TCP_QLEN_DEBUG, ("tcp_enqueue_flags: %"S16_F" (after enqueued)\n", pcb->snd_queuelen)
1124:../../Middlewares/Third_Party/LwIP/src/core/tcp_out.c ****   if (pcb->snd_queuelen != 0) {
1125:../../Middlewares/Third_Party/LwIP/src/core/tcp_out.c ****     LWIP_ASSERT("tcp_enqueue_flags: invalid queue length",
1126:../../Middlewares/Third_Party/LwIP/src/core/tcp_out.c ****                 pcb->unacked != NULL || pcb->unsent != NULL);
1127:../../Middlewares/Third_Party/LwIP/src/core/tcp_out.c ****   }
1128:../../Middlewares/Third_Party/LwIP/src/core/tcp_out.c **** 
1129:../../Middlewares/Third_Party/LwIP/src/core/tcp_out.c ****   return ERR_OK;
1130:../../Middlewares/Third_Party/LwIP/src/core/tcp_out.c **** }
1131:../../Middlewares/Third_Party/LwIP/src/core/tcp_out.c **** 
1132:../../Middlewares/Third_Party/LwIP/src/core/tcp_out.c **** #if LWIP_TCP_TIMESTAMPS
1133:../../Middlewares/Third_Party/LwIP/src/core/tcp_out.c **** /* Build a timestamp option (12 bytes long) at the specified options pointer)
1134:../../Middlewares/Third_Party/LwIP/src/core/tcp_out.c ****  *
1135:../../Middlewares/Third_Party/LwIP/src/core/tcp_out.c ****  * @param pcb tcp_pcb
1136:../../Middlewares/Third_Party/LwIP/src/core/tcp_out.c ****  * @param opts option pointer where to store the timestamp option
1137:../../Middlewares/Third_Party/LwIP/src/core/tcp_out.c ****  */
1138:../../Middlewares/Third_Party/LwIP/src/core/tcp_out.c **** static void
1139:../../Middlewares/Third_Party/LwIP/src/core/tcp_out.c **** tcp_build_timestamp_option(const struct tcp_pcb *pcb, u32_t *opts)
1140:../../Middlewares/Third_Party/LwIP/src/core/tcp_out.c **** {
1141:../../Middlewares/Third_Party/LwIP/src/core/tcp_out.c ****   LWIP_ASSERT("tcp_build_timestamp_option: invalid pcb", pcb != NULL);
1142:../../Middlewares/Third_Party/LwIP/src/core/tcp_out.c **** 
1143:../../Middlewares/Third_Party/LwIP/src/core/tcp_out.c ****   /* Pad with two NOP options to make everything nicely aligned */
1144:../../Middlewares/Third_Party/LwIP/src/core/tcp_out.c ****   opts[0] = PP_HTONL(0x0101080A);
1145:../../Middlewares/Third_Party/LwIP/src/core/tcp_out.c ****   opts[1] = lwip_htonl(sys_now());
1146:../../Middlewares/Third_Party/LwIP/src/core/tcp_out.c ****   opts[2] = lwip_htonl(pcb->ts_recent);
1147:../../Middlewares/Third_Party/LwIP/src/core/tcp_out.c **** }
1148:../../Middlewares/Third_Party/LwIP/src/core/tcp_out.c **** #endif
1149:../../Middlewares/Third_Party/LwIP/src/core/tcp_out.c **** 
ARM GAS  C:\Users\minis\AppData\Local\Temp\cc2ZMwrX.s 			page 26


1150:../../Middlewares/Third_Party/LwIP/src/core/tcp_out.c **** #if LWIP_TCP_SACK_OUT
1151:../../Middlewares/Third_Party/LwIP/src/core/tcp_out.c **** /**
1152:../../Middlewares/Third_Party/LwIP/src/core/tcp_out.c ****  * Calculates the number of SACK entries that should be generated.
1153:../../Middlewares/Third_Party/LwIP/src/core/tcp_out.c ****  * It takes into account whether TF_SACK flag is set,
1154:../../Middlewares/Third_Party/LwIP/src/core/tcp_out.c ****  * the number of SACK entries in tcp_pcb that are valid,
1155:../../Middlewares/Third_Party/LwIP/src/core/tcp_out.c ****  * as well as the available options size.
1156:../../Middlewares/Third_Party/LwIP/src/core/tcp_out.c ****  *
1157:../../Middlewares/Third_Party/LwIP/src/core/tcp_out.c ****  * @param pcb tcp_pcb
1158:../../Middlewares/Third_Party/LwIP/src/core/tcp_out.c ****  * @param optlen the length of other TCP options (in bytes)
1159:../../Middlewares/Third_Party/LwIP/src/core/tcp_out.c ****  * @return the number of SACK ranges that can be used
1160:../../Middlewares/Third_Party/LwIP/src/core/tcp_out.c ****  */
1161:../../Middlewares/Third_Party/LwIP/src/core/tcp_out.c **** static u8_t
1162:../../Middlewares/Third_Party/LwIP/src/core/tcp_out.c **** tcp_get_num_sacks(const struct tcp_pcb *pcb, u8_t optlen)
1163:../../Middlewares/Third_Party/LwIP/src/core/tcp_out.c **** {
1164:../../Middlewares/Third_Party/LwIP/src/core/tcp_out.c ****   u8_t num_sacks = 0;
1165:../../Middlewares/Third_Party/LwIP/src/core/tcp_out.c **** 
1166:../../Middlewares/Third_Party/LwIP/src/core/tcp_out.c ****   LWIP_ASSERT("tcp_get_num_sacks: invalid pcb", pcb != NULL);
1167:../../Middlewares/Third_Party/LwIP/src/core/tcp_out.c **** 
1168:../../Middlewares/Third_Party/LwIP/src/core/tcp_out.c ****   if (pcb->flags & TF_SACK) {
1169:../../Middlewares/Third_Party/LwIP/src/core/tcp_out.c ****     u8_t i;
1170:../../Middlewares/Third_Party/LwIP/src/core/tcp_out.c **** 
1171:../../Middlewares/Third_Party/LwIP/src/core/tcp_out.c ****     /* The first SACK takes up 12 bytes (it includes SACK header and two NOP options),
1172:../../Middlewares/Third_Party/LwIP/src/core/tcp_out.c ****        each additional one - 8 bytes. */
1173:../../Middlewares/Third_Party/LwIP/src/core/tcp_out.c ****     optlen += 12;
1174:../../Middlewares/Third_Party/LwIP/src/core/tcp_out.c **** 
1175:../../Middlewares/Third_Party/LwIP/src/core/tcp_out.c ****     /* Max options size = 40, number of SACK array entries = LWIP_TCP_MAX_SACK_NUM */
1176:../../Middlewares/Third_Party/LwIP/src/core/tcp_out.c ****     for (i = 0; (i < LWIP_TCP_MAX_SACK_NUM) && (optlen <= TCP_MAX_OPTION_BYTES) &&
1177:../../Middlewares/Third_Party/LwIP/src/core/tcp_out.c ****          LWIP_TCP_SACK_VALID(pcb, i); ++i) {
1178:../../Middlewares/Third_Party/LwIP/src/core/tcp_out.c ****       ++num_sacks;
1179:../../Middlewares/Third_Party/LwIP/src/core/tcp_out.c ****       optlen += 8;
1180:../../Middlewares/Third_Party/LwIP/src/core/tcp_out.c ****     }
1181:../../Middlewares/Third_Party/LwIP/src/core/tcp_out.c ****   }
1182:../../Middlewares/Third_Party/LwIP/src/core/tcp_out.c **** 
1183:../../Middlewares/Third_Party/LwIP/src/core/tcp_out.c ****   return num_sacks;
1184:../../Middlewares/Third_Party/LwIP/src/core/tcp_out.c **** }
1185:../../Middlewares/Third_Party/LwIP/src/core/tcp_out.c **** 
1186:../../Middlewares/Third_Party/LwIP/src/core/tcp_out.c **** /** Build a SACK option (12 or more bytes long) at the specified options pointer)
1187:../../Middlewares/Third_Party/LwIP/src/core/tcp_out.c ****  *
1188:../../Middlewares/Third_Party/LwIP/src/core/tcp_out.c ****  * @param pcb tcp_pcb
1189:../../Middlewares/Third_Party/LwIP/src/core/tcp_out.c ****  * @param opts option pointer where to store the SACK option
1190:../../Middlewares/Third_Party/LwIP/src/core/tcp_out.c ****  * @param num_sacks the number of SACKs to store
1191:../../Middlewares/Third_Party/LwIP/src/core/tcp_out.c ****  */
1192:../../Middlewares/Third_Party/LwIP/src/core/tcp_out.c **** static void
1193:../../Middlewares/Third_Party/LwIP/src/core/tcp_out.c **** tcp_build_sack_option(const struct tcp_pcb *pcb, u32_t *opts, u8_t num_sacks)
1194:../../Middlewares/Third_Party/LwIP/src/core/tcp_out.c **** {
1195:../../Middlewares/Third_Party/LwIP/src/core/tcp_out.c ****   u8_t i;
1196:../../Middlewares/Third_Party/LwIP/src/core/tcp_out.c **** 
1197:../../Middlewares/Third_Party/LwIP/src/core/tcp_out.c ****   LWIP_ASSERT("tcp_build_sack_option: invalid pcb", pcb != NULL);
1198:../../Middlewares/Third_Party/LwIP/src/core/tcp_out.c ****   LWIP_ASSERT("tcp_build_sack_option: invalid opts", opts != NULL);
1199:../../Middlewares/Third_Party/LwIP/src/core/tcp_out.c **** 
1200:../../Middlewares/Third_Party/LwIP/src/core/tcp_out.c ****   /* Pad with two NOP options to make everything nicely aligned.
1201:../../Middlewares/Third_Party/LwIP/src/core/tcp_out.c ****      We add the length (of just the SACK option, not the NOPs in front of it),
1202:../../Middlewares/Third_Party/LwIP/src/core/tcp_out.c ****      which is 2B of header, plus 8B for each SACK. */
1203:../../Middlewares/Third_Party/LwIP/src/core/tcp_out.c ****   *(opts++) = PP_HTONL(0x01010500 + 2 + num_sacks * 8);
1204:../../Middlewares/Third_Party/LwIP/src/core/tcp_out.c **** 
1205:../../Middlewares/Third_Party/LwIP/src/core/tcp_out.c ****   for (i = 0; i < num_sacks; ++i) {
1206:../../Middlewares/Third_Party/LwIP/src/core/tcp_out.c ****     *(opts++) = lwip_htonl(pcb->rcv_sacks[i].left);
ARM GAS  C:\Users\minis\AppData\Local\Temp\cc2ZMwrX.s 			page 27


1207:../../Middlewares/Third_Party/LwIP/src/core/tcp_out.c ****     *(opts++) = lwip_htonl(pcb->rcv_sacks[i].right);
1208:../../Middlewares/Third_Party/LwIP/src/core/tcp_out.c ****   }
1209:../../Middlewares/Third_Party/LwIP/src/core/tcp_out.c **** }
1210:../../Middlewares/Third_Party/LwIP/src/core/tcp_out.c **** 
1211:../../Middlewares/Third_Party/LwIP/src/core/tcp_out.c **** #endif
1212:../../Middlewares/Third_Party/LwIP/src/core/tcp_out.c **** 
1213:../../Middlewares/Third_Party/LwIP/src/core/tcp_out.c **** #if LWIP_WND_SCALE
1214:../../Middlewares/Third_Party/LwIP/src/core/tcp_out.c **** /** Build a window scale option (3 bytes long) at the specified options pointer)
1215:../../Middlewares/Third_Party/LwIP/src/core/tcp_out.c ****  *
1216:../../Middlewares/Third_Party/LwIP/src/core/tcp_out.c ****  * @param opts option pointer where to store the window scale option
1217:../../Middlewares/Third_Party/LwIP/src/core/tcp_out.c ****  */
1218:../../Middlewares/Third_Party/LwIP/src/core/tcp_out.c **** static void
1219:../../Middlewares/Third_Party/LwIP/src/core/tcp_out.c **** tcp_build_wnd_scale_option(u32_t *opts)
1220:../../Middlewares/Third_Party/LwIP/src/core/tcp_out.c **** {
1221:../../Middlewares/Third_Party/LwIP/src/core/tcp_out.c ****   LWIP_ASSERT("tcp_build_wnd_scale_option: invalid opts", opts != NULL);
1222:../../Middlewares/Third_Party/LwIP/src/core/tcp_out.c **** 
1223:../../Middlewares/Third_Party/LwIP/src/core/tcp_out.c ****   /* Pad with one NOP option to make everything nicely aligned */
1224:../../Middlewares/Third_Party/LwIP/src/core/tcp_out.c ****   opts[0] = PP_HTONL(0x01030300 | TCP_RCV_SCALE);
1225:../../Middlewares/Third_Party/LwIP/src/core/tcp_out.c **** }
1226:../../Middlewares/Third_Party/LwIP/src/core/tcp_out.c **** #endif
1227:../../Middlewares/Third_Party/LwIP/src/core/tcp_out.c **** 
1228:../../Middlewares/Third_Party/LwIP/src/core/tcp_out.c **** /**
1229:../../Middlewares/Third_Party/LwIP/src/core/tcp_out.c ****  * @ingroup tcp_raw
1230:../../Middlewares/Third_Party/LwIP/src/core/tcp_out.c ****  * Find out what we can send and send it
1231:../../Middlewares/Third_Party/LwIP/src/core/tcp_out.c ****  *
1232:../../Middlewares/Third_Party/LwIP/src/core/tcp_out.c ****  * @param pcb Protocol control block for the TCP connection to send data
1233:../../Middlewares/Third_Party/LwIP/src/core/tcp_out.c ****  * @return ERR_OK if data has been sent or nothing to send
1234:../../Middlewares/Third_Party/LwIP/src/core/tcp_out.c ****  *         another err_t on error
1235:../../Middlewares/Third_Party/LwIP/src/core/tcp_out.c ****  */
1236:../../Middlewares/Third_Party/LwIP/src/core/tcp_out.c **** err_t
1237:../../Middlewares/Third_Party/LwIP/src/core/tcp_out.c **** tcp_output(struct tcp_pcb *pcb)
1238:../../Middlewares/Third_Party/LwIP/src/core/tcp_out.c **** {
1239:../../Middlewares/Third_Party/LwIP/src/core/tcp_out.c ****   struct tcp_seg *seg, *useg;
1240:../../Middlewares/Third_Party/LwIP/src/core/tcp_out.c ****   u32_t wnd, snd_nxt;
1241:../../Middlewares/Third_Party/LwIP/src/core/tcp_out.c ****   err_t err;
1242:../../Middlewares/Third_Party/LwIP/src/core/tcp_out.c ****   struct netif *netif;
1243:../../Middlewares/Third_Party/LwIP/src/core/tcp_out.c **** #if TCP_CWND_DEBUG
1244:../../Middlewares/Third_Party/LwIP/src/core/tcp_out.c ****   s16_t i = 0;
1245:../../Middlewares/Third_Party/LwIP/src/core/tcp_out.c **** #endif /* TCP_CWND_DEBUG */
1246:../../Middlewares/Third_Party/LwIP/src/core/tcp_out.c **** 
1247:../../Middlewares/Third_Party/LwIP/src/core/tcp_out.c ****   LWIP_ASSERT_CORE_LOCKED();
1248:../../Middlewares/Third_Party/LwIP/src/core/tcp_out.c **** 
1249:../../Middlewares/Third_Party/LwIP/src/core/tcp_out.c ****   LWIP_ASSERT("tcp_output: invalid pcb", pcb != NULL);
1250:../../Middlewares/Third_Party/LwIP/src/core/tcp_out.c ****   /* pcb->state LISTEN not allowed here */
1251:../../Middlewares/Third_Party/LwIP/src/core/tcp_out.c ****   LWIP_ASSERT("don't call tcp_output for listen-pcbs",
1252:../../Middlewares/Third_Party/LwIP/src/core/tcp_out.c ****               pcb->state != LISTEN);
1253:../../Middlewares/Third_Party/LwIP/src/core/tcp_out.c **** 
1254:../../Middlewares/Third_Party/LwIP/src/core/tcp_out.c ****   /* First, check if we are invoked by the TCP input processing
1255:../../Middlewares/Third_Party/LwIP/src/core/tcp_out.c ****      code. If so, we do not output anything. Instead, we rely on the
1256:../../Middlewares/Third_Party/LwIP/src/core/tcp_out.c ****      input processing code to call us when input processing is done
1257:../../Middlewares/Third_Party/LwIP/src/core/tcp_out.c ****      with. */
1258:../../Middlewares/Third_Party/LwIP/src/core/tcp_out.c ****   if (tcp_input_pcb == pcb) {
1259:../../Middlewares/Third_Party/LwIP/src/core/tcp_out.c ****     return ERR_OK;
1260:../../Middlewares/Third_Party/LwIP/src/core/tcp_out.c ****   }
1261:../../Middlewares/Third_Party/LwIP/src/core/tcp_out.c **** 
1262:../../Middlewares/Third_Party/LwIP/src/core/tcp_out.c ****   wnd = LWIP_MIN(pcb->snd_wnd, pcb->cwnd);
1263:../../Middlewares/Third_Party/LwIP/src/core/tcp_out.c **** 
ARM GAS  C:\Users\minis\AppData\Local\Temp\cc2ZMwrX.s 			page 28


1264:../../Middlewares/Third_Party/LwIP/src/core/tcp_out.c ****   seg = pcb->unsent;
1265:../../Middlewares/Third_Party/LwIP/src/core/tcp_out.c **** 
1266:../../Middlewares/Third_Party/LwIP/src/core/tcp_out.c ****   if (seg == NULL) {
1267:../../Middlewares/Third_Party/LwIP/src/core/tcp_out.c ****     LWIP_DEBUGF(TCP_OUTPUT_DEBUG, ("tcp_output: nothing to send (%p)\n",
1268:../../Middlewares/Third_Party/LwIP/src/core/tcp_out.c ****                                    (void *)pcb->unsent));
1269:../../Middlewares/Third_Party/LwIP/src/core/tcp_out.c ****     LWIP_DEBUGF(TCP_CWND_DEBUG, ("tcp_output: snd_wnd %"TCPWNDSIZE_F
1270:../../Middlewares/Third_Party/LwIP/src/core/tcp_out.c ****                                  ", cwnd %"TCPWNDSIZE_F", wnd %"U32_F
1271:../../Middlewares/Third_Party/LwIP/src/core/tcp_out.c ****                                  ", seg == NULL, ack %"U32_F"\n",
1272:../../Middlewares/Third_Party/LwIP/src/core/tcp_out.c ****                                  pcb->snd_wnd, pcb->cwnd, wnd, pcb->lastack));
1273:../../Middlewares/Third_Party/LwIP/src/core/tcp_out.c **** 
1274:../../Middlewares/Third_Party/LwIP/src/core/tcp_out.c ****     /* If the TF_ACK_NOW flag is set and the ->unsent queue is empty, construct
1275:../../Middlewares/Third_Party/LwIP/src/core/tcp_out.c ****      * an empty ACK segment and send it. */
1276:../../Middlewares/Third_Party/LwIP/src/core/tcp_out.c ****     if (pcb->flags & TF_ACK_NOW) {
1277:../../Middlewares/Third_Party/LwIP/src/core/tcp_out.c ****       return tcp_send_empty_ack(pcb);
1278:../../Middlewares/Third_Party/LwIP/src/core/tcp_out.c ****     }
1279:../../Middlewares/Third_Party/LwIP/src/core/tcp_out.c ****     /* nothing to send: shortcut out of here */
1280:../../Middlewares/Third_Party/LwIP/src/core/tcp_out.c ****     goto output_done;
1281:../../Middlewares/Third_Party/LwIP/src/core/tcp_out.c ****   } else {
1282:../../Middlewares/Third_Party/LwIP/src/core/tcp_out.c ****     LWIP_DEBUGF(TCP_CWND_DEBUG,
1283:../../Middlewares/Third_Party/LwIP/src/core/tcp_out.c ****                 ("tcp_output: snd_wnd %"TCPWNDSIZE_F", cwnd %"TCPWNDSIZE_F", wnd %"U32_F
1284:../../Middlewares/Third_Party/LwIP/src/core/tcp_out.c ****                  ", effwnd %"U32_F", seq %"U32_F", ack %"U32_F"\n",
1285:../../Middlewares/Third_Party/LwIP/src/core/tcp_out.c ****                  pcb->snd_wnd, pcb->cwnd, wnd,
1286:../../Middlewares/Third_Party/LwIP/src/core/tcp_out.c ****                  lwip_ntohl(seg->tcphdr->seqno) - pcb->lastack + seg->len,
1287:../../Middlewares/Third_Party/LwIP/src/core/tcp_out.c ****                  lwip_ntohl(seg->tcphdr->seqno), pcb->lastack));
1288:../../Middlewares/Third_Party/LwIP/src/core/tcp_out.c ****   }
1289:../../Middlewares/Third_Party/LwIP/src/core/tcp_out.c **** 
1290:../../Middlewares/Third_Party/LwIP/src/core/tcp_out.c ****   netif = tcp_route(pcb, &pcb->local_ip, &pcb->remote_ip);
1291:../../Middlewares/Third_Party/LwIP/src/core/tcp_out.c ****   if (netif == NULL) {
1292:../../Middlewares/Third_Party/LwIP/src/core/tcp_out.c ****     return ERR_RTE;
1293:../../Middlewares/Third_Party/LwIP/src/core/tcp_out.c ****   }
1294:../../Middlewares/Third_Party/LwIP/src/core/tcp_out.c **** 
1295:../../Middlewares/Third_Party/LwIP/src/core/tcp_out.c ****   /* If we don't have a local IP address, we get one from netif */
1296:../../Middlewares/Third_Party/LwIP/src/core/tcp_out.c ****   if (ip_addr_isany(&pcb->local_ip)) {
1297:../../Middlewares/Third_Party/LwIP/src/core/tcp_out.c ****     const ip_addr_t *local_ip = ip_netif_get_local_ip(netif, &pcb->remote_ip);
1298:../../Middlewares/Third_Party/LwIP/src/core/tcp_out.c ****     if (local_ip == NULL) {
1299:../../Middlewares/Third_Party/LwIP/src/core/tcp_out.c ****       return ERR_RTE;
1300:../../Middlewares/Third_Party/LwIP/src/core/tcp_out.c ****     }
1301:../../Middlewares/Third_Party/LwIP/src/core/tcp_out.c ****     ip_addr_copy(pcb->local_ip, *local_ip);
1302:../../Middlewares/Third_Party/LwIP/src/core/tcp_out.c ****   }
1303:../../Middlewares/Third_Party/LwIP/src/core/tcp_out.c **** 
1304:../../Middlewares/Third_Party/LwIP/src/core/tcp_out.c ****   /* Handle the current segment not fitting within the window */
1305:../../Middlewares/Third_Party/LwIP/src/core/tcp_out.c ****   if (lwip_ntohl(seg->tcphdr->seqno) - pcb->lastack + seg->len > wnd) {
1306:../../Middlewares/Third_Party/LwIP/src/core/tcp_out.c ****     /* We need to start the persistent timer when the next unsent segment does not fit
1307:../../Middlewares/Third_Party/LwIP/src/core/tcp_out.c ****      * within the remaining (could be 0) send window and RTO timer is not running (we
1308:../../Middlewares/Third_Party/LwIP/src/core/tcp_out.c ****      * have no in-flight data). If window is still too small after persist timer fires,
1309:../../Middlewares/Third_Party/LwIP/src/core/tcp_out.c ****      * then we split the segment. We don't consider the congestion window since a cwnd
1310:../../Middlewares/Third_Party/LwIP/src/core/tcp_out.c ****      * smaller than 1 SMSS implies in-flight data
1311:../../Middlewares/Third_Party/LwIP/src/core/tcp_out.c ****      */
1312:../../Middlewares/Third_Party/LwIP/src/core/tcp_out.c ****     if (wnd == pcb->snd_wnd && pcb->unacked == NULL && pcb->persist_backoff == 0) {
1313:../../Middlewares/Third_Party/LwIP/src/core/tcp_out.c ****       pcb->persist_cnt = 0;
1314:../../Middlewares/Third_Party/LwIP/src/core/tcp_out.c ****       pcb->persist_backoff = 1;
1315:../../Middlewares/Third_Party/LwIP/src/core/tcp_out.c ****       pcb->persist_probe = 0;
1316:../../Middlewares/Third_Party/LwIP/src/core/tcp_out.c ****     }
1317:../../Middlewares/Third_Party/LwIP/src/core/tcp_out.c ****     /* We need an ACK, but can't send data now, so send an empty ACK */
1318:../../Middlewares/Third_Party/LwIP/src/core/tcp_out.c ****     if (pcb->flags & TF_ACK_NOW) {
1319:../../Middlewares/Third_Party/LwIP/src/core/tcp_out.c ****       return tcp_send_empty_ack(pcb);
1320:../../Middlewares/Third_Party/LwIP/src/core/tcp_out.c ****     }
ARM GAS  C:\Users\minis\AppData\Local\Temp\cc2ZMwrX.s 			page 29


1321:../../Middlewares/Third_Party/LwIP/src/core/tcp_out.c ****     goto output_done;
1322:../../Middlewares/Third_Party/LwIP/src/core/tcp_out.c ****   }
1323:../../Middlewares/Third_Party/LwIP/src/core/tcp_out.c ****   /* Stop persist timer, above conditions are not active */
1324:../../Middlewares/Third_Party/LwIP/src/core/tcp_out.c ****   pcb->persist_backoff = 0;
1325:../../Middlewares/Third_Party/LwIP/src/core/tcp_out.c **** 
1326:../../Middlewares/Third_Party/LwIP/src/core/tcp_out.c ****   /* useg should point to last segment on unacked queue */
1327:../../Middlewares/Third_Party/LwIP/src/core/tcp_out.c ****   useg = pcb->unacked;
1328:../../Middlewares/Third_Party/LwIP/src/core/tcp_out.c ****   if (useg != NULL) {
1329:../../Middlewares/Third_Party/LwIP/src/core/tcp_out.c ****     for (; useg->next != NULL; useg = useg->next);
1330:../../Middlewares/Third_Party/LwIP/src/core/tcp_out.c ****   }
1331:../../Middlewares/Third_Party/LwIP/src/core/tcp_out.c ****   /* data available and window allows it to be sent? */
1332:../../Middlewares/Third_Party/LwIP/src/core/tcp_out.c ****   while (seg != NULL &&
1333:../../Middlewares/Third_Party/LwIP/src/core/tcp_out.c ****          lwip_ntohl(seg->tcphdr->seqno) - pcb->lastack + seg->len <= wnd) {
1334:../../Middlewares/Third_Party/LwIP/src/core/tcp_out.c ****     LWIP_ASSERT("RST not expected here!",
1335:../../Middlewares/Third_Party/LwIP/src/core/tcp_out.c ****                 (TCPH_FLAGS(seg->tcphdr) & TCP_RST) == 0);
1336:../../Middlewares/Third_Party/LwIP/src/core/tcp_out.c ****     /* Stop sending if the nagle algorithm would prevent it
1337:../../Middlewares/Third_Party/LwIP/src/core/tcp_out.c ****      * Don't stop:
1338:../../Middlewares/Third_Party/LwIP/src/core/tcp_out.c ****      * - if tcp_write had a memory error before (prevent delayed ACK timeout) or
1339:../../Middlewares/Third_Party/LwIP/src/core/tcp_out.c ****      * - if FIN was already enqueued for this PCB (SYN is always alone in a segment -
1340:../../Middlewares/Third_Party/LwIP/src/core/tcp_out.c ****      *   either seg->next != NULL or pcb->unacked == NULL;
1341:../../Middlewares/Third_Party/LwIP/src/core/tcp_out.c ****      *   RST is no sent using tcp_write/tcp_output.
1342:../../Middlewares/Third_Party/LwIP/src/core/tcp_out.c ****      */
1343:../../Middlewares/Third_Party/LwIP/src/core/tcp_out.c ****     if ((tcp_do_output_nagle(pcb) == 0) &&
1344:../../Middlewares/Third_Party/LwIP/src/core/tcp_out.c ****         ((pcb->flags & (TF_NAGLEMEMERR | TF_FIN)) == 0)) {
1345:../../Middlewares/Third_Party/LwIP/src/core/tcp_out.c ****       break;
1346:../../Middlewares/Third_Party/LwIP/src/core/tcp_out.c ****     }
1347:../../Middlewares/Third_Party/LwIP/src/core/tcp_out.c **** #if TCP_CWND_DEBUG
1348:../../Middlewares/Third_Party/LwIP/src/core/tcp_out.c ****     LWIP_DEBUGF(TCP_CWND_DEBUG, ("tcp_output: snd_wnd %"TCPWNDSIZE_F", cwnd %"TCPWNDSIZE_F", wnd %"
1349:../../Middlewares/Third_Party/LwIP/src/core/tcp_out.c ****                                  pcb->snd_wnd, pcb->cwnd, wnd,
1350:../../Middlewares/Third_Party/LwIP/src/core/tcp_out.c ****                                  lwip_ntohl(seg->tcphdr->seqno) + seg->len -
1351:../../Middlewares/Third_Party/LwIP/src/core/tcp_out.c ****                                  pcb->lastack,
1352:../../Middlewares/Third_Party/LwIP/src/core/tcp_out.c ****                                  lwip_ntohl(seg->tcphdr->seqno), pcb->lastack, i));
1353:../../Middlewares/Third_Party/LwIP/src/core/tcp_out.c ****     ++i;
1354:../../Middlewares/Third_Party/LwIP/src/core/tcp_out.c **** #endif /* TCP_CWND_DEBUG */
1355:../../Middlewares/Third_Party/LwIP/src/core/tcp_out.c **** 
1356:../../Middlewares/Third_Party/LwIP/src/core/tcp_out.c ****     if (pcb->state != SYN_SENT) {
1357:../../Middlewares/Third_Party/LwIP/src/core/tcp_out.c ****       TCPH_SET_FLAG(seg->tcphdr, TCP_ACK);
1358:../../Middlewares/Third_Party/LwIP/src/core/tcp_out.c ****     }
1359:../../Middlewares/Third_Party/LwIP/src/core/tcp_out.c **** 
1360:../../Middlewares/Third_Party/LwIP/src/core/tcp_out.c ****     err = tcp_output_segment(seg, pcb, netif);
1361:../../Middlewares/Third_Party/LwIP/src/core/tcp_out.c ****     if (err != ERR_OK) {
1362:../../Middlewares/Third_Party/LwIP/src/core/tcp_out.c ****       /* segment could not be sent, for whatever reason */
1363:../../Middlewares/Third_Party/LwIP/src/core/tcp_out.c ****       tcp_set_flags(pcb, TF_NAGLEMEMERR);
1364:../../Middlewares/Third_Party/LwIP/src/core/tcp_out.c ****       return err;
1365:../../Middlewares/Third_Party/LwIP/src/core/tcp_out.c ****     }
1366:../../Middlewares/Third_Party/LwIP/src/core/tcp_out.c **** #if TCP_OVERSIZE_DBGCHECK
1367:../../Middlewares/Third_Party/LwIP/src/core/tcp_out.c ****     seg->oversize_left = 0;
1368:../../Middlewares/Third_Party/LwIP/src/core/tcp_out.c **** #endif /* TCP_OVERSIZE_DBGCHECK */
1369:../../Middlewares/Third_Party/LwIP/src/core/tcp_out.c ****     pcb->unsent = seg->next;
1370:../../Middlewares/Third_Party/LwIP/src/core/tcp_out.c ****     if (pcb->state != SYN_SENT) {
1371:../../Middlewares/Third_Party/LwIP/src/core/tcp_out.c ****       tcp_clear_flags(pcb, TF_ACK_DELAY | TF_ACK_NOW);
1372:../../Middlewares/Third_Party/LwIP/src/core/tcp_out.c ****     }
1373:../../Middlewares/Third_Party/LwIP/src/core/tcp_out.c ****     snd_nxt = lwip_ntohl(seg->tcphdr->seqno) + TCP_TCPLEN(seg);
1374:../../Middlewares/Third_Party/LwIP/src/core/tcp_out.c ****     if (TCP_SEQ_LT(pcb->snd_nxt, snd_nxt)) {
1375:../../Middlewares/Third_Party/LwIP/src/core/tcp_out.c ****       pcb->snd_nxt = snd_nxt;
1376:../../Middlewares/Third_Party/LwIP/src/core/tcp_out.c ****     }
1377:../../Middlewares/Third_Party/LwIP/src/core/tcp_out.c ****     /* put segment on unacknowledged list if length > 0 */
ARM GAS  C:\Users\minis\AppData\Local\Temp\cc2ZMwrX.s 			page 30


1378:../../Middlewares/Third_Party/LwIP/src/core/tcp_out.c ****     if (TCP_TCPLEN(seg) > 0) {
1379:../../Middlewares/Third_Party/LwIP/src/core/tcp_out.c ****       seg->next = NULL;
1380:../../Middlewares/Third_Party/LwIP/src/core/tcp_out.c ****       /* unacked list is empty? */
1381:../../Middlewares/Third_Party/LwIP/src/core/tcp_out.c ****       if (pcb->unacked == NULL) {
1382:../../Middlewares/Third_Party/LwIP/src/core/tcp_out.c ****         pcb->unacked = seg;
1383:../../Middlewares/Third_Party/LwIP/src/core/tcp_out.c ****         useg = seg;
1384:../../Middlewares/Third_Party/LwIP/src/core/tcp_out.c ****         /* unacked list is not empty? */
1385:../../Middlewares/Third_Party/LwIP/src/core/tcp_out.c ****       } else {
1386:../../Middlewares/Third_Party/LwIP/src/core/tcp_out.c ****         /* In the case of fast retransmit, the packet should not go to the tail
1387:../../Middlewares/Third_Party/LwIP/src/core/tcp_out.c ****          * of the unacked queue, but rather somewhere before it. We need to check for
1388:../../Middlewares/Third_Party/LwIP/src/core/tcp_out.c ****          * this case. -STJ Jul 27, 2004 */
1389:../../Middlewares/Third_Party/LwIP/src/core/tcp_out.c ****         if (TCP_SEQ_LT(lwip_ntohl(seg->tcphdr->seqno), lwip_ntohl(useg->tcphdr->seqno))) {
1390:../../Middlewares/Third_Party/LwIP/src/core/tcp_out.c ****           /* add segment to before tail of unacked list, keeping the list sorted */
1391:../../Middlewares/Third_Party/LwIP/src/core/tcp_out.c ****           struct tcp_seg **cur_seg = &(pcb->unacked);
1392:../../Middlewares/Third_Party/LwIP/src/core/tcp_out.c ****           while (*cur_seg &&
1393:../../Middlewares/Third_Party/LwIP/src/core/tcp_out.c ****                  TCP_SEQ_LT(lwip_ntohl((*cur_seg)->tcphdr->seqno), lwip_ntohl(seg->tcphdr->seqno)))
1394:../../Middlewares/Third_Party/LwIP/src/core/tcp_out.c ****             cur_seg = &((*cur_seg)->next );
1395:../../Middlewares/Third_Party/LwIP/src/core/tcp_out.c ****           }
1396:../../Middlewares/Third_Party/LwIP/src/core/tcp_out.c ****           seg->next = (*cur_seg);
1397:../../Middlewares/Third_Party/LwIP/src/core/tcp_out.c ****           (*cur_seg) = seg;
1398:../../Middlewares/Third_Party/LwIP/src/core/tcp_out.c ****         } else {
1399:../../Middlewares/Third_Party/LwIP/src/core/tcp_out.c ****           /* add segment to tail of unacked list */
1400:../../Middlewares/Third_Party/LwIP/src/core/tcp_out.c ****           useg->next = seg;
1401:../../Middlewares/Third_Party/LwIP/src/core/tcp_out.c ****           useg = useg->next;
1402:../../Middlewares/Third_Party/LwIP/src/core/tcp_out.c ****         }
1403:../../Middlewares/Third_Party/LwIP/src/core/tcp_out.c ****       }
1404:../../Middlewares/Third_Party/LwIP/src/core/tcp_out.c ****       /* do not queue empty segments on the unacked list */
1405:../../Middlewares/Third_Party/LwIP/src/core/tcp_out.c ****     } else {
1406:../../Middlewares/Third_Party/LwIP/src/core/tcp_out.c ****       tcp_seg_free(seg);
1407:../../Middlewares/Third_Party/LwIP/src/core/tcp_out.c ****     }
1408:../../Middlewares/Third_Party/LwIP/src/core/tcp_out.c ****     seg = pcb->unsent;
1409:../../Middlewares/Third_Party/LwIP/src/core/tcp_out.c ****   }
1410:../../Middlewares/Third_Party/LwIP/src/core/tcp_out.c **** #if TCP_OVERSIZE
1411:../../Middlewares/Third_Party/LwIP/src/core/tcp_out.c ****   if (pcb->unsent == NULL) {
1412:../../Middlewares/Third_Party/LwIP/src/core/tcp_out.c ****     /* last unsent has been removed, reset unsent_oversize */
1413:../../Middlewares/Third_Party/LwIP/src/core/tcp_out.c ****     pcb->unsent_oversize = 0;
1414:../../Middlewares/Third_Party/LwIP/src/core/tcp_out.c ****   }
1415:../../Middlewares/Third_Party/LwIP/src/core/tcp_out.c **** #endif /* TCP_OVERSIZE */
1416:../../Middlewares/Third_Party/LwIP/src/core/tcp_out.c **** 
1417:../../Middlewares/Third_Party/LwIP/src/core/tcp_out.c **** output_done:
1418:../../Middlewares/Third_Party/LwIP/src/core/tcp_out.c ****   tcp_clear_flags(pcb, TF_NAGLEMEMERR);
1419:../../Middlewares/Third_Party/LwIP/src/core/tcp_out.c ****   return ERR_OK;
1420:../../Middlewares/Third_Party/LwIP/src/core/tcp_out.c **** }
1421:../../Middlewares/Third_Party/LwIP/src/core/tcp_out.c **** 
1422:../../Middlewares/Third_Party/LwIP/src/core/tcp_out.c **** /** Check if a segment's pbufs are used by someone else than TCP.
1423:../../Middlewares/Third_Party/LwIP/src/core/tcp_out.c ****  * This can happen on retransmission if the pbuf of this segment is still
1424:../../Middlewares/Third_Party/LwIP/src/core/tcp_out.c ****  * referenced by the netif driver due to deferred transmission.
1425:../../Middlewares/Third_Party/LwIP/src/core/tcp_out.c ****  * This is the case (only!) if someone down the TX call path called
1426:../../Middlewares/Third_Party/LwIP/src/core/tcp_out.c ****  * pbuf_ref() on one of the pbufs!
1427:../../Middlewares/Third_Party/LwIP/src/core/tcp_out.c ****  *
1428:../../Middlewares/Third_Party/LwIP/src/core/tcp_out.c ****  * @arg seg the tcp segment to check
1429:../../Middlewares/Third_Party/LwIP/src/core/tcp_out.c ****  * @return 1 if ref != 1, 0 if ref == 1
1430:../../Middlewares/Third_Party/LwIP/src/core/tcp_out.c ****  */
1431:../../Middlewares/Third_Party/LwIP/src/core/tcp_out.c **** static int
1432:../../Middlewares/Third_Party/LwIP/src/core/tcp_out.c **** tcp_output_segment_busy(const struct tcp_seg *seg)
1433:../../Middlewares/Third_Party/LwIP/src/core/tcp_out.c **** {
 228              		.loc 1 1433 1 is_stmt 1 view -0
ARM GAS  C:\Users\minis\AppData\Local\Temp\cc2ZMwrX.s 			page 31


 229              		.cfi_startproc
 230              		@ args = 0, pretend = 0, frame = 0
 231              		@ frame_needed = 0, uses_anonymous_args = 0
 232              		.loc 1 1433 1 is_stmt 0 view .LVU59
 233 0000 10B5     		push	{r4, lr}
 234              	.LCFI1:
 235              		.cfi_def_cfa_offset 8
 236              		.cfi_offset 4, -8
 237              		.cfi_offset 14, -4
1434:../../Middlewares/Third_Party/LwIP/src/core/tcp_out.c ****   LWIP_ASSERT("tcp_output_segment_busy: invalid seg", seg != NULL);
 238              		.loc 1 1434 3 is_stmt 1 view .LVU60
 239              		.loc 1 1434 3 view .LVU61
 240 0002 0446     		mov	r4, r0
 241 0004 28B1     		cbz	r0, .L28
 242              	.LVL10:
 243              	.L24:
 244              		.loc 1 1434 3 view .LVU62
 245              		.loc 1 1434 3 view .LVU63
1435:../../Middlewares/Third_Party/LwIP/src/core/tcp_out.c **** 
1436:../../Middlewares/Third_Party/LwIP/src/core/tcp_out.c ****   /* We only need to check the first pbuf here:
1437:../../Middlewares/Third_Party/LwIP/src/core/tcp_out.c ****      If a pbuf is queued for transmission, a driver calls pbuf_ref(),
1438:../../Middlewares/Third_Party/LwIP/src/core/tcp_out.c ****      which only changes the ref count of the first pbuf */
1439:../../Middlewares/Third_Party/LwIP/src/core/tcp_out.c ****   if (seg->p->ref != 1) {
 246              		.loc 1 1439 3 view .LVU64
 247              		.loc 1 1439 10 is_stmt 0 view .LVU65
 248 0006 6368     		ldr	r3, [r4, #4]
 249              		.loc 1 1439 13 view .LVU66
 250 0008 9B7B     		ldrb	r3, [r3, #14]	@ zero_extendqisi2
 251              		.loc 1 1439 6 view .LVU67
 252 000a 012B     		cmp	r3, #1
 253 000c 09D1     		bne	.L26
1440:../../Middlewares/Third_Party/LwIP/src/core/tcp_out.c ****     /* other reference found */
1441:../../Middlewares/Third_Party/LwIP/src/core/tcp_out.c ****     return 1;
1442:../../Middlewares/Third_Party/LwIP/src/core/tcp_out.c ****   }
1443:../../Middlewares/Third_Party/LwIP/src/core/tcp_out.c ****   /* no other references found */
1444:../../Middlewares/Third_Party/LwIP/src/core/tcp_out.c ****   return 0;
 254              		.loc 1 1444 10 view .LVU68
 255 000e 0020     		movs	r0, #0
 256              	.L23:
1445:../../Middlewares/Third_Party/LwIP/src/core/tcp_out.c **** }
 257              		.loc 1 1445 1 view .LVU69
 258 0010 10BD     		pop	{r4, pc}
 259              	.LVL11:
 260              	.L28:
1434:../../Middlewares/Third_Party/LwIP/src/core/tcp_out.c **** 
 261              		.loc 1 1434 3 is_stmt 1 discriminator 1 view .LVU70
1434:../../Middlewares/Third_Party/LwIP/src/core/tcp_out.c **** 
 262              		.loc 1 1434 3 discriminator 1 view .LVU71
 263 0012 054B     		ldr	r3, .L29
 264 0014 40F29A52 		movw	r2, #1434
 265 0018 0449     		ldr	r1, .L29+4
 266 001a 0548     		ldr	r0, .L29+8
 267              	.LVL12:
1434:../../Middlewares/Third_Party/LwIP/src/core/tcp_out.c **** 
 268              		.loc 1 1434 3 is_stmt 0 discriminator 1 view .LVU72
 269 001c FFF7FEFF 		bl	printf
 270              	.LVL13:
ARM GAS  C:\Users\minis\AppData\Local\Temp\cc2ZMwrX.s 			page 32


 271 0020 F1E7     		b	.L24
 272              	.L26:
1441:../../Middlewares/Third_Party/LwIP/src/core/tcp_out.c ****   }
 273              		.loc 1 1441 12 view .LVU73
 274 0022 0120     		movs	r0, #1
 275 0024 F4E7     		b	.L23
 276              	.L30:
 277 0026 00BF     		.align	2
 278              	.L29:
 279 0028 00000000 		.word	.LC0
 280 002c 00000000 		.word	.LC5
 281 0030 58000000 		.word	.LC2
 282              		.cfi_endproc
 283              	.LFE179:
 285              		.section	.rodata.tcp_output_fill_options.str1.4,"aMS",%progbits,1
 286              		.align	2
 287              	.LC6:
 288 0000 7463705F 		.ascii	"tcp_output_fill_options: invalid pbuf\000"
 288      6F757470 
 288      75745F66 
 288      696C6C5F 
 288      6F707469 
 289 0026 0000     		.align	2
 290              	.LC7:
 291 0028 6F707469 		.ascii	"options not filled\000"
 291      6F6E7320 
 291      6E6F7420 
 291      66696C6C 
 291      656400
 292              		.section	.text.tcp_output_fill_options,"ax",%progbits
 293              		.align	1
 294              		.syntax unified
 295              		.thumb
 296              		.thumb_func
 298              	tcp_output_fill_options:
 299              	.LVL14:
 300              	.LFB188:
1446:../../Middlewares/Third_Party/LwIP/src/core/tcp_out.c **** 
1447:../../Middlewares/Third_Party/LwIP/src/core/tcp_out.c **** /**
1448:../../Middlewares/Third_Party/LwIP/src/core/tcp_out.c ****  * Called by tcp_output() to actually send a TCP segment over IP.
1449:../../Middlewares/Third_Party/LwIP/src/core/tcp_out.c ****  *
1450:../../Middlewares/Third_Party/LwIP/src/core/tcp_out.c ****  * @param seg the tcp_seg to send
1451:../../Middlewares/Third_Party/LwIP/src/core/tcp_out.c ****  * @param pcb the tcp_pcb for the TCP connection used to send the segment
1452:../../Middlewares/Third_Party/LwIP/src/core/tcp_out.c ****  * @param netif the netif used to send the segment
1453:../../Middlewares/Third_Party/LwIP/src/core/tcp_out.c ****  */
1454:../../Middlewares/Third_Party/LwIP/src/core/tcp_out.c **** static err_t
1455:../../Middlewares/Third_Party/LwIP/src/core/tcp_out.c **** tcp_output_segment(struct tcp_seg *seg, struct tcp_pcb *pcb, struct netif *netif)
1456:../../Middlewares/Third_Party/LwIP/src/core/tcp_out.c **** {
1457:../../Middlewares/Third_Party/LwIP/src/core/tcp_out.c ****   err_t err;
1458:../../Middlewares/Third_Party/LwIP/src/core/tcp_out.c ****   u16_t len;
1459:../../Middlewares/Third_Party/LwIP/src/core/tcp_out.c ****   u32_t *opts;
1460:../../Middlewares/Third_Party/LwIP/src/core/tcp_out.c **** #if TCP_CHECKSUM_ON_COPY
1461:../../Middlewares/Third_Party/LwIP/src/core/tcp_out.c ****   int seg_chksum_was_swapped = 0;
1462:../../Middlewares/Third_Party/LwIP/src/core/tcp_out.c **** #endif
1463:../../Middlewares/Third_Party/LwIP/src/core/tcp_out.c **** 
1464:../../Middlewares/Third_Party/LwIP/src/core/tcp_out.c ****   LWIP_ASSERT("tcp_output_segment: invalid seg", seg != NULL);
1465:../../Middlewares/Third_Party/LwIP/src/core/tcp_out.c ****   LWIP_ASSERT("tcp_output_segment: invalid pcb", pcb != NULL);
ARM GAS  C:\Users\minis\AppData\Local\Temp\cc2ZMwrX.s 			page 33


1466:../../Middlewares/Third_Party/LwIP/src/core/tcp_out.c ****   LWIP_ASSERT("tcp_output_segment: invalid netif", netif != NULL);
1467:../../Middlewares/Third_Party/LwIP/src/core/tcp_out.c **** 
1468:../../Middlewares/Third_Party/LwIP/src/core/tcp_out.c ****   if (tcp_output_segment_busy(seg)) {
1469:../../Middlewares/Third_Party/LwIP/src/core/tcp_out.c ****     /* This should not happen: rexmit functions should have checked this.
1470:../../Middlewares/Third_Party/LwIP/src/core/tcp_out.c ****        However, since this function modifies p->len, we must not continue in this case. */
1471:../../Middlewares/Third_Party/LwIP/src/core/tcp_out.c ****     LWIP_DEBUGF(TCP_RTO_DEBUG | LWIP_DBG_LEVEL_SERIOUS, ("tcp_output_segment: segment busy\n"));
1472:../../Middlewares/Third_Party/LwIP/src/core/tcp_out.c ****     return ERR_OK;
1473:../../Middlewares/Third_Party/LwIP/src/core/tcp_out.c ****   }
1474:../../Middlewares/Third_Party/LwIP/src/core/tcp_out.c **** 
1475:../../Middlewares/Third_Party/LwIP/src/core/tcp_out.c ****   /* The TCP header has already been constructed, but the ackno and
1476:../../Middlewares/Third_Party/LwIP/src/core/tcp_out.c ****    wnd fields remain. */
1477:../../Middlewares/Third_Party/LwIP/src/core/tcp_out.c ****   seg->tcphdr->ackno = lwip_htonl(pcb->rcv_nxt);
1478:../../Middlewares/Third_Party/LwIP/src/core/tcp_out.c **** 
1479:../../Middlewares/Third_Party/LwIP/src/core/tcp_out.c ****   /* advertise our receive window size in this TCP segment */
1480:../../Middlewares/Third_Party/LwIP/src/core/tcp_out.c **** #if LWIP_WND_SCALE
1481:../../Middlewares/Third_Party/LwIP/src/core/tcp_out.c ****   if (seg->flags & TF_SEG_OPTS_WND_SCALE) {
1482:../../Middlewares/Third_Party/LwIP/src/core/tcp_out.c ****     /* The Window field in a SYN segment itself (the only type where we send
1483:../../Middlewares/Third_Party/LwIP/src/core/tcp_out.c ****        the window scale option) is never scaled. */
1484:../../Middlewares/Third_Party/LwIP/src/core/tcp_out.c ****     seg->tcphdr->wnd = lwip_htons(TCPWND_MIN16(pcb->rcv_ann_wnd));
1485:../../Middlewares/Third_Party/LwIP/src/core/tcp_out.c ****   } else
1486:../../Middlewares/Third_Party/LwIP/src/core/tcp_out.c **** #endif /* LWIP_WND_SCALE */
1487:../../Middlewares/Third_Party/LwIP/src/core/tcp_out.c ****   {
1488:../../Middlewares/Third_Party/LwIP/src/core/tcp_out.c ****     seg->tcphdr->wnd = lwip_htons(TCPWND_MIN16(RCV_WND_SCALE(pcb, pcb->rcv_ann_wnd)));
1489:../../Middlewares/Third_Party/LwIP/src/core/tcp_out.c ****   }
1490:../../Middlewares/Third_Party/LwIP/src/core/tcp_out.c **** 
1491:../../Middlewares/Third_Party/LwIP/src/core/tcp_out.c ****   pcb->rcv_ann_right_edge = pcb->rcv_nxt + pcb->rcv_ann_wnd;
1492:../../Middlewares/Third_Party/LwIP/src/core/tcp_out.c **** 
1493:../../Middlewares/Third_Party/LwIP/src/core/tcp_out.c ****   /* Add any requested options.  NB MSS option is only set on SYN
1494:../../Middlewares/Third_Party/LwIP/src/core/tcp_out.c ****      packets, so ignore it here */
1495:../../Middlewares/Third_Party/LwIP/src/core/tcp_out.c ****   /* cast through void* to get rid of alignment warnings */
1496:../../Middlewares/Third_Party/LwIP/src/core/tcp_out.c ****   opts = (u32_t *)(void *)(seg->tcphdr + 1);
1497:../../Middlewares/Third_Party/LwIP/src/core/tcp_out.c ****   if (seg->flags & TF_SEG_OPTS_MSS) {
1498:../../Middlewares/Third_Party/LwIP/src/core/tcp_out.c ****     u16_t mss;
1499:../../Middlewares/Third_Party/LwIP/src/core/tcp_out.c **** #if TCP_CALCULATE_EFF_SEND_MSS
1500:../../Middlewares/Third_Party/LwIP/src/core/tcp_out.c ****     mss = tcp_eff_send_mss_netif(TCP_MSS, netif, &pcb->remote_ip);
1501:../../Middlewares/Third_Party/LwIP/src/core/tcp_out.c **** #else /* TCP_CALCULATE_EFF_SEND_MSS */
1502:../../Middlewares/Third_Party/LwIP/src/core/tcp_out.c ****     mss = TCP_MSS;
1503:../../Middlewares/Third_Party/LwIP/src/core/tcp_out.c **** #endif /* TCP_CALCULATE_EFF_SEND_MSS */
1504:../../Middlewares/Third_Party/LwIP/src/core/tcp_out.c ****     *opts = TCP_BUILD_MSS_OPTION(mss);
1505:../../Middlewares/Third_Party/LwIP/src/core/tcp_out.c ****     opts += 1;
1506:../../Middlewares/Third_Party/LwIP/src/core/tcp_out.c ****   }
1507:../../Middlewares/Third_Party/LwIP/src/core/tcp_out.c **** #if LWIP_TCP_TIMESTAMPS
1508:../../Middlewares/Third_Party/LwIP/src/core/tcp_out.c ****   pcb->ts_lastacksent = pcb->rcv_nxt;
1509:../../Middlewares/Third_Party/LwIP/src/core/tcp_out.c **** 
1510:../../Middlewares/Third_Party/LwIP/src/core/tcp_out.c ****   if (seg->flags & TF_SEG_OPTS_TS) {
1511:../../Middlewares/Third_Party/LwIP/src/core/tcp_out.c ****     tcp_build_timestamp_option(pcb, opts);
1512:../../Middlewares/Third_Party/LwIP/src/core/tcp_out.c ****     opts += 3;
1513:../../Middlewares/Third_Party/LwIP/src/core/tcp_out.c ****   }
1514:../../Middlewares/Third_Party/LwIP/src/core/tcp_out.c **** #endif
1515:../../Middlewares/Third_Party/LwIP/src/core/tcp_out.c **** #if LWIP_WND_SCALE
1516:../../Middlewares/Third_Party/LwIP/src/core/tcp_out.c ****   if (seg->flags & TF_SEG_OPTS_WND_SCALE) {
1517:../../Middlewares/Third_Party/LwIP/src/core/tcp_out.c ****     tcp_build_wnd_scale_option(opts);
1518:../../Middlewares/Third_Party/LwIP/src/core/tcp_out.c ****     opts += 1;
1519:../../Middlewares/Third_Party/LwIP/src/core/tcp_out.c ****   }
1520:../../Middlewares/Third_Party/LwIP/src/core/tcp_out.c **** #endif
1521:../../Middlewares/Third_Party/LwIP/src/core/tcp_out.c **** #if LWIP_TCP_SACK_OUT
1522:../../Middlewares/Third_Party/LwIP/src/core/tcp_out.c ****   if (seg->flags & TF_SEG_OPTS_SACK_PERM) {
ARM GAS  C:\Users\minis\AppData\Local\Temp\cc2ZMwrX.s 			page 34


1523:../../Middlewares/Third_Party/LwIP/src/core/tcp_out.c ****     /* Pad with two NOP options to make everything nicely aligned
1524:../../Middlewares/Third_Party/LwIP/src/core/tcp_out.c ****      * NOTE: When we send both timestamp and SACK_PERM options,
1525:../../Middlewares/Third_Party/LwIP/src/core/tcp_out.c ****      * we could use the first two NOPs before the timestamp to store SACK_PERM option,
1526:../../Middlewares/Third_Party/LwIP/src/core/tcp_out.c ****      * but that would complicate the code.
1527:../../Middlewares/Third_Party/LwIP/src/core/tcp_out.c ****      */
1528:../../Middlewares/Third_Party/LwIP/src/core/tcp_out.c ****     *(opts++) = PP_HTONL(0x01010402);
1529:../../Middlewares/Third_Party/LwIP/src/core/tcp_out.c ****   }
1530:../../Middlewares/Third_Party/LwIP/src/core/tcp_out.c **** #endif
1531:../../Middlewares/Third_Party/LwIP/src/core/tcp_out.c **** 
1532:../../Middlewares/Third_Party/LwIP/src/core/tcp_out.c ****   /* Set retransmission timer running if it is not currently enabled
1533:../../Middlewares/Third_Party/LwIP/src/core/tcp_out.c ****      This must be set before checking the route. */
1534:../../Middlewares/Third_Party/LwIP/src/core/tcp_out.c ****   if (pcb->rtime < 0) {
1535:../../Middlewares/Third_Party/LwIP/src/core/tcp_out.c ****     pcb->rtime = 0;
1536:../../Middlewares/Third_Party/LwIP/src/core/tcp_out.c ****   }
1537:../../Middlewares/Third_Party/LwIP/src/core/tcp_out.c **** 
1538:../../Middlewares/Third_Party/LwIP/src/core/tcp_out.c ****   if (pcb->rttest == 0) {
1539:../../Middlewares/Third_Party/LwIP/src/core/tcp_out.c ****     pcb->rttest = tcp_ticks;
1540:../../Middlewares/Third_Party/LwIP/src/core/tcp_out.c ****     pcb->rtseq = lwip_ntohl(seg->tcphdr->seqno);
1541:../../Middlewares/Third_Party/LwIP/src/core/tcp_out.c **** 
1542:../../Middlewares/Third_Party/LwIP/src/core/tcp_out.c ****     LWIP_DEBUGF(TCP_RTO_DEBUG, ("tcp_output_segment: rtseq %"U32_F"\n", pcb->rtseq));
1543:../../Middlewares/Third_Party/LwIP/src/core/tcp_out.c ****   }
1544:../../Middlewares/Third_Party/LwIP/src/core/tcp_out.c ****   LWIP_DEBUGF(TCP_OUTPUT_DEBUG, ("tcp_output_segment: %"U32_F":%"U32_F"\n",
1545:../../Middlewares/Third_Party/LwIP/src/core/tcp_out.c ****                                  lwip_htonl(seg->tcphdr->seqno), lwip_htonl(seg->tcphdr->seqno) +
1546:../../Middlewares/Third_Party/LwIP/src/core/tcp_out.c ****                                  seg->len));
1547:../../Middlewares/Third_Party/LwIP/src/core/tcp_out.c **** 
1548:../../Middlewares/Third_Party/LwIP/src/core/tcp_out.c ****   len = (u16_t)((u8_t *)seg->tcphdr - (u8_t *)seg->p->payload);
1549:../../Middlewares/Third_Party/LwIP/src/core/tcp_out.c ****   if (len == 0) {
1550:../../Middlewares/Third_Party/LwIP/src/core/tcp_out.c ****     /** Exclude retransmitted segments from this count. */
1551:../../Middlewares/Third_Party/LwIP/src/core/tcp_out.c ****     MIB2_STATS_INC(mib2.tcpoutsegs);
1552:../../Middlewares/Third_Party/LwIP/src/core/tcp_out.c ****   }
1553:../../Middlewares/Third_Party/LwIP/src/core/tcp_out.c **** 
1554:../../Middlewares/Third_Party/LwIP/src/core/tcp_out.c ****   seg->p->len -= len;
1555:../../Middlewares/Third_Party/LwIP/src/core/tcp_out.c ****   seg->p->tot_len -= len;
1556:../../Middlewares/Third_Party/LwIP/src/core/tcp_out.c **** 
1557:../../Middlewares/Third_Party/LwIP/src/core/tcp_out.c ****   seg->p->payload = seg->tcphdr;
1558:../../Middlewares/Third_Party/LwIP/src/core/tcp_out.c **** 
1559:../../Middlewares/Third_Party/LwIP/src/core/tcp_out.c ****   seg->tcphdr->chksum = 0;
1560:../../Middlewares/Third_Party/LwIP/src/core/tcp_out.c **** 
1561:../../Middlewares/Third_Party/LwIP/src/core/tcp_out.c **** #ifdef LWIP_HOOK_TCP_OUT_ADD_TCPOPTS
1562:../../Middlewares/Third_Party/LwIP/src/core/tcp_out.c ****   opts = LWIP_HOOK_TCP_OUT_ADD_TCPOPTS(seg->p, seg->tcphdr, pcb, opts);
1563:../../Middlewares/Third_Party/LwIP/src/core/tcp_out.c **** #endif
1564:../../Middlewares/Third_Party/LwIP/src/core/tcp_out.c ****   LWIP_ASSERT("options not filled", (u8_t *)opts == ((u8_t *)(seg->tcphdr + 1)) + LWIP_TCP_OPT_LENG
1565:../../Middlewares/Third_Party/LwIP/src/core/tcp_out.c **** 
1566:../../Middlewares/Third_Party/LwIP/src/core/tcp_out.c **** #if CHECKSUM_GEN_TCP
1567:../../Middlewares/Third_Party/LwIP/src/core/tcp_out.c ****   IF__NETIF_CHECKSUM_ENABLED(netif, NETIF_CHECKSUM_GEN_TCP) {
1568:../../Middlewares/Third_Party/LwIP/src/core/tcp_out.c **** #if TCP_CHECKSUM_ON_COPY
1569:../../Middlewares/Third_Party/LwIP/src/core/tcp_out.c ****     u32_t acc;
1570:../../Middlewares/Third_Party/LwIP/src/core/tcp_out.c **** #if TCP_CHECKSUM_ON_COPY_SANITY_CHECK
1571:../../Middlewares/Third_Party/LwIP/src/core/tcp_out.c ****     u16_t chksum_slow = ip_chksum_pseudo(seg->p, IP_PROTO_TCP,
1572:../../Middlewares/Third_Party/LwIP/src/core/tcp_out.c ****                                          seg->p->tot_len, &pcb->local_ip, &pcb->remote_ip);
1573:../../Middlewares/Third_Party/LwIP/src/core/tcp_out.c **** #endif /* TCP_CHECKSUM_ON_COPY_SANITY_CHECK */
1574:../../Middlewares/Third_Party/LwIP/src/core/tcp_out.c ****     if ((seg->flags & TF_SEG_DATA_CHECKSUMMED) == 0) {
1575:../../Middlewares/Third_Party/LwIP/src/core/tcp_out.c ****       LWIP_ASSERT("data included but not checksummed",
1576:../../Middlewares/Third_Party/LwIP/src/core/tcp_out.c ****                   seg->p->tot_len == TCPH_HDRLEN_BYTES(seg->tcphdr));
1577:../../Middlewares/Third_Party/LwIP/src/core/tcp_out.c ****     }
1578:../../Middlewares/Third_Party/LwIP/src/core/tcp_out.c **** 
1579:../../Middlewares/Third_Party/LwIP/src/core/tcp_out.c ****     /* rebuild TCP header checksum (TCP header changes for retransmissions!) */
ARM GAS  C:\Users\minis\AppData\Local\Temp\cc2ZMwrX.s 			page 35


1580:../../Middlewares/Third_Party/LwIP/src/core/tcp_out.c ****     acc = ip_chksum_pseudo_partial(seg->p, IP_PROTO_TCP,
1581:../../Middlewares/Third_Party/LwIP/src/core/tcp_out.c ****                                    seg->p->tot_len, TCPH_HDRLEN_BYTES(seg->tcphdr), &pcb->local_ip,
1582:../../Middlewares/Third_Party/LwIP/src/core/tcp_out.c ****     /* add payload checksum */
1583:../../Middlewares/Third_Party/LwIP/src/core/tcp_out.c ****     if (seg->chksum_swapped) {
1584:../../Middlewares/Third_Party/LwIP/src/core/tcp_out.c ****       seg_chksum_was_swapped = 1;
1585:../../Middlewares/Third_Party/LwIP/src/core/tcp_out.c ****       seg->chksum = SWAP_BYTES_IN_WORD(seg->chksum);
1586:../../Middlewares/Third_Party/LwIP/src/core/tcp_out.c ****       seg->chksum_swapped = 0;
1587:../../Middlewares/Third_Party/LwIP/src/core/tcp_out.c ****     }
1588:../../Middlewares/Third_Party/LwIP/src/core/tcp_out.c ****     acc = (u16_t)~acc + seg->chksum;
1589:../../Middlewares/Third_Party/LwIP/src/core/tcp_out.c ****     seg->tcphdr->chksum = (u16_t)~FOLD_U32T(acc);
1590:../../Middlewares/Third_Party/LwIP/src/core/tcp_out.c **** #if TCP_CHECKSUM_ON_COPY_SANITY_CHECK
1591:../../Middlewares/Third_Party/LwIP/src/core/tcp_out.c ****     if (chksum_slow != seg->tcphdr->chksum) {
1592:../../Middlewares/Third_Party/LwIP/src/core/tcp_out.c ****       TCP_CHECKSUM_ON_COPY_SANITY_CHECK_FAIL(
1593:../../Middlewares/Third_Party/LwIP/src/core/tcp_out.c ****         ("tcp_output_segment: calculated checksum is %"X16_F" instead of %"X16_F"\n",
1594:../../Middlewares/Third_Party/LwIP/src/core/tcp_out.c ****          seg->tcphdr->chksum, chksum_slow));
1595:../../Middlewares/Third_Party/LwIP/src/core/tcp_out.c ****       seg->tcphdr->chksum = chksum_slow;
1596:../../Middlewares/Third_Party/LwIP/src/core/tcp_out.c ****     }
1597:../../Middlewares/Third_Party/LwIP/src/core/tcp_out.c **** #endif /* TCP_CHECKSUM_ON_COPY_SANITY_CHECK */
1598:../../Middlewares/Third_Party/LwIP/src/core/tcp_out.c **** #else /* TCP_CHECKSUM_ON_COPY */
1599:../../Middlewares/Third_Party/LwIP/src/core/tcp_out.c ****     seg->tcphdr->chksum = ip_chksum_pseudo(seg->p, IP_PROTO_TCP,
1600:../../Middlewares/Third_Party/LwIP/src/core/tcp_out.c ****                                            seg->p->tot_len, &pcb->local_ip, &pcb->remote_ip);
1601:../../Middlewares/Third_Party/LwIP/src/core/tcp_out.c **** #endif /* TCP_CHECKSUM_ON_COPY */
1602:../../Middlewares/Third_Party/LwIP/src/core/tcp_out.c ****   }
1603:../../Middlewares/Third_Party/LwIP/src/core/tcp_out.c **** #endif /* CHECKSUM_GEN_TCP */
1604:../../Middlewares/Third_Party/LwIP/src/core/tcp_out.c ****   TCP_STATS_INC(tcp.xmit);
1605:../../Middlewares/Third_Party/LwIP/src/core/tcp_out.c **** 
1606:../../Middlewares/Third_Party/LwIP/src/core/tcp_out.c ****   NETIF_SET_HINTS(netif, &(pcb->netif_hints));
1607:../../Middlewares/Third_Party/LwIP/src/core/tcp_out.c ****   err = ip_output_if(seg->p, &pcb->local_ip, &pcb->remote_ip, pcb->ttl,
1608:../../Middlewares/Third_Party/LwIP/src/core/tcp_out.c ****                      pcb->tos, IP_PROTO_TCP, netif);
1609:../../Middlewares/Third_Party/LwIP/src/core/tcp_out.c ****   NETIF_RESET_HINTS(netif);
1610:../../Middlewares/Third_Party/LwIP/src/core/tcp_out.c **** 
1611:../../Middlewares/Third_Party/LwIP/src/core/tcp_out.c **** #if TCP_CHECKSUM_ON_COPY
1612:../../Middlewares/Third_Party/LwIP/src/core/tcp_out.c ****   if (seg_chksum_was_swapped) {
1613:../../Middlewares/Third_Party/LwIP/src/core/tcp_out.c ****     /* if data is added to this segment later, chksum needs to be swapped,
1614:../../Middlewares/Third_Party/LwIP/src/core/tcp_out.c ****        so restore this now */
1615:../../Middlewares/Third_Party/LwIP/src/core/tcp_out.c ****     seg->chksum = SWAP_BYTES_IN_WORD(seg->chksum);
1616:../../Middlewares/Third_Party/LwIP/src/core/tcp_out.c ****     seg->chksum_swapped = 1;
1617:../../Middlewares/Third_Party/LwIP/src/core/tcp_out.c ****   }
1618:../../Middlewares/Third_Party/LwIP/src/core/tcp_out.c **** #endif
1619:../../Middlewares/Third_Party/LwIP/src/core/tcp_out.c **** 
1620:../../Middlewares/Third_Party/LwIP/src/core/tcp_out.c ****   return err;
1621:../../Middlewares/Third_Party/LwIP/src/core/tcp_out.c **** }
1622:../../Middlewares/Third_Party/LwIP/src/core/tcp_out.c **** 
1623:../../Middlewares/Third_Party/LwIP/src/core/tcp_out.c **** /**
1624:../../Middlewares/Third_Party/LwIP/src/core/tcp_out.c ****  * Requeue all unacked segments for retransmission
1625:../../Middlewares/Third_Party/LwIP/src/core/tcp_out.c ****  *
1626:../../Middlewares/Third_Party/LwIP/src/core/tcp_out.c ****  * Called by tcp_slowtmr() for slow retransmission.
1627:../../Middlewares/Third_Party/LwIP/src/core/tcp_out.c ****  *
1628:../../Middlewares/Third_Party/LwIP/src/core/tcp_out.c ****  * @param pcb the tcp_pcb for which to re-enqueue all unacked segments
1629:../../Middlewares/Third_Party/LwIP/src/core/tcp_out.c ****  */
1630:../../Middlewares/Third_Party/LwIP/src/core/tcp_out.c **** err_t
1631:../../Middlewares/Third_Party/LwIP/src/core/tcp_out.c **** tcp_rexmit_rto_prepare(struct tcp_pcb *pcb)
1632:../../Middlewares/Third_Party/LwIP/src/core/tcp_out.c **** {
1633:../../Middlewares/Third_Party/LwIP/src/core/tcp_out.c ****   struct tcp_seg *seg;
1634:../../Middlewares/Third_Party/LwIP/src/core/tcp_out.c **** 
1635:../../Middlewares/Third_Party/LwIP/src/core/tcp_out.c ****   LWIP_ASSERT("tcp_rexmit_rto_prepare: invalid pcb", pcb != NULL);
1636:../../Middlewares/Third_Party/LwIP/src/core/tcp_out.c **** 
ARM GAS  C:\Users\minis\AppData\Local\Temp\cc2ZMwrX.s 			page 36


1637:../../Middlewares/Third_Party/LwIP/src/core/tcp_out.c ****   if (pcb->unacked == NULL) {
1638:../../Middlewares/Third_Party/LwIP/src/core/tcp_out.c ****     return ERR_VAL;
1639:../../Middlewares/Third_Party/LwIP/src/core/tcp_out.c ****   }
1640:../../Middlewares/Third_Party/LwIP/src/core/tcp_out.c **** 
1641:../../Middlewares/Third_Party/LwIP/src/core/tcp_out.c ****   /* Move all unacked segments to the head of the unsent queue.
1642:../../Middlewares/Third_Party/LwIP/src/core/tcp_out.c ****      However, give up if any of the unsent pbufs are still referenced by the
1643:../../Middlewares/Third_Party/LwIP/src/core/tcp_out.c ****      netif driver due to deferred transmission. No point loading the link further
1644:../../Middlewares/Third_Party/LwIP/src/core/tcp_out.c ****      if it is struggling to flush its buffered writes. */
1645:../../Middlewares/Third_Party/LwIP/src/core/tcp_out.c ****   for (seg = pcb->unacked; seg->next != NULL; seg = seg->next) {
1646:../../Middlewares/Third_Party/LwIP/src/core/tcp_out.c ****     if (tcp_output_segment_busy(seg)) {
1647:../../Middlewares/Third_Party/LwIP/src/core/tcp_out.c ****       LWIP_DEBUGF(TCP_RTO_DEBUG, ("tcp_rexmit_rto: segment busy\n"));
1648:../../Middlewares/Third_Party/LwIP/src/core/tcp_out.c ****       return ERR_VAL;
1649:../../Middlewares/Third_Party/LwIP/src/core/tcp_out.c ****     }
1650:../../Middlewares/Third_Party/LwIP/src/core/tcp_out.c ****   }
1651:../../Middlewares/Third_Party/LwIP/src/core/tcp_out.c ****   if (tcp_output_segment_busy(seg)) {
1652:../../Middlewares/Third_Party/LwIP/src/core/tcp_out.c ****     LWIP_DEBUGF(TCP_RTO_DEBUG, ("tcp_rexmit_rto: segment busy\n"));
1653:../../Middlewares/Third_Party/LwIP/src/core/tcp_out.c ****     return ERR_VAL;
1654:../../Middlewares/Third_Party/LwIP/src/core/tcp_out.c ****   }
1655:../../Middlewares/Third_Party/LwIP/src/core/tcp_out.c ****   /* concatenate unsent queue after unacked queue */
1656:../../Middlewares/Third_Party/LwIP/src/core/tcp_out.c ****   seg->next = pcb->unsent;
1657:../../Middlewares/Third_Party/LwIP/src/core/tcp_out.c **** #if TCP_OVERSIZE_DBGCHECK
1658:../../Middlewares/Third_Party/LwIP/src/core/tcp_out.c ****   /* if last unsent changed, we need to update unsent_oversize */
1659:../../Middlewares/Third_Party/LwIP/src/core/tcp_out.c ****   if (pcb->unsent == NULL) {
1660:../../Middlewares/Third_Party/LwIP/src/core/tcp_out.c ****     pcb->unsent_oversize = seg->oversize_left;
1661:../../Middlewares/Third_Party/LwIP/src/core/tcp_out.c ****   }
1662:../../Middlewares/Third_Party/LwIP/src/core/tcp_out.c **** #endif /* TCP_OVERSIZE_DBGCHECK */
1663:../../Middlewares/Third_Party/LwIP/src/core/tcp_out.c ****   /* unsent queue is the concatenated queue (of unacked, unsent) */
1664:../../Middlewares/Third_Party/LwIP/src/core/tcp_out.c ****   pcb->unsent = pcb->unacked;
1665:../../Middlewares/Third_Party/LwIP/src/core/tcp_out.c ****   /* unacked queue is now empty */
1666:../../Middlewares/Third_Party/LwIP/src/core/tcp_out.c ****   pcb->unacked = NULL;
1667:../../Middlewares/Third_Party/LwIP/src/core/tcp_out.c **** 
1668:../../Middlewares/Third_Party/LwIP/src/core/tcp_out.c ****   /* Mark RTO in-progress */
1669:../../Middlewares/Third_Party/LwIP/src/core/tcp_out.c ****   tcp_set_flags(pcb, TF_RTO);
1670:../../Middlewares/Third_Party/LwIP/src/core/tcp_out.c ****   /* Record the next byte following retransmit */
1671:../../Middlewares/Third_Party/LwIP/src/core/tcp_out.c ****   pcb->rto_end = lwip_ntohl(seg->tcphdr->seqno) + TCP_TCPLEN(seg);
1672:../../Middlewares/Third_Party/LwIP/src/core/tcp_out.c ****   /* Don't take any RTT measurements after retransmitting. */
1673:../../Middlewares/Third_Party/LwIP/src/core/tcp_out.c ****   pcb->rttest = 0;
1674:../../Middlewares/Third_Party/LwIP/src/core/tcp_out.c **** 
1675:../../Middlewares/Third_Party/LwIP/src/core/tcp_out.c ****   return ERR_OK;
1676:../../Middlewares/Third_Party/LwIP/src/core/tcp_out.c **** }
1677:../../Middlewares/Third_Party/LwIP/src/core/tcp_out.c **** 
1678:../../Middlewares/Third_Party/LwIP/src/core/tcp_out.c **** /**
1679:../../Middlewares/Third_Party/LwIP/src/core/tcp_out.c ****  * Requeue all unacked segments for retransmission
1680:../../Middlewares/Third_Party/LwIP/src/core/tcp_out.c ****  *
1681:../../Middlewares/Third_Party/LwIP/src/core/tcp_out.c ****  * Called by tcp_slowtmr() for slow retransmission.
1682:../../Middlewares/Third_Party/LwIP/src/core/tcp_out.c ****  *
1683:../../Middlewares/Third_Party/LwIP/src/core/tcp_out.c ****  * @param pcb the tcp_pcb for which to re-enqueue all unacked segments
1684:../../Middlewares/Third_Party/LwIP/src/core/tcp_out.c ****  */
1685:../../Middlewares/Third_Party/LwIP/src/core/tcp_out.c **** void
1686:../../Middlewares/Third_Party/LwIP/src/core/tcp_out.c **** tcp_rexmit_rto_commit(struct tcp_pcb *pcb)
1687:../../Middlewares/Third_Party/LwIP/src/core/tcp_out.c **** {
1688:../../Middlewares/Third_Party/LwIP/src/core/tcp_out.c ****   LWIP_ASSERT("tcp_rexmit_rto_commit: invalid pcb", pcb != NULL);
1689:../../Middlewares/Third_Party/LwIP/src/core/tcp_out.c **** 
1690:../../Middlewares/Third_Party/LwIP/src/core/tcp_out.c ****   /* increment number of retransmissions */
1691:../../Middlewares/Third_Party/LwIP/src/core/tcp_out.c ****   if (pcb->nrtx < 0xFF) {
1692:../../Middlewares/Third_Party/LwIP/src/core/tcp_out.c ****     ++pcb->nrtx;
1693:../../Middlewares/Third_Party/LwIP/src/core/tcp_out.c ****   }
ARM GAS  C:\Users\minis\AppData\Local\Temp\cc2ZMwrX.s 			page 37


1694:../../Middlewares/Third_Party/LwIP/src/core/tcp_out.c ****   /* Do the actual retransmission */
1695:../../Middlewares/Third_Party/LwIP/src/core/tcp_out.c ****   tcp_output(pcb);
1696:../../Middlewares/Third_Party/LwIP/src/core/tcp_out.c **** }
1697:../../Middlewares/Third_Party/LwIP/src/core/tcp_out.c **** 
1698:../../Middlewares/Third_Party/LwIP/src/core/tcp_out.c **** /**
1699:../../Middlewares/Third_Party/LwIP/src/core/tcp_out.c ****  * Requeue all unacked segments for retransmission
1700:../../Middlewares/Third_Party/LwIP/src/core/tcp_out.c ****  *
1701:../../Middlewares/Third_Party/LwIP/src/core/tcp_out.c ****  * Called by tcp_process() only, tcp_slowtmr() needs to do some things between
1702:../../Middlewares/Third_Party/LwIP/src/core/tcp_out.c ****  * "prepare" and "commit".
1703:../../Middlewares/Third_Party/LwIP/src/core/tcp_out.c ****  *
1704:../../Middlewares/Third_Party/LwIP/src/core/tcp_out.c ****  * @param pcb the tcp_pcb for which to re-enqueue all unacked segments
1705:../../Middlewares/Third_Party/LwIP/src/core/tcp_out.c ****  */
1706:../../Middlewares/Third_Party/LwIP/src/core/tcp_out.c **** void
1707:../../Middlewares/Third_Party/LwIP/src/core/tcp_out.c **** tcp_rexmit_rto(struct tcp_pcb *pcb)
1708:../../Middlewares/Third_Party/LwIP/src/core/tcp_out.c **** {
1709:../../Middlewares/Third_Party/LwIP/src/core/tcp_out.c ****   LWIP_ASSERT("tcp_rexmit_rto: invalid pcb", pcb != NULL);
1710:../../Middlewares/Third_Party/LwIP/src/core/tcp_out.c **** 
1711:../../Middlewares/Third_Party/LwIP/src/core/tcp_out.c ****   if (tcp_rexmit_rto_prepare(pcb) == ERR_OK) {
1712:../../Middlewares/Third_Party/LwIP/src/core/tcp_out.c ****     tcp_rexmit_rto_commit(pcb);
1713:../../Middlewares/Third_Party/LwIP/src/core/tcp_out.c ****   }
1714:../../Middlewares/Third_Party/LwIP/src/core/tcp_out.c **** }
1715:../../Middlewares/Third_Party/LwIP/src/core/tcp_out.c **** 
1716:../../Middlewares/Third_Party/LwIP/src/core/tcp_out.c **** /**
1717:../../Middlewares/Third_Party/LwIP/src/core/tcp_out.c ****  * Requeue the first unacked segment for retransmission
1718:../../Middlewares/Third_Party/LwIP/src/core/tcp_out.c ****  *
1719:../../Middlewares/Third_Party/LwIP/src/core/tcp_out.c ****  * Called by tcp_receive() for fast retransmit.
1720:../../Middlewares/Third_Party/LwIP/src/core/tcp_out.c ****  *
1721:../../Middlewares/Third_Party/LwIP/src/core/tcp_out.c ****  * @param pcb the tcp_pcb for which to retransmit the first unacked segment
1722:../../Middlewares/Third_Party/LwIP/src/core/tcp_out.c ****  */
1723:../../Middlewares/Third_Party/LwIP/src/core/tcp_out.c **** err_t
1724:../../Middlewares/Third_Party/LwIP/src/core/tcp_out.c **** tcp_rexmit(struct tcp_pcb *pcb)
1725:../../Middlewares/Third_Party/LwIP/src/core/tcp_out.c **** {
1726:../../Middlewares/Third_Party/LwIP/src/core/tcp_out.c ****   struct tcp_seg *seg;
1727:../../Middlewares/Third_Party/LwIP/src/core/tcp_out.c ****   struct tcp_seg **cur_seg;
1728:../../Middlewares/Third_Party/LwIP/src/core/tcp_out.c **** 
1729:../../Middlewares/Third_Party/LwIP/src/core/tcp_out.c ****   LWIP_ASSERT("tcp_rexmit: invalid pcb", pcb != NULL);
1730:../../Middlewares/Third_Party/LwIP/src/core/tcp_out.c **** 
1731:../../Middlewares/Third_Party/LwIP/src/core/tcp_out.c ****   if (pcb->unacked == NULL) {
1732:../../Middlewares/Third_Party/LwIP/src/core/tcp_out.c ****     return ERR_VAL;
1733:../../Middlewares/Third_Party/LwIP/src/core/tcp_out.c ****   }
1734:../../Middlewares/Third_Party/LwIP/src/core/tcp_out.c **** 
1735:../../Middlewares/Third_Party/LwIP/src/core/tcp_out.c ****   seg = pcb->unacked;
1736:../../Middlewares/Third_Party/LwIP/src/core/tcp_out.c **** 
1737:../../Middlewares/Third_Party/LwIP/src/core/tcp_out.c ****   /* Give up if the segment is still referenced by the netif driver
1738:../../Middlewares/Third_Party/LwIP/src/core/tcp_out.c ****      due to deferred transmission. */
1739:../../Middlewares/Third_Party/LwIP/src/core/tcp_out.c ****   if (tcp_output_segment_busy(seg)) {
1740:../../Middlewares/Third_Party/LwIP/src/core/tcp_out.c ****     LWIP_DEBUGF(TCP_RTO_DEBUG, ("tcp_rexmit busy\n"));
1741:../../Middlewares/Third_Party/LwIP/src/core/tcp_out.c ****     return ERR_VAL;
1742:../../Middlewares/Third_Party/LwIP/src/core/tcp_out.c ****   }
1743:../../Middlewares/Third_Party/LwIP/src/core/tcp_out.c **** 
1744:../../Middlewares/Third_Party/LwIP/src/core/tcp_out.c ****   /* Move the first unacked segment to the unsent queue */
1745:../../Middlewares/Third_Party/LwIP/src/core/tcp_out.c ****   /* Keep the unsent queue sorted. */
1746:../../Middlewares/Third_Party/LwIP/src/core/tcp_out.c ****   pcb->unacked = seg->next;
1747:../../Middlewares/Third_Party/LwIP/src/core/tcp_out.c **** 
1748:../../Middlewares/Third_Party/LwIP/src/core/tcp_out.c ****   cur_seg = &(pcb->unsent);
1749:../../Middlewares/Third_Party/LwIP/src/core/tcp_out.c ****   while (*cur_seg &&
1750:../../Middlewares/Third_Party/LwIP/src/core/tcp_out.c ****          TCP_SEQ_LT(lwip_ntohl((*cur_seg)->tcphdr->seqno), lwip_ntohl(seg->tcphdr->seqno))) {
ARM GAS  C:\Users\minis\AppData\Local\Temp\cc2ZMwrX.s 			page 38


1751:../../Middlewares/Third_Party/LwIP/src/core/tcp_out.c ****     cur_seg = &((*cur_seg)->next );
1752:../../Middlewares/Third_Party/LwIP/src/core/tcp_out.c ****   }
1753:../../Middlewares/Third_Party/LwIP/src/core/tcp_out.c ****   seg->next = *cur_seg;
1754:../../Middlewares/Third_Party/LwIP/src/core/tcp_out.c ****   *cur_seg = seg;
1755:../../Middlewares/Third_Party/LwIP/src/core/tcp_out.c **** #if TCP_OVERSIZE
1756:../../Middlewares/Third_Party/LwIP/src/core/tcp_out.c ****   if (seg->next == NULL) {
1757:../../Middlewares/Third_Party/LwIP/src/core/tcp_out.c ****     /* the retransmitted segment is last in unsent, so reset unsent_oversize */
1758:../../Middlewares/Third_Party/LwIP/src/core/tcp_out.c ****     pcb->unsent_oversize = 0;
1759:../../Middlewares/Third_Party/LwIP/src/core/tcp_out.c ****   }
1760:../../Middlewares/Third_Party/LwIP/src/core/tcp_out.c **** #endif /* TCP_OVERSIZE */
1761:../../Middlewares/Third_Party/LwIP/src/core/tcp_out.c **** 
1762:../../Middlewares/Third_Party/LwIP/src/core/tcp_out.c ****   if (pcb->nrtx < 0xFF) {
1763:../../Middlewares/Third_Party/LwIP/src/core/tcp_out.c ****     ++pcb->nrtx;
1764:../../Middlewares/Third_Party/LwIP/src/core/tcp_out.c ****   }
1765:../../Middlewares/Third_Party/LwIP/src/core/tcp_out.c **** 
1766:../../Middlewares/Third_Party/LwIP/src/core/tcp_out.c ****   /* Don't take any rtt measurements after retransmitting. */
1767:../../Middlewares/Third_Party/LwIP/src/core/tcp_out.c ****   pcb->rttest = 0;
1768:../../Middlewares/Third_Party/LwIP/src/core/tcp_out.c **** 
1769:../../Middlewares/Third_Party/LwIP/src/core/tcp_out.c ****   /* Do the actual retransmission. */
1770:../../Middlewares/Third_Party/LwIP/src/core/tcp_out.c ****   MIB2_STATS_INC(mib2.tcpretranssegs);
1771:../../Middlewares/Third_Party/LwIP/src/core/tcp_out.c ****   /* No need to call tcp_output: we are always called from tcp_input()
1772:../../Middlewares/Third_Party/LwIP/src/core/tcp_out.c ****      and thus tcp_output directly returns. */
1773:../../Middlewares/Third_Party/LwIP/src/core/tcp_out.c ****   return ERR_OK;
1774:../../Middlewares/Third_Party/LwIP/src/core/tcp_out.c **** }
1775:../../Middlewares/Third_Party/LwIP/src/core/tcp_out.c **** 
1776:../../Middlewares/Third_Party/LwIP/src/core/tcp_out.c **** 
1777:../../Middlewares/Third_Party/LwIP/src/core/tcp_out.c **** /**
1778:../../Middlewares/Third_Party/LwIP/src/core/tcp_out.c ****  * Handle retransmission after three dupacks received
1779:../../Middlewares/Third_Party/LwIP/src/core/tcp_out.c ****  *
1780:../../Middlewares/Third_Party/LwIP/src/core/tcp_out.c ****  * @param pcb the tcp_pcb for which to retransmit the first unacked segment
1781:../../Middlewares/Third_Party/LwIP/src/core/tcp_out.c ****  */
1782:../../Middlewares/Third_Party/LwIP/src/core/tcp_out.c **** void
1783:../../Middlewares/Third_Party/LwIP/src/core/tcp_out.c **** tcp_rexmit_fast(struct tcp_pcb *pcb)
1784:../../Middlewares/Third_Party/LwIP/src/core/tcp_out.c **** {
1785:../../Middlewares/Third_Party/LwIP/src/core/tcp_out.c ****   LWIP_ASSERT("tcp_rexmit_fast: invalid pcb", pcb != NULL);
1786:../../Middlewares/Third_Party/LwIP/src/core/tcp_out.c **** 
1787:../../Middlewares/Third_Party/LwIP/src/core/tcp_out.c ****   if (pcb->unacked != NULL && !(pcb->flags & TF_INFR)) {
1788:../../Middlewares/Third_Party/LwIP/src/core/tcp_out.c ****     /* This is fast retransmit. Retransmit the first unacked segment. */
1789:../../Middlewares/Third_Party/LwIP/src/core/tcp_out.c ****     LWIP_DEBUGF(TCP_FR_DEBUG,
1790:../../Middlewares/Third_Party/LwIP/src/core/tcp_out.c ****                 ("tcp_receive: dupacks %"U16_F" (%"U32_F
1791:../../Middlewares/Third_Party/LwIP/src/core/tcp_out.c ****                  "), fast retransmit %"U32_F"\n",
1792:../../Middlewares/Third_Party/LwIP/src/core/tcp_out.c ****                  (u16_t)pcb->dupacks, pcb->lastack,
1793:../../Middlewares/Third_Party/LwIP/src/core/tcp_out.c ****                  lwip_ntohl(pcb->unacked->tcphdr->seqno)));
1794:../../Middlewares/Third_Party/LwIP/src/core/tcp_out.c ****     if (tcp_rexmit(pcb) == ERR_OK) {
1795:../../Middlewares/Third_Party/LwIP/src/core/tcp_out.c ****       /* Set ssthresh to half of the minimum of the current
1796:../../Middlewares/Third_Party/LwIP/src/core/tcp_out.c ****        * cwnd and the advertised window */
1797:../../Middlewares/Third_Party/LwIP/src/core/tcp_out.c ****       pcb->ssthresh = LWIP_MIN(pcb->cwnd, pcb->snd_wnd) / 2;
1798:../../Middlewares/Third_Party/LwIP/src/core/tcp_out.c **** 
1799:../../Middlewares/Third_Party/LwIP/src/core/tcp_out.c ****       /* The minimum value for ssthresh should be 2 MSS */
1800:../../Middlewares/Third_Party/LwIP/src/core/tcp_out.c ****       if (pcb->ssthresh < (2U * pcb->mss)) {
1801:../../Middlewares/Third_Party/LwIP/src/core/tcp_out.c ****         LWIP_DEBUGF(TCP_FR_DEBUG,
1802:../../Middlewares/Third_Party/LwIP/src/core/tcp_out.c ****                     ("tcp_receive: The minimum value for ssthresh %"TCPWNDSIZE_F
1803:../../Middlewares/Third_Party/LwIP/src/core/tcp_out.c ****                      " should be min 2 mss %"U16_F"...\n",
1804:../../Middlewares/Third_Party/LwIP/src/core/tcp_out.c ****                      pcb->ssthresh, (u16_t)(2 * pcb->mss)));
1805:../../Middlewares/Third_Party/LwIP/src/core/tcp_out.c ****         pcb->ssthresh = 2 * pcb->mss;
1806:../../Middlewares/Third_Party/LwIP/src/core/tcp_out.c ****       }
1807:../../Middlewares/Third_Party/LwIP/src/core/tcp_out.c **** 
ARM GAS  C:\Users\minis\AppData\Local\Temp\cc2ZMwrX.s 			page 39


1808:../../Middlewares/Third_Party/LwIP/src/core/tcp_out.c ****       pcb->cwnd = pcb->ssthresh + 3 * pcb->mss;
1809:../../Middlewares/Third_Party/LwIP/src/core/tcp_out.c ****       tcp_set_flags(pcb, TF_INFR);
1810:../../Middlewares/Third_Party/LwIP/src/core/tcp_out.c **** 
1811:../../Middlewares/Third_Party/LwIP/src/core/tcp_out.c ****       /* Reset the retransmission timer to prevent immediate rto retransmissions */
1812:../../Middlewares/Third_Party/LwIP/src/core/tcp_out.c ****       pcb->rtime = 0;
1813:../../Middlewares/Third_Party/LwIP/src/core/tcp_out.c ****     }
1814:../../Middlewares/Third_Party/LwIP/src/core/tcp_out.c ****   }
1815:../../Middlewares/Third_Party/LwIP/src/core/tcp_out.c **** }
1816:../../Middlewares/Third_Party/LwIP/src/core/tcp_out.c **** 
1817:../../Middlewares/Third_Party/LwIP/src/core/tcp_out.c **** static struct pbuf *
1818:../../Middlewares/Third_Party/LwIP/src/core/tcp_out.c **** tcp_output_alloc_header_common(u32_t ackno, u16_t optlen, u16_t datalen,
1819:../../Middlewares/Third_Party/LwIP/src/core/tcp_out.c ****                         u32_t seqno_be /* already in network byte order */,
1820:../../Middlewares/Third_Party/LwIP/src/core/tcp_out.c ****                         u16_t src_port, u16_t dst_port, u8_t flags, u16_t wnd)
1821:../../Middlewares/Third_Party/LwIP/src/core/tcp_out.c **** {
1822:../../Middlewares/Third_Party/LwIP/src/core/tcp_out.c ****   struct tcp_hdr *tcphdr;
1823:../../Middlewares/Third_Party/LwIP/src/core/tcp_out.c ****   struct pbuf *p;
1824:../../Middlewares/Third_Party/LwIP/src/core/tcp_out.c **** 
1825:../../Middlewares/Third_Party/LwIP/src/core/tcp_out.c ****   p = pbuf_alloc(PBUF_IP, TCP_HLEN + optlen + datalen, PBUF_RAM);
1826:../../Middlewares/Third_Party/LwIP/src/core/tcp_out.c ****   if (p != NULL) {
1827:../../Middlewares/Third_Party/LwIP/src/core/tcp_out.c ****     LWIP_ASSERT("check that first pbuf can hold struct tcp_hdr",
1828:../../Middlewares/Third_Party/LwIP/src/core/tcp_out.c ****                 (p->len >= TCP_HLEN + optlen));
1829:../../Middlewares/Third_Party/LwIP/src/core/tcp_out.c ****     tcphdr = (struct tcp_hdr *)p->payload;
1830:../../Middlewares/Third_Party/LwIP/src/core/tcp_out.c ****     tcphdr->src = lwip_htons(src_port);
1831:../../Middlewares/Third_Party/LwIP/src/core/tcp_out.c ****     tcphdr->dest = lwip_htons(dst_port);
1832:../../Middlewares/Third_Party/LwIP/src/core/tcp_out.c ****     tcphdr->seqno = seqno_be;
1833:../../Middlewares/Third_Party/LwIP/src/core/tcp_out.c ****     tcphdr->ackno = lwip_htonl(ackno);
1834:../../Middlewares/Third_Party/LwIP/src/core/tcp_out.c ****     TCPH_HDRLEN_FLAGS_SET(tcphdr, (5 + optlen / 4), flags);
1835:../../Middlewares/Third_Party/LwIP/src/core/tcp_out.c ****     tcphdr->wnd = lwip_htons(wnd);
1836:../../Middlewares/Third_Party/LwIP/src/core/tcp_out.c ****     tcphdr->chksum = 0;
1837:../../Middlewares/Third_Party/LwIP/src/core/tcp_out.c ****     tcphdr->urgp = 0;
1838:../../Middlewares/Third_Party/LwIP/src/core/tcp_out.c ****   }
1839:../../Middlewares/Third_Party/LwIP/src/core/tcp_out.c ****   return p;
1840:../../Middlewares/Third_Party/LwIP/src/core/tcp_out.c **** }
1841:../../Middlewares/Third_Party/LwIP/src/core/tcp_out.c **** 
1842:../../Middlewares/Third_Party/LwIP/src/core/tcp_out.c **** /** Allocate a pbuf and create a tcphdr at p->payload, used for output
1843:../../Middlewares/Third_Party/LwIP/src/core/tcp_out.c ****  * functions other than the default tcp_output -> tcp_output_segment
1844:../../Middlewares/Third_Party/LwIP/src/core/tcp_out.c ****  * (e.g. tcp_send_empty_ack, etc.)
1845:../../Middlewares/Third_Party/LwIP/src/core/tcp_out.c ****  *
1846:../../Middlewares/Third_Party/LwIP/src/core/tcp_out.c ****  * @param pcb tcp pcb for which to send a packet (used to initialize tcp_hdr)
1847:../../Middlewares/Third_Party/LwIP/src/core/tcp_out.c ****  * @param optlen length of header-options
1848:../../Middlewares/Third_Party/LwIP/src/core/tcp_out.c ****  * @param datalen length of tcp data to reserve in pbuf
1849:../../Middlewares/Third_Party/LwIP/src/core/tcp_out.c ****  * @param seqno_be seqno in network byte order (big-endian)
1850:../../Middlewares/Third_Party/LwIP/src/core/tcp_out.c ****  * @return pbuf with p->payload being the tcp_hdr
1851:../../Middlewares/Third_Party/LwIP/src/core/tcp_out.c ****  */
1852:../../Middlewares/Third_Party/LwIP/src/core/tcp_out.c **** static struct pbuf *
1853:../../Middlewares/Third_Party/LwIP/src/core/tcp_out.c **** tcp_output_alloc_header(struct tcp_pcb *pcb, u16_t optlen, u16_t datalen,
1854:../../Middlewares/Third_Party/LwIP/src/core/tcp_out.c ****                         u32_t seqno_be /* already in network byte order */)
1855:../../Middlewares/Third_Party/LwIP/src/core/tcp_out.c **** {
1856:../../Middlewares/Third_Party/LwIP/src/core/tcp_out.c ****   struct pbuf *p;
1857:../../Middlewares/Third_Party/LwIP/src/core/tcp_out.c **** 
1858:../../Middlewares/Third_Party/LwIP/src/core/tcp_out.c ****   LWIP_ASSERT("tcp_output_alloc_header: invalid pcb", pcb != NULL);
1859:../../Middlewares/Third_Party/LwIP/src/core/tcp_out.c **** 
1860:../../Middlewares/Third_Party/LwIP/src/core/tcp_out.c ****   p = tcp_output_alloc_header_common(pcb->rcv_nxt, optlen, datalen,
1861:../../Middlewares/Third_Party/LwIP/src/core/tcp_out.c ****     seqno_be, pcb->local_port, pcb->remote_port, TCP_ACK,
1862:../../Middlewares/Third_Party/LwIP/src/core/tcp_out.c ****     TCPWND_MIN16(RCV_WND_SCALE(pcb, pcb->rcv_ann_wnd)));
1863:../../Middlewares/Third_Party/LwIP/src/core/tcp_out.c ****   if (p != NULL) {
1864:../../Middlewares/Third_Party/LwIP/src/core/tcp_out.c ****     /* If we're sending a packet, update the announced right window edge */
ARM GAS  C:\Users\minis\AppData\Local\Temp\cc2ZMwrX.s 			page 40


1865:../../Middlewares/Third_Party/LwIP/src/core/tcp_out.c ****     pcb->rcv_ann_right_edge = pcb->rcv_nxt + pcb->rcv_ann_wnd;
1866:../../Middlewares/Third_Party/LwIP/src/core/tcp_out.c ****   }
1867:../../Middlewares/Third_Party/LwIP/src/core/tcp_out.c ****   return p;
1868:../../Middlewares/Third_Party/LwIP/src/core/tcp_out.c **** }
1869:../../Middlewares/Third_Party/LwIP/src/core/tcp_out.c **** 
1870:../../Middlewares/Third_Party/LwIP/src/core/tcp_out.c **** /* Fill in options for control segments */
1871:../../Middlewares/Third_Party/LwIP/src/core/tcp_out.c **** static void
1872:../../Middlewares/Third_Party/LwIP/src/core/tcp_out.c **** tcp_output_fill_options(const struct tcp_pcb *pcb, struct pbuf *p, u8_t optflags, u8_t num_sacks)
1873:../../Middlewares/Third_Party/LwIP/src/core/tcp_out.c **** {
 301              		.loc 1 1873 1 is_stmt 1 view -0
 302              		.cfi_startproc
 303              		@ args = 0, pretend = 0, frame = 0
 304              		@ frame_needed = 0, uses_anonymous_args = 0
 305              		.loc 1 1873 1 is_stmt 0 view .LVU75
 306 0000 10B5     		push	{r4, lr}
 307              	.LCFI2:
 308              		.cfi_def_cfa_offset 8
 309              		.cfi_offset 4, -8
 310              		.cfi_offset 14, -4
 311 0002 1446     		mov	r4, r2
1874:../../Middlewares/Third_Party/LwIP/src/core/tcp_out.c ****   struct tcp_hdr *tcphdr;
 312              		.loc 1 1874 3 is_stmt 1 view .LVU76
1875:../../Middlewares/Third_Party/LwIP/src/core/tcp_out.c ****   u32_t *opts;
 313              		.loc 1 1875 3 view .LVU77
1876:../../Middlewares/Third_Party/LwIP/src/core/tcp_out.c ****   u16_t sacks_len = 0;
 314              		.loc 1 1876 3 view .LVU78
 315              	.LVL15:
1877:../../Middlewares/Third_Party/LwIP/src/core/tcp_out.c **** 
1878:../../Middlewares/Third_Party/LwIP/src/core/tcp_out.c ****   LWIP_ASSERT("tcp_output_fill_options: invalid pbuf", p != NULL);
 316              		.loc 1 1878 3 view .LVU79
 317              		.loc 1 1878 3 view .LVU80
 318 0004 19B1     		cbz	r1, .L35
 319              	.LVL16:
 320              	.L32:
 321              		.loc 1 1878 3 view .LVU81
 322              		.loc 1 1878 3 view .LVU82
1879:../../Middlewares/Third_Party/LwIP/src/core/tcp_out.c **** 
1880:../../Middlewares/Third_Party/LwIP/src/core/tcp_out.c ****   tcphdr = (struct tcp_hdr *)p->payload;
 323              		.loc 1 1880 3 view .LVU83
1881:../../Middlewares/Third_Party/LwIP/src/core/tcp_out.c ****   opts = (u32_t *)(void *)(tcphdr + 1);
 324              		.loc 1 1881 3 view .LVU84
1882:../../Middlewares/Third_Party/LwIP/src/core/tcp_out.c **** 
1883:../../Middlewares/Third_Party/LwIP/src/core/tcp_out.c ****   /* NB. MSS and window scale options are only sent on SYNs, so ignore them here */
1884:../../Middlewares/Third_Party/LwIP/src/core/tcp_out.c **** 
1885:../../Middlewares/Third_Party/LwIP/src/core/tcp_out.c **** #if LWIP_TCP_TIMESTAMPS
1886:../../Middlewares/Third_Party/LwIP/src/core/tcp_out.c ****   if (optflags & TF_SEG_OPTS_TS) {
1887:../../Middlewares/Third_Party/LwIP/src/core/tcp_out.c ****     tcp_build_timestamp_option(pcb, opts);
1888:../../Middlewares/Third_Party/LwIP/src/core/tcp_out.c ****     opts += 3;
1889:../../Middlewares/Third_Party/LwIP/src/core/tcp_out.c ****   }
1890:../../Middlewares/Third_Party/LwIP/src/core/tcp_out.c **** #endif
1891:../../Middlewares/Third_Party/LwIP/src/core/tcp_out.c **** 
1892:../../Middlewares/Third_Party/LwIP/src/core/tcp_out.c **** #if LWIP_TCP_SACK_OUT
1893:../../Middlewares/Third_Party/LwIP/src/core/tcp_out.c ****   if (pcb && (num_sacks > 0)) {
1894:../../Middlewares/Third_Party/LwIP/src/core/tcp_out.c ****     tcp_build_sack_option(pcb, opts, num_sacks);
1895:../../Middlewares/Third_Party/LwIP/src/core/tcp_out.c ****     /* 1 word for SACKs header (including 2xNOP), and 2 words for each SACK */
1896:../../Middlewares/Third_Party/LwIP/src/core/tcp_out.c ****     sacks_len = 1 + num_sacks * 2;
1897:../../Middlewares/Third_Party/LwIP/src/core/tcp_out.c ****     opts += sacks_len;
ARM GAS  C:\Users\minis\AppData\Local\Temp\cc2ZMwrX.s 			page 41


1898:../../Middlewares/Third_Party/LwIP/src/core/tcp_out.c ****   }
1899:../../Middlewares/Third_Party/LwIP/src/core/tcp_out.c **** #else
1900:../../Middlewares/Third_Party/LwIP/src/core/tcp_out.c ****   LWIP_UNUSED_ARG(num_sacks);
 325              		.loc 1 1900 3 view .LVU85
1901:../../Middlewares/Third_Party/LwIP/src/core/tcp_out.c **** #endif
1902:../../Middlewares/Third_Party/LwIP/src/core/tcp_out.c **** 
1903:../../Middlewares/Third_Party/LwIP/src/core/tcp_out.c **** #ifdef LWIP_HOOK_TCP_OUT_ADD_TCPOPTS
1904:../../Middlewares/Third_Party/LwIP/src/core/tcp_out.c ****   opts = LWIP_HOOK_TCP_OUT_ADD_TCPOPTS(p, tcphdr, pcb, opts);
1905:../../Middlewares/Third_Party/LwIP/src/core/tcp_out.c **** #endif
1906:../../Middlewares/Third_Party/LwIP/src/core/tcp_out.c **** 
1907:../../Middlewares/Third_Party/LwIP/src/core/tcp_out.c ****   LWIP_UNUSED_ARG(pcb);
 326              		.loc 1 1907 3 view .LVU86
1908:../../Middlewares/Third_Party/LwIP/src/core/tcp_out.c ****   LWIP_UNUSED_ARG(sacks_len);
 327              		.loc 1 1908 3 view .LVU87
1909:../../Middlewares/Third_Party/LwIP/src/core/tcp_out.c ****   LWIP_ASSERT("options not filled", (u8_t *)opts == ((u8_t *)(tcphdr + 1)) + sacks_len * 4 + LWIP_T
 328              		.loc 1 1909 3 view .LVU88
 329              		.loc 1 1909 3 view .LVU89
 330 0006 14F0010F 		tst	r4, #1
 331 000a 08D1     		bne	.L36
 332              	.LVL17:
 333              	.L31:
1910:../../Middlewares/Third_Party/LwIP/src/core/tcp_out.c ****   LWIP_UNUSED_ARG(optflags); /* for LWIP_NOASSERT */
1911:../../Middlewares/Third_Party/LwIP/src/core/tcp_out.c ****   LWIP_UNUSED_ARG(opts); /* for LWIP_NOASSERT */
1912:../../Middlewares/Third_Party/LwIP/src/core/tcp_out.c **** }
 334              		.loc 1 1912 1 is_stmt 0 view .LVU90
 335 000c 10BD     		pop	{r4, pc}
 336              	.LVL18:
 337              	.L35:
1878:../../Middlewares/Third_Party/LwIP/src/core/tcp_out.c **** 
 338              		.loc 1 1878 3 is_stmt 1 discriminator 1 view .LVU91
1878:../../Middlewares/Third_Party/LwIP/src/core/tcp_out.c **** 
 339              		.loc 1 1878 3 discriminator 1 view .LVU92
 340 000e 084B     		ldr	r3, .L37
 341              	.LVL19:
1878:../../Middlewares/Third_Party/LwIP/src/core/tcp_out.c **** 
 342              		.loc 1 1878 3 is_stmt 0 discriminator 1 view .LVU93
 343 0010 40F25672 		movw	r2, #1878
 344              	.LVL20:
1878:../../Middlewares/Third_Party/LwIP/src/core/tcp_out.c **** 
 345              		.loc 1 1878 3 discriminator 1 view .LVU94
 346 0014 0749     		ldr	r1, .L37+4
 347              	.LVL21:
1878:../../Middlewares/Third_Party/LwIP/src/core/tcp_out.c **** 
 348              		.loc 1 1878 3 discriminator 1 view .LVU95
 349 0016 0848     		ldr	r0, .L37+8
 350              	.LVL22:
1878:../../Middlewares/Third_Party/LwIP/src/core/tcp_out.c **** 
 351              		.loc 1 1878 3 discriminator 1 view .LVU96
 352 0018 FFF7FEFF 		bl	printf
 353              	.LVL23:
 354 001c F3E7     		b	.L32
 355              	.LVL24:
 356              	.L36:
1909:../../Middlewares/Third_Party/LwIP/src/core/tcp_out.c ****   LWIP_ASSERT("options not filled", (u8_t *)opts == ((u8_t *)(tcphdr + 1)) + sacks_len * 4 + LWIP_T
 357              		.loc 1 1909 3 is_stmt 1 discriminator 1 view .LVU97
1909:../../Middlewares/Third_Party/LwIP/src/core/tcp_out.c ****   LWIP_ASSERT("options not filled", (u8_t *)opts == ((u8_t *)(tcphdr + 1)) + sacks_len * 4 + LWIP_T
 358              		.loc 1 1909 3 discriminator 1 view .LVU98
ARM GAS  C:\Users\minis\AppData\Local\Temp\cc2ZMwrX.s 			page 42


 359 001e 044B     		ldr	r3, .L37
 360 0020 40F27572 		movw	r2, #1909
 361 0024 0549     		ldr	r1, .L37+12
 362 0026 0448     		ldr	r0, .L37+8
 363 0028 FFF7FEFF 		bl	printf
 364              	.LVL25:
1909:../../Middlewares/Third_Party/LwIP/src/core/tcp_out.c ****   LWIP_ASSERT("options not filled", (u8_t *)opts == ((u8_t *)(tcphdr + 1)) + sacks_len * 4 + LWIP_T
 365              		.loc 1 1909 3 view .LVU99
1909:../../Middlewares/Third_Party/LwIP/src/core/tcp_out.c ****   LWIP_ASSERT("options not filled", (u8_t *)opts == ((u8_t *)(tcphdr + 1)) + sacks_len * 4 + LWIP_T
 366              		.loc 1 1909 3 view .LVU100
1910:../../Middlewares/Third_Party/LwIP/src/core/tcp_out.c ****   LWIP_UNUSED_ARG(optflags); /* for LWIP_NOASSERT */
 367              		.loc 1 1910 3 view .LVU101
1911:../../Middlewares/Third_Party/LwIP/src/core/tcp_out.c **** }
 368              		.loc 1 1911 3 view .LVU102
 369              		.loc 1 1912 1 is_stmt 0 view .LVU103
 370 002c EEE7     		b	.L31
 371              	.L38:
 372 002e 00BF     		.align	2
 373              	.L37:
 374 0030 00000000 		.word	.LC0
 375 0034 00000000 		.word	.LC6
 376 0038 58000000 		.word	.LC2
 377 003c 28000000 		.word	.LC7
 378              		.cfi_endproc
 379              	.LFE188:
 381              		.section	.rodata.tcp_pbuf_prealloc.str1.4,"aMS",%progbits,1
 382              		.align	2
 383              	.LC8:
 384 0000 7463705F 		.ascii	"tcp_pbuf_prealloc: invalid oversize\000"
 384      70627566 
 384      5F707265 
 384      616C6C6F 
 384      633A2069 
 385              		.align	2
 386              	.LC9:
 387 0024 7463705F 		.ascii	"tcp_pbuf_prealloc: invalid pcb\000"
 387      70627566 
 387      5F707265 
 387      616C6C6F 
 387      633A2069 
 388 0043 00       		.align	2
 389              	.LC10:
 390 0044 6E656564 		.ascii	"need unchained pbuf\000"
 390      20756E63 
 390      6861696E 
 390      65642070 
 390      62756600 
 391              		.section	.text.tcp_pbuf_prealloc,"ax",%progbits
 392              		.align	1
 393              		.syntax unified
 394              		.thumb
 395              		.thumb_func
 397              	tcp_pbuf_prealloc:
 398              	.LVL26:
 399              	.LFB172:
 228:../../Middlewares/Third_Party/LwIP/src/core/tcp_out.c ****   struct pbuf *p;
 400              		.loc 1 228 1 is_stmt 1 view -0
ARM GAS  C:\Users\minis\AppData\Local\Temp\cc2ZMwrX.s 			page 43


 401              		.cfi_startproc
 402              		@ args = 12, pretend = 0, frame = 0
 403              		@ frame_needed = 0, uses_anonymous_args = 0
 228:../../Middlewares/Third_Party/LwIP/src/core/tcp_out.c ****   struct pbuf *p;
 404              		.loc 1 228 1 is_stmt 0 view .LVU105
 405 0000 2DE9F843 		push	{r3, r4, r5, r6, r7, r8, r9, lr}
 406              	.LCFI3:
 407              		.cfi_def_cfa_offset 32
 408              		.cfi_offset 3, -32
 409              		.cfi_offset 4, -28
 410              		.cfi_offset 5, -24
 411              		.cfi_offset 6, -20
 412              		.cfi_offset 7, -16
 413              		.cfi_offset 8, -12
 414              		.cfi_offset 9, -8
 415              		.cfi_offset 14, -4
 416 0004 0646     		mov	r6, r0
 417 0006 0C46     		mov	r4, r1
 418 0008 1546     		mov	r5, r2
 419 000a 089F     		ldr	r7, [sp, #32]
 420 000c 9DF82890 		ldrb	r9, [sp, #40]	@ zero_extendqisi2
 229:../../Middlewares/Third_Party/LwIP/src/core/tcp_out.c ****   u16_t alloc = length;
 421              		.loc 1 229 3 is_stmt 1 view .LVU106
 230:../../Middlewares/Third_Party/LwIP/src/core/tcp_out.c **** 
 422              		.loc 1 230 3 view .LVU107
 423              	.LVL27:
 232:../../Middlewares/Third_Party/LwIP/src/core/tcp_out.c ****   LWIP_ASSERT("tcp_pbuf_prealloc: invalid pcb", pcb != NULL);
 424              		.loc 1 232 3 view .LVU108
 232:../../Middlewares/Third_Party/LwIP/src/core/tcp_out.c ****   LWIP_ASSERT("tcp_pbuf_prealloc: invalid pcb", pcb != NULL);
 425              		.loc 1 232 3 view .LVU109
 426 0010 9846     		mov	r8, r3
 427 0012 CBB1     		cbz	r3, .L50
 428              	.LVL28:
 429              	.L40:
 232:../../Middlewares/Third_Party/LwIP/src/core/tcp_out.c ****   LWIP_ASSERT("tcp_pbuf_prealloc: invalid pcb", pcb != NULL);
 430              		.loc 1 232 3 view .LVU110
 232:../../Middlewares/Third_Party/LwIP/src/core/tcp_out.c ****   LWIP_ASSERT("tcp_pbuf_prealloc: invalid pcb", pcb != NULL);
 431              		.loc 1 232 3 view .LVU111
 233:../../Middlewares/Third_Party/LwIP/src/core/tcp_out.c **** 
 432              		.loc 1 233 3 view .LVU112
 233:../../Middlewares/Third_Party/LwIP/src/core/tcp_out.c **** 
 433              		.loc 1 233 3 view .LVU113
 434 0014 FFB1     		cbz	r7, .L51
 435              	.L41:
 233:../../Middlewares/Third_Party/LwIP/src/core/tcp_out.c **** 
 436              		.loc 1 233 3 view .LVU114
 233:../../Middlewares/Third_Party/LwIP/src/core/tcp_out.c **** 
 437              		.loc 1 233 3 view .LVU115
 242:../../Middlewares/Third_Party/LwIP/src/core/tcp_out.c ****     /* Should we allocate an oversized pbuf, or just the minimum
 438              		.loc 1 242 3 view .LVU116
 242:../../Middlewares/Third_Party/LwIP/src/core/tcp_out.c ****     /* Should we allocate an oversized pbuf, or just the minimum
 439              		.loc 1 242 6 is_stmt 0 view .LVU117
 440 0016 AC42     		cmp	r4, r5
 441 0018 29D2     		bcs	.L46
 254:../../Middlewares/Third_Party/LwIP/src/core/tcp_out.c ****         (!(pcb->flags & TF_NODELAY) &&
 442              		.loc 1 254 5 is_stmt 1 view .LVU118
 254:../../Middlewares/Third_Party/LwIP/src/core/tcp_out.c ****         (!(pcb->flags & TF_NODELAY) &&
ARM GAS  C:\Users\minis\AppData\Local\Temp\cc2ZMwrX.s 			page 44


 443              		.loc 1 254 8 is_stmt 0 view .LVU119
 444 001a 9DF82430 		ldrb	r3, [sp, #36]	@ zero_extendqisi2
 445 001e 13F0020F 		tst	r3, #2
 446 0022 08D1     		bne	.L43
 255:../../Middlewares/Third_Party/LwIP/src/core/tcp_out.c ****          (!first_seg ||
 447              		.loc 1 255 15 view .LVU120
 448 0024 7B8B     		ldrh	r3, [r7, #26]
 254:../../Middlewares/Third_Party/LwIP/src/core/tcp_out.c ****         (!(pcb->flags & TF_NODELAY) &&
 449              		.loc 1 254 42 discriminator 1 view .LVU121
 450 0026 13F0400F 		tst	r3, #64
 451 002a 3AD1     		bne	.L47
 255:../../Middlewares/Third_Party/LwIP/src/core/tcp_out.c ****          (!first_seg ||
 452              		.loc 1 255 37 view .LVU122
 453 002c B9F1000F 		cmp	r9, #0
 454 0030 01D0     		beq	.L43
 257:../../Middlewares/Third_Party/LwIP/src/core/tcp_out.c ****           pcb->unacked != NULL))) {
 455              		.loc 1 257 14 view .LVU123
 456 0032 FB6E     		ldr	r3, [r7, #108]
 256:../../Middlewares/Third_Party/LwIP/src/core/tcp_out.c ****           pcb->unsent != NULL ||
 457              		.loc 1 256 22 view .LVU124
 458 0034 B3B1     		cbz	r3, .L52
 459              	.L43:
 259:../../Middlewares/Third_Party/LwIP/src/core/tcp_out.c ****     }
 460              		.loc 1 259 7 is_stmt 1 view .LVU125
 259:../../Middlewares/Third_Party/LwIP/src/core/tcp_out.c ****     }
 461              		.loc 1 259 15 is_stmt 0 view .LVU126
 462 0036 04F2B753 		addw	r3, r4, #1463
 463 003a 23F00303 		bic	r3, r3, #3
 464 003e 9D42     		cmp	r5, r3
 465 0040 28BF     		it	cs
 466 0042 1D46     		movcs	r5, r3
 467              	.LVL29:
 259:../../Middlewares/Third_Party/LwIP/src/core/tcp_out.c ****     }
 468              		.loc 1 259 13 view .LVU127
 469 0044 A9B2     		uxth	r1, r5
 470              	.LVL30:
 259:../../Middlewares/Third_Party/LwIP/src/core/tcp_out.c ****     }
 471              		.loc 1 259 13 view .LVU128
 472 0046 13E0     		b	.L42
 473              	.LVL31:
 474              	.L50:
 232:../../Middlewares/Third_Party/LwIP/src/core/tcp_out.c ****   LWIP_ASSERT("tcp_pbuf_prealloc: invalid pcb", pcb != NULL);
 475              		.loc 1 232 3 is_stmt 1 discriminator 1 view .LVU129
 232:../../Middlewares/Third_Party/LwIP/src/core/tcp_out.c ****   LWIP_ASSERT("tcp_pbuf_prealloc: invalid pcb", pcb != NULL);
 476              		.loc 1 232 3 discriminator 1 view .LVU130
 477 0048 174B     		ldr	r3, .L53
 478              	.LVL32:
 232:../../Middlewares/Third_Party/LwIP/src/core/tcp_out.c ****   LWIP_ASSERT("tcp_pbuf_prealloc: invalid pcb", pcb != NULL);
 479              		.loc 1 232 3 is_stmt 0 discriminator 1 view .LVU131
 480 004a E822     		movs	r2, #232
 481              	.LVL33:
 232:../../Middlewares/Third_Party/LwIP/src/core/tcp_out.c ****   LWIP_ASSERT("tcp_pbuf_prealloc: invalid pcb", pcb != NULL);
 482              		.loc 1 232 3 discriminator 1 view .LVU132
 483 004c 1749     		ldr	r1, .L53+4
 484              	.LVL34:
 232:../../Middlewares/Third_Party/LwIP/src/core/tcp_out.c ****   LWIP_ASSERT("tcp_pbuf_prealloc: invalid pcb", pcb != NULL);
 485              		.loc 1 232 3 discriminator 1 view .LVU133
ARM GAS  C:\Users\minis\AppData\Local\Temp\cc2ZMwrX.s 			page 45


 486 004e 1848     		ldr	r0, .L53+8
 487              	.LVL35:
 232:../../Middlewares/Third_Party/LwIP/src/core/tcp_out.c ****   LWIP_ASSERT("tcp_pbuf_prealloc: invalid pcb", pcb != NULL);
 488              		.loc 1 232 3 discriminator 1 view .LVU134
 489 0050 FFF7FEFF 		bl	printf
 490              	.LVL36:
 491 0054 DEE7     		b	.L40
 492              	.L51:
 233:../../Middlewares/Third_Party/LwIP/src/core/tcp_out.c **** 
 493              		.loc 1 233 3 is_stmt 1 discriminator 1 view .LVU135
 233:../../Middlewares/Third_Party/LwIP/src/core/tcp_out.c **** 
 494              		.loc 1 233 3 discriminator 1 view .LVU136
 495 0056 144B     		ldr	r3, .L53
 496 0058 E922     		movs	r2, #233
 497 005a 1649     		ldr	r1, .L53+12
 498 005c 1448     		ldr	r0, .L53+8
 499 005e FFF7FEFF 		bl	printf
 500              	.LVL37:
 501 0062 D8E7     		b	.L41
 502              	.L52:
 258:../../Middlewares/Third_Party/LwIP/src/core/tcp_out.c ****       alloc = LWIP_MIN(max_length, LWIP_MEM_ALIGN_SIZE(TCP_OVERSIZE_CALC_LENGTH(length)));
 503              		.loc 1 258 14 is_stmt 0 view .LVU137
 504 0064 3B6F     		ldr	r3, [r7, #112]
 257:../../Middlewares/Third_Party/LwIP/src/core/tcp_out.c ****           pcb->unacked != NULL))) {
 505              		.loc 1 257 31 view .LVU138
 506 0066 002B     		cmp	r3, #0
 507 0068 E5D1     		bne	.L43
 230:../../Middlewares/Third_Party/LwIP/src/core/tcp_out.c **** 
 508              		.loc 1 230 9 view .LVU139
 509 006a 2146     		mov	r1, r4
 510 006c 00E0     		b	.L42
 511              	.L46:
 230:../../Middlewares/Third_Party/LwIP/src/core/tcp_out.c **** 
 512              		.loc 1 230 9 view .LVU140
 513 006e 2146     		mov	r1, r4
 514              	.LVL38:
 515              	.L42:
 263:../../Middlewares/Third_Party/LwIP/src/core/tcp_out.c ****   if (p == NULL) {
 516              		.loc 1 263 3 is_stmt 1 view .LVU141
 263:../../Middlewares/Third_Party/LwIP/src/core/tcp_out.c ****   if (p == NULL) {
 517              		.loc 1 263 7 is_stmt 0 view .LVU142
 518 0070 4FF42072 		mov	r2, #640
 519 0074 3046     		mov	r0, r6
 520 0076 FFF7FEFF 		bl	pbuf_alloc
 521              	.LVL39:
 264:../../Middlewares/Third_Party/LwIP/src/core/tcp_out.c ****     return NULL;
 522              		.loc 1 264 3 is_stmt 1 view .LVU143
 264:../../Middlewares/Third_Party/LwIP/src/core/tcp_out.c ****     return NULL;
 523              		.loc 1 264 6 is_stmt 0 view .LVU144
 524 007a 0546     		mov	r5, r0
 525 007c 70B1     		cbz	r0, .L39
 267:../../Middlewares/Third_Party/LwIP/src/core/tcp_out.c ****   *oversize = p->len - length;
 526              		.loc 1 267 3 is_stmt 1 view .LVU145
 267:../../Middlewares/Third_Party/LwIP/src/core/tcp_out.c ****   *oversize = p->len - length;
 527              		.loc 1 267 3 view .LVU146
 528 007e 0368     		ldr	r3, [r0]
 529 0080 33B1     		cbz	r3, .L45
ARM GAS  C:\Users\minis\AppData\Local\Temp\cc2ZMwrX.s 			page 46


 267:../../Middlewares/Third_Party/LwIP/src/core/tcp_out.c ****   *oversize = p->len - length;
 530              		.loc 1 267 3 discriminator 1 view .LVU147
 267:../../Middlewares/Third_Party/LwIP/src/core/tcp_out.c ****   *oversize = p->len - length;
 531              		.loc 1 267 3 discriminator 1 view .LVU148
 532 0082 094B     		ldr	r3, .L53
 533 0084 40F20B12 		movw	r2, #267
 534 0088 0B49     		ldr	r1, .L53+16
 535 008a 0948     		ldr	r0, .L53+8
 536              	.LVL40:
 267:../../Middlewares/Third_Party/LwIP/src/core/tcp_out.c ****   *oversize = p->len - length;
 537              		.loc 1 267 3 is_stmt 0 discriminator 1 view .LVU149
 538 008c FFF7FEFF 		bl	printf
 539              	.LVL41:
 540              	.L45:
 267:../../Middlewares/Third_Party/LwIP/src/core/tcp_out.c ****   *oversize = p->len - length;
 541              		.loc 1 267 3 is_stmt 1 view .LVU150
 267:../../Middlewares/Third_Party/LwIP/src/core/tcp_out.c ****   *oversize = p->len - length;
 542              		.loc 1 267 3 view .LVU151
 268:../../Middlewares/Third_Party/LwIP/src/core/tcp_out.c ****   /* trim p->len to the currently used size */
 543              		.loc 1 268 3 view .LVU152
 268:../../Middlewares/Third_Party/LwIP/src/core/tcp_out.c ****   /* trim p->len to the currently used size */
 544              		.loc 1 268 16 is_stmt 0 view .LVU153
 545 0090 6B89     		ldrh	r3, [r5, #10]
 268:../../Middlewares/Third_Party/LwIP/src/core/tcp_out.c ****   /* trim p->len to the currently used size */
 546              		.loc 1 268 22 view .LVU154
 547 0092 1B1B     		subs	r3, r3, r4
 268:../../Middlewares/Third_Party/LwIP/src/core/tcp_out.c ****   /* trim p->len to the currently used size */
 548              		.loc 1 268 13 view .LVU155
 549 0094 A8F80030 		strh	r3, [r8]	@ movhi
 270:../../Middlewares/Third_Party/LwIP/src/core/tcp_out.c ****   return p;
 550              		.loc 1 270 3 is_stmt 1 view .LVU156
 270:../../Middlewares/Third_Party/LwIP/src/core/tcp_out.c ****   return p;
 551              		.loc 1 270 23 is_stmt 0 view .LVU157
 552 0098 2C81     		strh	r4, [r5, #8]	@ movhi
 270:../../Middlewares/Third_Party/LwIP/src/core/tcp_out.c ****   return p;
 553              		.loc 1 270 10 view .LVU158
 554 009a 6C81     		strh	r4, [r5, #10]	@ movhi
 271:../../Middlewares/Third_Party/LwIP/src/core/tcp_out.c **** }
 555              		.loc 1 271 3 is_stmt 1 view .LVU159
 556              	.L39:
 272:../../Middlewares/Third_Party/LwIP/src/core/tcp_out.c **** #else /* TCP_OVERSIZE */
 557              		.loc 1 272 1 is_stmt 0 view .LVU160
 558 009c 2846     		mov	r0, r5
 559 009e BDE8F883 		pop	{r3, r4, r5, r6, r7, r8, r9, pc}
 560              	.LVL42:
 561              	.L47:
 230:../../Middlewares/Third_Party/LwIP/src/core/tcp_out.c **** 
 562              		.loc 1 230 9 view .LVU161
 563 00a2 2146     		mov	r1, r4
 564 00a4 E4E7     		b	.L42
 565              	.L54:
 566 00a6 00BF     		.align	2
 567              	.L53:
 568 00a8 00000000 		.word	.LC0
 569 00ac 00000000 		.word	.LC8
 570 00b0 58000000 		.word	.LC2
 571 00b4 24000000 		.word	.LC9
ARM GAS  C:\Users\minis\AppData\Local\Temp\cc2ZMwrX.s 			page 47


 572 00b8 44000000 		.word	.LC10
 573              		.cfi_endproc
 574              	.LFE172:
 576              		.section	.rodata.tcp_create_segment.str1.4,"aMS",%progbits,1
 577              		.align	2
 578              	.LC11:
 579 0000 7463705F 		.ascii	"tcp_create_segment: invalid pcb\000"
 579      63726561 
 579      74655F73 
 579      65676D65 
 579      6E743A20 
 580              		.align	2
 581              	.LC12:
 582 0020 7463705F 		.ascii	"tcp_create_segment: invalid pbuf\000"
 582      63726561 
 582      74655F73 
 582      65676D65 
 582      6E743A20 
 583 0041 000000   		.align	2
 584              	.LC13:
 585 0044 702D3E74 		.ascii	"p->tot_len >= optlen\000"
 585      6F745F6C 
 585      656E203E 
 585      3D206F70 
 585      746C656E 
 586              		.section	.text.tcp_create_segment,"ax",%progbits
 587              		.align	1
 588              		.syntax unified
 589              		.thumb
 590              		.thumb_func
 592              	tcp_create_segment:
 593              	.LVL43:
 594              	.LFB171:
 159:../../Middlewares/Third_Party/LwIP/src/core/tcp_out.c ****   struct tcp_seg *seg;
 595              		.loc 1 159 1 is_stmt 1 view -0
 596              		.cfi_startproc
 597              		@ args = 4, pretend = 0, frame = 0
 598              		@ frame_needed = 0, uses_anonymous_args = 0
 159:../../Middlewares/Third_Party/LwIP/src/core/tcp_out.c ****   struct tcp_seg *seg;
 599              		.loc 1 159 1 is_stmt 0 view .LVU163
 600 0000 2DE9F047 		push	{r4, r5, r6, r7, r8, r9, r10, lr}
 601              	.LCFI4:
 602              		.cfi_def_cfa_offset 32
 603              		.cfi_offset 4, -32
 604              		.cfi_offset 5, -28
 605              		.cfi_offset 6, -24
 606              		.cfi_offset 7, -20
 607              		.cfi_offset 8, -16
 608              		.cfi_offset 9, -12
 609              		.cfi_offset 10, -8
 610              		.cfi_offset 14, -4
 611 0004 0E46     		mov	r6, r1
 612 0006 1746     		mov	r7, r2
 613 0008 9846     		mov	r8, r3
 614 000a 9DF820A0 		ldrb	r10, [sp, #32]	@ zero_extendqisi2
 160:../../Middlewares/Third_Party/LwIP/src/core/tcp_out.c ****   u8_t optlen;
 615              		.loc 1 160 3 is_stmt 1 view .LVU164
ARM GAS  C:\Users\minis\AppData\Local\Temp\cc2ZMwrX.s 			page 48


 161:../../Middlewares/Third_Party/LwIP/src/core/tcp_out.c **** 
 616              		.loc 1 161 3 view .LVU165
 163:../../Middlewares/Third_Party/LwIP/src/core/tcp_out.c ****   LWIP_ASSERT("tcp_create_segment: invalid pbuf", p != NULL);
 617              		.loc 1 163 3 view .LVU166
 163:../../Middlewares/Third_Party/LwIP/src/core/tcp_out.c ****   LWIP_ASSERT("tcp_create_segment: invalid pbuf", p != NULL);
 618              		.loc 1 163 3 view .LVU167
 619 000e 8146     		mov	r9, r0
 620 0010 0028     		cmp	r0, #0
 621 0012 3ED0     		beq	.L63
 622              	.LVL44:
 623              	.L56:
 163:../../Middlewares/Third_Party/LwIP/src/core/tcp_out.c ****   LWIP_ASSERT("tcp_create_segment: invalid pbuf", p != NULL);
 624              		.loc 1 163 3 view .LVU168
 163:../../Middlewares/Third_Party/LwIP/src/core/tcp_out.c ****   LWIP_ASSERT("tcp_create_segment: invalid pbuf", p != NULL);
 625              		.loc 1 163 3 view .LVU169
 164:../../Middlewares/Third_Party/LwIP/src/core/tcp_out.c **** 
 626              		.loc 1 164 3 view .LVU170
 164:../../Middlewares/Third_Party/LwIP/src/core/tcp_out.c **** 
 627              		.loc 1 164 3 view .LVU171
 628 0014 002E     		cmp	r6, #0
 629 0016 43D0     		beq	.L64
 630              	.L57:
 164:../../Middlewares/Third_Party/LwIP/src/core/tcp_out.c **** 
 631              		.loc 1 164 3 view .LVU172
 164:../../Middlewares/Third_Party/LwIP/src/core/tcp_out.c **** 
 632              		.loc 1 164 3 view .LVU173
 166:../../Middlewares/Third_Party/LwIP/src/core/tcp_out.c **** 
 633              		.loc 1 166 3 view .LVU174
 166:../../Middlewares/Third_Party/LwIP/src/core/tcp_out.c **** 
 634              		.loc 1 166 12 is_stmt 0 view .LVU175
 635 0018 4FEA8A05 		lsl	r5, r10, #2
 166:../../Middlewares/Third_Party/LwIP/src/core/tcp_out.c **** 
 636              		.loc 1 166 10 view .LVU176
 637 001c 05F00405 		and	r5, r5, #4
 638              	.LVL45:
 168:../../Middlewares/Third_Party/LwIP/src/core/tcp_out.c ****     LWIP_DEBUGF(TCP_OUTPUT_DEBUG | LWIP_DBG_LEVEL_SERIOUS, ("tcp_create_segment: no memory.\n"));
 639              		.loc 1 168 3 is_stmt 1 view .LVU177
 168:../../Middlewares/Third_Party/LwIP/src/core/tcp_out.c ****     LWIP_DEBUGF(TCP_OUTPUT_DEBUG | LWIP_DBG_LEVEL_SERIOUS, ("tcp_create_segment: no memory.\n"));
 640              		.loc 1 168 32 is_stmt 0 view .LVU178
 641 0020 0320     		movs	r0, #3
 642 0022 FFF7FEFF 		bl	memp_malloc
 643              	.LVL46:
 168:../../Middlewares/Third_Party/LwIP/src/core/tcp_out.c ****     LWIP_DEBUGF(TCP_OUTPUT_DEBUG | LWIP_DBG_LEVEL_SERIOUS, ("tcp_create_segment: no memory.\n"));
 644              		.loc 1 168 6 discriminator 1 view .LVU179
 645 0026 0446     		mov	r4, r0
 646 0028 0028     		cmp	r0, #0
 647 002a 40D0     		beq	.L65
 173:../../Middlewares/Third_Party/LwIP/src/core/tcp_out.c ****   seg->next = NULL;
 648              		.loc 1 173 3 is_stmt 1 view .LVU180
 173:../../Middlewares/Third_Party/LwIP/src/core/tcp_out.c ****   seg->next = NULL;
 649              		.loc 1 173 14 is_stmt 0 view .LVU181
 650 002c 80F80AA0 		strb	r10, [r0, #10]
 174:../../Middlewares/Third_Party/LwIP/src/core/tcp_out.c ****   seg->p = p;
 651              		.loc 1 174 3 is_stmt 1 view .LVU182
 174:../../Middlewares/Third_Party/LwIP/src/core/tcp_out.c ****   seg->p = p;
 652              		.loc 1 174 13 is_stmt 0 view .LVU183
 653 0030 0023     		movs	r3, #0
ARM GAS  C:\Users\minis\AppData\Local\Temp\cc2ZMwrX.s 			page 49


 654 0032 0360     		str	r3, [r0]
 175:../../Middlewares/Third_Party/LwIP/src/core/tcp_out.c ****   LWIP_ASSERT("p->tot_len >= optlen", p->tot_len >= optlen);
 655              		.loc 1 175 3 is_stmt 1 view .LVU184
 175:../../Middlewares/Third_Party/LwIP/src/core/tcp_out.c ****   LWIP_ASSERT("p->tot_len >= optlen", p->tot_len >= optlen);
 656              		.loc 1 175 10 is_stmt 0 view .LVU185
 657 0034 4660     		str	r6, [r0, #4]
 176:../../Middlewares/Third_Party/LwIP/src/core/tcp_out.c ****   seg->len = p->tot_len - optlen;
 658              		.loc 1 176 3 is_stmt 1 view .LVU186
 176:../../Middlewares/Third_Party/LwIP/src/core/tcp_out.c ****   seg->len = p->tot_len - optlen;
 659              		.loc 1 176 3 view .LVU187
 660 0036 3389     		ldrh	r3, [r6, #8]
 661 0038 AB42     		cmp	r3, r5
 662 003a 3CD3     		bcc	.L66
 663              	.LVL47:
 664              	.L60:
 176:../../Middlewares/Third_Party/LwIP/src/core/tcp_out.c ****   seg->len = p->tot_len - optlen;
 665              		.loc 1 176 3 view .LVU188
 176:../../Middlewares/Third_Party/LwIP/src/core/tcp_out.c ****   seg->len = p->tot_len - optlen;
 666              		.loc 1 176 3 view .LVU189
 177:../../Middlewares/Third_Party/LwIP/src/core/tcp_out.c **** #if TCP_OVERSIZE_DBGCHECK
 667              		.loc 1 177 3 view .LVU190
 177:../../Middlewares/Third_Party/LwIP/src/core/tcp_out.c **** #if TCP_OVERSIZE_DBGCHECK
 668              		.loc 1 177 15 is_stmt 0 view .LVU191
 669 003c 3189     		ldrh	r1, [r6, #8]
 177:../../Middlewares/Third_Party/LwIP/src/core/tcp_out.c **** #if TCP_OVERSIZE_DBGCHECK
 670              		.loc 1 177 25 view .LVU192
 671 003e 491B     		subs	r1, r1, r5
 177:../../Middlewares/Third_Party/LwIP/src/core/tcp_out.c **** #if TCP_OVERSIZE_DBGCHECK
 672              		.loc 1 177 12 view .LVU193
 673 0040 2181     		strh	r1, [r4, #8]	@ movhi
 190:../../Middlewares/Third_Party/LwIP/src/core/tcp_out.c ****     LWIP_DEBUGF(TCP_OUTPUT_DEBUG | LWIP_DBG_LEVEL_SERIOUS, ("tcp_create_segment: no room for TCP he
 674              		.loc 1 190 3 is_stmt 1 view .LVU194
 190:../../Middlewares/Third_Party/LwIP/src/core/tcp_out.c ****     LWIP_DEBUGF(TCP_OUTPUT_DEBUG | LWIP_DBG_LEVEL_SERIOUS, ("tcp_create_segment: no room for TCP he
 675              		.loc 1 190 7 is_stmt 0 view .LVU195
 676 0042 1421     		movs	r1, #20
 677 0044 3046     		mov	r0, r6
 678 0046 FFF7FEFF 		bl	pbuf_add_header
 679              	.LVL48:
 190:../../Middlewares/Third_Party/LwIP/src/core/tcp_out.c ****     LWIP_DEBUGF(TCP_OUTPUT_DEBUG | LWIP_DBG_LEVEL_SERIOUS, ("tcp_create_segment: no room for TCP he
 680              		.loc 1 190 6 discriminator 1 view .LVU196
 681 004a 0028     		cmp	r0, #0
 682 004c 3AD1     		bne	.L67
 196:../../Middlewares/Third_Party/LwIP/src/core/tcp_out.c ****   seg->tcphdr->src = lwip_htons(pcb->local_port);
 683              		.loc 1 196 3 is_stmt 1 view .LVU197
 196:../../Middlewares/Third_Party/LwIP/src/core/tcp_out.c ****   seg->tcphdr->src = lwip_htons(pcb->local_port);
 684              		.loc 1 196 38 is_stmt 0 view .LVU198
 685 004e 6368     		ldr	r3, [r4, #4]
 196:../../Middlewares/Third_Party/LwIP/src/core/tcp_out.c ****   seg->tcphdr->src = lwip_htons(pcb->local_port);
 686              		.loc 1 196 41 view .LVU199
 687 0050 5E68     		ldr	r6, [r3, #4]
 688              	.LVL49:
 196:../../Middlewares/Third_Party/LwIP/src/core/tcp_out.c ****   seg->tcphdr->src = lwip_htons(pcb->local_port);
 689              		.loc 1 196 15 view .LVU200
 690 0052 E660     		str	r6, [r4, #12]
 197:../../Middlewares/Third_Party/LwIP/src/core/tcp_out.c ****   seg->tcphdr->dest = lwip_htons(pcb->remote_port);
 691              		.loc 1 197 3 is_stmt 1 view .LVU201
 197:../../Middlewares/Third_Party/LwIP/src/core/tcp_out.c ****   seg->tcphdr->dest = lwip_htons(pcb->remote_port);
ARM GAS  C:\Users\minis\AppData\Local\Temp\cc2ZMwrX.s 			page 50


 692              		.loc 1 197 22 is_stmt 0 view .LVU202
 693 0054 B9F81600 		ldrh	r0, [r9, #22]
 694 0058 FFF7FEFF 		bl	lwip_htons
 695              	.LVL50:
 197:../../Middlewares/Third_Party/LwIP/src/core/tcp_out.c ****   seg->tcphdr->dest = lwip_htons(pcb->remote_port);
 696              		.loc 1 197 20 discriminator 1 view .LVU203
 697 005c 3080     		strh	r0, [r6]	@ unaligned
 198:../../Middlewares/Third_Party/LwIP/src/core/tcp_out.c ****   seg->tcphdr->seqno = lwip_htonl(seqno);
 698              		.loc 1 198 3 is_stmt 1 view .LVU204
 198:../../Middlewares/Third_Party/LwIP/src/core/tcp_out.c ****   seg->tcphdr->seqno = lwip_htonl(seqno);
 699              		.loc 1 198 6 is_stmt 0 view .LVU205
 700 005e E668     		ldr	r6, [r4, #12]
 198:../../Middlewares/Third_Party/LwIP/src/core/tcp_out.c ****   seg->tcphdr->seqno = lwip_htonl(seqno);
 701              		.loc 1 198 23 view .LVU206
 702 0060 B9F81800 		ldrh	r0, [r9, #24]
 703 0064 FFF7FEFF 		bl	lwip_htons
 704              	.LVL51:
 198:../../Middlewares/Third_Party/LwIP/src/core/tcp_out.c ****   seg->tcphdr->seqno = lwip_htonl(seqno);
 705              		.loc 1 198 21 discriminator 1 view .LVU207
 706 0068 7080     		strh	r0, [r6, #2]	@ unaligned
 199:../../Middlewares/Third_Party/LwIP/src/core/tcp_out.c ****   /* ackno is set in tcp_output */
 707              		.loc 1 199 3 is_stmt 1 view .LVU208
 199:../../Middlewares/Third_Party/LwIP/src/core/tcp_out.c ****   /* ackno is set in tcp_output */
 708              		.loc 1 199 6 is_stmt 0 view .LVU209
 709 006a E668     		ldr	r6, [r4, #12]
 199:../../Middlewares/Third_Party/LwIP/src/core/tcp_out.c ****   /* ackno is set in tcp_output */
 710              		.loc 1 199 24 view .LVU210
 711 006c 4046     		mov	r0, r8
 712 006e FFF7FEFF 		bl	lwip_htonl
 713              	.LVL52:
 199:../../Middlewares/Third_Party/LwIP/src/core/tcp_out.c ****   /* ackno is set in tcp_output */
 714              		.loc 1 199 22 discriminator 1 view .LVU211
 715 0072 7060     		str	r0, [r6, #4]	@ unaligned
 201:../../Middlewares/Third_Party/LwIP/src/core/tcp_out.c ****   /* wnd and chksum are set in tcp_output */
 716              		.loc 1 201 3 is_stmt 1 view .LVU212
 717 0074 A808     		lsrs	r0, r5, #2
 718 0076 0530     		adds	r0, r0, #5
 719 0078 E568     		ldr	r5, [r4, #12]
 720              	.LVL53:
 201:../../Middlewares/Third_Party/LwIP/src/core/tcp_out.c ****   /* wnd and chksum are set in tcp_output */
 721              		.loc 1 201 3 is_stmt 0 view .LVU213
 722 007a 47EA0030 		orr	r0, r7, r0, lsl #12
 723 007e FFF7FEFF 		bl	lwip_htons
 724              	.LVL54:
 201:../../Middlewares/Third_Party/LwIP/src/core/tcp_out.c ****   /* wnd and chksum are set in tcp_output */
 725              		.loc 1 201 3 discriminator 1 view .LVU214
 726 0082 A881     		strh	r0, [r5, #12]	@ unaligned
 203:../../Middlewares/Third_Party/LwIP/src/core/tcp_out.c ****   return seg;
 727              		.loc 1 203 3 is_stmt 1 view .LVU215
 203:../../Middlewares/Third_Party/LwIP/src/core/tcp_out.c ****   return seg;
 728              		.loc 1 203 6 is_stmt 0 view .LVU216
 729 0084 E368     		ldr	r3, [r4, #12]
 203:../../Middlewares/Third_Party/LwIP/src/core/tcp_out.c ****   return seg;
 730              		.loc 1 203 21 view .LVU217
 731 0086 0022     		movs	r2, #0
 732 0088 9A74     		strb	r2, [r3, #18]
 733 008a DA74     		strb	r2, [r3, #19]
ARM GAS  C:\Users\minis\AppData\Local\Temp\cc2ZMwrX.s 			page 51


 204:../../Middlewares/Third_Party/LwIP/src/core/tcp_out.c **** }
 734              		.loc 1 204 3 is_stmt 1 view .LVU218
 735              	.LVL55:
 736              	.L55:
 205:../../Middlewares/Third_Party/LwIP/src/core/tcp_out.c **** 
 737              		.loc 1 205 1 is_stmt 0 view .LVU219
 738 008c 2046     		mov	r0, r4
 739 008e BDE8F087 		pop	{r4, r5, r6, r7, r8, r9, r10, pc}
 740              	.LVL56:
 741              	.L63:
 163:../../Middlewares/Third_Party/LwIP/src/core/tcp_out.c ****   LWIP_ASSERT("tcp_create_segment: invalid pbuf", p != NULL);
 742              		.loc 1 163 3 is_stmt 1 discriminator 1 view .LVU220
 163:../../Middlewares/Third_Party/LwIP/src/core/tcp_out.c ****   LWIP_ASSERT("tcp_create_segment: invalid pbuf", p != NULL);
 743              		.loc 1 163 3 discriminator 1 view .LVU221
 744 0092 0F4B     		ldr	r3, .L68
 745              	.LVL57:
 163:../../Middlewares/Third_Party/LwIP/src/core/tcp_out.c ****   LWIP_ASSERT("tcp_create_segment: invalid pbuf", p != NULL);
 746              		.loc 1 163 3 is_stmt 0 discriminator 1 view .LVU222
 747 0094 A322     		movs	r2, #163
 748              	.LVL58:
 163:../../Middlewares/Third_Party/LwIP/src/core/tcp_out.c ****   LWIP_ASSERT("tcp_create_segment: invalid pbuf", p != NULL);
 749              		.loc 1 163 3 discriminator 1 view .LVU223
 750 0096 0F49     		ldr	r1, .L68+4
 751              	.LVL59:
 163:../../Middlewares/Third_Party/LwIP/src/core/tcp_out.c ****   LWIP_ASSERT("tcp_create_segment: invalid pbuf", p != NULL);
 752              		.loc 1 163 3 discriminator 1 view .LVU224
 753 0098 0F48     		ldr	r0, .L68+8
 754              	.LVL60:
 163:../../Middlewares/Third_Party/LwIP/src/core/tcp_out.c ****   LWIP_ASSERT("tcp_create_segment: invalid pbuf", p != NULL);
 755              		.loc 1 163 3 discriminator 1 view .LVU225
 756 009a FFF7FEFF 		bl	printf
 757              	.LVL61:
 758 009e B9E7     		b	.L56
 759              	.L64:
 164:../../Middlewares/Third_Party/LwIP/src/core/tcp_out.c **** 
 760              		.loc 1 164 3 is_stmt 1 discriminator 1 view .LVU226
 164:../../Middlewares/Third_Party/LwIP/src/core/tcp_out.c **** 
 761              		.loc 1 164 3 discriminator 1 view .LVU227
 762 00a0 0B4B     		ldr	r3, .L68
 763 00a2 A422     		movs	r2, #164
 764 00a4 0D49     		ldr	r1, .L68+12
 765 00a6 0C48     		ldr	r0, .L68+8
 766 00a8 FFF7FEFF 		bl	printf
 767              	.LVL62:
 768 00ac B4E7     		b	.L57
 769              	.LVL63:
 770              	.L65:
 169:../../Middlewares/Third_Party/LwIP/src/core/tcp_out.c ****     pbuf_free(p);
 771              		.loc 1 169 97 view .LVU228
 170:../../Middlewares/Third_Party/LwIP/src/core/tcp_out.c ****     return NULL;
 772              		.loc 1 170 5 view .LVU229
 773 00ae 3046     		mov	r0, r6
 774              	.LVL64:
 170:../../Middlewares/Third_Party/LwIP/src/core/tcp_out.c ****     return NULL;
 775              		.loc 1 170 5 is_stmt 0 view .LVU230
 776 00b0 FFF7FEFF 		bl	pbuf_free
 777              	.LVL65:
ARM GAS  C:\Users\minis\AppData\Local\Temp\cc2ZMwrX.s 			page 52


 171:../../Middlewares/Third_Party/LwIP/src/core/tcp_out.c ****   }
 778              		.loc 1 171 5 is_stmt 1 view .LVU231
 171:../../Middlewares/Third_Party/LwIP/src/core/tcp_out.c ****   }
 779              		.loc 1 171 12 is_stmt 0 view .LVU232
 780 00b4 EAE7     		b	.L55
 781              	.LVL66:
 782              	.L66:
 176:../../Middlewares/Third_Party/LwIP/src/core/tcp_out.c ****   seg->len = p->tot_len - optlen;
 783              		.loc 1 176 3 is_stmt 1 discriminator 1 view .LVU233
 176:../../Middlewares/Third_Party/LwIP/src/core/tcp_out.c ****   seg->len = p->tot_len - optlen;
 784              		.loc 1 176 3 discriminator 1 view .LVU234
 785 00b6 064B     		ldr	r3, .L68
 786 00b8 B022     		movs	r2, #176
 787 00ba 0949     		ldr	r1, .L68+16
 788 00bc 0648     		ldr	r0, .L68+8
 789              	.LVL67:
 176:../../Middlewares/Third_Party/LwIP/src/core/tcp_out.c ****   seg->len = p->tot_len - optlen;
 790              		.loc 1 176 3 is_stmt 0 discriminator 1 view .LVU235
 791 00be FFF7FEFF 		bl	printf
 792              	.LVL68:
 793 00c2 BBE7     		b	.L60
 794              	.L67:
 191:../../Middlewares/Third_Party/LwIP/src/core/tcp_out.c ****     TCP_STATS_INC(tcp.err);
 795              		.loc 1 191 118 is_stmt 1 view .LVU236
 192:../../Middlewares/Third_Party/LwIP/src/core/tcp_out.c ****     tcp_seg_free(seg);
 796              		.loc 1 192 27 view .LVU237
 193:../../Middlewares/Third_Party/LwIP/src/core/tcp_out.c ****     return NULL;
 797              		.loc 1 193 5 view .LVU238
 798 00c4 2046     		mov	r0, r4
 799 00c6 FFF7FEFF 		bl	tcp_seg_free
 800              	.LVL69:
 194:../../Middlewares/Third_Party/LwIP/src/core/tcp_out.c ****   }
 801              		.loc 1 194 5 view .LVU239
 194:../../Middlewares/Third_Party/LwIP/src/core/tcp_out.c ****   }
 802              		.loc 1 194 12 is_stmt 0 view .LVU240
 803 00ca 0024     		movs	r4, #0
 804              	.LVL70:
 194:../../Middlewares/Third_Party/LwIP/src/core/tcp_out.c ****   }
 805              		.loc 1 194 12 view .LVU241
 806 00cc DEE7     		b	.L55
 807              	.L69:
 808 00ce 00BF     		.align	2
 809              	.L68:
 810 00d0 00000000 		.word	.LC0
 811 00d4 00000000 		.word	.LC11
 812 00d8 58000000 		.word	.LC2
 813 00dc 20000000 		.word	.LC12
 814 00e0 44000000 		.word	.LC13
 815              		.cfi_endproc
 816              	.LFE171:
 818              		.section	.rodata.tcp_output_alloc_header_common.str1.4,"aMS",%progbits,1
 819              		.align	2
 820              	.LC14:
 821 0000 63686563 		.ascii	"check that first pbuf can hold struct tcp_hdr\000"
 821      6B207468 
 821      61742066 
 821      69727374 
ARM GAS  C:\Users\minis\AppData\Local\Temp\cc2ZMwrX.s 			page 53


 821      20706275 
 822              		.section	.text.tcp_output_alloc_header_common,"ax",%progbits
 823              		.align	1
 824              		.syntax unified
 825              		.thumb
 826              		.thumb_func
 828              	tcp_output_alloc_header_common:
 829              	.LVL71:
 830              	.LFB186:
1821:../../Middlewares/Third_Party/LwIP/src/core/tcp_out.c ****   struct tcp_hdr *tcphdr;
 831              		.loc 1 1821 1 is_stmt 1 view -0
 832              		.cfi_startproc
 833              		@ args = 16, pretend = 0, frame = 0
 834              		@ frame_needed = 0, uses_anonymous_args = 0
1821:../../Middlewares/Third_Party/LwIP/src/core/tcp_out.c ****   struct tcp_hdr *tcphdr;
 835              		.loc 1 1821 1 is_stmt 0 view .LVU243
 836 0000 2DE9F041 		push	{r4, r5, r6, r7, r8, lr}
 837              	.LCFI5:
 838              		.cfi_def_cfa_offset 24
 839              		.cfi_offset 4, -24
 840              		.cfi_offset 5, -20
 841              		.cfi_offset 6, -16
 842              		.cfi_offset 7, -12
 843              		.cfi_offset 8, -8
 844              		.cfi_offset 14, -4
 845 0004 0646     		mov	r6, r0
 846 0006 0C46     		mov	r4, r1
 847 0008 9846     		mov	r8, r3
1822:../../Middlewares/Third_Party/LwIP/src/core/tcp_out.c ****   struct pbuf *p;
 848              		.loc 1 1822 3 is_stmt 1 view .LVU244
1823:../../Middlewares/Third_Party/LwIP/src/core/tcp_out.c **** 
 849              		.loc 1 1823 3 view .LVU245
1825:../../Middlewares/Third_Party/LwIP/src/core/tcp_out.c ****   if (p != NULL) {
 850              		.loc 1 1825 3 view .LVU246
1825:../../Middlewares/Third_Party/LwIP/src/core/tcp_out.c ****   if (p != NULL) {
 851              		.loc 1 1825 45 is_stmt 0 view .LVU247
 852 000a 1144     		add	r1, r1, r2
 853              	.LVL72:
1825:../../Middlewares/Third_Party/LwIP/src/core/tcp_out.c ****   if (p != NULL) {
 854              		.loc 1 1825 45 view .LVU248
 855 000c 89B2     		uxth	r1, r1
1825:../../Middlewares/Third_Party/LwIP/src/core/tcp_out.c ****   if (p != NULL) {
 856              		.loc 1 1825 7 view .LVU249
 857 000e 1431     		adds	r1, r1, #20
 858 0010 4FF42072 		mov	r2, #640
 859              	.LVL73:
1825:../../Middlewares/Third_Party/LwIP/src/core/tcp_out.c ****   if (p != NULL) {
 860              		.loc 1 1825 7 view .LVU250
 861 0014 89B2     		uxth	r1, r1
 862 0016 2220     		movs	r0, #34
 863              	.LVL74:
1825:../../Middlewares/Third_Party/LwIP/src/core/tcp_out.c ****   if (p != NULL) {
 864              		.loc 1 1825 7 view .LVU251
 865 0018 FFF7FEFF 		bl	pbuf_alloc
 866              	.LVL75:
1826:../../Middlewares/Third_Party/LwIP/src/core/tcp_out.c ****     LWIP_ASSERT("check that first pbuf can hold struct tcp_hdr",
 867              		.loc 1 1826 3 is_stmt 1 view .LVU252
ARM GAS  C:\Users\minis\AppData\Local\Temp\cc2ZMwrX.s 			page 54


1826:../../Middlewares/Third_Party/LwIP/src/core/tcp_out.c ****     LWIP_ASSERT("check that first pbuf can hold struct tcp_hdr",
 868              		.loc 1 1826 6 is_stmt 0 view .LVU253
 869 001c 0746     		mov	r7, r0
 870 001e 48B3     		cbz	r0, .L70
1827:../../Middlewares/Third_Party/LwIP/src/core/tcp_out.c ****                 (p->len >= TCP_HLEN + optlen));
 871              		.loc 1 1827 5 is_stmt 1 view .LVU254
1827:../../Middlewares/Third_Party/LwIP/src/core/tcp_out.c ****                 (p->len >= TCP_HLEN + optlen));
 872              		.loc 1 1827 5 view .LVU255
 873 0020 04F11303 		add	r3, r4, #19
 874 0024 4289     		ldrh	r2, [r0, #10]
 875 0026 9342     		cmp	r3, r2
 876 0028 27DA     		bge	.L74
 877              	.LVL76:
 878              	.L72:
1827:../../Middlewares/Third_Party/LwIP/src/core/tcp_out.c ****                 (p->len >= TCP_HLEN + optlen));
 879              		.loc 1 1827 5 view .LVU256
1827:../../Middlewares/Third_Party/LwIP/src/core/tcp_out.c ****                 (p->len >= TCP_HLEN + optlen));
 880              		.loc 1 1827 5 view .LVU257
1829:../../Middlewares/Third_Party/LwIP/src/core/tcp_out.c ****     tcphdr->src = lwip_htons(src_port);
 881              		.loc 1 1829 5 view .LVU258
1829:../../Middlewares/Third_Party/LwIP/src/core/tcp_out.c ****     tcphdr->src = lwip_htons(src_port);
 882              		.loc 1 1829 12 is_stmt 0 view .LVU259
 883 002a 7D68     		ldr	r5, [r7, #4]
 884              	.LVL77:
1830:../../Middlewares/Third_Party/LwIP/src/core/tcp_out.c ****     tcphdr->dest = lwip_htons(dst_port);
 885              		.loc 1 1830 5 is_stmt 1 view .LVU260
1830:../../Middlewares/Third_Party/LwIP/src/core/tcp_out.c ****     tcphdr->dest = lwip_htons(dst_port);
 886              		.loc 1 1830 19 is_stmt 0 view .LVU261
 887 002c BDF81800 		ldrh	r0, [sp, #24]
 888 0030 FFF7FEFF 		bl	lwip_htons
 889              	.LVL78:
1830:../../Middlewares/Third_Party/LwIP/src/core/tcp_out.c ****     tcphdr->dest = lwip_htons(dst_port);
 890              		.loc 1 1830 17 discriminator 1 view .LVU262
 891 0034 2880     		strh	r0, [r5]	@ unaligned
1831:../../Middlewares/Third_Party/LwIP/src/core/tcp_out.c ****     tcphdr->seqno = seqno_be;
 892              		.loc 1 1831 5 is_stmt 1 view .LVU263
1831:../../Middlewares/Third_Party/LwIP/src/core/tcp_out.c ****     tcphdr->seqno = seqno_be;
 893              		.loc 1 1831 20 is_stmt 0 view .LVU264
 894 0036 BDF81C00 		ldrh	r0, [sp, #28]
 895 003a FFF7FEFF 		bl	lwip_htons
 896              	.LVL79:
1831:../../Middlewares/Third_Party/LwIP/src/core/tcp_out.c ****     tcphdr->seqno = seqno_be;
 897              		.loc 1 1831 18 discriminator 1 view .LVU265
 898 003e 6880     		strh	r0, [r5, #2]	@ unaligned
1832:../../Middlewares/Third_Party/LwIP/src/core/tcp_out.c ****     tcphdr->ackno = lwip_htonl(ackno);
