ARM GAS  C:\Users\minis\AppData\Local\Temp\ccz02D0c.s 			page 1


   1              		.cpu cortex-m7
   2              		.arch armv7e-m
   3              		.fpu fpv5-d16
   4              		.eabi_attribute 20, 1
   5              		.eabi_attribute 21, 1
   6              		.eabi_attribute 23, 3
   7              		.eabi_attribute 24, 1
   8              		.eabi_attribute 25, 1
   9              		.eabi_attribute 26, 1
  10              		.eabi_attribute 30, 1
  11              		.eabi_attribute 34, 1
  12              		.eabi_attribute 18, 4
  13              		.file	"udp_transport.c"
  14              		.text
  15              	.Ltext0:
  16              		.cfi_sections	.debug_frame
  17              		.file 1 "../../micro_ros_stm32cubemx_utils/extra_sources/microros_transports/udp_transport.c"
  18              		.section	.rodata.cubemx_transport_open.str1.4,"aMS",%progbits,1
  19              		.align	2
  20              	.LC0:
  21 0000 434D373A 		.ascii	"CM7: udp-open-no-ip\015\000"
  21      20756470 
  21      2D6F7065 
  21      6E2D6E6F 
  21      2D69700D 
  22 0015 000000   		.align	2
  23              	.LC1:
  24 0018 434D373A 		.ascii	"CM7: udp-open-socket-failed\015\000"
  24      20756470 
  24      2D6F7065 
  24      6E2D736F 
  24      636B6574 
  25 0035 000000   		.align	2
  26              	.LC2:
  27 0038 434D373A 		.ascii	"CM7: udp-connect-failed\015\000"
  27      20756470 
  27      2D636F6E 
  27      6E656374 
  27      2D666169 
  28 0051 000000   		.align	2
  29              	.LC3:
  30 0054 434D373A 		.ascii	"CM7: udp-open-ok port=%d agent=%s\015\012\000"
  30      20756470 
  30      2D6F7065 
  30      6E2D6F6B 
  30      20706F72 
  31              		.section	.text.cubemx_transport_open,"ax",%progbits
  32              		.align	1
  33              		.global	cubemx_transport_open
  34              		.syntax unified
  35              		.thumb
  36              		.thumb_func
  38              	cubemx_transport_open:
  39              	.LVL0:
  40              	.LFB174:
   1:../../micro_ros_stm32cubemx_utils/extra_sources/microros_transports/udp_transport.c **** #include <uxr/client/transport.h>
   2:../../micro_ros_stm32cubemx_utils/extra_sources/microros_transports/udp_transport.c **** 
ARM GAS  C:\Users\minis\AppData\Local\Temp\ccz02D0c.s 			page 2


   3:../../micro_ros_stm32cubemx_utils/extra_sources/microros_transports/udp_transport.c **** #include <rmw_microxrcedds_c/config.h>
   4:../../micro_ros_stm32cubemx_utils/extra_sources/microros_transports/udp_transport.c **** 
   5:../../micro_ros_stm32cubemx_utils/extra_sources/microros_transports/udp_transport.c **** #include "main.h"
   6:../../micro_ros_stm32cubemx_utils/extra_sources/microros_transports/udp_transport.c **** #include "cmsis_os.h"
   7:../../micro_ros_stm32cubemx_utils/extra_sources/microros_transports/udp_transport.c **** 
   8:../../micro_ros_stm32cubemx_utils/extra_sources/microros_transports/udp_transport.c **** #include <unistd.h>
   9:../../micro_ros_stm32cubemx_utils/extra_sources/microros_transports/udp_transport.c **** #include <stdio.h>
  10:../../micro_ros_stm32cubemx_utils/extra_sources/microros_transports/udp_transport.c **** #include <string.h>
  11:../../micro_ros_stm32cubemx_utils/extra_sources/microros_transports/udp_transport.c **** #include <stdbool.h>
  12:../../micro_ros_stm32cubemx_utils/extra_sources/microros_transports/udp_transport.c **** 
  13:../../micro_ros_stm32cubemx_utils/extra_sources/microros_transports/udp_transport.c **** // --- LWIP ---
  14:../../micro_ros_stm32cubemx_utils/extra_sources/microros_transports/udp_transport.c **** #include "lwip/opt.h"
  15:../../micro_ros_stm32cubemx_utils/extra_sources/microros_transports/udp_transport.c **** #include "lwip/sys.h"
  16:../../micro_ros_stm32cubemx_utils/extra_sources/microros_transports/udp_transport.c **** #include "lwip/api.h"
  17:../../micro_ros_stm32cubemx_utils/extra_sources/microros_transports/udp_transport.c **** #include <lwip/sockets.h>
  18:../../micro_ros_stm32cubemx_utils/extra_sources/microros_transports/udp_transport.c **** 
  19:../../micro_ros_stm32cubemx_utils/extra_sources/microros_transports/udp_transport.c **** #ifdef RMW_UXRCE_TRANSPORT_CUSTOM
  20:../../micro_ros_stm32cubemx_utils/extra_sources/microros_transports/udp_transport.c **** 
  21:../../micro_ros_stm32cubemx_utils/extra_sources/microros_transports/udp_transport.c **** // --- micro-ROS Transports ---
  22:../../micro_ros_stm32cubemx_utils/extra_sources/microros_transports/udp_transport.c **** #define UDP_PORT        8888
  23:../../micro_ros_stm32cubemx_utils/extra_sources/microros_transports/udp_transport.c **** static int sock_fd = -1;
  24:../../micro_ros_stm32cubemx_utils/extra_sources/microros_transports/udp_transport.c **** 
  25:../../micro_ros_stm32cubemx_utils/extra_sources/microros_transports/udp_transport.c **** bool cubemx_transport_open(struct uxrCustomTransport * transport){
  41              		.loc 1 25 66 view -0
  42              		.cfi_startproc
  43              		@ args = 0, pretend = 0, frame = 16
  44              		@ frame_needed = 0, uses_anonymous_args = 0
  45              		.loc 1 25 66 is_stmt 0 view .LVU1
  46 0000 30B5     		push	{r4, r5, lr}
  47              	.LCFI0:
  48              		.cfi_def_cfa_offset 12
  49              		.cfi_offset 4, -12
  50              		.cfi_offset 5, -8
  51              		.cfi_offset 14, -4
  52 0002 85B0     		sub	sp, sp, #20
  53              	.LCFI1:
  54              		.cfi_def_cfa_offset 32
  26:../../micro_ros_stm32cubemx_utils/extra_sources/microros_transports/udp_transport.c ****     const char * ip_addr = (const char*) transport->args;
  55              		.loc 1 26 5 is_stmt 1 view .LVU2
  56              		.loc 1 26 18 is_stmt 0 view .LVU3
  57 0004 D0F88C42 		ldr	r4, [r0, #652]
  58              	.LVL1:
  27:../../micro_ros_stm32cubemx_utils/extra_sources/microros_transports/udp_transport.c **** 
  28:../../micro_ros_stm32cubemx_utils/extra_sources/microros_transports/udp_transport.c ****     if (ip_addr == NULL) {
  59              		.loc 1 28 5 is_stmt 1 view .LVU4
  60              		.loc 1 28 8 is_stmt 0 view .LVU5
  61 0008 64B3     		cbz	r4, .L7
  29:../../micro_ros_stm32cubemx_utils/extra_sources/microros_transports/udp_transport.c ****         printf("CM7: udp-open-no-ip\r\n");
  30:../../micro_ros_stm32cubemx_utils/extra_sources/microros_transports/udp_transport.c ****         return false;
  31:../../micro_ros_stm32cubemx_utils/extra_sources/microros_transports/udp_transport.c ****     }
  32:../../micro_ros_stm32cubemx_utils/extra_sources/microros_transports/udp_transport.c **** 
  33:../../micro_ros_stm32cubemx_utils/extra_sources/microros_transports/udp_transport.c ****     sock_fd = socket(AF_INET, SOCK_DGRAM, 0);
  62              		.loc 1 33 5 is_stmt 1 view .LVU6
  63              		.loc 1 33 15 is_stmt 0 view .LVU7
  64 000a 0022     		movs	r2, #0
  65 000c 0221     		movs	r1, #2
  66 000e 0846     		mov	r0, r1
ARM GAS  C:\Users\minis\AppData\Local\Temp\ccz02D0c.s 			page 3


  67              	.LVL2:
  68              		.loc 1 33 15 view .LVU8
  69 0010 FFF7FEFF 		bl	lwip_socket
  70              	.LVL3:
  71              		.loc 1 33 13 discriminator 1 view .LVU9
  72 0014 1E4B     		ldr	r3, .L10
  73 0016 1860     		str	r0, [r3]
  34:../../micro_ros_stm32cubemx_utils/extra_sources/microros_transports/udp_transport.c ****     
  35:../../micro_ros_stm32cubemx_utils/extra_sources/microros_transports/udp_transport.c ****     if (sock_fd < 0) {
  74              		.loc 1 35 5 is_stmt 1 view .LVU10
  75              		.loc 1 35 8 is_stmt 0 view .LVU11
  76 0018 0028     		cmp	r0, #0
  77 001a 28DB     		blt	.L8
  36:../../micro_ros_stm32cubemx_utils/extra_sources/microros_transports/udp_transport.c ****         printf("CM7: udp-open-socket-failed\r\n");
  37:../../micro_ros_stm32cubemx_utils/extra_sources/microros_transports/udp_transport.c ****         return false;  // Socket creation failed
  38:../../micro_ros_stm32cubemx_utils/extra_sources/microros_transports/udp_transport.c ****     }
  39:../../micro_ros_stm32cubemx_utils/extra_sources/microros_transports/udp_transport.c ****     
  40:../../micro_ros_stm32cubemx_utils/extra_sources/microros_transports/udp_transport.c ****     struct sockaddr_in agent_addr;
  78              		.loc 1 40 5 is_stmt 1 view .LVU12
  41:../../micro_ros_stm32cubemx_utils/extra_sources/microros_transports/udp_transport.c ****     memset(&agent_addr, 0, sizeof(agent_addr));
  79              		.loc 1 41 5 view .LVU13
  80 001c 0023     		movs	r3, #0
  81 001e 0093     		str	r3, [sp]
  82 0020 0193     		str	r3, [sp, #4]
  83 0022 0293     		str	r3, [sp, #8]
  84 0024 0393     		str	r3, [sp, #12]
  42:../../micro_ros_stm32cubemx_utils/extra_sources/microros_transports/udp_transport.c ****     agent_addr.sin_family = AF_INET;
  85              		.loc 1 42 5 view .LVU14
  86              		.loc 1 42 27 is_stmt 0 view .LVU15
  87 0026 0223     		movs	r3, #2
  88 0028 8DF80130 		strb	r3, [sp, #1]
  43:../../micro_ros_stm32cubemx_utils/extra_sources/microros_transports/udp_transport.c ****     agent_addr.sin_port = htons(UDP_PORT);
  89              		.loc 1 43 5 is_stmt 1 view .LVU16
  90              		.loc 1 43 27 is_stmt 0 view .LVU17
  91 002c 42F2B820 		movw	r0, #8888
  92 0030 FFF7FEFF 		bl	lwip_htons
  93              	.LVL4:
  94              		.loc 1 43 25 discriminator 1 view .LVU18
  95 0034 ADF80200 		strh	r0, [sp, #2]	@ movhi
  44:../../micro_ros_stm32cubemx_utils/extra_sources/microros_transports/udp_transport.c ****     agent_addr.sin_addr.s_addr = inet_addr(ip_addr);
  96              		.loc 1 44 5 is_stmt 1 view .LVU19
  97              		.loc 1 44 34 is_stmt 0 view .LVU20
  98 0038 2046     		mov	r0, r4
  99 003a FFF7FEFF 		bl	ipaddr_addr
 100              	.LVL5:
 101              		.loc 1 44 32 discriminator 1 view .LVU21
 102 003e 0190     		str	r0, [sp, #4]
  45:../../micro_ros_stm32cubemx_utils/extra_sources/microros_transports/udp_transport.c **** 
  46:../../micro_ros_stm32cubemx_utils/extra_sources/microros_transports/udp_transport.c ****     if (connect(sock_fd, (struct sockaddr *)&agent_addr, sizeof(agent_addr)) == -1)
 103              		.loc 1 46 5 is_stmt 1 view .LVU22
 104              		.loc 1 46 9 is_stmt 0 view .LVU23
 105 0040 1022     		movs	r2, #16
 106 0042 6946     		mov	r1, sp
 107 0044 124B     		ldr	r3, .L10
 108 0046 1868     		ldr	r0, [r3]
 109 0048 FFF7FEFF 		bl	lwip_connect
 110              	.LVL6:
ARM GAS  C:\Users\minis\AppData\Local\Temp\ccz02D0c.s 			page 4


 111              		.loc 1 46 8 discriminator 1 view .LVU24
 112 004c B0F1FF3F 		cmp	r0, #-1
 113 0050 12D0     		beq	.L9
  47:../../micro_ros_stm32cubemx_utils/extra_sources/microros_transports/udp_transport.c ****     {
  48:../../micro_ros_stm32cubemx_utils/extra_sources/microros_transports/udp_transport.c ****         printf("CM7: udp-connect-failed\r\n");
  49:../../micro_ros_stm32cubemx_utils/extra_sources/microros_transports/udp_transport.c ****         closesocket(sock_fd);
  50:../../micro_ros_stm32cubemx_utils/extra_sources/microros_transports/udp_transport.c ****         sock_fd = -1;
  51:../../micro_ros_stm32cubemx_utils/extra_sources/microros_transports/udp_transport.c ****         return false;
  52:../../micro_ros_stm32cubemx_utils/extra_sources/microros_transports/udp_transport.c ****     }
  53:../../micro_ros_stm32cubemx_utils/extra_sources/microros_transports/udp_transport.c **** 
  54:../../micro_ros_stm32cubemx_utils/extra_sources/microros_transports/udp_transport.c ****     printf("CM7: udp-open-ok port=%d agent=%s\r\n", UDP_PORT, ip_addr);
 114              		.loc 1 54 5 is_stmt 1 view .LVU25
 115 0052 2246     		mov	r2, r4
 116 0054 42F2B821 		movw	r1, #8888
 117 0058 0E48     		ldr	r0, .L10+4
 118 005a FFF7FEFF 		bl	printf
 119              	.LVL7:
  55:../../micro_ros_stm32cubemx_utils/extra_sources/microros_transports/udp_transport.c **** 
  56:../../micro_ros_stm32cubemx_utils/extra_sources/microros_transports/udp_transport.c ****     return true;
 120              		.loc 1 56 5 view .LVU26
 121              		.loc 1 56 12 is_stmt 0 view .LVU27
 122 005e 0120     		movs	r0, #1
 123              	.LVL8:
 124              	.L3:
  57:../../micro_ros_stm32cubemx_utils/extra_sources/microros_transports/udp_transport.c **** }
 125              		.loc 1 57 1 view .LVU28
 126 0060 05B0     		add	sp, sp, #20
 127              	.LCFI2:
 128              		.cfi_remember_state
 129              		.cfi_def_cfa_offset 12
 130              		@ sp needed
 131 0062 30BD     		pop	{r4, r5, pc}
 132              	.LVL9:
 133              	.L7:
 134              	.LCFI3:
 135              		.cfi_restore_state
  29:../../micro_ros_stm32cubemx_utils/extra_sources/microros_transports/udp_transport.c ****         return false;
 136              		.loc 1 29 9 is_stmt 1 view .LVU29
 137 0064 0C48     		ldr	r0, .L10+8
 138              	.LVL10:
  29:../../micro_ros_stm32cubemx_utils/extra_sources/microros_transports/udp_transport.c ****         return false;
 139              		.loc 1 29 9 is_stmt 0 view .LVU30
 140 0066 FFF7FEFF 		bl	puts
 141              	.LVL11:
  30:../../micro_ros_stm32cubemx_utils/extra_sources/microros_transports/udp_transport.c ****     }
 142              		.loc 1 30 9 is_stmt 1 view .LVU31
  30:../../micro_ros_stm32cubemx_utils/extra_sources/microros_transports/udp_transport.c ****     }
 143              		.loc 1 30 16 is_stmt 0 view .LVU32
 144 006a 0020     		movs	r0, #0
 145 006c F8E7     		b	.L3
 146              	.L8:
  36:../../micro_ros_stm32cubemx_utils/extra_sources/microros_transports/udp_transport.c ****         return false;  // Socket creation failed
 147              		.loc 1 36 9 is_stmt 1 view .LVU33
 148 006e 0B48     		ldr	r0, .L10+12
 149 0070 FFF7FEFF 		bl	puts
 150              	.LVL12:
  37:../../micro_ros_stm32cubemx_utils/extra_sources/microros_transports/udp_transport.c ****     }
ARM GAS  C:\Users\minis\AppData\Local\Temp\ccz02D0c.s 			page 5


 151              		.loc 1 37 9 view .LVU34
  37:../../micro_ros_stm32cubemx_utils/extra_sources/microros_transports/udp_transport.c ****     }
 152              		.loc 1 37 16 is_stmt 0 view .LVU35
 153 0074 0020     		movs	r0, #0
 154 0076 F3E7     		b	.L3
 155              	.L9:
  48:../../micro_ros_stm32cubemx_utils/extra_sources/microros_transports/udp_transport.c ****         closesocket(sock_fd);
 156              		.loc 1 48 9 is_stmt 1 view .LVU36
 157 0078 0948     		ldr	r0, .L10+16
 158 007a FFF7FEFF 		bl	puts
 159              	.LVL13:
  49:../../micro_ros_stm32cubemx_utils/extra_sources/microros_transports/udp_transport.c ****         sock_fd = -1;
 160              		.loc 1 49 9 view .LVU37
 161 007e 044C     		ldr	r4, .L10
 162              	.LVL14:
  49:../../micro_ros_stm32cubemx_utils/extra_sources/microros_transports/udp_transport.c ****         sock_fd = -1;
 163              		.loc 1 49 9 is_stmt 0 view .LVU38
 164 0080 2068     		ldr	r0, [r4]
 165 0082 FFF7FEFF 		bl	lwip_close
 166              	.LVL15:
  50:../../micro_ros_stm32cubemx_utils/extra_sources/microros_transports/udp_transport.c ****         return false;
 167              		.loc 1 50 9 is_stmt 1 view .LVU39
  50:../../micro_ros_stm32cubemx_utils/extra_sources/microros_transports/udp_transport.c ****         return false;
 168              		.loc 1 50 17 is_stmt 0 view .LVU40
 169 0086 4FF0FF33 		mov	r3, #-1
 170 008a 2360     		str	r3, [r4]
  51:../../micro_ros_stm32cubemx_utils/extra_sources/microros_transports/udp_transport.c ****     }
 171              		.loc 1 51 9 is_stmt 1 view .LVU41
  51:../../micro_ros_stm32cubemx_utils/extra_sources/microros_transports/udp_transport.c ****     }
 172              		.loc 1 51 16 is_stmt 0 view .LVU42
 173 008c 0020     		movs	r0, #0
 174 008e E7E7     		b	.L3
 175              	.L11:
 176              		.align	2
 177              	.L10:
 178 0090 00000000 		.word	sock_fd
 179 0094 54000000 		.word	.LC3
 180 0098 00000000 		.word	.LC0
 181 009c 18000000 		.word	.LC1
 182 00a0 38000000 		.word	.LC2
 183              		.cfi_endproc
 184              	.LFE174:
 186              		.section	.text.cubemx_transport_close,"ax",%progbits
 187              		.align	1
 188              		.global	cubemx_transport_close
 189              		.syntax unified
 190              		.thumb
 191              		.thumb_func
 193              	cubemx_transport_close:
 194              	.LVL16:
 195              	.LFB175:
  58:../../micro_ros_stm32cubemx_utils/extra_sources/microros_transports/udp_transport.c **** 
  59:../../micro_ros_stm32cubemx_utils/extra_sources/microros_transports/udp_transport.c **** bool cubemx_transport_close(struct uxrCustomTransport * transport){
 196              		.loc 1 59 67 is_stmt 1 view -0
 197              		.cfi_startproc
 198              		@ args = 0, pretend = 0, frame = 0
 199              		@ frame_needed = 0, uses_anonymous_args = 0
ARM GAS  C:\Users\minis\AppData\Local\Temp\ccz02D0c.s 			page 6


 200              		.loc 1 59 67 is_stmt 0 view .LVU44
 201 0000 08B5     		push	{r3, lr}
 202              	.LCFI4:
 203              		.cfi_def_cfa_offset 8
 204              		.cfi_offset 3, -8
 205              		.cfi_offset 14, -4
  60:../../micro_ros_stm32cubemx_utils/extra_sources/microros_transports/udp_transport.c ****     (void)transport;  // Unused parameter
 206              		.loc 1 60 5 is_stmt 1 view .LVU45
  61:../../micro_ros_stm32cubemx_utils/extra_sources/microros_transports/udp_transport.c ****     if (sock_fd >= 0)
 207              		.loc 1 61 5 view .LVU46
 208              		.loc 1 61 17 is_stmt 0 view .LVU47
 209 0002 064B     		ldr	r3, .L16
 210 0004 1868     		ldr	r0, [r3]
 211              	.LVL17:
 212              		.loc 1 61 8 view .LVU48
 213 0006 0028     		cmp	r0, #0
 214 0008 01DA     		bge	.L15
 215              	.L13:
  62:../../micro_ros_stm32cubemx_utils/extra_sources/microros_transports/udp_transport.c ****     {
  63:../../micro_ros_stm32cubemx_utils/extra_sources/microros_transports/udp_transport.c ****         closesocket(sock_fd);
  64:../../micro_ros_stm32cubemx_utils/extra_sources/microros_transports/udp_transport.c ****         sock_fd = -1;
  65:../../micro_ros_stm32cubemx_utils/extra_sources/microros_transports/udp_transport.c ****     }
  66:../../micro_ros_stm32cubemx_utils/extra_sources/microros_transports/udp_transport.c ****     return true;
 216              		.loc 1 66 5 is_stmt 1 view .LVU49
  67:../../micro_ros_stm32cubemx_utils/extra_sources/microros_transports/udp_transport.c **** }
 217              		.loc 1 67 1 is_stmt 0 view .LVU50
 218 000a 0120     		movs	r0, #1
 219 000c 08BD     		pop	{r3, pc}
 220              	.L15:
  63:../../micro_ros_stm32cubemx_utils/extra_sources/microros_transports/udp_transport.c ****         sock_fd = -1;
 221              		.loc 1 63 9 is_stmt 1 view .LVU51
 222 000e FFF7FEFF 		bl	lwip_close
 223              	.LVL18:
  64:../../micro_ros_stm32cubemx_utils/extra_sources/microros_transports/udp_transport.c ****     }
 224              		.loc 1 64 9 view .LVU52
  64:../../micro_ros_stm32cubemx_utils/extra_sources/microros_transports/udp_transport.c ****     }
 225              		.loc 1 64 17 is_stmt 0 view .LVU53
 226 0012 024B     		ldr	r3, .L16
 227 0014 4FF0FF32 		mov	r2, #-1
 228 0018 1A60     		str	r2, [r3]
 229 001a F6E7     		b	.L13
 230              	.L17:
 231              		.align	2
 232              	.L16:
 233 001c 00000000 		.word	sock_fd
 234              		.cfi_endproc
 235              	.LFE175:
 237              		.section	.rodata.cubemx_transport_write.str1.4,"aMS",%progbits,1
 238              		.align	2
 239              	.LC4:
 240 0000 434D373A 		.ascii	"CM7: udp-write-no-socket\015\000"
 240      20756470 
 240      2D777269 
 240      74652D6E 
 240      6F2D736F 
 241 001a 0000     		.align	2
 242              	.LC5:
ARM GAS  C:\Users\minis\AppData\Local\Temp\ccz02D0c.s 			page 7


 243 001c 434D373A 		.ascii	"CM7: udp-sendto-failed\015\000"
 243      20756470 
 243      2D73656E 
 243      64746F2D 
 243      6661696C 
 244              		.section	.text.cubemx_transport_write,"ax",%progbits
 245              		.align	1
 246              		.global	cubemx_transport_write
 247              		.syntax unified
 248              		.thumb
 249              		.thumb_func
 251              	cubemx_transport_write:
 252              	.LVL19:
 253              	.LFB176:
  68:../../micro_ros_stm32cubemx_utils/extra_sources/microros_transports/udp_transport.c **** 
  69:../../micro_ros_stm32cubemx_utils/extra_sources/microros_transports/udp_transport.c **** size_t cubemx_transport_write(struct uxrCustomTransport* transport, const uint8_t * buf, size_t len
 254              		.loc 1 69 116 is_stmt 1 view -0
 255              		.cfi_startproc
 256              		@ args = 0, pretend = 0, frame = 0
 257              		@ frame_needed = 0, uses_anonymous_args = 0
 258              		.loc 1 69 116 is_stmt 0 view .LVU55
 259 0000 10B5     		push	{r4, lr}
 260              	.LCFI5:
 261              		.cfi_def_cfa_offset 8
 262              		.cfi_offset 4, -8
 263              		.cfi_offset 14, -4
 264 0002 1C46     		mov	r4, r3
  70:../../micro_ros_stm32cubemx_utils/extra_sources/microros_transports/udp_transport.c ****     (void)transport;
 265              		.loc 1 70 5 is_stmt 1 view .LVU56
  71:../../micro_ros_stm32cubemx_utils/extra_sources/microros_transports/udp_transport.c ****     if (sock_fd < 0)
 266              		.loc 1 71 5 view .LVU57
 267              		.loc 1 71 17 is_stmt 0 view .LVU58
 268 0004 0E4B     		ldr	r3, .L28
 269              	.LVL20:
 270              		.loc 1 71 17 view .LVU59
 271 0006 1868     		ldr	r0, [r3]
 272              	.LVL21:
 273              		.loc 1 71 8 view .LVU60
 274 0008 0028     		cmp	r0, #0
 275 000a 08DB     		blt	.L26
  72:../../micro_ros_stm32cubemx_utils/extra_sources/microros_transports/udp_transport.c ****     {
  73:../../micro_ros_stm32cubemx_utils/extra_sources/microros_transports/udp_transport.c ****         printf("CM7: udp-write-no-socket\r\n");
  74:../../micro_ros_stm32cubemx_utils/extra_sources/microros_transports/udp_transport.c ****         if (err) *err = 1;
  75:../../micro_ros_stm32cubemx_utils/extra_sources/microros_transports/udp_transport.c ****         return 0;
  76:../../micro_ros_stm32cubemx_utils/extra_sources/microros_transports/udp_transport.c ****     }
  77:../../micro_ros_stm32cubemx_utils/extra_sources/microros_transports/udp_transport.c **** 
  78:../../micro_ros_stm32cubemx_utils/extra_sources/microros_transports/udp_transport.c ****     int ret = send(sock_fd, buf, len, 0);
 276              		.loc 1 78 5 is_stmt 1 view .LVU61
 277              		.loc 1 78 15 is_stmt 0 view .LVU62
 278 000c 0023     		movs	r3, #0
 279 000e FFF7FEFF 		bl	lwip_send
 280              	.LVL22:
  79:../../micro_ros_stm32cubemx_utils/extra_sources/microros_transports/udp_transport.c ****     
  80:../../micro_ros_stm32cubemx_utils/extra_sources/microros_transports/udp_transport.c ****     if (ret < 0) {
 281              		.loc 1 80 5 is_stmt 1 view .LVU63
 282              		.loc 1 80 8 is_stmt 0 view .LVU64
 283 0012 0028     		cmp	r0, #0
ARM GAS  C:\Users\minis\AppData\Local\Temp\ccz02D0c.s 			page 8


 284              		.loc 1 80 8 view .LVU65
 285 0014 0BDB     		blt	.L27
  81:../../micro_ros_stm32cubemx_utils/extra_sources/microros_transports/udp_transport.c ****         printf("CM7: udp-sendto-failed\r\n");
  82:../../micro_ros_stm32cubemx_utils/extra_sources/microros_transports/udp_transport.c ****         if (err) *err = 1;
  83:../../micro_ros_stm32cubemx_utils/extra_sources/microros_transports/udp_transport.c ****         return 0;
  84:../../micro_ros_stm32cubemx_utils/extra_sources/microros_transports/udp_transport.c ****     }
  85:../../micro_ros_stm32cubemx_utils/extra_sources/microros_transports/udp_transport.c ****     
  86:../../micro_ros_stm32cubemx_utils/extra_sources/microros_transports/udp_transport.c ****     if (err) *err = 0;
 286              		.loc 1 86 5 is_stmt 1 view .LVU66
 287              		.loc 1 86 8 is_stmt 0 view .LVU67
 288 0016 0CB1     		cbz	r4, .L18
 289              		.loc 1 86 14 is_stmt 1 discriminator 1 view .LVU68
 290              		.loc 1 86 19 is_stmt 0 discriminator 1 view .LVU69
 291 0018 0023     		movs	r3, #0
 292 001a 2370     		strb	r3, [r4]
  87:../../micro_ros_stm32cubemx_utils/extra_sources/microros_transports/udp_transport.c ****     return (size_t)ret;
 293              		.loc 1 87 5 is_stmt 1 view .LVU70
 294              	.LVL23:
 295              	.L18:
  88:../../micro_ros_stm32cubemx_utils/extra_sources/microros_transports/udp_transport.c **** }
 296              		.loc 1 88 1 is_stmt 0 view .LVU71
 297 001c 10BD     		pop	{r4, pc}
 298              	.LVL24:
 299              	.L26:
  73:../../micro_ros_stm32cubemx_utils/extra_sources/microros_transports/udp_transport.c ****         if (err) *err = 1;
 300              		.loc 1 73 9 is_stmt 1 view .LVU72
 301 001e 0948     		ldr	r0, .L28+4
 302 0020 FFF7FEFF 		bl	puts
 303              	.LVL25:
  74:../../micro_ros_stm32cubemx_utils/extra_sources/microros_transports/udp_transport.c ****         return 0;
 304              		.loc 1 74 9 view .LVU73
  74:../../micro_ros_stm32cubemx_utils/extra_sources/microros_transports/udp_transport.c ****         return 0;
 305              		.loc 1 74 12 is_stmt 0 view .LVU74
 306 0024 0CB1     		cbz	r4, .L20
  74:../../micro_ros_stm32cubemx_utils/extra_sources/microros_transports/udp_transport.c ****         return 0;
 307              		.loc 1 74 18 is_stmt 1 discriminator 1 view .LVU75
  74:../../micro_ros_stm32cubemx_utils/extra_sources/microros_transports/udp_transport.c ****         return 0;
 308              		.loc 1 74 23 is_stmt 0 discriminator 1 view .LVU76
 309 0026 0123     		movs	r3, #1
 310 0028 2370     		strb	r3, [r4]
 311              	.L20:
  75:../../micro_ros_stm32cubemx_utils/extra_sources/microros_transports/udp_transport.c ****     }
 312              		.loc 1 75 9 is_stmt 1 view .LVU77
  75:../../micro_ros_stm32cubemx_utils/extra_sources/microros_transports/udp_transport.c ****     }
 313              		.loc 1 75 16 is_stmt 0 view .LVU78
 314 002a 0020     		movs	r0, #0
 315 002c F6E7     		b	.L18
 316              	.LVL26:
 317              	.L27:
  81:../../micro_ros_stm32cubemx_utils/extra_sources/microros_transports/udp_transport.c ****         if (err) *err = 1;
 318              		.loc 1 81 9 is_stmt 1 view .LVU79
 319 002e 0648     		ldr	r0, .L28+8
 320              	.LVL27:
  81:../../micro_ros_stm32cubemx_utils/extra_sources/microros_transports/udp_transport.c ****         if (err) *err = 1;
 321              		.loc 1 81 9 is_stmt 0 view .LVU80
 322 0030 FFF7FEFF 		bl	puts
 323              	.LVL28:
ARM GAS  C:\Users\minis\AppData\Local\Temp\ccz02D0c.s 			page 9


  82:../../micro_ros_stm32cubemx_utils/extra_sources/microros_transports/udp_transport.c ****         return 0;
 324              		.loc 1 82 9 is_stmt 1 view .LVU81
  82:../../micro_ros_stm32cubemx_utils/extra_sources/microros_transports/udp_transport.c ****         return 0;
 325              		.loc 1 82 12 is_stmt 0 view .LVU82
 326 0034 0CB1     		cbz	r4, .L23
  82:../../micro_ros_stm32cubemx_utils/extra_sources/microros_transports/udp_transport.c ****         return 0;
 327              		.loc 1 82 18 is_stmt 1 discriminator 1 view .LVU83
  82:../../micro_ros_stm32cubemx_utils/extra_sources/microros_transports/udp_transport.c ****         return 0;
 328              		.loc 1 82 23 is_stmt 0 discriminator 1 view .LVU84
 329 0036 0123     		movs	r3, #1
 330 0038 2370     		strb	r3, [r4]
 331              	.L23:
  83:../../micro_ros_stm32cubemx_utils/extra_sources/microros_transports/udp_transport.c ****     }
 332              		.loc 1 83 9 is_stmt 1 view .LVU85
  83:../../micro_ros_stm32cubemx_utils/extra_sources/microros_transports/udp_transport.c ****     }
 333              		.loc 1 83 16 is_stmt 0 view .LVU86
 334 003a 0020     		movs	r0, #0
 335 003c EEE7     		b	.L18
 336              	.L29:
 337 003e 00BF     		.align	2
 338              	.L28:
 339 0040 00000000 		.word	sock_fd
 340 0044 00000000 		.word	.LC4
 341 0048 1C000000 		.word	.LC5
 342              		.cfi_endproc
 343              	.LFE176:
 345              		.section	.rodata.cubemx_transport_read.str1.4,"aMS",%progbits,1
 346              		.align	2
 347              	.LC6:
 348 0000 434D373A 		.ascii	"CM7: udp-read-no-socket\015\000"
 348      20756470 
 348      2D726561 
 348      642D6E6F 
 348      2D736F63 
 349 0019 000000   		.align	2
 350              	.LC7:
 351 001c 434D373A 		.ascii	"CM7: udp-setsockopt-failed\015\000"
 351      20756470 
 351      2D736574 
 351      736F636B 
 351      6F70742D 
 352              		.align	2
 353              	.LC8:
 354 0038 434D373A 		.ascii	"CM7: udp-recv-timeout-or-failed\015\000"
 354      20756470 
 354      2D726563 
 354      762D7469 
 354      6D656F75 
 355              		.section	.text.cubemx_transport_read,"ax",%progbits
 356              		.align	1
 357              		.global	cubemx_transport_read
 358              		.syntax unified
 359              		.thumb
 360              		.thumb_func
 362              	cubemx_transport_read:
 363              	.LVL29:
 364              	.LFB177:
ARM GAS  C:\Users\minis\AppData\Local\Temp\ccz02D0c.s 			page 10


  89:../../micro_ros_stm32cubemx_utils/extra_sources/microros_transports/udp_transport.c **** 
  90:../../micro_ros_stm32cubemx_utils/extra_sources/microros_transports/udp_transport.c **** size_t cubemx_transport_read(struct uxrCustomTransport* transport, uint8_t* buf, size_t len, int ti
 365              		.loc 1 90 120 is_stmt 1 view -0
 366              		.cfi_startproc
 367              		@ args = 4, pretend = 0, frame = 16
 368              		@ frame_needed = 0, uses_anonymous_args = 0
 369              		.loc 1 90 120 is_stmt 0 view .LVU88
 370 0000 F0B5     		push	{r4, r5, r6, r7, lr}
 371              	.LCFI6:
 372              		.cfi_def_cfa_offset 20
 373              		.cfi_offset 4, -20
 374              		.cfi_offset 5, -16
 375              		.cfi_offset 6, -12
 376              		.cfi_offset 7, -8
 377              		.cfi_offset 14, -4
 378 0002 87B0     		sub	sp, sp, #28
 379              	.LCFI7:
 380              		.cfi_def_cfa_offset 48
 381 0004 1746     		mov	r7, r2
 382 0006 0C9E     		ldr	r6, [sp, #48]
  91:../../micro_ros_stm32cubemx_utils/extra_sources/microros_transports/udp_transport.c ****     (void)transport;
 383              		.loc 1 91 5 is_stmt 1 view .LVU89
  92:../../micro_ros_stm32cubemx_utils/extra_sources/microros_transports/udp_transport.c ****     if (sock_fd < 0) {
 384              		.loc 1 92 5 view .LVU90
 385              		.loc 1 92 17 is_stmt 0 view .LVU91
 386 0008 224A     		ldr	r2, .L43
 387              	.LVL30:
 388              		.loc 1 92 17 view .LVU92
 389 000a 1068     		ldr	r0, [r2]
 390              	.LVL31:
 391              		.loc 1 92 8 view .LVU93
 392 000c 0028     		cmp	r0, #0
 393 000e 29DB     		blt	.L40
 394 0010 0D46     		mov	r5, r1
  93:../../micro_ros_stm32cubemx_utils/extra_sources/microros_transports/udp_transport.c ****         printf("CM7: udp-read-no-socket\r\n");
  94:../../micro_ros_stm32cubemx_utils/extra_sources/microros_transports/udp_transport.c ****         if (err) *err = 1;
  95:../../micro_ros_stm32cubemx_utils/extra_sources/microros_transports/udp_transport.c ****         return 0;
  96:../../micro_ros_stm32cubemx_utils/extra_sources/microros_transports/udp_transport.c ****     }
  97:../../micro_ros_stm32cubemx_utils/extra_sources/microros_transports/udp_transport.c **** 
  98:../../micro_ros_stm32cubemx_utils/extra_sources/microros_transports/udp_transport.c ****     // Set timeout
  99:../../micro_ros_stm32cubemx_utils/extra_sources/microros_transports/udp_transport.c ****     struct timeval tv_out;
 395              		.loc 1 99 5 is_stmt 1 view .LVU94
 100:../../micro_ros_stm32cubemx_utils/extra_sources/microros_transports/udp_transport.c ****     tv_out.tv_sec = timeout / 1000;
 396              		.loc 1 100 5 view .LVU95
 397              		.loc 1 100 29 is_stmt 0 view .LVU96
 398 0012 214A     		ldr	r2, .L43+4
 399 0014 82FB0312 		smull	r1, r2, r2, r3
 400              	.LVL32:
 401              		.loc 1 100 29 view .LVU97
 402 0018 DC17     		asrs	r4, r3, #31
 403 001a C4EBA214 		rsb	r4, r4, r2, asr #6
 404 001e E217     		asrs	r2, r4, #31
 405              		.loc 1 100 19 view .LVU98
 406 0020 0294     		str	r4, [sp, #8]
 407 0022 0392     		str	r2, [sp, #12]
 101:../../micro_ros_stm32cubemx_utils/extra_sources/microros_transports/udp_transport.c ****     tv_out.tv_usec = (timeout % 1000) * 1000;
 408              		.loc 1 101 5 is_stmt 1 view .LVU99
ARM GAS  C:\Users\minis\AppData\Local\Temp\ccz02D0c.s 			page 11


 409              		.loc 1 101 31 is_stmt 0 view .LVU100
 410 0024 4FF47A72 		mov	r2, #1000
 411 0028 02FB1433 		mls	r3, r2, r4, r3
 412              	.LVL33:
 413              		.loc 1 101 39 view .LVU101
 414 002c 02FB03F3 		mul	r3, r2, r3
 415              		.loc 1 101 20 view .LVU102
 416 0030 0493     		str	r3, [sp, #16]
 102:../../micro_ros_stm32cubemx_utils/extra_sources/microros_transports/udp_transport.c ****     
 103:../../micro_ros_stm32cubemx_utils/extra_sources/microros_transports/udp_transport.c ****     if (setsockopt(sock_fd, SOL_SOCKET, SO_RCVTIMEO, &tv_out, sizeof(tv_out)) < 0) {
 417              		.loc 1 103 5 is_stmt 1 view .LVU103
 418              		.loc 1 103 9 is_stmt 0 view .LVU104
 419 0032 1023     		movs	r3, #16
 420 0034 0093     		str	r3, [sp]
 421 0036 02AB     		add	r3, sp, #8
 422 0038 41F20602 		movw	r2, #4102
 423 003c 40F6FF71 		movw	r1, #4095
 424 0040 FFF7FEFF 		bl	lwip_setsockopt
 425              	.LVL34:
 426              		.loc 1 103 8 discriminator 1 view .LVU105
 427 0044 0028     		cmp	r0, #0
 428 0046 15DB     		blt	.L41
 104:../../micro_ros_stm32cubemx_utils/extra_sources/microros_transports/udp_transport.c ****         printf("CM7: udp-setsockopt-failed\r\n");
 105:../../micro_ros_stm32cubemx_utils/extra_sources/microros_transports/udp_transport.c ****         if (err) *err = 1;
 106:../../micro_ros_stm32cubemx_utils/extra_sources/microros_transports/udp_transport.c ****         return 0;
 107:../../micro_ros_stm32cubemx_utils/extra_sources/microros_transports/udp_transport.c ****     }
 108:../../micro_ros_stm32cubemx_utils/extra_sources/microros_transports/udp_transport.c ****     
 109:../../micro_ros_stm32cubemx_utils/extra_sources/microros_transports/udp_transport.c ****     int ret = recv(sock_fd, buf, len, 0);
 429              		.loc 1 109 5 is_stmt 1 view .LVU106
 430              		.loc 1 109 15 is_stmt 0 view .LVU107
 431 0048 0023     		movs	r3, #0
 432 004a 3A46     		mov	r2, r7
 433 004c 2946     		mov	r1, r5
 434 004e 1148     		ldr	r0, .L43
 435 0050 0068     		ldr	r0, [r0]
 436 0052 FFF7FEFF 		bl	lwip_recv
 437              	.LVL35:
 110:../../micro_ros_stm32cubemx_utils/extra_sources/microros_transports/udp_transport.c ****     
 111:../../micro_ros_stm32cubemx_utils/extra_sources/microros_transports/udp_transport.c ****     if (ret < 0) {
 438              		.loc 1 111 5 is_stmt 1 view .LVU108
 439              		.loc 1 111 8 is_stmt 0 view .LVU109
 440 0056 0028     		cmp	r0, #0
 441              		.loc 1 111 8 view .LVU110
 442 0058 14DB     		blt	.L42
 112:../../micro_ros_stm32cubemx_utils/extra_sources/microros_transports/udp_transport.c ****         printf("CM7: udp-recv-timeout-or-failed\r\n");
 113:../../micro_ros_stm32cubemx_utils/extra_sources/microros_transports/udp_transport.c ****         if (err) *err = 1;
 114:../../micro_ros_stm32cubemx_utils/extra_sources/microros_transports/udp_transport.c ****         return 0;
 115:../../micro_ros_stm32cubemx_utils/extra_sources/microros_transports/udp_transport.c ****     }
 116:../../micro_ros_stm32cubemx_utils/extra_sources/microros_transports/udp_transport.c ****     
 117:../../micro_ros_stm32cubemx_utils/extra_sources/microros_transports/udp_transport.c ****     if (err) *err = 0;
 443              		.loc 1 117 5 is_stmt 1 view .LVU111
 444              		.loc 1 117 8 is_stmt 0 view .LVU112
 445 005a 0EB1     		cbz	r6, .L30
 446              		.loc 1 117 14 is_stmt 1 discriminator 1 view .LVU113
 447              		.loc 1 117 19 is_stmt 0 discriminator 1 view .LVU114
 448 005c 0023     		movs	r3, #0
 449 005e 3370     		strb	r3, [r6]
ARM GAS  C:\Users\minis\AppData\Local\Temp\ccz02D0c.s 			page 12


 118:../../micro_ros_stm32cubemx_utils/extra_sources/microros_transports/udp_transport.c ****     return (size_t)ret;
 450              		.loc 1 118 5 is_stmt 1 view .LVU115
 451              	.LVL36:
 452              	.L30:
 119:../../micro_ros_stm32cubemx_utils/extra_sources/microros_transports/udp_transport.c **** }
 453              		.loc 1 119 1 is_stmt 0 view .LVU116
 454 0060 07B0     		add	sp, sp, #28
 455              	.LCFI8:
 456              		.cfi_remember_state
 457              		.cfi_def_cfa_offset 20
 458              		@ sp needed
 459 0062 F0BD     		pop	{r4, r5, r6, r7, pc}
 460              	.LVL37:
 461              	.L40:
 462              	.LCFI9:
 463              		.cfi_restore_state
  93:../../micro_ros_stm32cubemx_utils/extra_sources/microros_transports/udp_transport.c ****         if (err) *err = 1;
 464              		.loc 1 93 9 is_stmt 1 view .LVU117
 465 0064 0D48     		ldr	r0, .L43+8
 466 0066 FFF7FEFF 		bl	puts
 467              	.LVL38:
  94:../../micro_ros_stm32cubemx_utils/extra_sources/microros_transports/udp_transport.c ****         return 0;
 468              		.loc 1 94 9 view .LVU118
  94:../../micro_ros_stm32cubemx_utils/extra_sources/microros_transports/udp_transport.c ****         return 0;
 469              		.loc 1 94 12 is_stmt 0 view .LVU119
 470 006a 0EB1     		cbz	r6, .L32
  94:../../micro_ros_stm32cubemx_utils/extra_sources/microros_transports/udp_transport.c ****         return 0;
 471              		.loc 1 94 18 is_stmt 1 discriminator 1 view .LVU120
  94:../../micro_ros_stm32cubemx_utils/extra_sources/microros_transports/udp_transport.c ****         return 0;
 472              		.loc 1 94 23 is_stmt 0 discriminator 1 view .LVU121
 473 006c 0123     		movs	r3, #1
 474 006e 3370     		strb	r3, [r6]
 475              	.L32:
  95:../../micro_ros_stm32cubemx_utils/extra_sources/microros_transports/udp_transport.c ****     }
 476              		.loc 1 95 9 is_stmt 1 view .LVU122
  95:../../micro_ros_stm32cubemx_utils/extra_sources/microros_transports/udp_transport.c ****     }
 477              		.loc 1 95 16 is_stmt 0 view .LVU123
 478 0070 0020     		movs	r0, #0
 479 0072 F5E7     		b	.L30
 480              	.LVL39:
 481              	.L41:
 104:../../micro_ros_stm32cubemx_utils/extra_sources/microros_transports/udp_transport.c ****         if (err) *err = 1;
 482              		.loc 1 104 9 is_stmt 1 view .LVU124
 483 0074 0A48     		ldr	r0, .L43+12
 484 0076 FFF7FEFF 		bl	puts
 485              	.LVL40:
 105:../../micro_ros_stm32cubemx_utils/extra_sources/microros_transports/udp_transport.c ****         return 0;
 486              		.loc 1 105 9 view .LVU125
 105:../../micro_ros_stm32cubemx_utils/extra_sources/microros_transports/udp_transport.c ****         return 0;
 487              		.loc 1 105 12 is_stmt 0 view .LVU126
 488 007a 0EB1     		cbz	r6, .L35
 105:../../micro_ros_stm32cubemx_utils/extra_sources/microros_transports/udp_transport.c ****         return 0;
 489              		.loc 1 105 18 is_stmt 1 discriminator 1 view .LVU127
 105:../../micro_ros_stm32cubemx_utils/extra_sources/microros_transports/udp_transport.c ****         return 0;
 490              		.loc 1 105 23 is_stmt 0 discriminator 1 view .LVU128
 491 007c 0123     		movs	r3, #1
 492 007e 3370     		strb	r3, [r6]
ARM GAS  C:\Users\minis\AppData\Local\Temp\ccz02D0c.s 			page 13


 493              	.L35:
 106:../../micro_ros_stm32cubemx_utils/extra_sources/microros_transports/udp_transport.c ****     }
 494              		.loc 1 106 9 is_stmt 1 view .LVU129
 106:../../micro_ros_stm32cubemx_utils/extra_sources/microros_transports/udp_transport.c ****     }
 495              		.loc 1 106 16 is_stmt 0 view .LVU130
 496 0080 0020     		movs	r0, #0
 497 0082 EDE7     		b	.L30
 498              	.LVL41:
 499              	.L42:
 112:../../micro_ros_stm32cubemx_utils/extra_sources/microros_transports/udp_transport.c ****         if (err) *err = 1;
 500              		.loc 1 112 9 is_stmt 1 view .LVU131
 501 0084 0748     		ldr	r0, .L43+16
 502              	.LVL42:
 112:../../micro_ros_stm32cubemx_utils/extra_sources/microros_transports/udp_transport.c ****         if (err) *err = 1;
 503              		.loc 1 112 9 is_stmt 0 view .LVU132
 504 0086 FFF7FEFF 		bl	puts
 505              	.LVL43:
 113:../../micro_ros_stm32cubemx_utils/extra_sources/microros_transports/udp_transport.c ****         return 0;
 506              		.loc 1 113 9 is_stmt 1 view .LVU133
 113:../../micro_ros_stm32cubemx_utils/extra_sources/microros_transports/udp_transport.c ****         return 0;
 507              		.loc 1 113 12 is_stmt 0 view .LVU134
 508 008a 0EB1     		cbz	r6, .L37
 113:../../micro_ros_stm32cubemx_utils/extra_sources/microros_transports/udp_transport.c ****         return 0;
 509              		.loc 1 113 18 is_stmt 1 discriminator 1 view .LVU135
 113:../../micro_ros_stm32cubemx_utils/extra_sources/microros_transports/udp_transport.c ****         return 0;
 510              		.loc 1 113 23 is_stmt 0 discriminator 1 view .LVU136
 511 008c 0123     		movs	r3, #1
 512 008e 3370     		strb	r3, [r6]
 513              	.L37:
 114:../../micro_ros_stm32cubemx_utils/extra_sources/microros_transports/udp_transport.c ****     }
 514              		.loc 1 114 9 is_stmt 1 view .LVU137
 114:../../micro_ros_stm32cubemx_utils/extra_sources/microros_transports/udp_transport.c ****     }
 515              		.loc 1 114 16 is_stmt 0 view .LVU138
 516 0090 0020     		movs	r0, #0
 517 0092 E5E7     		b	.L30
 518              	.L44:
 519              		.align	2
 520              	.L43:
 521 0094 00000000 		.word	sock_fd
 522 0098 D34D6210 		.word	274877907
 523 009c 00000000 		.word	.LC6
 524 00a0 1C000000 		.word	.LC7
 525 00a4 38000000 		.word	.LC8
 526              		.cfi_endproc
 527              	.LFE177:
 529              		.section	.data.sock_fd,"aw"
 530              		.align	2
 533              	sock_fd:
 534 0000 FFFFFFFF 		.word	-1
 535              		.text
 536              	.Letext0:
 537              		.file 2 "C:/Program Files (x86)/Arm GNU Toolchain arm-none-eabi/14.3 rel1/arm-none-eabi/include/ma
 538              		.file 3 "C:/Program Files (x86)/Arm GNU Toolchain arm-none-eabi/14.3 rel1/arm-none-eabi/include/sy
 539              		.file 4 "C:/Program Files (x86)/Arm GNU Toolchain arm-none-eabi/14.3 rel1/lib/gcc/arm-none-eabi/14
 540              		.file 5 "../../micro_ros_stm32cubemx_utils/microros_static_library/libmicroros/microros_include/ux
 541              		.file 6 "../../micro_ros_stm32cubemx_utils/microros_static_library/libmicroros/microros_include/ux
 542              		.file 7 "../../micro_ros_stm32cubemx_utils/microros_static_library/libmicroros/microros_include/ux
ARM GAS  C:\Users\minis\AppData\Local\Temp\ccz02D0c.s 			page 14


 543              		.file 8 "C:/Program Files (x86)/Arm GNU Toolchain arm-none-eabi/14.3 rel1/arm-none-eabi/include/sy
 544              		.file 9 "C:/Program Files (x86)/Arm GNU Toolchain arm-none-eabi/14.3 rel1/arm-none-eabi/include/st
 545              		.file 10 "C:/Program Files (x86)/Arm GNU Toolchain arm-none-eabi/14.3 rel1/arm-none-eabi/include/s
 546              		.file 11 "C:/Program Files (x86)/Arm GNU Toolchain arm-none-eabi/14.3 rel1/arm-none-eabi/include/s
 547              		.file 12 "../../Middlewares/Third_Party/LwIP/src/include/lwip/arch.h"
 548              		.file 13 "../../Middlewares/Third_Party/LwIP/src/include/lwip/inet.h"
 549              		.file 14 "../../Middlewares/Third_Party/LwIP/src/include/lwip/sockets.h"
 550              		.file 15 "../../Middlewares/Third_Party/LwIP/src/include/lwip/ip4_addr.h"
 551              		.file 16 "../../Middlewares/Third_Party/LwIP/src/include/lwip/def.h"
 552              		.file 17 "C:/Program Files (x86)/Arm GNU Toolchain arm-none-eabi/14.3 rel1/arm-none-eabi/include/s
 553              		.file 18 "../../Middlewares/Third_Party/LwIP/src/include/lwip/memp.h"
 554              		.file 19 "<built-in>"
ARM GAS  C:\Users\minis\AppData\Local\Temp\ccz02D0c.s 			page 15

