ARM GAS  C:\Users\minis\AppData\Local\Temp\ccyLswLP.s 			page 1


   1              		.cpu cortex-m4
   2              		.arch armv7e-m
   3              		.fpu softvfp
   4              		.eabi_attribute 20, 1
   5              		.eabi_attribute 21, 1
   6              		.eabi_attribute 23, 3
   7              		.eabi_attribute 24, 1
   8              		.eabi_attribute 25, 1
   9              		.eabi_attribute 26, 1
  10              		.eabi_attribute 30, 1
  11              		.eabi_attribute 34, 1
  12              		.eabi_attribute 18, 4
  13              		.file	"main.c"
  14              		.text
  15              	.Ltext0:
  16              		.cfi_sections	.debug_frame
  17              		.file 1 "../../CM4/Core/Src/main.c"
  18              		.section	.text.MX_GPIO_Init,"ax",%progbits
  19              		.align	1
  20              		.syntax unified
  21              		.thumb
  22              		.thumb_func
  24              	MX_GPIO_Init:
  25              	.LFB139:
   1:../../CM4/Core/Src/main.c **** /**
   2:../../CM4/Core/Src/main.c ****  ******************************************************************************
   3:../../CM4/Core/Src/main.c ****  * @file           : main_debug.c
   4:../../CM4/Core/Src/main.c ****  * @brief          : JSN-SR04T ultrasonic sensor demo
   5:../../CM4/Core/Src/main.c ****  *
   6:../../CM4/Core/Src/main.c ****  * Sequence:
   7:../../CM4/Core/Src/main.c ****  *   PHASE 1 (5s): TRIG toggles 500ms on/500ms off  → probe PD1 with multimeter
   8:../../CM4/Core/Src/main.c ****  *   PHASE 2 (5s): raw ECHO read → GREEN=HIGH, RED=LOW
   9:../../CM4/Core/Src/main.c ****  *   PHASE 3 (5s): full trigger+echo attempt → GREEN=echo received, RED=timeout
  10:../../CM4/Core/Src/main.c ****  *   PHASE 4:      loop showing distance via blinks (if phase 3 worked)
  11:../../CM4/Core/Src/main.c ****  ******************************************************************************
  12:../../CM4/Core/Src/main.c ****  */
  13:../../CM4/Core/Src/main.c **** 
  14:../../CM4/Core/Src/main.c **** #include "main.h"
  15:../../CM4/Core/Src/main.c **** #include "shared_data.h"
  16:../../CM4/Core/Src/main.c **** #include <stdio.h> // Indispensabile per la funzione printf
  17:../../CM4/Core/Src/main.c **** 
  18:../../CM4/Core/Src/main.c **** TIM_HandleTypeDef htim2;
  19:../../CM4/Core/Src/main.c **** /* Assicurati che la variabile UART globale generata da CubeMX sia visibile */
  20:../../CM4/Core/Src/main.c **** /* Sostituisci huart1 con l'handle della UART che hai scelto (es. huart3) */
  21:../../CM4/Core/Src/main.c **** UART_HandleTypeDef huart4;
  22:../../CM4/Core/Src/main.c **** 
  23:../../CM4/Core/Src/main.c **** #define TIMER_TARGET_HZ 1000000U
  24:../../CM4/Core/Src/main.c **** #define TRIG_RESET_TIME_US 2U
  25:../../CM4/Core/Src/main.c **** #define TRIG_PULSE_TIME_US 10U
  26:../../CM4/Core/Src/main.c **** #define ECHO_WAIT_TIMEOUT_US 30000U
  27:../../CM4/Core/Src/main.c **** #define ECHO_PULSE_TIMEOUT_US 26000U
  28:../../CM4/Core/Src/main.c **** 
  29:../../CM4/Core/Src/main.c **** #define BUSY(n)                                                                \
  30:../../CM4/Core/Src/main.c ****   do {                                                                         \
  31:../../CM4/Core/Src/main.c ****     for (volatile int _i = 0; _i < (n); _i++)                                  \
  32:../../CM4/Core/Src/main.c ****       ;                                                                        \
  33:../../CM4/Core/Src/main.c ****   } while (0)
ARM GAS  C:\Users\minis\AppData\Local\Temp\ccyLswLP.s 			page 2


  34:../../CM4/Core/Src/main.c **** 
  35:../../CM4/Core/Src/main.c **** #define LED_GREEN_ON() (GPIOB->BSRR = (1U << 0))
  36:../../CM4/Core/Src/main.c **** #define LED_GREEN_OFF() (GPIOB->BSRR = (1U << 16))
  37:../../CM4/Core/Src/main.c **** #define LED_RED_ON() (GPIOB->BSRR = (1U << 14))
  38:../../CM4/Core/Src/main.c **** #define LED_RED_OFF() (GPIOB->BSRR = (1U << 30))
  39:../../CM4/Core/Src/main.c **** #define LED_ALL_OFF()                                                          \
  40:../../CM4/Core/Src/main.c ****   do {                                                                         \
  41:../../CM4/Core/Src/main.c ****     LED_GREEN_OFF();                                                           \
  42:../../CM4/Core/Src/main.c ****     LED_RED_OFF();                                                             \
  43:../../CM4/Core/Src/main.c ****   } while (0)
  44:../../CM4/Core/Src/main.c **** 
  45:../../CM4/Core/Src/main.c **** static void SystemClock_Config(void);
  46:../../CM4/Core/Src/main.c **** static void MX_GPIO_Init(void);
  47:../../CM4/Core/Src/main.c **** static void MX_TIM2_Init(void);
  48:../../CM4/Core/Src/main.c **** static void MX_UART4_Init(void);
  49:../../CM4/Core/Src/main.c **** 
  50:../../CM4/Core/Src/main.c **** int main(void) {
  51:../../CM4/Core/Src/main.c ****   /* ------------------------------------------------------------------ */
  52:../../CM4/Core/Src/main.c ****   /* Pre-HAL GPIO: enable GPIOB for LEDs                                */
  53:../../CM4/Core/Src/main.c ****   /* ------------------------------------------------------------------ */
  54:../../CM4/Core/Src/main.c ****   RCC->AHB4ENR |= (1U << 1);
  55:../../CM4/Core/Src/main.c ****   BUSY(10000);
  56:../../CM4/Core/Src/main.c ****   GPIOB->MODER &= ~(3U << 0);
  57:../../CM4/Core/Src/main.c ****   GPIOB->MODER |= (1U << 0); /* PB0  out */
  58:../../CM4/Core/Src/main.c ****   GPIOB->MODER &= ~(3U << 28);
  59:../../CM4/Core/Src/main.c ****   GPIOB->MODER |= (1U << 28); /* PB14 out */
  60:../../CM4/Core/Src/main.c **** 
  61:../../CM4/Core/Src/main.c ****   /* Quick alive blink */
  62:../../CM4/Core/Src/main.c ****   for (int j = 0; j < 2; j++) {
  63:../../CM4/Core/Src/main.c ****     LED_GREEN_ON();
  64:../../CM4/Core/Src/main.c ****     LED_RED_ON();
  65:../../CM4/Core/Src/main.c ****     BUSY(3000000);
  66:../../CM4/Core/Src/main.c ****     LED_ALL_OFF();
  67:../../CM4/Core/Src/main.c ****     BUSY(3000000);
  68:../../CM4/Core/Src/main.c ****   }
  69:../../CM4/Core/Src/main.c **** 
  70:../../CM4/Core/Src/main.c ****   HAL_Init();
  71:../../CM4/Core/Src/main.c ****   SystemClock_Config();
  72:../../CM4/Core/Src/main.c ****   SCB->VTOR = 0x08100000;
  73:../../CM4/Core/Src/main.c ****   MX_GPIO_Init();
  74:../../CM4/Core/Src/main.c ****   MX_TIM2_Init();
  75:../../CM4/Core/Src/main.c ****   MX_UART4_Init();
  76:../../CM4/Core/Src/main.c ****   /* Abilitazione del clock per gli Hardware Semaphores */
  77:../../CM4/Core/Src/main.c ****   __HAL_RCC_HSEM_CLK_ENABLE();
  78:../../CM4/Core/Src/main.c **** 
  79:../../CM4/Core/Src/main.c ****   /* Compute prescaler */
  80:../../CM4/Core/Src/main.c ****   uint32_t pclk1 = HAL_RCC_GetPCLK1Freq();
  81:../../CM4/Core/Src/main.c ****   uint32_t apb1pre =
  82:../../CM4/Core/Src/main.c ****       (RCC->D2CFGR & RCC_D2CFGR_D2PPRE1_Msk) >> RCC_D2CFGR_D2PPRE1_Pos;
  83:../../CM4/Core/Src/main.c ****   uint32_t tim2clk = (apb1pre >= 0x04U) ? (pclk1 * 2U) : pclk1;
  84:../../CM4/Core/Src/main.c ****   uint32_t psc = (tim2clk / TIMER_TARGET_HZ);
  85:../../CM4/Core/Src/main.c ****   if (psc > 0U) {
  86:../../CM4/Core/Src/main.c ****     psc -= 1U;
  87:../../CM4/Core/Src/main.c ****   }
  88:../../CM4/Core/Src/main.c ****   __HAL_TIM_SET_PRESCALER(&htim2, psc);
  89:../../CM4/Core/Src/main.c ****   __HAL_TIM_SET_COUNTER(&htim2, 0);
  90:../../CM4/Core/Src/main.c ****   HAL_TIM_GenerateEvent(&htim2, TIM_EVENTSOURCE_UPDATE);
ARM GAS  C:\Users\minis\AppData\Local\Temp\ccyLswLP.s 			page 3


  91:../../CM4/Core/Src/main.c ****   HAL_TIM_Base_Start(&htim2);
  92:../../CM4/Core/Src/main.c **** 
  93:../../CM4/Core/Src/main.c ****   /* Clocks OK — 2 green blinks */
  94:../../CM4/Core/Src/main.c ****   for (int j = 0; j < 2; j++) {
  95:../../CM4/Core/Src/main.c ****     LED_GREEN_ON();
  96:../../CM4/Core/Src/main.c ****     HAL_Delay(200U);
  97:../../CM4/Core/Src/main.c ****     LED_GREEN_OFF();
  98:../../CM4/Core/Src/main.c ****     HAL_Delay(200U);
  99:../../CM4/Core/Src/main.c ****   }
 100:../../CM4/Core/Src/main.c ****   HAL_Delay(500U);
 101:../../CM4/Core/Src/main.c **** 
 102:../../CM4/Core/Src/main.c ****   /* ================================================================== */
 103:../../CM4/Core/Src/main.c ****   /* PHASE 1: TRIG toggle — probe PD1 with multimeter                   */
 104:../../CM4/Core/Src/main.c ****   /* Expected: ~3.3V / 0V alternating every 500ms                       */
 105:../../CM4/Core/Src/main.c ****   /* Failure:  stuck at 0V → GPIOD clock or MX_GPIO_Init broken         */
 106:../../CM4/Core/Src/main.c ****   /* ================================================================== */
 107:../../CM4/Core/Src/main.c **** 
 108:../../CM4/Core/Src/main.c ****   /* 1× slow red = entering phase 1 */
 109:../../CM4/Core/Src/main.c ****   LED_RED_ON();
 110:../../CM4/Core/Src/main.c ****   HAL_Delay(1000U);
 111:../../CM4/Core/Src/main.c ****   LED_RED_OFF();
 112:../../CM4/Core/Src/main.c ****   HAL_Delay(500U);
 113:../../CM4/Core/Src/main.c **** 
 114:../../CM4/Core/Src/main.c ****   uint32_t phase1_start = HAL_GetTick();
 115:../../CM4/Core/Src/main.c ****   while (HAL_GetTick() - phase1_start < 5000U) {
 116:../../CM4/Core/Src/main.c ****     HAL_GPIO_WritePin(GPIOD, GPIO_PIN_1, GPIO_PIN_SET);
 117:../../CM4/Core/Src/main.c ****     LED_GREEN_ON();
 118:../../CM4/Core/Src/main.c ****     HAL_Delay(500U);
 119:../../CM4/Core/Src/main.c ****     HAL_GPIO_WritePin(GPIOD, GPIO_PIN_1, GPIO_PIN_RESET);
 120:../../CM4/Core/Src/main.c ****     LED_GREEN_OFF();
 121:../../CM4/Core/Src/main.c ****     HAL_Delay(500U);
 122:../../CM4/Core/Src/main.c ****   }
 123:../../CM4/Core/Src/main.c ****   HAL_Delay(1000U);
 124:../../CM4/Core/Src/main.c **** 
 125:../../CM4/Core/Src/main.c ****   /* ================================================================== */
 126:../../CM4/Core/Src/main.c ****   /* PHASE 2: Raw ECHO read — no trigger sent                           */
 127:../../CM4/Core/Src/main.c ****   /* GREEN = PD0 reads HIGH                                             */
 128:../../CM4/Core/Src/main.c ****   /* RED   = PD0 reads LOW  (expected with PULLDOWN and no signal)      */
 129:../../CM4/Core/Src/main.c ****   /* ================================================================== */
 130:../../CM4/Core/Src/main.c **** 
 131:../../CM4/Core/Src/main.c ****   /* 2× slow red = entering phase 2 */
 132:../../CM4/Core/Src/main.c ****   for (int j = 0; j < 2; j++) {
 133:../../CM4/Core/Src/main.c ****     LED_RED_ON();
 134:../../CM4/Core/Src/main.c ****     HAL_Delay(500U);
 135:../../CM4/Core/Src/main.c ****     LED_RED_OFF();
 136:../../CM4/Core/Src/main.c ****     HAL_Delay(500U);
 137:../../CM4/Core/Src/main.c ****   }
 138:../../CM4/Core/Src/main.c ****   HAL_Delay(500U);
 139:../../CM4/Core/Src/main.c **** 
 140:../../CM4/Core/Src/main.c ****   uint32_t phase2_start = HAL_GetTick();
 141:../../CM4/Core/Src/main.c ****   while (HAL_GetTick() - phase2_start < 5000U) {
 142:../../CM4/Core/Src/main.c ****     if (HAL_GPIO_ReadPin(GPIOD, GPIO_PIN_0) == GPIO_PIN_SET) {
 143:../../CM4/Core/Src/main.c ****       LED_GREEN_ON();
 144:../../CM4/Core/Src/main.c ****       LED_RED_OFF();
 145:../../CM4/Core/Src/main.c ****     } else {
 146:../../CM4/Core/Src/main.c ****       LED_GREEN_OFF();
 147:../../CM4/Core/Src/main.c ****       LED_RED_ON();
ARM GAS  C:\Users\minis\AppData\Local\Temp\ccyLswLP.s 			page 4


 148:../../CM4/Core/Src/main.c ****     }
 149:../../CM4/Core/Src/main.c ****     HAL_Delay(50U);
 150:../../CM4/Core/Src/main.c ****   }
 151:../../CM4/Core/Src/main.c ****   LED_ALL_OFF();
 152:../../CM4/Core/Src/main.c ****   HAL_Delay(5000U);
 153:../../CM4/Core/Src/main.c **** 
 154:../../CM4/Core/Src/main.c ****   /* ================================================================== */
 155:../../CM4/Core/Src/main.c ****   /* PHASE 3: Full trigger → echo attempt, 10 tries                    */
 156:../../CM4/Core/Src/main.c ****   /* GREEN blink = echo received                                        */
 157:../../CM4/Core/Src/main.c ****   /* RED blink   = timeout                                              */
 158:../../CM4/Core/Src/main.c ****   /* ================================================================== */
 159:../../CM4/Core/Src/main.c **** 
 160:../../CM4/Core/Src/main.c ****   /* 3× slow red = entering phase 3 */
 161:../../CM4/Core/Src/main.c ****   for (int j = 0; j < 3; j++) {
 162:../../CM4/Core/Src/main.c ****     LED_RED_ON();
 163:../../CM4/Core/Src/main.c ****     HAL_Delay(500U);
 164:../../CM4/Core/Src/main.c ****     LED_RED_OFF();
 165:../../CM4/Core/Src/main.c ****     HAL_Delay(500U);
 166:../../CM4/Core/Src/main.c ****   }
 167:../../CM4/Core/Src/main.c ****   HAL_Delay(500U);
 168:../../CM4/Core/Src/main.c **** 
 169:../../CM4/Core/Src/main.c ****   uint8_t any_echo = 0U;
 170:../../CM4/Core/Src/main.c ****   uint32_t echo_time = 0U;
 171:../../CM4/Core/Src/main.c **** 
 172:../../CM4/Core/Src/main.c ****   for (int attempt = 0; attempt < 10; attempt++) {
 173:../../CM4/Core/Src/main.c ****     /* Trigger */
 174:../../CM4/Core/Src/main.c ****     HAL_GPIO_WritePin(GPIOD, GPIO_PIN_1, GPIO_PIN_RESET);
 175:../../CM4/Core/Src/main.c ****     __HAL_TIM_SET_COUNTER(&htim2, 0);
 176:../../CM4/Core/Src/main.c ****     while (__HAL_TIM_GET_COUNTER(&htim2) < TRIG_RESET_TIME_US)
 177:../../CM4/Core/Src/main.c ****       ;
 178:../../CM4/Core/Src/main.c **** 
 179:../../CM4/Core/Src/main.c ****     HAL_GPIO_WritePin(GPIOD, GPIO_PIN_1, GPIO_PIN_SET);
 180:../../CM4/Core/Src/main.c ****     __HAL_TIM_SET_COUNTER(&htim2, 0);
 181:../../CM4/Core/Src/main.c ****     while (__HAL_TIM_GET_COUNTER(&htim2) < TRIG_PULSE_TIME_US)
 182:../../CM4/Core/Src/main.c ****       ;
 183:../../CM4/Core/Src/main.c ****     HAL_GPIO_WritePin(GPIOD, GPIO_PIN_1, GPIO_PIN_RESET);
 184:../../CM4/Core/Src/main.c **** 
 185:../../CM4/Core/Src/main.c ****     /* Wait for echo HIGH */
 186:../../CM4/Core/Src/main.c ****     uint8_t got_echo = 0U;
 187:../../CM4/Core/Src/main.c ****     uint32_t wait_start = __HAL_TIM_GET_COUNTER(&htim2);
 188:../../CM4/Core/Src/main.c ****     while (HAL_GPIO_ReadPin(GPIOD, GPIO_PIN_0) == GPIO_PIN_RESET) {
 189:../../CM4/Core/Src/main.c ****       if ((uint32_t)(__HAL_TIM_GET_COUNTER(&htim2) - wait_start) >
 190:../../CM4/Core/Src/main.c ****           ECHO_WAIT_TIMEOUT_US) {
 191:../../CM4/Core/Src/main.c ****         break;
 192:../../CM4/Core/Src/main.c ****       }
 193:../../CM4/Core/Src/main.c ****     }
 194:../../CM4/Core/Src/main.c **** 
 195:../../CM4/Core/Src/main.c ****     if (HAL_GPIO_ReadPin(GPIOD, GPIO_PIN_0) == GPIO_PIN_SET) {
 196:../../CM4/Core/Src/main.c ****       uint32_t echo_start = __HAL_TIM_GET_COUNTER(&htim2);
 197:../../CM4/Core/Src/main.c ****       while (HAL_GPIO_ReadPin(GPIOD, GPIO_PIN_0) == GPIO_PIN_SET) {
 198:../../CM4/Core/Src/main.c ****         if ((uint32_t)(__HAL_TIM_GET_COUNTER(&htim2) - echo_start) >
 199:../../CM4/Core/Src/main.c ****             ECHO_PULSE_TIMEOUT_US) {
 200:../../CM4/Core/Src/main.c ****           break;
 201:../../CM4/Core/Src/main.c ****         }
 202:../../CM4/Core/Src/main.c ****       }
 203:../../CM4/Core/Src/main.c ****       echo_time = (uint32_t)(__HAL_TIM_GET_COUNTER(&htim2) - echo_start);
 204:../../CM4/Core/Src/main.c ****       got_echo = 1U;
ARM GAS  C:\Users\minis\AppData\Local\Temp\ccyLswLP.s 			page 5


 205:../../CM4/Core/Src/main.c ****       any_echo = 1U;
 206:../../CM4/Core/Src/main.c ****     }
 207:../../CM4/Core/Src/main.c **** 
 208:../../CM4/Core/Src/main.c ****     if (got_echo) {
 209:../../CM4/Core/Src/main.c ****       /* GREEN blink = echo received this attempt */
 210:../../CM4/Core/Src/main.c ****       LED_GREEN_ON();
 211:../../CM4/Core/Src/main.c ****       HAL_Delay(300U);
 212:../../CM4/Core/Src/main.c ****       LED_GREEN_OFF();
 213:../../CM4/Core/Src/main.c ****     } else {
 214:../../CM4/Core/Src/main.c ****       /* RED blink = no echo this attempt */
 215:../../CM4/Core/Src/main.c ****       LED_RED_ON();
 216:../../CM4/Core/Src/main.c ****       HAL_Delay(300U);
 217:../../CM4/Core/Src/main.c ****       LED_RED_OFF();
 218:../../CM4/Core/Src/main.c ****     }
 219:../../CM4/Core/Src/main.c ****     HAL_Delay(200U);
 220:../../CM4/Core/Src/main.c ****   }
 221:../../CM4/Core/Src/main.c ****   HAL_Delay(1000U);
 222:../../CM4/Core/Src/main.c **** 
 223:../../CM4/Core/Src/main.c ****   /* ================================================================== */
 224:../../CM4/Core/Src/main.c ****   /* PHASE 4: Result                                                     */
 225:../../CM4/Core/Src/main.c ****   /* If any echo was received: distance blinks on green                 */
 226:../../CM4/Core/Src/main.c ****   /* If no echo at all:        solid red forever → debug wiring         */
 227:../../CM4/Core/Src/main.c ****   /* ================================================================== */
 228:../../CM4/Core/Src/main.c ****   if (!any_echo) {
 229:../../CM4/Core/Src/main.c ****     /* Solid red = complete failure, check wiring */
 230:../../CM4/Core/Src/main.c ****     LED_RED_ON();
 231:../../CM4/Core/Src/main.c ****     while (1)
 232:../../CM4/Core/Src/main.c ****       ;
 233:../../CM4/Core/Src/main.c ****   }
 234:../../CM4/Core/Src/main.c **** 
 235:../../CM4/Core/Src/main.c ****   /* Distance in cm via green blinks (up to 9, then pause) */
 236:../../CM4/Core/Src/main.c ****   uint32_t dist_cm = echo_time / 58U;
 237:../../CM4/Core/Src/main.c **** 
 238:../../CM4/Core/Src/main.c ****   /* ── Scrivi prima misura nella shared memory ── */
 239:../../CM4/Core/Src/main.c ****   SHARED_DATA->distance_cm = dist_cm;
 240:../../CM4/Core/Src/main.c ****   SHARED_DATA->data_ready = 1U;
 241:../../CM4/Core/Src/main.c ****   __DSB(); /* Forza la scrittura a raggiungere SRAM4 */
 242:../../CM4/Core/Src/main.c ****   HAL_HSEM_FastTake(HSEM_ID_SENSOR);
 243:../../CM4/Core/Src/main.c ****   HAL_HSEM_Release(HSEM_ID_SENSOR, 0);
 244:../../CM4/Core/Src/main.c **** 
 245:../../CM4/Core/Src/main.c ****   while (1) {
 246:../../CM4/Core/Src/main.c ****     uint32_t blinks = dist_cm;
 247:../../CM4/Core/Src/main.c ****     if (blinks == 0U) {
 248:../../CM4/Core/Src/main.c ****       blinks = 1U;
 249:../../CM4/Core/Src/main.c ****     }
 250:../../CM4/Core/Src/main.c ****     if (blinks > 20U) {
 251:../../CM4/Core/Src/main.c ****       blinks = 20U;
 252:../../CM4/Core/Src/main.c ****     }
 253:../../CM4/Core/Src/main.c **** 
 254:../../CM4/Core/Src/main.c ****     for (uint32_t b = 0; b < blinks; b++) {
 255:../../CM4/Core/Src/main.c ****       LED_GREEN_ON();
 256:../../CM4/Core/Src/main.c ****       HAL_Delay(150U);
 257:../../CM4/Core/Src/main.c ****       LED_GREEN_OFF();
 258:../../CM4/Core/Src/main.c ****       HAL_Delay(150U);
 259:../../CM4/Core/Src/main.c ****       printf("LED ACCESO %lu\n", dist_cm);
 260:../../CM4/Core/Src/main.c ****     }
 261:../../CM4/Core/Src/main.c ****     HAL_Delay(1500U); /* pause between readings */
ARM GAS  C:\Users\minis\AppData\Local\Temp\ccyLswLP.s 			page 6


 262:../../CM4/Core/Src/main.c **** 
 263:../../CM4/Core/Src/main.c ****     /* Retrigger for fresh distance */
 264:../../CM4/Core/Src/main.c ****     HAL_GPIO_WritePin(GPIOD, GPIO_PIN_1, GPIO_PIN_RESET);
 265:../../CM4/Core/Src/main.c ****     __HAL_TIM_SET_COUNTER(&htim2, 0);
 266:../../CM4/Core/Src/main.c ****     while (__HAL_TIM_GET_COUNTER(&htim2) < TRIG_RESET_TIME_US)
 267:../../CM4/Core/Src/main.c ****       ;
 268:../../CM4/Core/Src/main.c ****     HAL_GPIO_WritePin(GPIOD, GPIO_PIN_1, GPIO_PIN_SET);
 269:../../CM4/Core/Src/main.c ****     __HAL_TIM_SET_COUNTER(&htim2, 0);
 270:../../CM4/Core/Src/main.c ****     while (__HAL_TIM_GET_COUNTER(&htim2) < TRIG_PULSE_TIME_US)
 271:../../CM4/Core/Src/main.c ****       ;
 272:../../CM4/Core/Src/main.c ****     HAL_GPIO_WritePin(GPIOD, GPIO_PIN_1, GPIO_PIN_RESET);
 273:../../CM4/Core/Src/main.c **** 
 274:../../CM4/Core/Src/main.c ****     uint32_t ws = __HAL_TIM_GET_COUNTER(&htim2);
 275:../../CM4/Core/Src/main.c ****     while (HAL_GPIO_ReadPin(GPIOD, GPIO_PIN_0) == GPIO_PIN_RESET) {
 276:../../CM4/Core/Src/main.c ****       if ((uint32_t)(__HAL_TIM_GET_COUNTER(&htim2) - ws) >
 277:../../CM4/Core/Src/main.c ****           ECHO_WAIT_TIMEOUT_US) {
 278:../../CM4/Core/Src/main.c ****         break;
 279:../../CM4/Core/Src/main.c ****       }
 280:../../CM4/Core/Src/main.c ****     }
 281:../../CM4/Core/Src/main.c ****     if (HAL_GPIO_ReadPin(GPIOD, GPIO_PIN_0) == GPIO_PIN_SET) {
 282:../../CM4/Core/Src/main.c ****       uint32_t es = __HAL_TIM_GET_COUNTER(&htim2);
 283:../../CM4/Core/Src/main.c ****       while (HAL_GPIO_ReadPin(GPIOD, GPIO_PIN_0) == GPIO_PIN_SET) {
 284:../../CM4/Core/Src/main.c ****         if ((uint32_t)(__HAL_TIM_GET_COUNTER(&htim2) - es) >
 285:../../CM4/Core/Src/main.c ****             ECHO_PULSE_TIMEOUT_US) {
 286:../../CM4/Core/Src/main.c ****           break;
 287:../../CM4/Core/Src/main.c ****         }
 288:../../CM4/Core/Src/main.c ****       }
 289:../../CM4/Core/Src/main.c ****       echo_time = (uint32_t)(__HAL_TIM_GET_COUNTER(&htim2) - es);
 290:../../CM4/Core/Src/main.c ****       dist_cm = echo_time / 58U;
 291:../../CM4/Core/Src/main.c ****     }
 292:../../CM4/Core/Src/main.c **** 
 293:../../CM4/Core/Src/main.c ****     /* ── Aggiorna shared memory SEMPRE (anche se dist_cm invariato) ── */
 294:../../CM4/Core/Src/main.c ****     SHARED_DATA->distance_cm = dist_cm;
 295:../../CM4/Core/Src/main.c ****     SHARED_DATA->data_ready = 1U;
 296:../../CM4/Core/Src/main.c ****     __DSB(); /* Forza la scrittura a raggiungere SRAM4 */
 297:../../CM4/Core/Src/main.c ****   }
 298:../../CM4/Core/Src/main.c **** }
 299:../../CM4/Core/Src/main.c **** static void MX_UART4_Init(void) {
 300:../../CM4/Core/Src/main.c **** 
 301:../../CM4/Core/Src/main.c ****   /* USER CODE BEGIN UART4_Init 0 */
 302:../../CM4/Core/Src/main.c **** 
 303:../../CM4/Core/Src/main.c ****   /* USER CODE END UART4_Init 0 */
 304:../../CM4/Core/Src/main.c **** 
 305:../../CM4/Core/Src/main.c ****   /* USER CODE BEGIN UART4_Init 1 */
 306:../../CM4/Core/Src/main.c **** 
 307:../../CM4/Core/Src/main.c ****   /* USER CODE END UART4_Init 1 */
 308:../../CM4/Core/Src/main.c ****   huart4.Instance = UART4;
 309:../../CM4/Core/Src/main.c ****   huart4.Init.BaudRate = 115200;
 310:../../CM4/Core/Src/main.c ****   huart4.Init.WordLength = UART_WORDLENGTH_8B;
 311:../../CM4/Core/Src/main.c ****   huart4.Init.StopBits = UART_STOPBITS_1;
 312:../../CM4/Core/Src/main.c ****   huart4.Init.Parity = UART_PARITY_NONE;
 313:../../CM4/Core/Src/main.c ****   huart4.Init.Mode = UART_MODE_TX_RX;
 314:../../CM4/Core/Src/main.c ****   huart4.Init.HwFlowCtl = UART_HWCONTROL_NONE;
 315:../../CM4/Core/Src/main.c ****   huart4.Init.OverSampling = UART_OVERSAMPLING_16;
 316:../../CM4/Core/Src/main.c ****   huart4.Init.OneBitSampling = UART_ONE_BIT_SAMPLE_DISABLE;
 317:../../CM4/Core/Src/main.c ****   huart4.Init.ClockPrescaler = UART_PRESCALER_DIV1;
 318:../../CM4/Core/Src/main.c ****   huart4.AdvancedInit.AdvFeatureInit = UART_ADVFEATURE_NO_INIT;
ARM GAS  C:\Users\minis\AppData\Local\Temp\ccyLswLP.s 			page 7


 319:../../CM4/Core/Src/main.c ****   if (HAL_UART_Init(&huart4) != HAL_OK) {
 320:../../CM4/Core/Src/main.c ****     Error_Handler();
 321:../../CM4/Core/Src/main.c ****   }
 322:../../CM4/Core/Src/main.c ****   if (HAL_UARTEx_SetTxFifoThreshold(&huart4, UART_TXFIFO_THRESHOLD_1_8) !=
 323:../../CM4/Core/Src/main.c ****       HAL_OK) {
 324:../../CM4/Core/Src/main.c ****     Error_Handler();
 325:../../CM4/Core/Src/main.c ****   }
 326:../../CM4/Core/Src/main.c ****   if (HAL_UARTEx_SetRxFifoThreshold(&huart4, UART_RXFIFO_THRESHOLD_1_8) !=
 327:../../CM4/Core/Src/main.c ****       HAL_OK) {
 328:../../CM4/Core/Src/main.c ****     Error_Handler();
 329:../../CM4/Core/Src/main.c ****   }
 330:../../CM4/Core/Src/main.c ****   if (HAL_UARTEx_DisableFifoMode(&huart4) != HAL_OK) {
 331:../../CM4/Core/Src/main.c ****     Error_Handler();
 332:../../CM4/Core/Src/main.c ****   }
 333:../../CM4/Core/Src/main.c ****   /* USER CODE BEGIN UART4_Init 2 */
 334:../../CM4/Core/Src/main.c **** 
 335:../../CM4/Core/Src/main.c ****   /* USER CODE END UART4_Init 2 */
 336:../../CM4/Core/Src/main.c **** }
 337:../../CM4/Core/Src/main.c **** 
 338:../../CM4/Core/Src/main.c **** /* ========================================================================
 339:../../CM4/Core/Src/main.c ****  * Peripherals
 340:../../CM4/Core/Src/main.c ****  * ======================================================================== */
 341:../../CM4/Core/Src/main.c **** static void SystemClock_Config(void) {
 342:../../CM4/Core/Src/main.c ****   RCC_OscInitTypeDef RCC_OscInitStruct = {0};
 343:../../CM4/Core/Src/main.c ****   RCC_ClkInitTypeDef RCC_ClkInitStruct = {0};
 344:../../CM4/Core/Src/main.c **** 
 345:../../CM4/Core/Src/main.c ****   HAL_PWREx_ConfigSupply(PWR_DIRECT_SMPS_SUPPLY);
 346:../../CM4/Core/Src/main.c ****   __HAL_PWR_VOLTAGESCALING_CONFIG(PWR_REGULATOR_VOLTAGE_SCALE2);
 347:../../CM4/Core/Src/main.c ****   while (!__HAL_PWR_GET_FLAG(PWR_FLAG_VOSRDY))
 348:../../CM4/Core/Src/main.c ****     ;
 349:../../CM4/Core/Src/main.c **** 
 350:../../CM4/Core/Src/main.c ****   RCC_OscInitStruct.OscillatorType = RCC_OSCILLATORTYPE_HSI;
 351:../../CM4/Core/Src/main.c ****   RCC_OscInitStruct.HSIState = RCC_HSI_DIV1;
 352:../../CM4/Core/Src/main.c ****   RCC_OscInitStruct.HSICalibrationValue = RCC_HSICALIBRATION_DEFAULT;
 353:../../CM4/Core/Src/main.c ****   RCC_OscInitStruct.PLL.PLLState = RCC_PLL_ON;
 354:../../CM4/Core/Src/main.c ****   RCC_OscInitStruct.PLL.PLLSource = RCC_PLLSOURCE_HSI;
 355:../../CM4/Core/Src/main.c ****   RCC_OscInitStruct.PLL.PLLM = 4;
 356:../../CM4/Core/Src/main.c ****   RCC_OscInitStruct.PLL.PLLN = 28;
 357:../../CM4/Core/Src/main.c ****   RCC_OscInitStruct.PLL.PLLP = 2;
 358:../../CM4/Core/Src/main.c ****   RCC_OscInitStruct.PLL.PLLQ = 5;
 359:../../CM4/Core/Src/main.c ****   RCC_OscInitStruct.PLL.PLLR = 2;
 360:../../CM4/Core/Src/main.c ****   RCC_OscInitStruct.PLL.PLLRGE = RCC_PLL1VCIRANGE_3;
 361:../../CM4/Core/Src/main.c ****   RCC_OscInitStruct.PLL.PLLVCOSEL = RCC_PLL1VCOWIDE;
 362:../../CM4/Core/Src/main.c ****   RCC_OscInitStruct.PLL.PLLFRACN = 1024;
 363:../../CM4/Core/Src/main.c ****   if (HAL_RCC_OscConfig(&RCC_OscInitStruct) != HAL_OK) {
 364:../../CM4/Core/Src/main.c ****     Error_Handler();
 365:../../CM4/Core/Src/main.c ****   }
 366:../../CM4/Core/Src/main.c **** 
 367:../../CM4/Core/Src/main.c ****   RCC_ClkInitStruct.ClockType = RCC_CLOCKTYPE_HCLK | RCC_CLOCKTYPE_SYSCLK |
 368:../../CM4/Core/Src/main.c ****                                 RCC_CLOCKTYPE_PCLK1 | RCC_CLOCKTYPE_PCLK2 |
 369:../../CM4/Core/Src/main.c ****                                 RCC_CLOCKTYPE_D3PCLK1 | RCC_CLOCKTYPE_D1PCLK1;
 370:../../CM4/Core/Src/main.c ****   RCC_ClkInitStruct.SYSCLKSource = RCC_SYSCLKSOURCE_PLLCLK;
 371:../../CM4/Core/Src/main.c ****   RCC_ClkInitStruct.SYSCLKDivider = RCC_SYSCLK_DIV1;
 372:../../CM4/Core/Src/main.c ****   RCC_ClkInitStruct.AHBCLKDivider = RCC_HCLK_DIV1;
 373:../../CM4/Core/Src/main.c ****   RCC_ClkInitStruct.APB3CLKDivider = RCC_APB3_DIV2;
 374:../../CM4/Core/Src/main.c ****   RCC_ClkInitStruct.APB1CLKDivider = RCC_APB1_DIV4;  /* DEVE essere uguale al CM7! */
 375:../../CM4/Core/Src/main.c ****   RCC_ClkInitStruct.APB2CLKDivider = RCC_APB2_DIV2;
ARM GAS  C:\Users\minis\AppData\Local\Temp\ccyLswLP.s 			page 8


 376:../../CM4/Core/Src/main.c ****   RCC_ClkInitStruct.APB4CLKDivider = RCC_APB4_DIV2;
 377:../../CM4/Core/Src/main.c ****   if (HAL_RCC_ClockConfig(&RCC_ClkInitStruct, FLASH_LATENCY_4) != HAL_OK) {
 378:../../CM4/Core/Src/main.c ****     Error_Handler();
 379:../../CM4/Core/Src/main.c ****   }
 380:../../CM4/Core/Src/main.c **** }
 381:../../CM4/Core/Src/main.c **** 
 382:../../CM4/Core/Src/main.c **** static void MX_TIM2_Init(void) {
 383:../../CM4/Core/Src/main.c ****   __HAL_RCC_TIM2_CLK_ENABLE();
 384:../../CM4/Core/Src/main.c **** 
 385:../../CM4/Core/Src/main.c ****   TIM_ClockConfigTypeDef sClockSourceConfig = {0};
 386:../../CM4/Core/Src/main.c ****   TIM_MasterConfigTypeDef sMasterConfig = {0};
 387:../../CM4/Core/Src/main.c **** 
 388:../../CM4/Core/Src/main.c ****   htim2.Instance = TIM2;
 389:../../CM4/Core/Src/main.c ****   htim2.Init.Prescaler = 0;
 390:../../CM4/Core/Src/main.c ****   htim2.Init.CounterMode = TIM_COUNTERMODE_UP;
 391:../../CM4/Core/Src/main.c ****   htim2.Init.Period = 0xFFFFFFFFU;
 392:../../CM4/Core/Src/main.c ****   htim2.Init.ClockDivision = TIM_CLOCKDIVISION_DIV1;
 393:../../CM4/Core/Src/main.c ****   htim2.Init.AutoReloadPreload = TIM_AUTORELOAD_PRELOAD_DISABLE;
 394:../../CM4/Core/Src/main.c ****   if (HAL_TIM_Base_Init(&htim2) != HAL_OK) {
 395:../../CM4/Core/Src/main.c ****     Error_Handler();
 396:../../CM4/Core/Src/main.c ****   }
 397:../../CM4/Core/Src/main.c **** 
 398:../../CM4/Core/Src/main.c ****   sClockSourceConfig.ClockSource = TIM_CLOCKSOURCE_INTERNAL;
 399:../../CM4/Core/Src/main.c ****   if (HAL_TIM_ConfigClockSource(&htim2, &sClockSourceConfig) != HAL_OK) {
 400:../../CM4/Core/Src/main.c ****     Error_Handler();
 401:../../CM4/Core/Src/main.c ****   }
 402:../../CM4/Core/Src/main.c **** 
 403:../../CM4/Core/Src/main.c ****   sMasterConfig.MasterOutputTrigger = TIM_TRGO_RESET;
 404:../../CM4/Core/Src/main.c ****   sMasterConfig.MasterSlaveMode = TIM_MASTERSLAVEMODE_DISABLE;
 405:../../CM4/Core/Src/main.c ****   if (HAL_TIMEx_MasterConfigSynchronization(&htim2, &sMasterConfig) != HAL_OK) {
 406:../../CM4/Core/Src/main.c ****     Error_Handler();
 407:../../CM4/Core/Src/main.c ****   }
 408:../../CM4/Core/Src/main.c **** }
 409:../../CM4/Core/Src/main.c **** 
 410:../../CM4/Core/Src/main.c **** static void MX_GPIO_Init(void) {
  26              		.loc 1 410 32 view -0
  27              		.cfi_startproc
  28              		@ args = 0, pretend = 0, frame = 32
  29              		@ frame_needed = 0, uses_anonymous_args = 0
  30 0000 2DE9F043 		push	{r4, r5, r6, r7, r8, r9, lr}
  31              	.LCFI0:
  32              		.cfi_def_cfa_offset 28
  33              		.cfi_offset 4, -28
  34              		.cfi_offset 5, -24
  35              		.cfi_offset 6, -20
  36              		.cfi_offset 7, -16
  37              		.cfi_offset 8, -12
  38              		.cfi_offset 9, -8
  39              		.cfi_offset 14, -4
  40 0004 89B0     		sub	sp, sp, #36
  41              	.LCFI1:
  42              		.cfi_def_cfa_offset 64
 411:../../CM4/Core/Src/main.c ****   GPIO_InitTypeDef GPIO_InitStruct = {0};
  43              		.loc 1 411 3 view .LVU1
  44              		.loc 1 411 20 is_stmt 0 view .LVU2
  45 0006 03AD     		add	r5, sp, #12
  46 0008 0024     		movs	r4, #0
ARM GAS  C:\Users\minis\AppData\Local\Temp\ccyLswLP.s 			page 9


  47 000a 0394     		str	r4, [sp, #12]
  48 000c 0494     		str	r4, [sp, #16]
  49 000e 0594     		str	r4, [sp, #20]
  50 0010 0694     		str	r4, [sp, #24]
  51 0012 0794     		str	r4, [sp, #28]
 412:../../CM4/Core/Src/main.c **** 
 413:../../CM4/Core/Src/main.c ****   __HAL_RCC_GPIOD_CLK_ENABLE();
  52              		.loc 1 413 3 is_stmt 1 view .LVU3
  53              	.LBB24:
  54              		.loc 1 413 3 view .LVU4
  55              		.loc 1 413 3 view .LVU5
  56 0014 274B     		ldr	r3, .L3
  57 0016 D3F8E020 		ldr	r2, [r3, #224]
  58 001a 42F00802 		orr	r2, r2, #8
  59 001e C3F8E020 		str	r2, [r3, #224]
  60              		.loc 1 413 3 view .LVU6
  61 0022 D3F8E020 		ldr	r2, [r3, #224]
  62 0026 02F00802 		and	r2, r2, #8
  63 002a 0192     		str	r2, [sp, #4]
  64              		.loc 1 413 3 view .LVU7
  65 002c 019A     		ldr	r2, [sp, #4]
  66              	.LBE24:
  67              		.loc 1 413 3 view .LVU8
 414:../../CM4/Core/Src/main.c ****   __HAL_RCC_GPIOB_CLK_ENABLE();
  68              		.loc 1 414 3 view .LVU9
  69              	.LBB25:
  70              		.loc 1 414 3 view .LVU10
  71              		.loc 1 414 3 view .LVU11
  72 002e D3F8E020 		ldr	r2, [r3, #224]
  73 0032 42F00202 		orr	r2, r2, #2
  74 0036 C3F8E020 		str	r2, [r3, #224]
  75              		.loc 1 414 3 view .LVU12
  76 003a D3F8E030 		ldr	r3, [r3, #224]
  77 003e 03F00203 		and	r3, r3, #2
  78 0042 0293     		str	r3, [sp, #8]
  79              		.loc 1 414 3 view .LVU13
  80 0044 029B     		ldr	r3, [sp, #8]
  81              	.LBE25:
  82              		.loc 1 414 3 view .LVU14
 415:../../CM4/Core/Src/main.c **** 
 416:../../CM4/Core/Src/main.c ****   HAL_GPIO_WritePin(GPIOD, GPIO_PIN_1, GPIO_PIN_RESET);
  83              		.loc 1 416 3 view .LVU15
  84 0046 DFF87080 		ldr	r8, .L3+4
  85 004a 2246     		mov	r2, r4
  86 004c 0221     		movs	r1, #2
  87 004e 4046     		mov	r0, r8
  88 0050 FFF7FEFF 		bl	HAL_GPIO_WritePin
  89              	.LVL0:
 417:../../CM4/Core/Src/main.c ****   HAL_GPIO_WritePin(GPIOB, GPIO_PIN_0 | GPIO_PIN_14, GPIO_PIN_RESET);
  90              		.loc 1 417 3 view .LVU16
  91 0054 194F     		ldr	r7, .L3+8
  92 0056 2246     		mov	r2, r4
  93 0058 44F20101 		movw	r1, #16385
  94 005c 3846     		mov	r0, r7
  95 005e FFF7FEFF 		bl	HAL_GPIO_WritePin
  96              	.LVL1:
 418:../../CM4/Core/Src/main.c **** 
ARM GAS  C:\Users\minis\AppData\Local\Temp\ccyLswLP.s 			page 10


 419:../../CM4/Core/Src/main.c ****   /* PD0 — ECHO input */
 420:../../CM4/Core/Src/main.c ****   GPIO_InitStruct.Pin = GPIO_PIN_0;
  97              		.loc 1 420 3 view .LVU17
  98              		.loc 1 420 23 is_stmt 0 view .LVU18
  99 0062 0126     		movs	r6, #1
 100 0064 0396     		str	r6, [sp, #12]
 421:../../CM4/Core/Src/main.c ****   GPIO_InitStruct.Mode = GPIO_MODE_INPUT;
 101              		.loc 1 421 3 is_stmt 1 view .LVU19
 102              		.loc 1 421 24 is_stmt 0 view .LVU20
 103 0066 0494     		str	r4, [sp, #16]
 422:../../CM4/Core/Src/main.c ****   GPIO_InitStruct.Pull = GPIO_PULLDOWN;
 104              		.loc 1 422 3 is_stmt 1 view .LVU21
 105              		.loc 1 422 24 is_stmt 0 view .LVU22
 106 0068 4FF00209 		mov	r9, #2
 107 006c CDF81490 		str	r9, [sp, #20]
 423:../../CM4/Core/Src/main.c ****   HAL_GPIO_Init(GPIOD, &GPIO_InitStruct);
 108              		.loc 1 423 3 is_stmt 1 view .LVU23
 109 0070 2946     		mov	r1, r5
 110 0072 4046     		mov	r0, r8
 111 0074 FFF7FEFF 		bl	HAL_GPIO_Init
 112              	.LVL2:
 424:../../CM4/Core/Src/main.c **** 
 425:../../CM4/Core/Src/main.c ****   /* PD1 — TRIG output */
 426:../../CM4/Core/Src/main.c ****   GPIO_InitStruct.Pin = GPIO_PIN_1;
 113              		.loc 1 426 3 view .LVU24
 114              		.loc 1 426 23 is_stmt 0 view .LVU25
 115 0078 CDF80C90 		str	r9, [sp, #12]
 427:../../CM4/Core/Src/main.c ****   GPIO_InitStruct.Mode = GPIO_MODE_OUTPUT_PP;
 116              		.loc 1 427 3 is_stmt 1 view .LVU26
 117              		.loc 1 427 24 is_stmt 0 view .LVU27
 118 007c 0496     		str	r6, [sp, #16]
 428:../../CM4/Core/Src/main.c ****   GPIO_InitStruct.Pull = GPIO_NOPULL;
 119              		.loc 1 428 3 is_stmt 1 view .LVU28
 120              		.loc 1 428 24 is_stmt 0 view .LVU29
 121 007e 0594     		str	r4, [sp, #20]
 429:../../CM4/Core/Src/main.c ****   GPIO_InitStruct.Speed = GPIO_SPEED_FREQ_LOW;
 122              		.loc 1 429 3 is_stmt 1 view .LVU30
 123              		.loc 1 429 25 is_stmt 0 view .LVU31
 124 0080 0694     		str	r4, [sp, #24]
 430:../../CM4/Core/Src/main.c ****   HAL_GPIO_Init(GPIOD, &GPIO_InitStruct);
 125              		.loc 1 430 3 is_stmt 1 view .LVU32
 126 0082 2946     		mov	r1, r5
 127 0084 4046     		mov	r0, r8
 128 0086 FFF7FEFF 		bl	HAL_GPIO_Init
 129              	.LVL3:
 431:../../CM4/Core/Src/main.c **** 
 432:../../CM4/Core/Src/main.c ****   /* PB0 — green LED */
 433:../../CM4/Core/Src/main.c ****   GPIO_InitStruct.Pin = GPIO_PIN_0;
 130              		.loc 1 433 3 view .LVU33
 131              		.loc 1 433 23 is_stmt 0 view .LVU34
 132 008a 0396     		str	r6, [sp, #12]
 434:../../CM4/Core/Src/main.c ****   GPIO_InitStruct.Mode = GPIO_MODE_OUTPUT_PP;
 133              		.loc 1 434 3 is_stmt 1 view .LVU35
 134              		.loc 1 434 24 is_stmt 0 view .LVU36
 135 008c 0496     		str	r6, [sp, #16]
 435:../../CM4/Core/Src/main.c ****   GPIO_InitStruct.Pull = GPIO_NOPULL;
 136              		.loc 1 435 3 is_stmt 1 view .LVU37
ARM GAS  C:\Users\minis\AppData\Local\Temp\ccyLswLP.s 			page 11


 137              		.loc 1 435 24 is_stmt 0 view .LVU38
 138 008e 0594     		str	r4, [sp, #20]
 436:../../CM4/Core/Src/main.c ****   GPIO_InitStruct.Speed = GPIO_SPEED_FREQ_LOW;
 139              		.loc 1 436 3 is_stmt 1 view .LVU39
 140              		.loc 1 436 25 is_stmt 0 view .LVU40
 141 0090 0694     		str	r4, [sp, #24]
 437:../../CM4/Core/Src/main.c ****   HAL_GPIO_Init(GPIOB, &GPIO_InitStruct);
 142              		.loc 1 437 3 is_stmt 1 view .LVU41
 143 0092 2946     		mov	r1, r5
 144 0094 3846     		mov	r0, r7
 145 0096 FFF7FEFF 		bl	HAL_GPIO_Init
 146              	.LVL4:
 438:../../CM4/Core/Src/main.c **** 
 439:../../CM4/Core/Src/main.c ****   /* PB14 — red LED */
 440:../../CM4/Core/Src/main.c ****   GPIO_InitStruct.Pin = GPIO_PIN_14;
 147              		.loc 1 440 3 view .LVU42
 148              		.loc 1 440 23 is_stmt 0 view .LVU43
 149 009a 4FF48043 		mov	r3, #16384
 150 009e 0393     		str	r3, [sp, #12]
 441:../../CM4/Core/Src/main.c ****   GPIO_InitStruct.Mode = GPIO_MODE_OUTPUT_PP;
 151              		.loc 1 441 3 is_stmt 1 view .LVU44
 152              		.loc 1 441 24 is_stmt 0 view .LVU45
 153 00a0 0496     		str	r6, [sp, #16]
 442:../../CM4/Core/Src/main.c ****   GPIO_InitStruct.Pull = GPIO_NOPULL;
 154              		.loc 1 442 3 is_stmt 1 view .LVU46
 155              		.loc 1 442 24 is_stmt 0 view .LVU47
 156 00a2 0594     		str	r4, [sp, #20]
 443:../../CM4/Core/Src/main.c ****   GPIO_InitStruct.Speed = GPIO_SPEED_FREQ_LOW;
 157              		.loc 1 443 3 is_stmt 1 view .LVU48
 158              		.loc 1 443 25 is_stmt 0 view .LVU49
 159 00a4 0694     		str	r4, [sp, #24]
 444:../../CM4/Core/Src/main.c ****   HAL_GPIO_Init(GPIOB, &GPIO_InitStruct);
 160              		.loc 1 444 3 is_stmt 1 view .LVU50
 161 00a6 2946     		mov	r1, r5
 162 00a8 3846     		mov	r0, r7
 163 00aa FFF7FEFF 		bl	HAL_GPIO_Init
 164              	.LVL5:
 445:../../CM4/Core/Src/main.c **** }
 165              		.loc 1 445 1 is_stmt 0 view .LVU51
 166 00ae 09B0     		add	sp, sp, #36
 167              	.LCFI2:
 168              		.cfi_def_cfa_offset 28
 169              		@ sp needed
 170 00b0 BDE8F083 		pop	{r4, r5, r6, r7, r8, r9, pc}
 171              	.L4:
 172              		.align	2
 173              	.L3:
 174 00b4 00440258 		.word	1476543488
 175 00b8 000C0258 		.word	1476529152
 176 00bc 00040258 		.word	1476527104
 177              		.cfi_endproc
 178              	.LFE139:
 180              		.section	.text.Error_Handler,"ax",%progbits
 181              		.align	1
 182              		.global	Error_Handler
 183              		.syntax unified
 184              		.thumb
ARM GAS  C:\Users\minis\AppData\Local\Temp\ccyLswLP.s 			page 12


 185              		.thumb_func
 187              	Error_Handler:
 188              	.LFB140:
 446:../../CM4/Core/Src/main.c **** 
 447:../../CM4/Core/Src/main.c **** void Error_Handler(void) {
 189              		.loc 1 447 26 is_stmt 1 view -0
 190              		.cfi_startproc
 191              		@ Volatile: function does not return.
 192              		@ args = 0, pretend = 0, frame = 8
 193              		@ frame_needed = 0, uses_anonymous_args = 0
 194              		@ link register save eliminated.
 195 0000 82B0     		sub	sp, sp, #8
 196              	.LCFI3:
 197              		.cfi_def_cfa_offset 8
 448:../../CM4/Core/Src/main.c ****   __disable_irq();
 198              		.loc 1 448 3 view .LVU53
 199              	.LBB26:
 200              	.LBI26:
 201              		.file 2 "../../Drivers/CMSIS/Include/cmsis_gcc.h"
   1:../../Drivers/CMSIS/Include/cmsis_gcc.h **** /**************************************************************************//**
   2:../../Drivers/CMSIS/Include/cmsis_gcc.h ****  * @file     cmsis_gcc.h
   3:../../Drivers/CMSIS/Include/cmsis_gcc.h ****  * @brief    CMSIS compiler GCC header file
   4:../../Drivers/CMSIS/Include/cmsis_gcc.h ****  * @version  V5.2.0
   5:../../Drivers/CMSIS/Include/cmsis_gcc.h ****  * @date     08. May 2019
   6:../../Drivers/CMSIS/Include/cmsis_gcc.h ****  ******************************************************************************/
   7:../../Drivers/CMSIS/Include/cmsis_gcc.h **** /*
   8:../../Drivers/CMSIS/Include/cmsis_gcc.h ****  * Copyright (c) 2009-2019 Arm Limited. All rights reserved.
   9:../../Drivers/CMSIS/Include/cmsis_gcc.h ****  *
  10:../../Drivers/CMSIS/Include/cmsis_gcc.h ****  * SPDX-License-Identifier: Apache-2.0
  11:../../Drivers/CMSIS/Include/cmsis_gcc.h ****  *
  12:../../Drivers/CMSIS/Include/cmsis_gcc.h ****  * Licensed under the Apache License, Version 2.0 (the License); you may
  13:../../Drivers/CMSIS/Include/cmsis_gcc.h ****  * not use this file except in compliance with the License.
  14:../../Drivers/CMSIS/Include/cmsis_gcc.h ****  * You may obtain a copy of the License at
  15:../../Drivers/CMSIS/Include/cmsis_gcc.h ****  *
  16:../../Drivers/CMSIS/Include/cmsis_gcc.h ****  * www.apache.org/licenses/LICENSE-2.0
  17:../../Drivers/CMSIS/Include/cmsis_gcc.h ****  *
  18:../../Drivers/CMSIS/Include/cmsis_gcc.h ****  * Unless required by applicable law or agreed to in writing, software
  19:../../Drivers/CMSIS/Include/cmsis_gcc.h ****  * distributed under the License is distributed on an AS IS BASIS, WITHOUT
  20:../../Drivers/CMSIS/Include/cmsis_gcc.h ****  * WARRANTIES OR CONDITIONS OF ANY KIND, either express or implied.
  21:../../Drivers/CMSIS/Include/cmsis_gcc.h ****  * See the License for the specific language governing permissions and
  22:../../Drivers/CMSIS/Include/cmsis_gcc.h ****  * limitations under the License.
  23:../../Drivers/CMSIS/Include/cmsis_gcc.h ****  */
  24:../../Drivers/CMSIS/Include/cmsis_gcc.h **** 
  25:../../Drivers/CMSIS/Include/cmsis_gcc.h **** #ifndef __CMSIS_GCC_H
  26:../../Drivers/CMSIS/Include/cmsis_gcc.h **** #define __CMSIS_GCC_H
  27:../../Drivers/CMSIS/Include/cmsis_gcc.h **** 
  28:../../Drivers/CMSIS/Include/cmsis_gcc.h **** /* ignore some GCC warnings */
  29:../../Drivers/CMSIS/Include/cmsis_gcc.h **** #pragma GCC diagnostic push
  30:../../Drivers/CMSIS/Include/cmsis_gcc.h **** #pragma GCC diagnostic ignored "-Wsign-conversion"
  31:../../Drivers/CMSIS/Include/cmsis_gcc.h **** #pragma GCC diagnostic ignored "-Wconversion"
  32:../../Drivers/CMSIS/Include/cmsis_gcc.h **** #pragma GCC diagnostic ignored "-Wunused-parameter"
  33:../../Drivers/CMSIS/Include/cmsis_gcc.h **** 
  34:../../Drivers/CMSIS/Include/cmsis_gcc.h **** /* Fallback for __has_builtin */
  35:../../Drivers/CMSIS/Include/cmsis_gcc.h **** #ifndef __has_builtin
  36:../../Drivers/CMSIS/Include/cmsis_gcc.h ****   #define __has_builtin(x) (0)
  37:../../Drivers/CMSIS/Include/cmsis_gcc.h **** #endif
  38:../../Drivers/CMSIS/Include/cmsis_gcc.h **** 
ARM GAS  C:\Users\minis\AppData\Local\Temp\ccyLswLP.s 			page 13


  39:../../Drivers/CMSIS/Include/cmsis_gcc.h **** /* CMSIS compiler specific defines */
  40:../../Drivers/CMSIS/Include/cmsis_gcc.h **** #ifndef   __ASM
  41:../../Drivers/CMSIS/Include/cmsis_gcc.h ****   #define __ASM                                  __asm
  42:../../Drivers/CMSIS/Include/cmsis_gcc.h **** #endif
  43:../../Drivers/CMSIS/Include/cmsis_gcc.h **** #ifndef   __INLINE
  44:../../Drivers/CMSIS/Include/cmsis_gcc.h ****   #define __INLINE                               inline
  45:../../Drivers/CMSIS/Include/cmsis_gcc.h **** #endif
  46:../../Drivers/CMSIS/Include/cmsis_gcc.h **** #ifndef   __STATIC_INLINE
  47:../../Drivers/CMSIS/Include/cmsis_gcc.h ****   #define __STATIC_INLINE                        static inline
  48:../../Drivers/CMSIS/Include/cmsis_gcc.h **** #endif
  49:../../Drivers/CMSIS/Include/cmsis_gcc.h **** #ifndef   __STATIC_FORCEINLINE                 
  50:../../Drivers/CMSIS/Include/cmsis_gcc.h ****   #define __STATIC_FORCEINLINE                   __attribute__((always_inline)) static inline
  51:../../Drivers/CMSIS/Include/cmsis_gcc.h **** #endif                                           
  52:../../Drivers/CMSIS/Include/cmsis_gcc.h **** #ifndef   __NO_RETURN
  53:../../Drivers/CMSIS/Include/cmsis_gcc.h ****   #define __NO_RETURN                            __attribute__((__noreturn__))
  54:../../Drivers/CMSIS/Include/cmsis_gcc.h **** #endif
  55:../../Drivers/CMSIS/Include/cmsis_gcc.h **** #ifndef   __USED
  56:../../Drivers/CMSIS/Include/cmsis_gcc.h ****   #define __USED                                 __attribute__((used))
  57:../../Drivers/CMSIS/Include/cmsis_gcc.h **** #endif
  58:../../Drivers/CMSIS/Include/cmsis_gcc.h **** #ifndef   __WEAK
  59:../../Drivers/CMSIS/Include/cmsis_gcc.h ****   #define __WEAK                                 __attribute__((weak))
  60:../../Drivers/CMSIS/Include/cmsis_gcc.h **** #endif
  61:../../Drivers/CMSIS/Include/cmsis_gcc.h **** #ifndef   __PACKED
  62:../../Drivers/CMSIS/Include/cmsis_gcc.h ****   #define __PACKED                               __attribute__((packed, aligned(1)))
  63:../../Drivers/CMSIS/Include/cmsis_gcc.h **** #endif
  64:../../Drivers/CMSIS/Include/cmsis_gcc.h **** #ifndef   __PACKED_STRUCT
  65:../../Drivers/CMSIS/Include/cmsis_gcc.h ****   #define __PACKED_STRUCT                        struct __attribute__((packed, aligned(1)))
  66:../../Drivers/CMSIS/Include/cmsis_gcc.h **** #endif
  67:../../Drivers/CMSIS/Include/cmsis_gcc.h **** #ifndef   __PACKED_UNION
  68:../../Drivers/CMSIS/Include/cmsis_gcc.h ****   #define __PACKED_UNION                         union __attribute__((packed, aligned(1)))
  69:../../Drivers/CMSIS/Include/cmsis_gcc.h **** #endif
  70:../../Drivers/CMSIS/Include/cmsis_gcc.h **** #ifndef   __UNALIGNED_UINT32        /* deprecated */
  71:../../Drivers/CMSIS/Include/cmsis_gcc.h ****   #pragma GCC diagnostic push
  72:../../Drivers/CMSIS/Include/cmsis_gcc.h ****   #pragma GCC diagnostic ignored "-Wpacked"
  73:../../Drivers/CMSIS/Include/cmsis_gcc.h ****   #pragma GCC diagnostic ignored "-Wattributes"
  74:../../Drivers/CMSIS/Include/cmsis_gcc.h ****   struct __attribute__((packed)) T_UINT32 { uint32_t v; };
  75:../../Drivers/CMSIS/Include/cmsis_gcc.h ****   #pragma GCC diagnostic pop
  76:../../Drivers/CMSIS/Include/cmsis_gcc.h ****   #define __UNALIGNED_UINT32(x)                  (((struct T_UINT32 *)(x))->v)
  77:../../Drivers/CMSIS/Include/cmsis_gcc.h **** #endif
  78:../../Drivers/CMSIS/Include/cmsis_gcc.h **** #ifndef   __UNALIGNED_UINT16_WRITE
  79:../../Drivers/CMSIS/Include/cmsis_gcc.h ****   #pragma GCC diagnostic push
  80:../../Drivers/CMSIS/Include/cmsis_gcc.h ****   #pragma GCC diagnostic ignored "-Wpacked"
  81:../../Drivers/CMSIS/Include/cmsis_gcc.h ****   #pragma GCC diagnostic ignored "-Wattributes"
  82:../../Drivers/CMSIS/Include/cmsis_gcc.h ****   __PACKED_STRUCT T_UINT16_WRITE { uint16_t v; };
  83:../../Drivers/CMSIS/Include/cmsis_gcc.h ****   #pragma GCC diagnostic pop
  84:../../Drivers/CMSIS/Include/cmsis_gcc.h ****   #define __UNALIGNED_UINT16_WRITE(addr, val)    (void)((((struct T_UINT16_WRITE *)(void *)(addr))-
  85:../../Drivers/CMSIS/Include/cmsis_gcc.h **** #endif
  86:../../Drivers/CMSIS/Include/cmsis_gcc.h **** #ifndef   __UNALIGNED_UINT16_READ
  87:../../Drivers/CMSIS/Include/cmsis_gcc.h ****   #pragma GCC diagnostic push
  88:../../Drivers/CMSIS/Include/cmsis_gcc.h ****   #pragma GCC diagnostic ignored "-Wpacked"
  89:../../Drivers/CMSIS/Include/cmsis_gcc.h ****   #pragma GCC diagnostic ignored "-Wattributes"
  90:../../Drivers/CMSIS/Include/cmsis_gcc.h ****   __PACKED_STRUCT T_UINT16_READ { uint16_t v; };
  91:../../Drivers/CMSIS/Include/cmsis_gcc.h ****   #pragma GCC diagnostic pop
  92:../../Drivers/CMSIS/Include/cmsis_gcc.h ****   #define __UNALIGNED_UINT16_READ(addr)          (((const struct T_UINT16_READ *)(const void *)(add
  93:../../Drivers/CMSIS/Include/cmsis_gcc.h **** #endif
  94:../../Drivers/CMSIS/Include/cmsis_gcc.h **** #ifndef   __UNALIGNED_UINT32_WRITE
  95:../../Drivers/CMSIS/Include/cmsis_gcc.h ****   #pragma GCC diagnostic push
ARM GAS  C:\Users\minis\AppData\Local\Temp\ccyLswLP.s 			page 14


  96:../../Drivers/CMSIS/Include/cmsis_gcc.h ****   #pragma GCC diagnostic ignored "-Wpacked"
  97:../../Drivers/CMSIS/Include/cmsis_gcc.h ****   #pragma GCC diagnostic ignored "-Wattributes"
  98:../../Drivers/CMSIS/Include/cmsis_gcc.h ****   __PACKED_STRUCT T_UINT32_WRITE { uint32_t v; };
  99:../../Drivers/CMSIS/Include/cmsis_gcc.h ****   #pragma GCC diagnostic pop
 100:../../Drivers/CMSIS/Include/cmsis_gcc.h ****   #define __UNALIGNED_UINT32_WRITE(addr, val)    (void)((((struct T_UINT32_WRITE *)(void *)(addr))-
 101:../../Drivers/CMSIS/Include/cmsis_gcc.h **** #endif
 102:../../Drivers/CMSIS/Include/cmsis_gcc.h **** #ifndef   __UNALIGNED_UINT32_READ
 103:../../Drivers/CMSIS/Include/cmsis_gcc.h ****   #pragma GCC diagnostic push
 104:../../Drivers/CMSIS/Include/cmsis_gcc.h ****   #pragma GCC diagnostic ignored "-Wpacked"
 105:../../Drivers/CMSIS/Include/cmsis_gcc.h ****   #pragma GCC diagnostic ignored "-Wattributes"
 106:../../Drivers/CMSIS/Include/cmsis_gcc.h ****   __PACKED_STRUCT T_UINT32_READ { uint32_t v; };
 107:../../Drivers/CMSIS/Include/cmsis_gcc.h ****   #pragma GCC diagnostic pop
 108:../../Drivers/CMSIS/Include/cmsis_gcc.h ****   #define __UNALIGNED_UINT32_READ(addr)          (((const struct T_UINT32_READ *)(const void *)(add
 109:../../Drivers/CMSIS/Include/cmsis_gcc.h **** #endif
 110:../../Drivers/CMSIS/Include/cmsis_gcc.h **** #ifndef   __ALIGNED
 111:../../Drivers/CMSIS/Include/cmsis_gcc.h ****   #define __ALIGNED(x)                           __attribute__((aligned(x)))
 112:../../Drivers/CMSIS/Include/cmsis_gcc.h **** #endif
 113:../../Drivers/CMSIS/Include/cmsis_gcc.h **** #ifndef   __RESTRICT
 114:../../Drivers/CMSIS/Include/cmsis_gcc.h ****   #define __RESTRICT                             __restrict
 115:../../Drivers/CMSIS/Include/cmsis_gcc.h **** #endif
 116:../../Drivers/CMSIS/Include/cmsis_gcc.h **** #ifndef   __COMPILER_BARRIER
 117:../../Drivers/CMSIS/Include/cmsis_gcc.h ****   #define __COMPILER_BARRIER()                   __ASM volatile("":::"memory")
 118:../../Drivers/CMSIS/Include/cmsis_gcc.h **** #endif
 119:../../Drivers/CMSIS/Include/cmsis_gcc.h **** 
 120:../../Drivers/CMSIS/Include/cmsis_gcc.h **** /* #########################  Startup and Lowlevel Init  ######################## */
 121:../../Drivers/CMSIS/Include/cmsis_gcc.h **** 
 122:../../Drivers/CMSIS/Include/cmsis_gcc.h **** #ifndef __PROGRAM_START
 123:../../Drivers/CMSIS/Include/cmsis_gcc.h **** 
 124:../../Drivers/CMSIS/Include/cmsis_gcc.h **** /**
 125:../../Drivers/CMSIS/Include/cmsis_gcc.h ****   \brief   Initializes data and bss sections
 126:../../Drivers/CMSIS/Include/cmsis_gcc.h ****   \details This default implementations initialized all data and additional bss
 127:../../Drivers/CMSIS/Include/cmsis_gcc.h ****            sections relying on .copy.table and .zero.table specified properly
 128:../../Drivers/CMSIS/Include/cmsis_gcc.h ****            in the used linker script.
 129:../../Drivers/CMSIS/Include/cmsis_gcc.h ****   
 130:../../Drivers/CMSIS/Include/cmsis_gcc.h ****  */
 131:../../Drivers/CMSIS/Include/cmsis_gcc.h **** __STATIC_FORCEINLINE __NO_RETURN void __cmsis_start(void)
 132:../../Drivers/CMSIS/Include/cmsis_gcc.h **** {
 133:../../Drivers/CMSIS/Include/cmsis_gcc.h ****   extern void _start(void) __NO_RETURN;
 134:../../Drivers/CMSIS/Include/cmsis_gcc.h ****   
 135:../../Drivers/CMSIS/Include/cmsis_gcc.h ****   typedef struct {
 136:../../Drivers/CMSIS/Include/cmsis_gcc.h ****     uint32_t const* src;
 137:../../Drivers/CMSIS/Include/cmsis_gcc.h ****     uint32_t* dest;
 138:../../Drivers/CMSIS/Include/cmsis_gcc.h ****     uint32_t  wlen;
 139:../../Drivers/CMSIS/Include/cmsis_gcc.h ****   } __copy_table_t;
 140:../../Drivers/CMSIS/Include/cmsis_gcc.h ****   
 141:../../Drivers/CMSIS/Include/cmsis_gcc.h ****   typedef struct {
 142:../../Drivers/CMSIS/Include/cmsis_gcc.h ****     uint32_t* dest;
 143:../../Drivers/CMSIS/Include/cmsis_gcc.h ****     uint32_t  wlen;
 144:../../Drivers/CMSIS/Include/cmsis_gcc.h ****   } __zero_table_t;
 145:../../Drivers/CMSIS/Include/cmsis_gcc.h ****   
 146:../../Drivers/CMSIS/Include/cmsis_gcc.h ****   extern const __copy_table_t __copy_table_start__;
 147:../../Drivers/CMSIS/Include/cmsis_gcc.h ****   extern const __copy_table_t __copy_table_end__;
 148:../../Drivers/CMSIS/Include/cmsis_gcc.h ****   extern const __zero_table_t __zero_table_start__;
 149:../../Drivers/CMSIS/Include/cmsis_gcc.h ****   extern const __zero_table_t __zero_table_end__;
 150:../../Drivers/CMSIS/Include/cmsis_gcc.h **** 
 151:../../Drivers/CMSIS/Include/cmsis_gcc.h ****   for (__copy_table_t const* pTable = &__copy_table_start__; pTable < &__copy_table_end__; ++pTable
 152:../../Drivers/CMSIS/Include/cmsis_gcc.h ****     for(uint32_t i=0u; i<pTable->wlen; ++i) {
ARM GAS  C:\Users\minis\AppData\Local\Temp\ccyLswLP.s 			page 15


 153:../../Drivers/CMSIS/Include/cmsis_gcc.h ****       pTable->dest[i] = pTable->src[i];
 154:../../Drivers/CMSIS/Include/cmsis_gcc.h ****     }
 155:../../Drivers/CMSIS/Include/cmsis_gcc.h ****   }
 156:../../Drivers/CMSIS/Include/cmsis_gcc.h ****  
 157:../../Drivers/CMSIS/Include/cmsis_gcc.h ****   for (__zero_table_t const* pTable = &__zero_table_start__; pTable < &__zero_table_end__; ++pTable
 158:../../Drivers/CMSIS/Include/cmsis_gcc.h ****     for(uint32_t i=0u; i<pTable->wlen; ++i) {
 159:../../Drivers/CMSIS/Include/cmsis_gcc.h ****       pTable->dest[i] = 0u;
 160:../../Drivers/CMSIS/Include/cmsis_gcc.h ****     }
 161:../../Drivers/CMSIS/Include/cmsis_gcc.h ****   }
 162:../../Drivers/CMSIS/Include/cmsis_gcc.h ****  
 163:../../Drivers/CMSIS/Include/cmsis_gcc.h ****   _start();
 164:../../Drivers/CMSIS/Include/cmsis_gcc.h **** }
 165:../../Drivers/CMSIS/Include/cmsis_gcc.h ****   
 166:../../Drivers/CMSIS/Include/cmsis_gcc.h **** #define __PROGRAM_START           __cmsis_start
 167:../../Drivers/CMSIS/Include/cmsis_gcc.h **** #endif
 168:../../Drivers/CMSIS/Include/cmsis_gcc.h **** 
 169:../../Drivers/CMSIS/Include/cmsis_gcc.h **** #ifndef __INITIAL_SP
 170:../../Drivers/CMSIS/Include/cmsis_gcc.h **** #define __INITIAL_SP              __StackTop
 171:../../Drivers/CMSIS/Include/cmsis_gcc.h **** #endif
 172:../../Drivers/CMSIS/Include/cmsis_gcc.h **** 
 173:../../Drivers/CMSIS/Include/cmsis_gcc.h **** #ifndef __STACK_LIMIT
 174:../../Drivers/CMSIS/Include/cmsis_gcc.h **** #define __STACK_LIMIT             __StackLimit
 175:../../Drivers/CMSIS/Include/cmsis_gcc.h **** #endif
 176:../../Drivers/CMSIS/Include/cmsis_gcc.h **** 
 177:../../Drivers/CMSIS/Include/cmsis_gcc.h **** #ifndef __VECTOR_TABLE
 178:../../Drivers/CMSIS/Include/cmsis_gcc.h **** #define __VECTOR_TABLE            __Vectors
 179:../../Drivers/CMSIS/Include/cmsis_gcc.h **** #endif
 180:../../Drivers/CMSIS/Include/cmsis_gcc.h **** 
 181:../../Drivers/CMSIS/Include/cmsis_gcc.h **** #ifndef __VECTOR_TABLE_ATTRIBUTE
 182:../../Drivers/CMSIS/Include/cmsis_gcc.h **** #define __VECTOR_TABLE_ATTRIBUTE  __attribute((used, section(".vectors")))
 183:../../Drivers/CMSIS/Include/cmsis_gcc.h **** #endif
 184:../../Drivers/CMSIS/Include/cmsis_gcc.h **** 
 185:../../Drivers/CMSIS/Include/cmsis_gcc.h **** /* ###########################  Core Function Access  ########################### */
 186:../../Drivers/CMSIS/Include/cmsis_gcc.h **** /** \ingroup  CMSIS_Core_FunctionInterface
 187:../../Drivers/CMSIS/Include/cmsis_gcc.h ****     \defgroup CMSIS_Core_RegAccFunctions CMSIS Core Register Access Functions
 188:../../Drivers/CMSIS/Include/cmsis_gcc.h ****   @{
 189:../../Drivers/CMSIS/Include/cmsis_gcc.h ****  */
 190:../../Drivers/CMSIS/Include/cmsis_gcc.h **** 
 191:../../Drivers/CMSIS/Include/cmsis_gcc.h **** /**
 192:../../Drivers/CMSIS/Include/cmsis_gcc.h ****   \brief   Enable IRQ Interrupts
 193:../../Drivers/CMSIS/Include/cmsis_gcc.h ****   \details Enables IRQ interrupts by clearing the I-bit in the CPSR.
 194:../../Drivers/CMSIS/Include/cmsis_gcc.h ****            Can only be executed in Privileged modes.
 195:../../Drivers/CMSIS/Include/cmsis_gcc.h ****  */
 196:../../Drivers/CMSIS/Include/cmsis_gcc.h **** __STATIC_FORCEINLINE void __enable_irq(void)
 197:../../Drivers/CMSIS/Include/cmsis_gcc.h **** {
 198:../../Drivers/CMSIS/Include/cmsis_gcc.h ****   __ASM volatile ("cpsie i" : : : "memory");
 199:../../Drivers/CMSIS/Include/cmsis_gcc.h **** }
 200:../../Drivers/CMSIS/Include/cmsis_gcc.h **** 
 201:../../Drivers/CMSIS/Include/cmsis_gcc.h **** 
 202:../../Drivers/CMSIS/Include/cmsis_gcc.h **** /**
 203:../../Drivers/CMSIS/Include/cmsis_gcc.h ****   \brief   Disable IRQ Interrupts
 204:../../Drivers/CMSIS/Include/cmsis_gcc.h ****   \details Disables IRQ interrupts by setting the I-bit in the CPSR.
 205:../../Drivers/CMSIS/Include/cmsis_gcc.h ****            Can only be executed in Privileged modes.
 206:../../Drivers/CMSIS/Include/cmsis_gcc.h ****  */
 207:../../Drivers/CMSIS/Include/cmsis_gcc.h **** __STATIC_FORCEINLINE void __disable_irq(void)
 202              		.loc 2 207 27 view .LVU54
 203              	.LBB27:
ARM GAS  C:\Users\minis\AppData\Local\Temp\ccyLswLP.s 			page 16


 208:../../Drivers/CMSIS/Include/cmsis_gcc.h **** {
 209:../../Drivers/CMSIS/Include/cmsis_gcc.h ****   __ASM volatile ("cpsid i" : : : "memory");
 204              		.loc 2 209 3 view .LVU55
 205              		.syntax unified
 206              	@ 209 "../../Drivers/CMSIS/Include/cmsis_gcc.h" 1
 207 0002 72B6     		cpsid i
 208              	@ 0 "" 2
 210:../../Drivers/CMSIS/Include/cmsis_gcc.h **** }
 209              		.loc 2 210 1 is_stmt 0 view .LVU56
 210              		.thumb
 211              		.syntax unified
 212 0004 10E0     		b	.L10
 213              	.L7:
 214              	.LBE27:
 215              	.LBE26:
 216              	.LBB28:
 449:../../CM4/Core/Src/main.c ****   while (1) {
 450:../../CM4/Core/Src/main.c ****     LED_RED_ON();
 451:../../CM4/Core/Src/main.c ****     BUSY(500000);
 217              		.loc 1 451 5 is_stmt 1 discriminator 3 view .LVU57
 218 0006 009B     		ldr	r3, [sp]
 219 0008 0133     		adds	r3, r3, #1
 220 000a 0093     		str	r3, [sp]
 221              	.L6:
 222              		.loc 1 451 5 discriminator 1 view .LVU58
 223 000c 009A     		ldr	r2, [sp]
 224 000e 0C4B     		ldr	r3, .L12
 225 0010 9A42     		cmp	r2, r3
 226 0012 F8DD     		ble	.L7
 227              	.LBE28:
 228              		.loc 1 451 5 view .LVU59
 452:../../CM4/Core/Src/main.c ****     LED_RED_OFF();
 229              		.loc 1 452 5 view .LVU60
 230 0014 0B4B     		ldr	r3, .L12+4
 231 0016 4FF08042 		mov	r2, #1073741824
 232 001a 9A61     		str	r2, [r3, #24]
 453:../../CM4/Core/Src/main.c ****     BUSY(500000);
 233              		.loc 1 453 5 view .LVU61
 234              		.loc 1 453 5 view .LVU62
 235              	.LBB29:
 236              		.loc 1 453 5 view .LVU63
 237 001c 0023     		movs	r3, #0
 238 001e 0193     		str	r3, [sp, #4]
 239              	.L8:
 240              		.loc 1 453 5 discriminator 1 view .LVU64
 241 0020 019A     		ldr	r2, [sp, #4]
 242 0022 074B     		ldr	r3, .L12
 243 0024 9A42     		cmp	r2, r3
 244 0026 06DD     		ble	.L9
 245              	.L10:
 246              	.LBE29:
 449:../../CM4/Core/Src/main.c ****   while (1) {
 247              		.loc 1 449 3 view .LVU65
 450:../../CM4/Core/Src/main.c ****     BUSY(500000);
 248              		.loc 1 450 5 view .LVU66
 249 0028 064B     		ldr	r3, .L12+4
 250 002a 4FF48042 		mov	r2, #16384
ARM GAS  C:\Users\minis\AppData\Local\Temp\ccyLswLP.s 			page 17


 251 002e 9A61     		str	r2, [r3, #24]
 451:../../CM4/Core/Src/main.c ****     LED_RED_OFF();
 252              		.loc 1 451 5 view .LVU67
 451:../../CM4/Core/Src/main.c ****     LED_RED_OFF();
 253              		.loc 1 451 5 view .LVU68
 254              	.LBB30:
 451:../../CM4/Core/Src/main.c ****     LED_RED_OFF();
 255              		.loc 1 451 5 view .LVU69
 256 0030 0023     		movs	r3, #0
 257 0032 0093     		str	r3, [sp]
 258 0034 EAE7     		b	.L6
 259              	.L9:
 260              	.LBE30:
 261              	.LBB31:
 262              		.loc 1 453 5 discriminator 3 view .LVU70
 263 0036 019B     		ldr	r3, [sp, #4]
 264 0038 0133     		adds	r3, r3, #1
 265 003a 0193     		str	r3, [sp, #4]
 266 003c F0E7     		b	.L8
 267              	.L13:
 268 003e 00BF     		.align	2
 269              	.L12:
 270 0040 1FA10700 		.word	499999
 271 0044 00040258 		.word	1476527104
 272              	.LBE31:
 273              		.cfi_endproc
 274              	.LFE140:
 276              		.section	.text.SystemClock_Config,"ax",%progbits
 277              		.align	1
 278              		.syntax unified
 279              		.thumb
 280              		.thumb_func
 282              	SystemClock_Config:
 283              	.LFB137:
 341:../../CM4/Core/Src/main.c ****   RCC_OscInitTypeDef RCC_OscInitStruct = {0};
 284              		.loc 1 341 38 view -0
 285              		.cfi_startproc
 286              		@ args = 0, pretend = 0, frame = 112
 287              		@ frame_needed = 0, uses_anonymous_args = 0
 288 0000 00B5     		push	{lr}
 289              	.LCFI4:
 290              		.cfi_def_cfa_offset 4
 291              		.cfi_offset 14, -4
 292 0002 9DB0     		sub	sp, sp, #116
 293              	.LCFI5:
 294              		.cfi_def_cfa_offset 120
 342:../../CM4/Core/Src/main.c ****   RCC_ClkInitTypeDef RCC_ClkInitStruct = {0};
 295              		.loc 1 342 3 view .LVU72
 342:../../CM4/Core/Src/main.c ****   RCC_ClkInitTypeDef RCC_ClkInitStruct = {0};
 296              		.loc 1 342 22 is_stmt 0 view .LVU73
 297 0004 4C22     		movs	r2, #76
 298 0006 0021     		movs	r1, #0
 299 0008 09A8     		add	r0, sp, #36
 300 000a FFF7FEFF 		bl	memset
 301              	.LVL6:
 343:../../CM4/Core/Src/main.c **** 
 302              		.loc 1 343 3 is_stmt 1 view .LVU74
ARM GAS  C:\Users\minis\AppData\Local\Temp\ccyLswLP.s 			page 18


 343:../../CM4/Core/Src/main.c **** 
 303              		.loc 1 343 22 is_stmt 0 view .LVU75
 304 000e 2022     		movs	r2, #32
 305 0010 0021     		movs	r1, #0
 306 0012 01A8     		add	r0, sp, #4
 307 0014 FFF7FEFF 		bl	memset
 308              	.LVL7:
 345:../../CM4/Core/Src/main.c ****   __HAL_PWR_VOLTAGESCALING_CONFIG(PWR_REGULATOR_VOLTAGE_SCALE2);
 309              		.loc 1 345 3 is_stmt 1 view .LVU76
 310 0018 0420     		movs	r0, #4
 311 001a FFF7FEFF 		bl	HAL_PWREx_ConfigSupply
 312              	.LVL8:
 346:../../CM4/Core/Src/main.c ****   while (!__HAL_PWR_GET_FLAG(PWR_FLAG_VOSRDY))
 313              		.loc 1 346 3 view .LVU77
 314              	.LBB32:
 346:../../CM4/Core/Src/main.c ****   while (!__HAL_PWR_GET_FLAG(PWR_FLAG_VOSRDY))
 315              		.loc 1 346 3 view .LVU78
 316 001e 0023     		movs	r3, #0
 317 0020 0093     		str	r3, [sp]
 346:../../CM4/Core/Src/main.c ****   while (!__HAL_PWR_GET_FLAG(PWR_FLAG_VOSRDY))
 318              		.loc 1 346 3 view .LVU79
 346:../../CM4/Core/Src/main.c ****   while (!__HAL_PWR_GET_FLAG(PWR_FLAG_VOSRDY))
 319              		.loc 1 346 3 discriminator 2 view .LVU80
 320 0022 284B     		ldr	r3, .L21
 321 0024 DA6A     		ldr	r2, [r3, #44]
 322 0026 22F00102 		bic	r2, r2, #1
 323 002a DA62     		str	r2, [r3, #44]
 346:../../CM4/Core/Src/main.c ****   while (!__HAL_PWR_GET_FLAG(PWR_FLAG_VOSRDY))
 324              		.loc 1 346 3 view .LVU81
 346:../../CM4/Core/Src/main.c ****   while (!__HAL_PWR_GET_FLAG(PWR_FLAG_VOSRDY))
 325              		.loc 1 346 3 is_stmt 0 discriminator 2 view .LVU82
 326 002c DB6A     		ldr	r3, [r3, #44]
 327 002e 03F00103 		and	r3, r3, #1
 328 0032 0093     		str	r3, [sp]
 346:../../CM4/Core/Src/main.c ****   while (!__HAL_PWR_GET_FLAG(PWR_FLAG_VOSRDY))
 329              		.loc 1 346 3 is_stmt 1 view .LVU83
 346:../../CM4/Core/Src/main.c ****   while (!__HAL_PWR_GET_FLAG(PWR_FLAG_VOSRDY))
 330              		.loc 1 346 3 is_stmt 0 discriminator 2 view .LVU84
 331 0034 244A     		ldr	r2, .L21+4
 332 0036 9369     		ldr	r3, [r2, #24]
 333 0038 23F44043 		bic	r3, r3, #49152
 334 003c 43F40043 		orr	r3, r3, #32768
 335 0040 9361     		str	r3, [r2, #24]
 346:../../CM4/Core/Src/main.c ****   while (!__HAL_PWR_GET_FLAG(PWR_FLAG_VOSRDY))
 336              		.loc 1 346 3 is_stmt 1 view .LVU85
 346:../../CM4/Core/Src/main.c ****   while (!__HAL_PWR_GET_FLAG(PWR_FLAG_VOSRDY))
 337              		.loc 1 346 3 is_stmt 0 discriminator 2 view .LVU86
 338 0042 9369     		ldr	r3, [r2, #24]
 339 0044 03F44043 		and	r3, r3, #49152
 340 0048 0093     		str	r3, [sp]
 346:../../CM4/Core/Src/main.c ****   while (!__HAL_PWR_GET_FLAG(PWR_FLAG_VOSRDY))
 341              		.loc 1 346 3 is_stmt 1 discriminator 4 view .LVU87
 342 004a 009B     		ldr	r3, [sp]
 343              	.LBE32:
 346:../../CM4/Core/Src/main.c ****   while (!__HAL_PWR_GET_FLAG(PWR_FLAG_VOSRDY))
 344              		.loc 1 346 3 view .LVU88
 347:../../CM4/Core/Src/main.c ****     ;
ARM GAS  C:\Users\minis\AppData\Local\Temp\ccyLswLP.s 			page 19


 345              		.loc 1 347 3 view .LVU89
 346              	.L15:
 347:../../CM4/Core/Src/main.c ****     ;
 347              		.loc 1 347 10 discriminator 1 view .LVU90
 347:../../CM4/Core/Src/main.c ****     ;
 348              		.loc 1 347 11 is_stmt 0 discriminator 1 view .LVU91
 349 004c 1E4B     		ldr	r3, .L21+4
 350 004e 9B69     		ldr	r3, [r3, #24]
 347:../../CM4/Core/Src/main.c ****     ;
 351              		.loc 1 347 10 discriminator 1 view .LVU92
 352 0050 13F4005F 		tst	r3, #8192
 353 0054 FAD0     		beq	.L15
 350:../../CM4/Core/Src/main.c ****   RCC_OscInitStruct.HSIState = RCC_HSI_DIV1;
 354              		.loc 1 350 3 is_stmt 1 view .LVU93
 350:../../CM4/Core/Src/main.c ****   RCC_OscInitStruct.HSIState = RCC_HSI_DIV1;
 355              		.loc 1 350 36 is_stmt 0 view .LVU94
 356 0056 0223     		movs	r3, #2
 357 0058 0993     		str	r3, [sp, #36]
 351:../../CM4/Core/Src/main.c ****   RCC_OscInitStruct.HSICalibrationValue = RCC_HSICALIBRATION_DEFAULT;
 358              		.loc 1 351 3 is_stmt 1 view .LVU95
 351:../../CM4/Core/Src/main.c ****   RCC_OscInitStruct.HSICalibrationValue = RCC_HSICALIBRATION_DEFAULT;
 359              		.loc 1 351 30 is_stmt 0 view .LVU96
 360 005a 0122     		movs	r2, #1
 361 005c 0C92     		str	r2, [sp, #48]
 352:../../CM4/Core/Src/main.c ****   RCC_OscInitStruct.PLL.PLLState = RCC_PLL_ON;
 362              		.loc 1 352 3 is_stmt 1 view .LVU97
 352:../../CM4/Core/Src/main.c ****   RCC_OscInitStruct.PLL.PLLState = RCC_PLL_ON;
 363              		.loc 1 352 41 is_stmt 0 view .LVU98
 364 005e 4022     		movs	r2, #64
 365 0060 0D92     		str	r2, [sp, #52]
 353:../../CM4/Core/Src/main.c ****   RCC_OscInitStruct.PLL.PLLSource = RCC_PLLSOURCE_HSI;
 366              		.loc 1 353 3 is_stmt 1 view .LVU99
 353:../../CM4/Core/Src/main.c ****   RCC_OscInitStruct.PLL.PLLSource = RCC_PLLSOURCE_HSI;
 367              		.loc 1 353 34 is_stmt 0 view .LVU100
 368 0062 1293     		str	r3, [sp, #72]
 354:../../CM4/Core/Src/main.c ****   RCC_OscInitStruct.PLL.PLLM = 4;
 369              		.loc 1 354 3 is_stmt 1 view .LVU101
 354:../../CM4/Core/Src/main.c ****   RCC_OscInitStruct.PLL.PLLM = 4;
 370              		.loc 1 354 35 is_stmt 0 view .LVU102
 371 0064 0022     		movs	r2, #0
 372 0066 1392     		str	r2, [sp, #76]
 355:../../CM4/Core/Src/main.c ****   RCC_OscInitStruct.PLL.PLLN = 28;
 373              		.loc 1 355 3 is_stmt 1 view .LVU103
 355:../../CM4/Core/Src/main.c ****   RCC_OscInitStruct.PLL.PLLN = 28;
 374              		.loc 1 355 30 is_stmt 0 view .LVU104
 375 0068 0421     		movs	r1, #4
 376 006a 1491     		str	r1, [sp, #80]
 356:../../CM4/Core/Src/main.c ****   RCC_OscInitStruct.PLL.PLLP = 2;
 377              		.loc 1 356 3 is_stmt 1 view .LVU105
 356:../../CM4/Core/Src/main.c ****   RCC_OscInitStruct.PLL.PLLP = 2;
 378              		.loc 1 356 30 is_stmt 0 view .LVU106
 379 006c 1C21     		movs	r1, #28
 380 006e 1591     		str	r1, [sp, #84]
 357:../../CM4/Core/Src/main.c ****   RCC_OscInitStruct.PLL.PLLQ = 5;
 381              		.loc 1 357 3 is_stmt 1 view .LVU107
 357:../../CM4/Core/Src/main.c ****   RCC_OscInitStruct.PLL.PLLQ = 5;
 382              		.loc 1 357 30 is_stmt 0 view .LVU108
ARM GAS  C:\Users\minis\AppData\Local\Temp\ccyLswLP.s 			page 20


 383 0070 1693     		str	r3, [sp, #88]
 358:../../CM4/Core/Src/main.c ****   RCC_OscInitStruct.PLL.PLLR = 2;
 384              		.loc 1 358 3 is_stmt 1 view .LVU109
 358:../../CM4/Core/Src/main.c ****   RCC_OscInitStruct.PLL.PLLR = 2;
 385              		.loc 1 358 30 is_stmt 0 view .LVU110
 386 0072 0521     		movs	r1, #5
 387 0074 1791     		str	r1, [sp, #92]
 359:../../CM4/Core/Src/main.c ****   RCC_OscInitStruct.PLL.PLLRGE = RCC_PLL1VCIRANGE_3;
 388              		.loc 1 359 3 is_stmt 1 view .LVU111
 359:../../CM4/Core/Src/main.c ****   RCC_OscInitStruct.PLL.PLLRGE = RCC_PLL1VCIRANGE_3;
 389              		.loc 1 359 30 is_stmt 0 view .LVU112
 390 0076 1893     		str	r3, [sp, #96]
 360:../../CM4/Core/Src/main.c ****   RCC_OscInitStruct.PLL.PLLVCOSEL = RCC_PLL1VCOWIDE;
 391              		.loc 1 360 3 is_stmt 1 view .LVU113
 360:../../CM4/Core/Src/main.c ****   RCC_OscInitStruct.PLL.PLLVCOSEL = RCC_PLL1VCOWIDE;
 392              		.loc 1 360 32 is_stmt 0 view .LVU114
 393 0078 0C23     		movs	r3, #12
 394 007a 1993     		str	r3, [sp, #100]
 361:../../CM4/Core/Src/main.c ****   RCC_OscInitStruct.PLL.PLLFRACN = 1024;
 395              		.loc 1 361 3 is_stmt 1 view .LVU115
 361:../../CM4/Core/Src/main.c ****   RCC_OscInitStruct.PLL.PLLFRACN = 1024;
 396              		.loc 1 361 35 is_stmt 0 view .LVU116
 397 007c 1A92     		str	r2, [sp, #104]
 362:../../CM4/Core/Src/main.c ****   if (HAL_RCC_OscConfig(&RCC_OscInitStruct) != HAL_OK) {
 398              		.loc 1 362 3 is_stmt 1 view .LVU117
 362:../../CM4/Core/Src/main.c ****   if (HAL_RCC_OscConfig(&RCC_OscInitStruct) != HAL_OK) {
 399              		.loc 1 362 34 is_stmt 0 view .LVU118
 400 007e 4FF48063 		mov	r3, #1024
 401 0082 1B93     		str	r3, [sp, #108]
 363:../../CM4/Core/Src/main.c ****     Error_Handler();
 402              		.loc 1 363 3 is_stmt 1 view .LVU119
 363:../../CM4/Core/Src/main.c ****     Error_Handler();
 403              		.loc 1 363 7 is_stmt 0 view .LVU120
 404 0084 09A8     		add	r0, sp, #36
 405 0086 FFF7FEFF 		bl	HAL_RCC_OscConfig
 406              	.LVL9:
 363:../../CM4/Core/Src/main.c ****     Error_Handler();
 407              		.loc 1 363 6 discriminator 1 view .LVU121
 408 008a B8B9     		cbnz	r0, .L19
 367:../../CM4/Core/Src/main.c ****                                 RCC_CLOCKTYPE_PCLK1 | RCC_CLOCKTYPE_PCLK2 |
 409              		.loc 1 367 3 is_stmt 1 view .LVU122
 367:../../CM4/Core/Src/main.c ****                                 RCC_CLOCKTYPE_PCLK1 | RCC_CLOCKTYPE_PCLK2 |
 410              		.loc 1 367 31 is_stmt 0 view .LVU123
 411 008c 3F23     		movs	r3, #63
 412 008e 0193     		str	r3, [sp, #4]
 370:../../CM4/Core/Src/main.c ****   RCC_ClkInitStruct.SYSCLKDivider = RCC_SYSCLK_DIV1;
 413              		.loc 1 370 3 is_stmt 1 view .LVU124
 370:../../CM4/Core/Src/main.c ****   RCC_ClkInitStruct.SYSCLKDivider = RCC_SYSCLK_DIV1;
 414              		.loc 1 370 34 is_stmt 0 view .LVU125
 415 0090 0323     		movs	r3, #3
 416 0092 0293     		str	r3, [sp, #8]
 371:../../CM4/Core/Src/main.c ****   RCC_ClkInitStruct.AHBCLKDivider = RCC_HCLK_DIV1;
 417              		.loc 1 371 3 is_stmt 1 view .LVU126
 371:../../CM4/Core/Src/main.c ****   RCC_ClkInitStruct.AHBCLKDivider = RCC_HCLK_DIV1;
 418              		.loc 1 371 35 is_stmt 0 view .LVU127
 419 0094 0023     		movs	r3, #0
 420 0096 0393     		str	r3, [sp, #12]
ARM GAS  C:\Users\minis\AppData\Local\Temp\ccyLswLP.s 			page 21


 372:../../CM4/Core/Src/main.c ****   RCC_ClkInitStruct.APB3CLKDivider = RCC_APB3_DIV2;
 421              		.loc 1 372 3 is_stmt 1 view .LVU128
 372:../../CM4/Core/Src/main.c ****   RCC_ClkInitStruct.APB3CLKDivider = RCC_APB3_DIV2;
 422              		.loc 1 372 35 is_stmt 0 view .LVU129
 423 0098 0493     		str	r3, [sp, #16]
 373:../../CM4/Core/Src/main.c ****   RCC_ClkInitStruct.APB1CLKDivider = RCC_APB1_DIV4;  /* DEVE essere uguale al CM7! */
 424              		.loc 1 373 3 is_stmt 1 view .LVU130
 373:../../CM4/Core/Src/main.c ****   RCC_ClkInitStruct.APB1CLKDivider = RCC_APB1_DIV4;  /* DEVE essere uguale al CM7! */
 425              		.loc 1 373 36 is_stmt 0 view .LVU131
 426 009a 4023     		movs	r3, #64
 427 009c 0593     		str	r3, [sp, #20]
 374:../../CM4/Core/Src/main.c ****   RCC_ClkInitStruct.APB2CLKDivider = RCC_APB2_DIV2;
 428              		.loc 1 374 3 is_stmt 1 view .LVU132
 374:../../CM4/Core/Src/main.c ****   RCC_ClkInitStruct.APB2CLKDivider = RCC_APB2_DIV2;
 429              		.loc 1 374 36 is_stmt 0 view .LVU133
 430 009e 5022     		movs	r2, #80
 431 00a0 0692     		str	r2, [sp, #24]
 375:../../CM4/Core/Src/main.c ****   RCC_ClkInitStruct.APB4CLKDivider = RCC_APB4_DIV2;
 432              		.loc 1 375 3 is_stmt 1 view .LVU134
 375:../../CM4/Core/Src/main.c ****   RCC_ClkInitStruct.APB4CLKDivider = RCC_APB4_DIV2;
 433              		.loc 1 375 36 is_stmt 0 view .LVU135
 434 00a2 4FF48062 		mov	r2, #1024
 435 00a6 0792     		str	r2, [sp, #28]
 376:../../CM4/Core/Src/main.c ****   if (HAL_RCC_ClockConfig(&RCC_ClkInitStruct, FLASH_LATENCY_4) != HAL_OK) {
 436              		.loc 1 376 3 is_stmt 1 view .LVU136
 376:../../CM4/Core/Src/main.c ****   if (HAL_RCC_ClockConfig(&RCC_ClkInitStruct, FLASH_LATENCY_4) != HAL_OK) {
 437              		.loc 1 376 36 is_stmt 0 view .LVU137
 438 00a8 0893     		str	r3, [sp, #32]
 377:../../CM4/Core/Src/main.c ****     Error_Handler();
 439              		.loc 1 377 3 is_stmt 1 view .LVU138
 377:../../CM4/Core/Src/main.c ****     Error_Handler();
 440              		.loc 1 377 7 is_stmt 0 view .LVU139
 441 00aa 0421     		movs	r1, #4
 442 00ac 0DEB0100 		add	r0, sp, r1
 443 00b0 FFF7FEFF 		bl	HAL_RCC_ClockConfig
 444              	.LVL10:
 377:../../CM4/Core/Src/main.c ****     Error_Handler();
 445              		.loc 1 377 6 discriminator 1 view .LVU140
 446 00b4 20B9     		cbnz	r0, .L20
 380:../../CM4/Core/Src/main.c **** 
 447              		.loc 1 380 1 view .LVU141
 448 00b6 1DB0     		add	sp, sp, #116
 449              	.LCFI6:
 450              		.cfi_remember_state
 451              		.cfi_def_cfa_offset 4
 452              		@ sp needed
 453 00b8 5DF804FB 		ldr	pc, [sp], #4
 454              	.L19:
 455              	.LCFI7:
 456              		.cfi_restore_state
 364:../../CM4/Core/Src/main.c ****   }
 457              		.loc 1 364 5 is_stmt 1 view .LVU142
 458 00bc FFF7FEFF 		bl	Error_Handler
 459              	.LVL11:
 460              	.L20:
 378:../../CM4/Core/Src/main.c ****   }
 461              		.loc 1 378 5 view .LVU143
ARM GAS  C:\Users\minis\AppData\Local\Temp\ccyLswLP.s 			page 22


 462 00c0 FFF7FEFF 		bl	Error_Handler
 463              	.LVL12:
 464              	.L22:
 465              		.align	2
 466              	.L21:
 467 00c4 00040058 		.word	1476396032
 468 00c8 00480258 		.word	1476544512
 469              		.cfi_endproc
 470              	.LFE137:
 472              		.section	.text.MX_TIM2_Init,"ax",%progbits
 473              		.align	1
 474              		.syntax unified
 475              		.thumb
 476              		.thumb_func
 478              	MX_TIM2_Init:
 479              	.LFB138:
 382:../../CM4/Core/Src/main.c ****   __HAL_RCC_TIM2_CLK_ENABLE();
 480              		.loc 1 382 32 view -0
 481              		.cfi_startproc
 482              		@ args = 0, pretend = 0, frame = 32
 483              		@ frame_needed = 0, uses_anonymous_args = 0
 484 0000 00B5     		push	{lr}
 485              	.LCFI8:
 486              		.cfi_def_cfa_offset 4
 487              		.cfi_offset 14, -4
 488 0002 89B0     		sub	sp, sp, #36
 489              	.LCFI9:
 490              		.cfi_def_cfa_offset 40
 383:../../CM4/Core/Src/main.c **** 
 491              		.loc 1 383 3 view .LVU145
 492              	.LBB33:
 383:../../CM4/Core/Src/main.c **** 
 493              		.loc 1 383 3 view .LVU146
 383:../../CM4/Core/Src/main.c **** 
 494              		.loc 1 383 3 view .LVU147
 495 0004 1D4B     		ldr	r3, .L31
 496 0006 D3F8E820 		ldr	r2, [r3, #232]
 497 000a 42F00102 		orr	r2, r2, #1
 498 000e C3F8E820 		str	r2, [r3, #232]
 383:../../CM4/Core/Src/main.c **** 
 499              		.loc 1 383 3 view .LVU148
 500 0012 D3F8E830 		ldr	r3, [r3, #232]
 501 0016 03F00103 		and	r3, r3, #1
 502 001a 0093     		str	r3, [sp]
 383:../../CM4/Core/Src/main.c **** 
 503              		.loc 1 383 3 view .LVU149
 504 001c 009B     		ldr	r3, [sp]
 505              	.LBE33:
 383:../../CM4/Core/Src/main.c **** 
 506              		.loc 1 383 3 view .LVU150
 385:../../CM4/Core/Src/main.c ****   TIM_MasterConfigTypeDef sMasterConfig = {0};
 507              		.loc 1 385 3 view .LVU151
 385:../../CM4/Core/Src/main.c ****   TIM_MasterConfigTypeDef sMasterConfig = {0};
 508              		.loc 1 385 26 is_stmt 0 view .LVU152
 509 001e 0023     		movs	r3, #0
 510 0020 0493     		str	r3, [sp, #16]
 511 0022 0593     		str	r3, [sp, #20]
ARM GAS  C:\Users\minis\AppData\Local\Temp\ccyLswLP.s 			page 23


 512 0024 0693     		str	r3, [sp, #24]
 513 0026 0793     		str	r3, [sp, #28]
 386:../../CM4/Core/Src/main.c **** 
 514              		.loc 1 386 3 is_stmt 1 view .LVU153
 386:../../CM4/Core/Src/main.c **** 
 515              		.loc 1 386 27 is_stmt 0 view .LVU154
 516 0028 0193     		str	r3, [sp, #4]
 517 002a 0293     		str	r3, [sp, #8]
 518 002c 0393     		str	r3, [sp, #12]
 388:../../CM4/Core/Src/main.c ****   htim2.Init.Prescaler = 0;
 519              		.loc 1 388 3 is_stmt 1 view .LVU155
 388:../../CM4/Core/Src/main.c ****   htim2.Init.Prescaler = 0;
 520              		.loc 1 388 18 is_stmt 0 view .LVU156
 521 002e 1448     		ldr	r0, .L31+4
 522 0030 4FF08042 		mov	r2, #1073741824
 523 0034 0260     		str	r2, [r0]
 389:../../CM4/Core/Src/main.c ****   htim2.Init.CounterMode = TIM_COUNTERMODE_UP;
 524              		.loc 1 389 3 is_stmt 1 view .LVU157
 389:../../CM4/Core/Src/main.c ****   htim2.Init.CounterMode = TIM_COUNTERMODE_UP;
 525              		.loc 1 389 24 is_stmt 0 view .LVU158
 526 0036 4360     		str	r3, [r0, #4]
 390:../../CM4/Core/Src/main.c ****   htim2.Init.Period = 0xFFFFFFFFU;
 527              		.loc 1 390 3 is_stmt 1 view .LVU159
 390:../../CM4/Core/Src/main.c ****   htim2.Init.Period = 0xFFFFFFFFU;
 528              		.loc 1 390 26 is_stmt 0 view .LVU160
 529 0038 8360     		str	r3, [r0, #8]
 391:../../CM4/Core/Src/main.c ****   htim2.Init.ClockDivision = TIM_CLOCKDIVISION_DIV1;
 530              		.loc 1 391 3 is_stmt 1 view .LVU161
 391:../../CM4/Core/Src/main.c ****   htim2.Init.ClockDivision = TIM_CLOCKDIVISION_DIV1;
 531              		.loc 1 391 21 is_stmt 0 view .LVU162
 532 003a 4FF0FF32 		mov	r2, #-1
 533 003e C260     		str	r2, [r0, #12]
 392:../../CM4/Core/Src/main.c ****   htim2.Init.AutoReloadPreload = TIM_AUTORELOAD_PRELOAD_DISABLE;
 534              		.loc 1 392 3 is_stmt 1 view .LVU163
 392:../../CM4/Core/Src/main.c ****   htim2.Init.AutoReloadPreload = TIM_AUTORELOAD_PRELOAD_DISABLE;
 535              		.loc 1 392 28 is_stmt 0 view .LVU164
 536 0040 0361     		str	r3, [r0, #16]
 393:../../CM4/Core/Src/main.c ****   if (HAL_TIM_Base_Init(&htim2) != HAL_OK) {
 537              		.loc 1 393 3 is_stmt 1 view .LVU165
 393:../../CM4/Core/Src/main.c ****   if (HAL_TIM_Base_Init(&htim2) != HAL_OK) {
 538              		.loc 1 393 32 is_stmt 0 view .LVU166
 539 0042 8361     		str	r3, [r0, #24]
 394:../../CM4/Core/Src/main.c ****     Error_Handler();
 540              		.loc 1 394 3 is_stmt 1 view .LVU167
 394:../../CM4/Core/Src/main.c ****     Error_Handler();
 541              		.loc 1 394 7 is_stmt 0 view .LVU168
 542 0044 FFF7FEFF 		bl	HAL_TIM_Base_Init
 543              	.LVL13:
 394:../../CM4/Core/Src/main.c ****     Error_Handler();
 544              		.loc 1 394 6 discriminator 1 view .LVU169
 545 0048 90B9     		cbnz	r0, .L28
 398:../../CM4/Core/Src/main.c ****   if (HAL_TIM_ConfigClockSource(&htim2, &sClockSourceConfig) != HAL_OK) {
 546              		.loc 1 398 3 is_stmt 1 view .LVU170
 398:../../CM4/Core/Src/main.c ****   if (HAL_TIM_ConfigClockSource(&htim2, &sClockSourceConfig) != HAL_OK) {
 547              		.loc 1 398 34 is_stmt 0 view .LVU171
 548 004a 4FF48053 		mov	r3, #4096
 549 004e 0493     		str	r3, [sp, #16]
ARM GAS  C:\Users\minis\AppData\Local\Temp\ccyLswLP.s 			page 24


 399:../../CM4/Core/Src/main.c ****     Error_Handler();
 550              		.loc 1 399 3 is_stmt 1 view .LVU172
 399:../../CM4/Core/Src/main.c ****     Error_Handler();
 551              		.loc 1 399 7 is_stmt 0 view .LVU173
 552 0050 04A9     		add	r1, sp, #16
 553 0052 0B48     		ldr	r0, .L31+4
 554 0054 FFF7FEFF 		bl	HAL_TIM_ConfigClockSource
 555              	.LVL14:
 399:../../CM4/Core/Src/main.c ****     Error_Handler();
 556              		.loc 1 399 6 discriminator 1 view .LVU174
 557 0058 60B9     		cbnz	r0, .L29
 403:../../CM4/Core/Src/main.c ****   sMasterConfig.MasterSlaveMode = TIM_MASTERSLAVEMODE_DISABLE;
 558              		.loc 1 403 3 is_stmt 1 view .LVU175
 403:../../CM4/Core/Src/main.c ****   sMasterConfig.MasterSlaveMode = TIM_MASTERSLAVEMODE_DISABLE;
 559              		.loc 1 403 37 is_stmt 0 view .LVU176
 560 005a 0023     		movs	r3, #0
 561 005c 0193     		str	r3, [sp, #4]
 404:../../CM4/Core/Src/main.c ****   if (HAL_TIMEx_MasterConfigSynchronization(&htim2, &sMasterConfig) != HAL_OK) {
 562              		.loc 1 404 3 is_stmt 1 view .LVU177
 404:../../CM4/Core/Src/main.c ****   if (HAL_TIMEx_MasterConfigSynchronization(&htim2, &sMasterConfig) != HAL_OK) {
 563              		.loc 1 404 33 is_stmt 0 view .LVU178
 564 005e 0393     		str	r3, [sp, #12]
 405:../../CM4/Core/Src/main.c ****     Error_Handler();
 565              		.loc 1 405 3 is_stmt 1 view .LVU179
 405:../../CM4/Core/Src/main.c ****     Error_Handler();
 566              		.loc 1 405 7 is_stmt 0 view .LVU180
 567 0060 01A9     		add	r1, sp, #4
 568 0062 0748     		ldr	r0, .L31+4
 569 0064 FFF7FEFF 		bl	HAL_TIMEx_MasterConfigSynchronization
 570              	.LVL15:
 405:../../CM4/Core/Src/main.c ****     Error_Handler();
 571              		.loc 1 405 6 discriminator 1 view .LVU181
 572 0068 30B9     		cbnz	r0, .L30
 408:../../CM4/Core/Src/main.c **** 
 573              		.loc 1 408 1 view .LVU182
 574 006a 09B0     		add	sp, sp, #36
 575              	.LCFI10:
 576              		.cfi_remember_state
 577              		.cfi_def_cfa_offset 4
 578              		@ sp needed
 579 006c 5DF804FB 		ldr	pc, [sp], #4
 580              	.L28:
 581              	.LCFI11:
 582              		.cfi_restore_state
 395:../../CM4/Core/Src/main.c ****   }
 583              		.loc 1 395 5 is_stmt 1 view .LVU183
 584 0070 FFF7FEFF 		bl	Error_Handler
 585              	.LVL16:
 586              	.L29:
 400:../../CM4/Core/Src/main.c ****   }
 587              		.loc 1 400 5 view .LVU184
 588 0074 FFF7FEFF 		bl	Error_Handler
 589              	.LVL17:
 590              	.L30:
 406:../../CM4/Core/Src/main.c ****   }
 591              		.loc 1 406 5 view .LVU185
 592 0078 FFF7FEFF 		bl	Error_Handler
ARM GAS  C:\Users\minis\AppData\Local\Temp\ccyLswLP.s 			page 25


 593              	.LVL18:
 594              	.L32:
 595              		.align	2
 596              	.L31:
 597 007c 00440258 		.word	1476543488
 598 0080 00000000 		.word	htim2
 599              		.cfi_endproc
 600              	.LFE138:
 602              		.section	.text.MX_UART4_Init,"ax",%progbits
 603              		.align	1
 604              		.syntax unified
 605              		.thumb
 606              		.thumb_func
 608              	MX_UART4_Init:
 609              	.LFB136:
 299:../../CM4/Core/Src/main.c **** 
 610              		.loc 1 299 33 view -0
 611              		.cfi_startproc
 612              		@ args = 0, pretend = 0, frame = 0
 613              		@ frame_needed = 0, uses_anonymous_args = 0
 614 0000 08B5     		push	{r3, lr}
 615              	.LCFI12:
 616              		.cfi_def_cfa_offset 8
 617              		.cfi_offset 3, -8
 618              		.cfi_offset 14, -4
 308:../../CM4/Core/Src/main.c ****   huart4.Init.BaudRate = 115200;
 619              		.loc 1 308 3 view .LVU187
 308:../../CM4/Core/Src/main.c ****   huart4.Init.BaudRate = 115200;
 620              		.loc 1 308 19 is_stmt 0 view .LVU188
 621 0002 1548     		ldr	r0, .L43
 622 0004 154B     		ldr	r3, .L43+4
 623 0006 0360     		str	r3, [r0]
 309:../../CM4/Core/Src/main.c ****   huart4.Init.WordLength = UART_WORDLENGTH_8B;
 624              		.loc 1 309 3 is_stmt 1 view .LVU189
 309:../../CM4/Core/Src/main.c ****   huart4.Init.WordLength = UART_WORDLENGTH_8B;
 625              		.loc 1 309 24 is_stmt 0 view .LVU190
 626 0008 4FF4E133 		mov	r3, #115200
 627 000c 4360     		str	r3, [r0, #4]
 310:../../CM4/Core/Src/main.c ****   huart4.Init.StopBits = UART_STOPBITS_1;
 628              		.loc 1 310 3 is_stmt 1 view .LVU191
 310:../../CM4/Core/Src/main.c ****   huart4.Init.StopBits = UART_STOPBITS_1;
 629              		.loc 1 310 26 is_stmt 0 view .LVU192
 630 000e 0023     		movs	r3, #0
 631 0010 8360     		str	r3, [r0, #8]
 311:../../CM4/Core/Src/main.c ****   huart4.Init.Parity = UART_PARITY_NONE;
 632              		.loc 1 311 3 is_stmt 1 view .LVU193
 311:../../CM4/Core/Src/main.c ****   huart4.Init.Parity = UART_PARITY_NONE;
 633              		.loc 1 311 24 is_stmt 0 view .LVU194
 634 0012 C360     		str	r3, [r0, #12]
 312:../../CM4/Core/Src/main.c ****   huart4.Init.Mode = UART_MODE_TX_RX;
 635              		.loc 1 312 3 is_stmt 1 view .LVU195
 312:../../CM4/Core/Src/main.c ****   huart4.Init.Mode = UART_MODE_TX_RX;
 636              		.loc 1 312 22 is_stmt 0 view .LVU196
 637 0014 0361     		str	r3, [r0, #16]
 313:../../CM4/Core/Src/main.c ****   huart4.Init.HwFlowCtl = UART_HWCONTROL_NONE;
 638              		.loc 1 313 3 is_stmt 1 view .LVU197
 313:../../CM4/Core/Src/main.c ****   huart4.Init.HwFlowCtl = UART_HWCONTROL_NONE;
ARM GAS  C:\Users\minis\AppData\Local\Temp\ccyLswLP.s 			page 26


 639              		.loc 1 313 20 is_stmt 0 view .LVU198
 640 0016 0C22     		movs	r2, #12
 641 0018 4261     		str	r2, [r0, #20]
 314:../../CM4/Core/Src/main.c ****   huart4.Init.OverSampling = UART_OVERSAMPLING_16;
 642              		.loc 1 314 3 is_stmt 1 view .LVU199
 314:../../CM4/Core/Src/main.c ****   huart4.Init.OverSampling = UART_OVERSAMPLING_16;
 643              		.loc 1 314 25 is_stmt 0 view .LVU200
 644 001a 8361     		str	r3, [r0, #24]
 315:../../CM4/Core/Src/main.c ****   huart4.Init.OneBitSampling = UART_ONE_BIT_SAMPLE_DISABLE;
 645              		.loc 1 315 3 is_stmt 1 view .LVU201
 315:../../CM4/Core/Src/main.c ****   huart4.Init.OneBitSampling = UART_ONE_BIT_SAMPLE_DISABLE;
 646              		.loc 1 315 28 is_stmt 0 view .LVU202
 647 001c C361     		str	r3, [r0, #28]
 316:../../CM4/Core/Src/main.c ****   huart4.Init.ClockPrescaler = UART_PRESCALER_DIV1;
 648              		.loc 1 316 3 is_stmt 1 view .LVU203
 316:../../CM4/Core/Src/main.c ****   huart4.Init.ClockPrescaler = UART_PRESCALER_DIV1;
 649              		.loc 1 316 30 is_stmt 0 view .LVU204
 650 001e 0362     		str	r3, [r0, #32]
 317:../../CM4/Core/Src/main.c ****   huart4.AdvancedInit.AdvFeatureInit = UART_ADVFEATURE_NO_INIT;
 651              		.loc 1 317 3 is_stmt 1 view .LVU205
 317:../../CM4/Core/Src/main.c ****   huart4.AdvancedInit.AdvFeatureInit = UART_ADVFEATURE_NO_INIT;
 652              		.loc 1 317 30 is_stmt 0 view .LVU206
 653 0020 4362     		str	r3, [r0, #36]
 318:../../CM4/Core/Src/main.c ****   if (HAL_UART_Init(&huart4) != HAL_OK) {
 654              		.loc 1 318 3 is_stmt 1 view .LVU207
 318:../../CM4/Core/Src/main.c ****   if (HAL_UART_Init(&huart4) != HAL_OK) {
 655              		.loc 1 318 38 is_stmt 0 view .LVU208
 656 0022 8362     		str	r3, [r0, #40]
 319:../../CM4/Core/Src/main.c ****     Error_Handler();
 657              		.loc 1 319 3 is_stmt 1 view .LVU209
 319:../../CM4/Core/Src/main.c ****     Error_Handler();
 658              		.loc 1 319 7 is_stmt 0 view .LVU210
 659 0024 FFF7FEFF 		bl	HAL_UART_Init
 660              	.LVL19:
 319:../../CM4/Core/Src/main.c ****     Error_Handler();
 661              		.loc 1 319 6 discriminator 1 view .LVU211
 662 0028 70B9     		cbnz	r0, .L39
 322:../../CM4/Core/Src/main.c ****       HAL_OK) {
 663              		.loc 1 322 3 is_stmt 1 view .LVU212
 322:../../CM4/Core/Src/main.c ****       HAL_OK) {
 664              		.loc 1 322 7 is_stmt 0 view .LVU213
 665 002a 0021     		movs	r1, #0
 666 002c 0A48     		ldr	r0, .L43
 667 002e FFF7FEFF 		bl	HAL_UARTEx_SetTxFifoThreshold
 668              	.LVL20:
 322:../../CM4/Core/Src/main.c ****       HAL_OK) {
 669              		.loc 1 322 6 discriminator 1 view .LVU214
 670 0032 58B9     		cbnz	r0, .L40
 326:../../CM4/Core/Src/main.c ****       HAL_OK) {
 671              		.loc 1 326 3 is_stmt 1 view .LVU215
 326:../../CM4/Core/Src/main.c ****       HAL_OK) {
 672              		.loc 1 326 7 is_stmt 0 view .LVU216
 673 0034 0021     		movs	r1, #0
 674 0036 0848     		ldr	r0, .L43
 675 0038 FFF7FEFF 		bl	HAL_UARTEx_SetRxFifoThreshold
 676              	.LVL21:
 326:../../CM4/Core/Src/main.c ****       HAL_OK) {
ARM GAS  C:\Users\minis\AppData\Local\Temp\ccyLswLP.s 			page 27


 677              		.loc 1 326 6 discriminator 1 view .LVU217
 678 003c 40B9     		cbnz	r0, .L41
 330:../../CM4/Core/Src/main.c ****     Error_Handler();
 679              		.loc 1 330 3 is_stmt 1 view .LVU218
 330:../../CM4/Core/Src/main.c ****     Error_Handler();
 680              		.loc 1 330 7 is_stmt 0 view .LVU219
 681 003e 0648     		ldr	r0, .L43
 682 0040 FFF7FEFF 		bl	HAL_UARTEx_DisableFifoMode
 683              	.LVL22:
 330:../../CM4/Core/Src/main.c ****     Error_Handler();
 684              		.loc 1 330 6 discriminator 1 view .LVU220
 685 0044 30B9     		cbnz	r0, .L42
 336:../../CM4/Core/Src/main.c **** 
 686              		.loc 1 336 1 view .LVU221
 687 0046 08BD     		pop	{r3, pc}
 688              	.L39:
 320:../../CM4/Core/Src/main.c ****   }
 689              		.loc 1 320 5 is_stmt 1 view .LVU222
 690 0048 FFF7FEFF 		bl	Error_Handler
 691              	.LVL23:
 692              	.L40:
 324:../../CM4/Core/Src/main.c ****   }
 693              		.loc 1 324 5 view .LVU223
 694 004c FFF7FEFF 		bl	Error_Handler
 695              	.LVL24:
 696              	.L41:
 328:../../CM4/Core/Src/main.c ****   }
 697              		.loc 1 328 5 view .LVU224
 698 0050 FFF7FEFF 		bl	Error_Handler
 699              	.LVL25:
 700              	.L42:
 331:../../CM4/Core/Src/main.c ****   }
 701              		.loc 1 331 5 view .LVU225
 702 0054 FFF7FEFF 		bl	Error_Handler
 703              	.LVL26:
 704              	.L44:
 705              		.align	2
 706              	.L43:
 707 0058 00000000 		.word	huart4
 708 005c 004C0040 		.word	1073761280
 709              		.cfi_endproc
 710              	.LFE136:
 712              		.section	.rodata.main.str1.4,"aMS",%progbits,1
 713              		.align	2
 714              	.LC0:
 715 0000 4C454420 		.ascii	"LED ACCESO %lu\012\000"
 715      41434345 
 715      534F2025 
 715      6C750A00 
 716              		.section	.text.main,"ax",%progbits
 717              		.align	1
 718              		.global	main
 719              		.syntax unified
 720              		.thumb
 721              		.thumb_func
 723              	main:
 724              	.LFB135:
ARM GAS  C:\Users\minis\AppData\Local\Temp\ccyLswLP.s 			page 28


  50:../../CM4/Core/Src/main.c ****   /* ------------------------------------------------------------------ */
 725              		.loc 1 50 16 view -0
 726              		.cfi_startproc
 727              		@ args = 0, pretend = 0, frame = 16
 728              		@ frame_needed = 0, uses_anonymous_args = 0
 729 0000 F0B5     		push	{r4, r5, r6, r7, lr}
 730              	.LCFI13:
 731              		.cfi_def_cfa_offset 20
 732              		.cfi_offset 4, -20
 733              		.cfi_offset 5, -16
 734              		.cfi_offset 6, -12
 735              		.cfi_offset 7, -8
 736              		.cfi_offset 14, -4
 737 0002 85B0     		sub	sp, sp, #20
 738              	.LCFI14:
 739              		.cfi_def_cfa_offset 40
  54:../../CM4/Core/Src/main.c ****   BUSY(10000);
 740              		.loc 1 54 3 view .LVU227
  54:../../CM4/Core/Src/main.c ****   BUSY(10000);
 741              		.loc 1 54 6 is_stmt 0 view .LVU228
 742 0004 B84A     		ldr	r2, .L104
 743 0006 D2F8E030 		ldr	r3, [r2, #224]
  54:../../CM4/Core/Src/main.c ****   BUSY(10000);
 744              		.loc 1 54 16 view .LVU229
 745 000a 43F00203 		orr	r3, r3, #2
 746 000e C2F8E030 		str	r3, [r2, #224]
  55:../../CM4/Core/Src/main.c ****   GPIOB->MODER &= ~(3U << 0);
 747              		.loc 1 55 3 is_stmt 1 view .LVU230
  55:../../CM4/Core/Src/main.c ****   GPIOB->MODER &= ~(3U << 0);
 748              		.loc 1 55 3 view .LVU231
 749              	.LBB34:
  55:../../CM4/Core/Src/main.c ****   GPIOB->MODER &= ~(3U << 0);
 750              		.loc 1 55 3 view .LVU232
 751 0012 0023     		movs	r3, #0
 752 0014 0093     		str	r3, [sp]
 753 0016 02E0     		b	.L46
 754              	.L47:
  55:../../CM4/Core/Src/main.c ****   GPIOB->MODER &= ~(3U << 0);
 755              		.loc 1 55 3 discriminator 3 view .LVU233
 756 0018 009B     		ldr	r3, [sp]
 757 001a 0133     		adds	r3, r3, #1
 758 001c 0093     		str	r3, [sp]
 759              	.L46:
  55:../../CM4/Core/Src/main.c ****   GPIOB->MODER &= ~(3U << 0);
 760              		.loc 1 55 3 discriminator 1 view .LVU234
 761 001e 009A     		ldr	r2, [sp]
 762 0020 42F20F73 		movw	r3, #9999
 763 0024 9A42     		cmp	r2, r3
 764 0026 F7DD     		ble	.L47
 765              	.LBE34:
  55:../../CM4/Core/Src/main.c ****   GPIOB->MODER &= ~(3U << 0);
 766              		.loc 1 55 3 view .LVU235
  56:../../CM4/Core/Src/main.c ****   GPIOB->MODER |= (1U << 0); /* PB0  out */
 767              		.loc 1 56 3 view .LVU236
  56:../../CM4/Core/Src/main.c ****   GPIOB->MODER |= (1U << 0); /* PB0  out */
 768              		.loc 1 56 8 is_stmt 0 view .LVU237
 769 0028 B04B     		ldr	r3, .L104+4
ARM GAS  C:\Users\minis\AppData\Local\Temp\ccyLswLP.s 			page 29


 770 002a 1A68     		ldr	r2, [r3]
  56:../../CM4/Core/Src/main.c ****   GPIOB->MODER |= (1U << 0); /* PB0  out */
 771              		.loc 1 56 16 view .LVU238
 772 002c 22F00302 		bic	r2, r2, #3
 773 0030 1A60     		str	r2, [r3]
  57:../../CM4/Core/Src/main.c ****   GPIOB->MODER &= ~(3U << 28);
 774              		.loc 1 57 3 is_stmt 1 view .LVU239
  57:../../CM4/Core/Src/main.c ****   GPIOB->MODER &= ~(3U << 28);
 775              		.loc 1 57 8 is_stmt 0 view .LVU240
 776 0032 1A68     		ldr	r2, [r3]
  57:../../CM4/Core/Src/main.c ****   GPIOB->MODER &= ~(3U << 28);
 777              		.loc 1 57 16 view .LVU241
 778 0034 42F00102 		orr	r2, r2, #1
 779 0038 1A60     		str	r2, [r3]
  58:../../CM4/Core/Src/main.c ****   GPIOB->MODER |= (1U << 28); /* PB14 out */
 780              		.loc 1 58 3 is_stmt 1 view .LVU242
  58:../../CM4/Core/Src/main.c ****   GPIOB->MODER |= (1U << 28); /* PB14 out */
 781              		.loc 1 58 8 is_stmt 0 view .LVU243
 782 003a 1A68     		ldr	r2, [r3]
  58:../../CM4/Core/Src/main.c ****   GPIOB->MODER |= (1U << 28); /* PB14 out */
 783              		.loc 1 58 16 view .LVU244
 784 003c 22F04052 		bic	r2, r2, #805306368
 785 0040 1A60     		str	r2, [r3]
  59:../../CM4/Core/Src/main.c **** 
 786              		.loc 1 59 3 is_stmt 1 view .LVU245
  59:../../CM4/Core/Src/main.c **** 
 787              		.loc 1 59 8 is_stmt 0 view .LVU246
 788 0042 1A68     		ldr	r2, [r3]
  59:../../CM4/Core/Src/main.c **** 
 789              		.loc 1 59 16 view .LVU247
 790 0044 42F08052 		orr	r2, r2, #268435456
 791 0048 1A60     		str	r2, [r3]
  62:../../CM4/Core/Src/main.c ****     LED_GREEN_ON();
 792              		.loc 1 62 3 is_stmt 1 view .LVU248
 793              	.LBB35:
  62:../../CM4/Core/Src/main.c ****     LED_GREEN_ON();
 794              		.loc 1 62 8 view .LVU249
 795              	.LVL27:
  62:../../CM4/Core/Src/main.c ****     LED_GREEN_ON();
 796              		.loc 1 62 12 is_stmt 0 view .LVU250
 797 004a 0021     		movs	r1, #0
  62:../../CM4/Core/Src/main.c ****     LED_GREEN_ON();
 798              		.loc 1 62 3 view .LVU251
 799 004c 18E0     		b	.L48
 800              	.LVL28:
 801              	.L50:
 802              	.LBB36:
  65:../../CM4/Core/Src/main.c ****     LED_ALL_OFF();
 803              		.loc 1 65 5 is_stmt 1 discriminator 3 view .LVU252
 804 004e 019B     		ldr	r3, [sp, #4]
 805 0050 0133     		adds	r3, r3, #1
 806 0052 0193     		str	r3, [sp, #4]
 807              	.L49:
  65:../../CM4/Core/Src/main.c ****     LED_ALL_OFF();
 808              		.loc 1 65 5 discriminator 1 view .LVU253
 809 0054 019A     		ldr	r2, [sp, #4]
 810 0056 A64B     		ldr	r3, .L104+8
ARM GAS  C:\Users\minis\AppData\Local\Temp\ccyLswLP.s 			page 30


 811 0058 9A42     		cmp	r2, r3
 812 005a F8DD     		ble	.L50
 813              	.LBE36:
  65:../../CM4/Core/Src/main.c ****     LED_ALL_OFF();
 814              		.loc 1 65 5 view .LVU254
  66:../../CM4/Core/Src/main.c ****     BUSY(3000000);
 815              		.loc 1 66 5 view .LVU255
  66:../../CM4/Core/Src/main.c ****     BUSY(3000000);
 816              		.loc 1 66 5 view .LVU256
 817 005c A34B     		ldr	r3, .L104+4
 818 005e 4FF48032 		mov	r2, #65536
 819 0062 9A61     		str	r2, [r3, #24]
  66:../../CM4/Core/Src/main.c ****     BUSY(3000000);
 820              		.loc 1 66 5 view .LVU257
 821 0064 4FF08042 		mov	r2, #1073741824
 822 0068 9A61     		str	r2, [r3, #24]
  66:../../CM4/Core/Src/main.c ****     BUSY(3000000);
 823              		.loc 1 66 5 view .LVU258
  67:../../CM4/Core/Src/main.c ****   }
 824              		.loc 1 67 5 view .LVU259
  67:../../CM4/Core/Src/main.c ****   }
 825              		.loc 1 67 5 view .LVU260
 826              	.LBB37:
  67:../../CM4/Core/Src/main.c ****   }
 827              		.loc 1 67 5 view .LVU261
 828 006a 0023     		movs	r3, #0
 829 006c 0293     		str	r3, [sp, #8]
 830 006e 02E0     		b	.L51
 831              	.L52:
  67:../../CM4/Core/Src/main.c ****   }
 832              		.loc 1 67 5 discriminator 3 view .LVU262
 833 0070 029B     		ldr	r3, [sp, #8]
 834 0072 0133     		adds	r3, r3, #1
 835 0074 0293     		str	r3, [sp, #8]
 836              	.L51:
  67:../../CM4/Core/Src/main.c ****   }
 837              		.loc 1 67 5 discriminator 1 view .LVU263
 838 0076 029A     		ldr	r2, [sp, #8]
 839 0078 9D4B     		ldr	r3, .L104+8
 840 007a 9A42     		cmp	r2, r3
 841 007c F8DD     		ble	.L52
 842              	.LBE37:
  67:../../CM4/Core/Src/main.c ****   }
 843              		.loc 1 67 5 view .LVU264
  62:../../CM4/Core/Src/main.c ****     LED_GREEN_ON();
 844              		.loc 1 62 27 discriminator 2 view .LVU265
 845 007e 0131     		adds	r1, r1, #1
 846              	.LVL29:
 847              	.L48:
  62:../../CM4/Core/Src/main.c ****     LED_GREEN_ON();
 848              		.loc 1 62 21 discriminator 1 view .LVU266
 849 0080 0129     		cmp	r1, #1
 850 0082 08DC     		bgt	.L98
  63:../../CM4/Core/Src/main.c ****     LED_RED_ON();
 851              		.loc 1 63 5 view .LVU267
 852 0084 994B     		ldr	r3, .L104+4
 853 0086 0122     		movs	r2, #1
ARM GAS  C:\Users\minis\AppData\Local\Temp\ccyLswLP.s 			page 31


 854 0088 9A61     		str	r2, [r3, #24]
  64:../../CM4/Core/Src/main.c ****     BUSY(3000000);
 855              		.loc 1 64 5 view .LVU268
 856 008a 4FF48042 		mov	r2, #16384
 857 008e 9A61     		str	r2, [r3, #24]
  65:../../CM4/Core/Src/main.c ****     LED_ALL_OFF();
 858              		.loc 1 65 5 view .LVU269
  65:../../CM4/Core/Src/main.c ****     LED_ALL_OFF();
 859              		.loc 1 65 5 view .LVU270
 860              	.LBB38:
  65:../../CM4/Core/Src/main.c ****     LED_ALL_OFF();
 861              		.loc 1 65 5 view .LVU271
 862 0090 0023     		movs	r3, #0
 863 0092 0193     		str	r3, [sp, #4]
 864 0094 DEE7     		b	.L49
 865              	.L98:
 866              	.LBE38:
 867              	.LBE35:
  70:../../CM4/Core/Src/main.c ****   SystemClock_Config();
 868              		.loc 1 70 3 view .LVU272
 869 0096 FFF7FEFF 		bl	HAL_Init
 870              	.LVL30:
  71:../../CM4/Core/Src/main.c ****   SCB->VTOR = 0x08100000;
 871              		.loc 1 71 3 view .LVU273
 872 009a FFF7FEFF 		bl	SystemClock_Config
 873              	.LVL31:
  72:../../CM4/Core/Src/main.c ****   MX_GPIO_Init();
 874              		.loc 1 72 3 view .LVU274
  72:../../CM4/Core/Src/main.c ****   MX_GPIO_Init();
 875              		.loc 1 72 13 is_stmt 0 view .LVU275
 876 009e 954B     		ldr	r3, .L104+12
 877 00a0 4FF00162 		mov	r2, #135266304
 878 00a4 9A60     		str	r2, [r3, #8]
  73:../../CM4/Core/Src/main.c ****   MX_TIM2_Init();
 879              		.loc 1 73 3 is_stmt 1 view .LVU276
 880 00a6 FFF7FEFF 		bl	MX_GPIO_Init
 881              	.LVL32:
  74:../../CM4/Core/Src/main.c ****   MX_UART4_Init();
 882              		.loc 1 74 3 view .LVU277
 883 00aa FFF7FEFF 		bl	MX_TIM2_Init
 884              	.LVL33:
  75:../../CM4/Core/Src/main.c ****   /* Abilitazione del clock per gli Hardware Semaphores */
 885              		.loc 1 75 3 view .LVU278
 886 00ae FFF7FEFF 		bl	MX_UART4_Init
 887              	.LVL34:
  77:../../CM4/Core/Src/main.c **** 
 888              		.loc 1 77 3 view .LVU279
 889              	.LBB39:
  77:../../CM4/Core/Src/main.c **** 
 890              		.loc 1 77 3 view .LVU280
  77:../../CM4/Core/Src/main.c **** 
 891              		.loc 1 77 3 view .LVU281
 892 00b2 8D4C     		ldr	r4, .L104
 893 00b4 D4F8E030 		ldr	r3, [r4, #224]
 894 00b8 43F00073 		orr	r3, r3, #33554432
 895 00bc C4F8E030 		str	r3, [r4, #224]
  77:../../CM4/Core/Src/main.c **** 
ARM GAS  C:\Users\minis\AppData\Local\Temp\ccyLswLP.s 			page 32


 896              		.loc 1 77 3 view .LVU282
 897 00c0 D4F8E030 		ldr	r3, [r4, #224]
 898 00c4 03F00073 		and	r3, r3, #33554432
 899 00c8 0393     		str	r3, [sp, #12]
  77:../../CM4/Core/Src/main.c **** 
 900              		.loc 1 77 3 view .LVU283
 901 00ca 039B     		ldr	r3, [sp, #12]
 902              	.LBE39:
  77:../../CM4/Core/Src/main.c **** 
 903              		.loc 1 77 3 view .LVU284
  80:../../CM4/Core/Src/main.c ****   uint32_t apb1pre =
 904              		.loc 1 80 3 view .LVU285
  80:../../CM4/Core/Src/main.c ****   uint32_t apb1pre =
 905              		.loc 1 80 20 is_stmt 0 view .LVU286
 906 00cc FFF7FEFF 		bl	HAL_RCC_GetPCLK1Freq
 907              	.LVL35:
  81:../../CM4/Core/Src/main.c ****       (RCC->D2CFGR & RCC_D2CFGR_D2PPRE1_Msk) >> RCC_D2CFGR_D2PPRE1_Pos;
 908              		.loc 1 81 3 is_stmt 1 view .LVU287
  82:../../CM4/Core/Src/main.c ****   uint32_t tim2clk = (apb1pre >= 0x04U) ? (pclk1 * 2U) : pclk1;
 909              		.loc 1 82 11 is_stmt 0 view .LVU288
 910 00d0 E369     		ldr	r3, [r4, #28]
 911              	.LVL36:
  83:../../CM4/Core/Src/main.c ****   uint32_t psc = (tim2clk / TIMER_TARGET_HZ);
 912              		.loc 1 83 3 is_stmt 1 view .LVU289
  83:../../CM4/Core/Src/main.c ****   uint32_t psc = (tim2clk / TIMER_TARGET_HZ);
 913              		.loc 1 83 56 is_stmt 0 view .LVU290
 914 00d2 13F0400F 		tst	r3, #64
 915 00d6 00D0     		beq	.L54
  83:../../CM4/Core/Src/main.c ****   uint32_t psc = (tim2clk / TIMER_TARGET_HZ);
 916              		.loc 1 83 56 discriminator 1 view .LVU291
 917 00d8 4000     		lsls	r0, r0, #1
 918              	.LVL37:
 919              	.L54:
  84:../../CM4/Core/Src/main.c ****   if (psc > 0U) {
 920              		.loc 1 84 3 is_stmt 1 view .LVU292
  84:../../CM4/Core/Src/main.c ****   if (psc > 0U) {
 921              		.loc 1 84 12 is_stmt 0 view .LVU293
 922 00da 874B     		ldr	r3, .L104+16
 923              	.LVL38:
  84:../../CM4/Core/Src/main.c ****   if (psc > 0U) {
 924              		.loc 1 84 12 view .LVU294
 925 00dc A3FB0023 		umull	r2, r3, r3, r0
 926 00e0 9B0C     		lsrs	r3, r3, #18
 927              	.LVL39:
  85:../../CM4/Core/Src/main.c ****     psc -= 1U;
 928              		.loc 1 85 3 is_stmt 1 view .LVU295
  85:../../CM4/Core/Src/main.c ****     psc -= 1U;
 929              		.loc 1 85 6 is_stmt 0 view .LVU296
 930 00e2 864A     		ldr	r2, .L104+20
 931 00e4 9042     		cmp	r0, r2
 932 00e6 00D9     		bls	.L55
  86:../../CM4/Core/Src/main.c ****   }
 933              		.loc 1 86 5 is_stmt 1 view .LVU297
  86:../../CM4/Core/Src/main.c ****   }
 934              		.loc 1 86 9 is_stmt 0 view .LVU298
 935 00e8 013B     		subs	r3, r3, #1
 936              	.LVL40:
ARM GAS  C:\Users\minis\AppData\Local\Temp\ccyLswLP.s 			page 33


 937              	.L55:
  88:../../CM4/Core/Src/main.c ****   __HAL_TIM_SET_COUNTER(&htim2, 0);
 938              		.loc 1 88 3 is_stmt 1 view .LVU299
 939 00ea 854D     		ldr	r5, .L104+24
 940 00ec 2A68     		ldr	r2, [r5]
 941 00ee 9362     		str	r3, [r2, #40]
  89:../../CM4/Core/Src/main.c ****   HAL_TIM_GenerateEvent(&htim2, TIM_EVENTSOURCE_UPDATE);
 942              		.loc 1 89 3 view .LVU300
 943 00f0 0024     		movs	r4, #0
 944 00f2 5462     		str	r4, [r2, #36]
  90:../../CM4/Core/Src/main.c ****   HAL_TIM_Base_Start(&htim2);
 945              		.loc 1 90 3 view .LVU301
 946 00f4 0121     		movs	r1, #1
 947 00f6 2846     		mov	r0, r5
 948              	.LVL41:
  90:../../CM4/Core/Src/main.c ****   HAL_TIM_Base_Start(&htim2);
 949              		.loc 1 90 3 is_stmt 0 view .LVU302
 950 00f8 FFF7FEFF 		bl	HAL_TIM_GenerateEvent
 951              	.LVL42:
  91:../../CM4/Core/Src/main.c **** 
 952              		.loc 1 91 3 is_stmt 1 view .LVU303
 953 00fc 2846     		mov	r0, r5
 954 00fe FFF7FEFF 		bl	HAL_TIM_Base_Start
 955              	.LVL43:
  94:../../CM4/Core/Src/main.c ****     LED_GREEN_ON();
 956              		.loc 1 94 3 view .LVU304
 957              	.LBB40:
  94:../../CM4/Core/Src/main.c ****     LED_GREEN_ON();
 958              		.loc 1 94 8 view .LVU305
  94:../../CM4/Core/Src/main.c ****     LED_GREEN_ON();
 959              		.loc 1 94 3 is_stmt 0 view .LVU306
 960 0102 0CE0     		b	.L56
 961              	.LVL44:
 962              	.L57:
  95:../../CM4/Core/Src/main.c ****     HAL_Delay(200U);
 963              		.loc 1 95 5 is_stmt 1 view .LVU307
 964 0104 794D     		ldr	r5, .L104+4
 965 0106 0123     		movs	r3, #1
 966 0108 AB61     		str	r3, [r5, #24]
  96:../../CM4/Core/Src/main.c ****     LED_GREEN_OFF();
 967              		.loc 1 96 5 view .LVU308
 968 010a C820     		movs	r0, #200
 969 010c FFF7FEFF 		bl	HAL_Delay
 970              	.LVL45:
  97:../../CM4/Core/Src/main.c ****     HAL_Delay(200U);
 971              		.loc 1 97 5 view .LVU309
 972 0110 4FF48033 		mov	r3, #65536
 973 0114 AB61     		str	r3, [r5, #24]
  98:../../CM4/Core/Src/main.c ****   }
 974              		.loc 1 98 5 view .LVU310
 975 0116 C820     		movs	r0, #200
 976 0118 FFF7FEFF 		bl	HAL_Delay
 977              	.LVL46:
  94:../../CM4/Core/Src/main.c ****     LED_GREEN_ON();
 978              		.loc 1 94 27 discriminator 3 view .LVU311
 979 011c 0134     		adds	r4, r4, #1
 980              	.LVL47:
ARM GAS  C:\Users\minis\AppData\Local\Temp\ccyLswLP.s 			page 34


 981              	.L56:
  94:../../CM4/Core/Src/main.c ****     LED_GREEN_ON();
 982              		.loc 1 94 21 discriminator 1 view .LVU312
 983 011e 012C     		cmp	r4, #1
 984 0120 F0DD     		ble	.L57
 985              	.LBE40:
 100:../../CM4/Core/Src/main.c **** 
 986              		.loc 1 100 3 view .LVU313
 987 0122 4FF4FA70 		mov	r0, #500
 988 0126 FFF7FEFF 		bl	HAL_Delay
 989              	.LVL48:
 109:../../CM4/Core/Src/main.c ****   HAL_Delay(1000U);
 990              		.loc 1 109 3 view .LVU314
 991 012a 704C     		ldr	r4, .L104+4
 992              	.LVL49:
 109:../../CM4/Core/Src/main.c ****   HAL_Delay(1000U);
 993              		.loc 1 109 3 is_stmt 0 view .LVU315
 994 012c 4FF48043 		mov	r3, #16384
 995 0130 A361     		str	r3, [r4, #24]
 110:../../CM4/Core/Src/main.c ****   LED_RED_OFF();
 996              		.loc 1 110 3 is_stmt 1 view .LVU316
 997 0132 4FF47A70 		mov	r0, #1000
 998 0136 FFF7FEFF 		bl	HAL_Delay
 999              	.LVL50:
 111:../../CM4/Core/Src/main.c ****   HAL_Delay(500U);
 1000              		.loc 1 111 3 view .LVU317
 1001 013a 4FF08043 		mov	r3, #1073741824
 1002 013e A361     		str	r3, [r4, #24]
 112:../../CM4/Core/Src/main.c **** 
 1003              		.loc 1 112 3 view .LVU318
 1004 0140 4FF4FA70 		mov	r0, #500
 1005 0144 FFF7FEFF 		bl	HAL_Delay
 1006              	.LVL51:
 114:../../CM4/Core/Src/main.c ****   while (HAL_GetTick() - phase1_start < 5000U) {
 1007              		.loc 1 114 3 view .LVU319
 114:../../CM4/Core/Src/main.c ****   while (HAL_GetTick() - phase1_start < 5000U) {
 1008              		.loc 1 114 27 is_stmt 0 view .LVU320
 1009 0148 FFF7FEFF 		bl	HAL_GetTick
 1010              	.LVL52:
 1011 014c 0646     		mov	r6, r0
 1012              	.LVL53:
 115:../../CM4/Core/Src/main.c ****     HAL_GPIO_WritePin(GPIOD, GPIO_PIN_1, GPIO_PIN_SET);
 1013              		.loc 1 115 3 is_stmt 1 view .LVU321
 115:../../CM4/Core/Src/main.c ****     HAL_GPIO_WritePin(GPIOD, GPIO_PIN_1, GPIO_PIN_SET);
 1014              		.loc 1 115 9 is_stmt 0 view .LVU322
 1015 014e 18E0     		b	.L58
 1016              	.LVL54:
 1017              	.L59:
 116:../../CM4/Core/Src/main.c ****     LED_GREEN_ON();
 1018              		.loc 1 116 5 is_stmt 1 view .LVU323
 1019 0150 6C4D     		ldr	r5, .L104+28
 1020 0152 0122     		movs	r2, #1
 1021 0154 0221     		movs	r1, #2
 1022 0156 2846     		mov	r0, r5
 1023 0158 FFF7FEFF 		bl	HAL_GPIO_WritePin
 1024              	.LVL55:
 117:../../CM4/Core/Src/main.c ****     HAL_Delay(500U);
ARM GAS  C:\Users\minis\AppData\Local\Temp\ccyLswLP.s 			page 35


 1025              		.loc 1 117 5 view .LVU324
 1026 015c 634C     		ldr	r4, .L104+4
 1027 015e 0123     		movs	r3, #1
 1028 0160 A361     		str	r3, [r4, #24]
 118:../../CM4/Core/Src/main.c ****     HAL_GPIO_WritePin(GPIOD, GPIO_PIN_1, GPIO_PIN_RESET);
 1029              		.loc 1 118 5 view .LVU325
 1030 0162 4FF4FA70 		mov	r0, #500
 1031 0166 FFF7FEFF 		bl	HAL_Delay
 1032              	.LVL56:
 119:../../CM4/Core/Src/main.c ****     LED_GREEN_OFF();
 1033              		.loc 1 119 5 view .LVU326
 1034 016a 0022     		movs	r2, #0
 1035 016c 0221     		movs	r1, #2
 1036 016e 2846     		mov	r0, r5
 1037 0170 FFF7FEFF 		bl	HAL_GPIO_WritePin
 1038              	.LVL57:
 120:../../CM4/Core/Src/main.c ****     HAL_Delay(500U);
 1039              		.loc 1 120 5 view .LVU327
 1040 0174 4FF48033 		mov	r3, #65536
 1041 0178 A361     		str	r3, [r4, #24]
 121:../../CM4/Core/Src/main.c ****   }
 1042              		.loc 1 121 5 view .LVU328
 1043 017a 4FF4FA70 		mov	r0, #500
 1044 017e FFF7FEFF 		bl	HAL_Delay
 1045              	.LVL58:
 1046              	.L58:
 115:../../CM4/Core/Src/main.c ****     HAL_GPIO_WritePin(GPIOD, GPIO_PIN_1, GPIO_PIN_SET);
 1047              		.loc 1 115 39 view .LVU329
 115:../../CM4/Core/Src/main.c ****     HAL_GPIO_WritePin(GPIOD, GPIO_PIN_1, GPIO_PIN_SET);
 1048              		.loc 1 115 10 is_stmt 0 view .LVU330
 1049 0182 FFF7FEFF 		bl	HAL_GetTick
 1050              	.LVL59:
 115:../../CM4/Core/Src/main.c ****     HAL_GPIO_WritePin(GPIOD, GPIO_PIN_1, GPIO_PIN_SET);
 1051              		.loc 1 115 24 discriminator 1 view .LVU331
 1052 0186 801B     		subs	r0, r0, r6
 115:../../CM4/Core/Src/main.c ****     HAL_GPIO_WritePin(GPIOD, GPIO_PIN_1, GPIO_PIN_SET);
 1053              		.loc 1 115 39 discriminator 1 view .LVU332
 1054 0188 41F28733 		movw	r3, #4999
 1055 018c 9842     		cmp	r0, r3
 1056 018e DFD9     		bls	.L59
 123:../../CM4/Core/Src/main.c **** 
 1057              		.loc 1 123 3 is_stmt 1 view .LVU333
 1058 0190 4FF47A70 		mov	r0, #1000
 1059 0194 FFF7FEFF 		bl	HAL_Delay
 1060              	.LVL60:
 132:../../CM4/Core/Src/main.c ****     LED_RED_ON();
 1061              		.loc 1 132 3 view .LVU334
 1062              	.LBB41:
 132:../../CM4/Core/Src/main.c ****     LED_RED_ON();
 1063              		.loc 1 132 8 view .LVU335
 132:../../CM4/Core/Src/main.c ****     LED_RED_ON();
 1064              		.loc 1 132 12 is_stmt 0 view .LVU336
 1065 0198 0024     		movs	r4, #0
 132:../../CM4/Core/Src/main.c ****     LED_RED_ON();
 1066              		.loc 1 132 3 view .LVU337
 1067 019a 0FE0     		b	.L60
 1068              	.LVL61:
ARM GAS  C:\Users\minis\AppData\Local\Temp\ccyLswLP.s 			page 36


 1069              	.L61:
 133:../../CM4/Core/Src/main.c ****     HAL_Delay(500U);
 1070              		.loc 1 133 5 is_stmt 1 view .LVU338
 1071 019c 534D     		ldr	r5, .L104+4
 1072 019e 4FF48043 		mov	r3, #16384
 1073 01a2 AB61     		str	r3, [r5, #24]
 134:../../CM4/Core/Src/main.c ****     LED_RED_OFF();
 1074              		.loc 1 134 5 view .LVU339
 1075 01a4 4FF4FA70 		mov	r0, #500
 1076 01a8 FFF7FEFF 		bl	HAL_Delay
 1077              	.LVL62:
 135:../../CM4/Core/Src/main.c ****     HAL_Delay(500U);
 1078              		.loc 1 135 5 view .LVU340
 1079 01ac 4FF08043 		mov	r3, #1073741824
 1080 01b0 AB61     		str	r3, [r5, #24]
 136:../../CM4/Core/Src/main.c ****   }
 1081              		.loc 1 136 5 view .LVU341
 1082 01b2 4FF4FA70 		mov	r0, #500
 1083 01b6 FFF7FEFF 		bl	HAL_Delay
 1084              	.LVL63:
 132:../../CM4/Core/Src/main.c ****     LED_RED_ON();
 1085              		.loc 1 132 27 discriminator 3 view .LVU342
 1086 01ba 0134     		adds	r4, r4, #1
 1087              	.LVL64:
 1088              	.L60:
 132:../../CM4/Core/Src/main.c ****     LED_RED_ON();
 1089              		.loc 1 132 21 discriminator 1 view .LVU343
 1090 01bc 012C     		cmp	r4, #1
 1091 01be EDDD     		ble	.L61
 1092              	.LBE41:
 138:../../CM4/Core/Src/main.c **** 
 1093              		.loc 1 138 3 view .LVU344
 1094 01c0 4FF4FA70 		mov	r0, #500
 1095 01c4 FFF7FEFF 		bl	HAL_Delay
 1096              	.LVL65:
 140:../../CM4/Core/Src/main.c ****   while (HAL_GetTick() - phase2_start < 5000U) {
 1097              		.loc 1 140 3 view .LVU345
 140:../../CM4/Core/Src/main.c ****   while (HAL_GetTick() - phase2_start < 5000U) {
 1098              		.loc 1 140 27 is_stmt 0 view .LVU346
 1099 01c8 FFF7FEFF 		bl	HAL_GetTick
 1100              	.LVL66:
 1101 01cc 0446     		mov	r4, r0
 1102              	.LVL67:
 141:../../CM4/Core/Src/main.c ****     if (HAL_GPIO_ReadPin(GPIOD, GPIO_PIN_0) == GPIO_PIN_SET) {
 1103              		.loc 1 141 3 is_stmt 1 view .LVU347
 141:../../CM4/Core/Src/main.c ****     if (HAL_GPIO_ReadPin(GPIOD, GPIO_PIN_0) == GPIO_PIN_SET) {
 1104              		.loc 1 141 9 is_stmt 0 view .LVU348
 1105 01ce 08E0     		b	.L62
 1106              	.LVL68:
 1107              	.L100:
 143:../../CM4/Core/Src/main.c ****       LED_RED_OFF();
 1108              		.loc 1 143 7 is_stmt 1 view .LVU349
 1109 01d0 464B     		ldr	r3, .L104+4
 1110 01d2 0122     		movs	r2, #1
 1111 01d4 9A61     		str	r2, [r3, #24]
 144:../../CM4/Core/Src/main.c ****     } else {
 1112              		.loc 1 144 7 view .LVU350
ARM GAS  C:\Users\minis\AppData\Local\Temp\ccyLswLP.s 			page 37


 1113 01d6 4FF08042 		mov	r2, #1073741824
 1114 01da 9A61     		str	r2, [r3, #24]
 1115              	.L64:
 149:../../CM4/Core/Src/main.c ****   }
 1116              		.loc 1 149 5 view .LVU351
 1117 01dc 3220     		movs	r0, #50
 1118 01de FFF7FEFF 		bl	HAL_Delay
 1119              	.LVL69:
 1120              	.L62:
 141:../../CM4/Core/Src/main.c ****     if (HAL_GPIO_ReadPin(GPIOD, GPIO_PIN_0) == GPIO_PIN_SET) {
 1121              		.loc 1 141 39 view .LVU352
 141:../../CM4/Core/Src/main.c ****     if (HAL_GPIO_ReadPin(GPIOD, GPIO_PIN_0) == GPIO_PIN_SET) {
 1122              		.loc 1 141 10 is_stmt 0 view .LVU353
 1123 01e2 FFF7FEFF 		bl	HAL_GetTick
 1124              	.LVL70:
 141:../../CM4/Core/Src/main.c ****     if (HAL_GPIO_ReadPin(GPIOD, GPIO_PIN_0) == GPIO_PIN_SET) {
 1125              		.loc 1 141 24 discriminator 1 view .LVU354
 1126 01e6 001B     		subs	r0, r0, r4
 141:../../CM4/Core/Src/main.c ****     if (HAL_GPIO_ReadPin(GPIOD, GPIO_PIN_0) == GPIO_PIN_SET) {
 1127              		.loc 1 141 39 discriminator 1 view .LVU355
 1128 01e8 41F28733 		movw	r3, #4999
 1129 01ec 9842     		cmp	r0, r3
 1130 01ee 0DD8     		bhi	.L99
 142:../../CM4/Core/Src/main.c ****       LED_GREEN_ON();
 1131              		.loc 1 142 5 is_stmt 1 view .LVU356
 142:../../CM4/Core/Src/main.c ****       LED_GREEN_ON();
 1132              		.loc 1 142 9 is_stmt 0 view .LVU357
 1133 01f0 0121     		movs	r1, #1
 1134 01f2 4448     		ldr	r0, .L104+28
 1135 01f4 FFF7FEFF 		bl	HAL_GPIO_ReadPin
 1136              	.LVL71:
 142:../../CM4/Core/Src/main.c ****       LED_GREEN_ON();
 1137              		.loc 1 142 8 discriminator 1 view .LVU358
 1138 01f8 0128     		cmp	r0, #1
 1139 01fa E9D0     		beq	.L100
 146:../../CM4/Core/Src/main.c ****       LED_RED_ON();
 1140              		.loc 1 146 7 is_stmt 1 view .LVU359
 1141 01fc 3B4B     		ldr	r3, .L104+4
 1142 01fe 4FF48032 		mov	r2, #65536
 1143 0202 9A61     		str	r2, [r3, #24]
 147:../../CM4/Core/Src/main.c ****     }
 1144              		.loc 1 147 7 view .LVU360
 1145 0204 4FF48042 		mov	r2, #16384
 1146 0208 9A61     		str	r2, [r3, #24]
 1147 020a E7E7     		b	.L64
 1148              	.L99:
 151:../../CM4/Core/Src/main.c ****   HAL_Delay(5000U);
 1149              		.loc 1 151 3 view .LVU361
 151:../../CM4/Core/Src/main.c ****   HAL_Delay(5000U);
 1150              		.loc 1 151 3 view .LVU362
 1151 020c 374B     		ldr	r3, .L104+4
 1152 020e 4FF48032 		mov	r2, #65536
 1153 0212 9A61     		str	r2, [r3, #24]
 151:../../CM4/Core/Src/main.c ****   HAL_Delay(5000U);
 1154              		.loc 1 151 3 view .LVU363
 1155 0214 4FF08042 		mov	r2, #1073741824
 1156 0218 9A61     		str	r2, [r3, #24]
ARM GAS  C:\Users\minis\AppData\Local\Temp\ccyLswLP.s 			page 38


 151:../../CM4/Core/Src/main.c ****   HAL_Delay(5000U);
 1157              		.loc 1 151 3 view .LVU364
 152:../../CM4/Core/Src/main.c **** 
 1158              		.loc 1 152 3 view .LVU365
 1159 021a 41F28830 		movw	r0, #5000
 1160 021e FFF7FEFF 		bl	HAL_Delay
 1161              	.LVL72:
 161:../../CM4/Core/Src/main.c ****     LED_RED_ON();
 1162              		.loc 1 161 3 view .LVU366
 1163              	.LBB42:
 161:../../CM4/Core/Src/main.c ****     LED_RED_ON();
 1164              		.loc 1 161 8 view .LVU367
 161:../../CM4/Core/Src/main.c ****     LED_RED_ON();
 1165              		.loc 1 161 12 is_stmt 0 view .LVU368
 1166 0222 0024     		movs	r4, #0
 1167              	.LVL73:
 1168              	.L66:
 161:../../CM4/Core/Src/main.c ****     LED_RED_ON();
 1169              		.loc 1 161 21 is_stmt 1 discriminator 1 view .LVU369
 1170 0224 022C     		cmp	r4, #2
 1171 0226 10DC     		bgt	.L101
 162:../../CM4/Core/Src/main.c ****     HAL_Delay(500U);
 1172              		.loc 1 162 5 view .LVU370
 1173 0228 304D     		ldr	r5, .L104+4
 1174 022a 4FF48043 		mov	r3, #16384
 1175 022e AB61     		str	r3, [r5, #24]
 163:../../CM4/Core/Src/main.c ****     LED_RED_OFF();
 1176              		.loc 1 163 5 view .LVU371
 1177 0230 4FF4FA70 		mov	r0, #500
 1178 0234 FFF7FEFF 		bl	HAL_Delay
 1179              	.LVL74:
 164:../../CM4/Core/Src/main.c ****     HAL_Delay(500U);
 1180              		.loc 1 164 5 view .LVU372
 1181 0238 4FF08043 		mov	r3, #1073741824
 1182 023c AB61     		str	r3, [r5, #24]
 165:../../CM4/Core/Src/main.c ****   }
 1183              		.loc 1 165 5 view .LVU373
 1184 023e 4FF4FA70 		mov	r0, #500
 1185 0242 FFF7FEFF 		bl	HAL_Delay
 1186              	.LVL75:
 161:../../CM4/Core/Src/main.c ****     LED_RED_ON();
 1187              		.loc 1 161 27 discriminator 3 view .LVU374
 1188 0246 0134     		adds	r4, r4, #1
 1189              	.LVL76:
 161:../../CM4/Core/Src/main.c ****     LED_RED_ON();
 1190              		.loc 1 161 27 is_stmt 0 discriminator 3 view .LVU375
 1191 0248 ECE7     		b	.L66
 1192              	.LVL77:
 1193              	.L101:
 161:../../CM4/Core/Src/main.c ****     LED_RED_ON();
 1194              		.loc 1 161 27 discriminator 3 view .LVU376
 1195              	.LBE42:
 167:../../CM4/Core/Src/main.c **** 
 1196              		.loc 1 167 3 is_stmt 1 view .LVU377
 1197 024a 4FF4FA70 		mov	r0, #500
 1198 024e FFF7FEFF 		bl	HAL_Delay
 1199              	.LVL78:
ARM GAS  C:\Users\minis\AppData\Local\Temp\ccyLswLP.s 			page 39


 169:../../CM4/Core/Src/main.c ****   uint32_t echo_time = 0U;
 1200              		.loc 1 169 3 view .LVU378
 170:../../CM4/Core/Src/main.c **** 
 1201              		.loc 1 170 3 view .LVU379
 172:../../CM4/Core/Src/main.c ****     /* Trigger */
 1202              		.loc 1 172 3 view .LVU380
 1203              	.LBB43:
 172:../../CM4/Core/Src/main.c ****     /* Trigger */
 1204              		.loc 1 172 8 view .LVU381
 172:../../CM4/Core/Src/main.c ****     /* Trigger */
 1205              		.loc 1 172 12 is_stmt 0 view .LVU382
 1206 0252 0024     		movs	r4, #0
 1207              	.LVL79:
 172:../../CM4/Core/Src/main.c ****     /* Trigger */
 1208              		.loc 1 172 12 view .LVU383
 1209              	.LBE43:
 170:../../CM4/Core/Src/main.c **** 
 1210              		.loc 1 170 12 view .LVU384
 1211 0254 2646     		mov	r6, r4
 1212              	.LVL80:
 169:../../CM4/Core/Src/main.c ****   uint32_t echo_time = 0U;
 1213              		.loc 1 169 11 view .LVU385
 1214 0256 2546     		mov	r5, r4
 1215              	.LBB48:
 172:../../CM4/Core/Src/main.c ****     /* Trigger */
 1216              		.loc 1 172 3 view .LVU386
 1217 0258 15E0     		b	.L68
 1218              	.LVL81:
 1219              	.L72:
 1220              	.LBB44:
 195:../../CM4/Core/Src/main.c ****       uint32_t echo_start = __HAL_TIM_GET_COUNTER(&htim2);
 1221              		.loc 1 195 5 is_stmt 1 view .LVU387
 195:../../CM4/Core/Src/main.c ****       uint32_t echo_start = __HAL_TIM_GET_COUNTER(&htim2);
 1222              		.loc 1 195 9 is_stmt 0 view .LVU388
 1223 025a 0121     		movs	r1, #1
 1224 025c 2948     		ldr	r0, .L104+28
 1225 025e FFF7FEFF 		bl	HAL_GPIO_ReadPin
 1226              	.LVL82:
 1227 0262 0746     		mov	r7, r0
 1228              	.LVL83:
 195:../../CM4/Core/Src/main.c ****       uint32_t echo_start = __HAL_TIM_GET_COUNTER(&htim2);
 1229              		.loc 1 195 8 discriminator 1 view .LVU389
 1230 0264 0128     		cmp	r0, #1
 1231 0266 4FD0     		beq	.L74
 208:../../CM4/Core/Src/main.c ****       /* GREEN blink = echo received this attempt */
 1232              		.loc 1 208 5 is_stmt 1 view .LVU390
 215:../../CM4/Core/Src/main.c ****       HAL_Delay(300U);
 1233              		.loc 1 215 7 view .LVU391
 1234 0268 204F     		ldr	r7, .L104+4
 1235 026a 4FF48043 		mov	r3, #16384
 1236 026e BB61     		str	r3, [r7, #24]
 216:../../CM4/Core/Src/main.c ****       LED_RED_OFF();
 1237              		.loc 1 216 7 view .LVU392
 1238 0270 4FF49670 		mov	r0, #300
 1239 0274 FFF7FEFF 		bl	HAL_Delay
 1240              	.LVL84:
 217:../../CM4/Core/Src/main.c ****     }
ARM GAS  C:\Users\minis\AppData\Local\Temp\ccyLswLP.s 			page 40


 1241              		.loc 1 217 7 view .LVU393
 1242 0278 4FF08043 		mov	r3, #1073741824
 1243 027c BB61     		str	r3, [r7, #24]
 1244              	.LVL85:
 1245              	.L75:
 219:../../CM4/Core/Src/main.c ****   }
 1246              		.loc 1 219 5 view .LVU394
 1247 027e C820     		movs	r0, #200
 1248 0280 FFF7FEFF 		bl	HAL_Delay
 1249              	.LVL86:
 1250              	.LBE44:
 172:../../CM4/Core/Src/main.c ****     /* Trigger */
 1251              		.loc 1 172 46 discriminator 2 view .LVU395
 1252 0284 0134     		adds	r4, r4, #1
 1253              	.LVL87:
 1254              	.L68:
 172:../../CM4/Core/Src/main.c ****     /* Trigger */
 1255              		.loc 1 172 33 discriminator 1 view .LVU396
 1256 0286 092C     		cmp	r4, #9
 1257 0288 5FDC     		bgt	.L102
 1258              	.LBB47:
 174:../../CM4/Core/Src/main.c ****     __HAL_TIM_SET_COUNTER(&htim2, 0);
 1259              		.loc 1 174 5 view .LVU397
 1260 028a 0022     		movs	r2, #0
 1261 028c 0221     		movs	r1, #2
 1262 028e 1D48     		ldr	r0, .L104+28
 1263 0290 FFF7FEFF 		bl	HAL_GPIO_WritePin
 1264              	.LVL88:
 175:../../CM4/Core/Src/main.c ****     while (__HAL_TIM_GET_COUNTER(&htim2) < TRIG_RESET_TIME_US)
 1265              		.loc 1 175 5 view .LVU398
 1266 0294 1A4B     		ldr	r3, .L104+24
 1267 0296 1A68     		ldr	r2, [r3]
 1268 0298 0023     		movs	r3, #0
 1269 029a 5362     		str	r3, [r2, #36]
 176:../../CM4/Core/Src/main.c ****       ;
 1270              		.loc 1 176 5 view .LVU399
 1271              	.L69:
 176:../../CM4/Core/Src/main.c ****       ;
 1272              		.loc 1 176 42 discriminator 1 view .LVU400
 176:../../CM4/Core/Src/main.c ****       ;
 1273              		.loc 1 176 12 is_stmt 0 discriminator 1 view .LVU401
 1274 029c 536A     		ldr	r3, [r2, #36]
 176:../../CM4/Core/Src/main.c ****       ;
 1275              		.loc 1 176 42 discriminator 1 view .LVU402
 1276 029e 012B     		cmp	r3, #1
 1277 02a0 FCD9     		bls	.L69
 179:../../CM4/Core/Src/main.c ****     __HAL_TIM_SET_COUNTER(&htim2, 0);
 1278              		.loc 1 179 5 is_stmt 1 view .LVU403
 1279 02a2 0122     		movs	r2, #1
 1280 02a4 0221     		movs	r1, #2
 1281 02a6 1748     		ldr	r0, .L104+28
 1282 02a8 FFF7FEFF 		bl	HAL_GPIO_WritePin
 1283              	.LVL89:
 180:../../CM4/Core/Src/main.c ****     while (__HAL_TIM_GET_COUNTER(&htim2) < TRIG_PULSE_TIME_US)
 1284              		.loc 1 180 5 view .LVU404
 1285 02ac 144B     		ldr	r3, .L104+24
 1286 02ae 1A68     		ldr	r2, [r3]
ARM GAS  C:\Users\minis\AppData\Local\Temp\ccyLswLP.s 			page 41


 1287 02b0 0023     		movs	r3, #0
 1288 02b2 5362     		str	r3, [r2, #36]
 181:../../CM4/Core/Src/main.c ****       ;
 1289              		.loc 1 181 5 view .LVU405
 1290              	.L70:
 181:../../CM4/Core/Src/main.c ****       ;
 1291              		.loc 1 181 42 discriminator 1 view .LVU406
 181:../../CM4/Core/Src/main.c ****       ;
 1292              		.loc 1 181 12 is_stmt 0 discriminator 1 view .LVU407
 1293 02b4 536A     		ldr	r3, [r2, #36]
 181:../../CM4/Core/Src/main.c ****       ;
 1294              		.loc 1 181 42 discriminator 1 view .LVU408
 1295 02b6 092B     		cmp	r3, #9
 1296 02b8 FCD9     		bls	.L70
 183:../../CM4/Core/Src/main.c **** 
 1297              		.loc 1 183 5 is_stmt 1 view .LVU409
 1298 02ba 0022     		movs	r2, #0
 1299 02bc 0221     		movs	r1, #2
 1300 02be 1148     		ldr	r0, .L104+28
 1301 02c0 FFF7FEFF 		bl	HAL_GPIO_WritePin
 1302              	.LVL90:
 186:../../CM4/Core/Src/main.c ****     uint32_t wait_start = __HAL_TIM_GET_COUNTER(&htim2);
 1303              		.loc 1 186 5 view .LVU410
 187:../../CM4/Core/Src/main.c ****     while (HAL_GPIO_ReadPin(GPIOD, GPIO_PIN_0) == GPIO_PIN_RESET) {
 1304              		.loc 1 187 5 view .LVU411
 187:../../CM4/Core/Src/main.c ****     while (HAL_GPIO_ReadPin(GPIOD, GPIO_PIN_0) == GPIO_PIN_RESET) {
 1305              		.loc 1 187 27 is_stmt 0 view .LVU412
 1306 02c4 0E4B     		ldr	r3, .L104+24
 1307 02c6 1B68     		ldr	r3, [r3]
 187:../../CM4/Core/Src/main.c ****     while (HAL_GPIO_ReadPin(GPIOD, GPIO_PIN_0) == GPIO_PIN_RESET) {
 1308              		.loc 1 187 14 view .LVU413
 1309 02c8 5F6A     		ldr	r7, [r3, #36]
 1310              	.LVL91:
 188:../../CM4/Core/Src/main.c ****       if ((uint32_t)(__HAL_TIM_GET_COUNTER(&htim2) - wait_start) >
 1311              		.loc 1 188 5 is_stmt 1 view .LVU414
 1312              	.L71:
 188:../../CM4/Core/Src/main.c ****       if ((uint32_t)(__HAL_TIM_GET_COUNTER(&htim2) - wait_start) >
 1313              		.loc 1 188 48 view .LVU415
 188:../../CM4/Core/Src/main.c ****       if ((uint32_t)(__HAL_TIM_GET_COUNTER(&htim2) - wait_start) >
 1314              		.loc 1 188 12 is_stmt 0 view .LVU416
 1315 02ca 0121     		movs	r1, #1
 1316 02cc 0D48     		ldr	r0, .L104+28
 1317 02ce FFF7FEFF 		bl	HAL_GPIO_ReadPin
 1318              	.LVL92:
 188:../../CM4/Core/Src/main.c ****       if ((uint32_t)(__HAL_TIM_GET_COUNTER(&htim2) - wait_start) >
 1319              		.loc 1 188 48 discriminator 1 view .LVU417
 1320 02d2 0028     		cmp	r0, #0
 1321 02d4 C1D1     		bne	.L72
 189:../../CM4/Core/Src/main.c ****           ECHO_WAIT_TIMEOUT_US) {
 1322              		.loc 1 189 7 is_stmt 1 view .LVU418
 189:../../CM4/Core/Src/main.c ****           ECHO_WAIT_TIMEOUT_US) {
 1323              		.loc 1 189 22 is_stmt 0 view .LVU419
 1324 02d6 0A4B     		ldr	r3, .L104+24
 1325 02d8 1B68     		ldr	r3, [r3]
 1326 02da 5B6A     		ldr	r3, [r3, #36]
 189:../../CM4/Core/Src/main.c ****           ECHO_WAIT_TIMEOUT_US) {
 1327              		.loc 1 189 52 view .LVU420
ARM GAS  C:\Users\minis\AppData\Local\Temp\ccyLswLP.s 			page 42


 1328 02dc DB1B     		subs	r3, r3, r7
 189:../../CM4/Core/Src/main.c ****           ECHO_WAIT_TIMEOUT_US) {
 1329              		.loc 1 189 10 view .LVU421
 1330 02de 47F23052 		movw	r2, #30000
 1331 02e2 9342     		cmp	r3, r2
 1332 02e4 F1D9     		bls	.L71
 1333 02e6 B8E7     		b	.L72
 1334              	.L105:
 1335              		.align	2
 1336              	.L104:
 1337 02e8 00440258 		.word	1476543488
 1338 02ec 00040258 		.word	1476527104
 1339 02f0 BFC62D00 		.word	2999999
 1340 02f4 00ED00E0 		.word	-536810240
 1341 02f8 83DE1B43 		.word	1125899907
 1342 02fc 3F420F00 		.word	999999
 1343 0300 00000000 		.word	htim2
 1344 0304 000C0258 		.word	1476529152
 1345              	.LVL93:
 1346              	.L74:
 1347              	.LBB45:
 196:../../CM4/Core/Src/main.c ****       while (HAL_GPIO_ReadPin(GPIOD, GPIO_PIN_0) == GPIO_PIN_SET) {
 1348              		.loc 1 196 7 is_stmt 1 view .LVU422
 196:../../CM4/Core/Src/main.c ****       while (HAL_GPIO_ReadPin(GPIOD, GPIO_PIN_0) == GPIO_PIN_SET) {
 1349              		.loc 1 196 29 is_stmt 0 view .LVU423
 1350 0308 594B     		ldr	r3, .L106
 1351 030a 1B68     		ldr	r3, [r3]
 196:../../CM4/Core/Src/main.c ****       while (HAL_GPIO_ReadPin(GPIOD, GPIO_PIN_0) == GPIO_PIN_SET) {
 1352              		.loc 1 196 16 view .LVU424
 1353 030c 5D6A     		ldr	r5, [r3, #36]
 1354              	.LVL94:
 197:../../CM4/Core/Src/main.c ****         if ((uint32_t)(__HAL_TIM_GET_COUNTER(&htim2) - echo_start) >
 1355              		.loc 1 197 7 is_stmt 1 view .LVU425
 1356              	.L76:
 197:../../CM4/Core/Src/main.c ****         if ((uint32_t)(__HAL_TIM_GET_COUNTER(&htim2) - echo_start) >
 1357              		.loc 1 197 50 view .LVU426
 197:../../CM4/Core/Src/main.c ****         if ((uint32_t)(__HAL_TIM_GET_COUNTER(&htim2) - echo_start) >
 1358              		.loc 1 197 14 is_stmt 0 view .LVU427
 1359 030e 0121     		movs	r1, #1
 1360 0310 5848     		ldr	r0, .L106+4
 1361 0312 FFF7FEFF 		bl	HAL_GPIO_ReadPin
 1362              	.LVL95:
 197:../../CM4/Core/Src/main.c ****         if ((uint32_t)(__HAL_TIM_GET_COUNTER(&htim2) - echo_start) >
 1363              		.loc 1 197 50 discriminator 1 view .LVU428
 1364 0316 0128     		cmp	r0, #1
 1365 0318 07D1     		bne	.L77
 198:../../CM4/Core/Src/main.c ****             ECHO_PULSE_TIMEOUT_US) {
 1366              		.loc 1 198 9 is_stmt 1 view .LVU429
 198:../../CM4/Core/Src/main.c ****             ECHO_PULSE_TIMEOUT_US) {
 1367              		.loc 1 198 24 is_stmt 0 view .LVU430
 1368 031a 554B     		ldr	r3, .L106
 1369 031c 1B68     		ldr	r3, [r3]
 1370 031e 5B6A     		ldr	r3, [r3, #36]
 198:../../CM4/Core/Src/main.c ****             ECHO_PULSE_TIMEOUT_US) {
 1371              		.loc 1 198 54 view .LVU431
 1372 0320 5B1B     		subs	r3, r3, r5
 198:../../CM4/Core/Src/main.c ****             ECHO_PULSE_TIMEOUT_US) {
ARM GAS  C:\Users\minis\AppData\Local\Temp\ccyLswLP.s 			page 43


 1373              		.loc 1 198 12 view .LVU432
 1374 0322 46F29052 		movw	r2, #26000
 1375 0326 9342     		cmp	r3, r2
 1376 0328 F1D9     		bls	.L76
 1377              	.L77:
 203:../../CM4/Core/Src/main.c ****       got_echo = 1U;
 1378              		.loc 1 203 7 is_stmt 1 view .LVU433
 203:../../CM4/Core/Src/main.c ****       got_echo = 1U;
 1379              		.loc 1 203 30 is_stmt 0 view .LVU434
 1380 032a 514B     		ldr	r3, .L106
 1381 032c 1B68     		ldr	r3, [r3]
 1382 032e 5E6A     		ldr	r6, [r3, #36]
 1383              	.LVL96:
 203:../../CM4/Core/Src/main.c ****       got_echo = 1U;
 1384              		.loc 1 203 17 view .LVU435
 1385 0330 761B     		subs	r6, r6, r5
 1386              	.LVL97:
 204:../../CM4/Core/Src/main.c ****       any_echo = 1U;
 1387              		.loc 1 204 7 is_stmt 1 view .LVU436
 205:../../CM4/Core/Src/main.c ****     }
 1388              		.loc 1 205 7 view .LVU437
 205:../../CM4/Core/Src/main.c ****     }
 1389              		.loc 1 205 7 is_stmt 0 view .LVU438
 1390              	.LBE45:
 208:../../CM4/Core/Src/main.c ****       /* GREEN blink = echo received this attempt */
 1391              		.loc 1 208 5 is_stmt 1 view .LVU439
 210:../../CM4/Core/Src/main.c ****       HAL_Delay(300U);
 1392              		.loc 1 210 7 view .LVU440
 1393 0332 514D     		ldr	r5, .L106+8
 1394              	.LVL98:
 210:../../CM4/Core/Src/main.c ****       HAL_Delay(300U);
 1395              		.loc 1 210 7 is_stmt 0 view .LVU441
 1396 0334 0123     		movs	r3, #1
 1397 0336 AB61     		str	r3, [r5, #24]
 211:../../CM4/Core/Src/main.c ****       LED_GREEN_OFF();
 1398              		.loc 1 211 7 is_stmt 1 view .LVU442
 1399 0338 4FF49670 		mov	r0, #300
 1400 033c FFF7FEFF 		bl	HAL_Delay
 1401              	.LVL99:
 212:../../CM4/Core/Src/main.c ****     } else {
 1402              		.loc 1 212 7 view .LVU443
 1403 0340 4FF48033 		mov	r3, #65536
 1404 0344 AB61     		str	r3, [r5, #24]
 1405              	.LBB46:
 205:../../CM4/Core/Src/main.c ****     }
 1406              		.loc 1 205 16 is_stmt 0 view .LVU444
 1407 0346 3D46     		mov	r5, r7
 1408              	.LBE46:
 1409 0348 99E7     		b	.L75
 1410              	.LVL100:
 1411              	.L102:
 205:../../CM4/Core/Src/main.c ****     }
 1412              		.loc 1 205 16 view .LVU445
 1413              	.LBE47:
 1414              	.LBE48:
 221:../../CM4/Core/Src/main.c **** 
 1415              		.loc 1 221 3 is_stmt 1 view .LVU446
ARM GAS  C:\Users\minis\AppData\Local\Temp\ccyLswLP.s 			page 44


 1416 034a 4FF47A70 		mov	r0, #1000
 1417 034e FFF7FEFF 		bl	HAL_Delay
 1418              	.LVL101:
 228:../../CM4/Core/Src/main.c ****     /* Solid red = complete failure, check wiring */
 1419              		.loc 1 228 3 view .LVU447
 228:../../CM4/Core/Src/main.c ****     /* Solid red = complete failure, check wiring */
 1420              		.loc 1 228 6 is_stmt 0 view .LVU448
 1421 0352 25B9     		cbnz	r5, .L80
 230:../../CM4/Core/Src/main.c ****     while (1)
 1422              		.loc 1 230 5 is_stmt 1 view .LVU449
 1423 0354 484B     		ldr	r3, .L106+8
 1424 0356 4FF48042 		mov	r2, #16384
 1425 035a 9A61     		str	r2, [r3, #24]
 1426              	.L81:
 231:../../CM4/Core/Src/main.c ****       ;
 1427              		.loc 1 231 5 view .LVU450
 231:../../CM4/Core/Src/main.c ****       ;
 1428              		.loc 1 231 11 view .LVU451
 1429 035c FEE7     		b	.L81
 1430              	.L80:
 236:../../CM4/Core/Src/main.c **** 
 1431              		.loc 1 236 3 view .LVU452
 236:../../CM4/Core/Src/main.c **** 
 1432              		.loc 1 236 12 is_stmt 0 view .LVU453
 1433 035e 3A23     		movs	r3, #58
 1434 0360 B6FBF3F6 		udiv	r6, r6, r3
 1435              	.LVL102:
 239:../../CM4/Core/Src/main.c ****   SHARED_DATA->data_ready = 1U;
 1436              		.loc 1 239 3 is_stmt 1 view .LVU454
 239:../../CM4/Core/Src/main.c ****   SHARED_DATA->data_ready = 1U;
 1437              		.loc 1 239 28 is_stmt 0 view .LVU455
 1438 0364 4FF06053 		mov	r3, #939524096
 1439 0368 1E60     		str	r6, [r3]
 240:../../CM4/Core/Src/main.c ****   __DSB(); /* Forza la scrittura a raggiungere SRAM4 */
 1440              		.loc 1 240 3 is_stmt 1 view .LVU456
 240:../../CM4/Core/Src/main.c ****   __DSB(); /* Forza la scrittura a raggiungere SRAM4 */
 1441              		.loc 1 240 27 is_stmt 0 view .LVU457
 1442 036a 0124     		movs	r4, #1
 1443              	.LVL103:
 240:../../CM4/Core/Src/main.c ****   __DSB(); /* Forza la scrittura a raggiungere SRAM4 */
 1444              		.loc 1 240 27 view .LVU458
 1445 036c 5C60     		str	r4, [r3, #4]
 241:../../CM4/Core/Src/main.c ****   HAL_HSEM_FastTake(HSEM_ID_SENSOR);
 1446              		.loc 1 241 3 is_stmt 1 view .LVU459
 1447              	.LBB49:
 1448              	.LBI49:
 211:../../Drivers/CMSIS/Include/cmsis_gcc.h **** 
 212:../../Drivers/CMSIS/Include/cmsis_gcc.h **** 
 213:../../Drivers/CMSIS/Include/cmsis_gcc.h **** /**
 214:../../Drivers/CMSIS/Include/cmsis_gcc.h ****   \brief   Get Control Register
 215:../../Drivers/CMSIS/Include/cmsis_gcc.h ****   \details Returns the content of the Control Register.
 216:../../Drivers/CMSIS/Include/cmsis_gcc.h ****   \return               Control Register value
 217:../../Drivers/CMSIS/Include/cmsis_gcc.h ****  */
 218:../../Drivers/CMSIS/Include/cmsis_gcc.h **** __STATIC_FORCEINLINE uint32_t __get_CONTROL(void)
 219:../../Drivers/CMSIS/Include/cmsis_gcc.h **** {
 220:../../Drivers/CMSIS/Include/cmsis_gcc.h ****   uint32_t result;
 221:../../Drivers/CMSIS/Include/cmsis_gcc.h **** 
ARM GAS  C:\Users\minis\AppData\Local\Temp\ccyLswLP.s 			page 45


 222:../../Drivers/CMSIS/Include/cmsis_gcc.h ****   __ASM volatile ("MRS %0, control" : "=r" (result) );
 223:../../Drivers/CMSIS/Include/cmsis_gcc.h ****   return(result);
 224:../../Drivers/CMSIS/Include/cmsis_gcc.h **** }
 225:../../Drivers/CMSIS/Include/cmsis_gcc.h **** 
 226:../../Drivers/CMSIS/Include/cmsis_gcc.h **** 
 227:../../Drivers/CMSIS/Include/cmsis_gcc.h **** #if (defined (__ARM_FEATURE_CMSE ) && (__ARM_FEATURE_CMSE == 3))
 228:../../Drivers/CMSIS/Include/cmsis_gcc.h **** /**
 229:../../Drivers/CMSIS/Include/cmsis_gcc.h ****   \brief   Get Control Register (non-secure)
 230:../../Drivers/CMSIS/Include/cmsis_gcc.h ****   \details Returns the content of the non-secure Control Register when in secure mode.
 231:../../Drivers/CMSIS/Include/cmsis_gcc.h ****   \return               non-secure Control Register value
 232:../../Drivers/CMSIS/Include/cmsis_gcc.h ****  */
 233:../../Drivers/CMSIS/Include/cmsis_gcc.h **** __STATIC_FORCEINLINE uint32_t __TZ_get_CONTROL_NS(void)
 234:../../Drivers/CMSIS/Include/cmsis_gcc.h **** {
 235:../../Drivers/CMSIS/Include/cmsis_gcc.h ****   uint32_t result;
 236:../../Drivers/CMSIS/Include/cmsis_gcc.h **** 
 237:../../Drivers/CMSIS/Include/cmsis_gcc.h ****   __ASM volatile ("MRS %0, control_ns" : "=r" (result) );
 238:../../Drivers/CMSIS/Include/cmsis_gcc.h ****   return(result);
 239:../../Drivers/CMSIS/Include/cmsis_gcc.h **** }
 240:../../Drivers/CMSIS/Include/cmsis_gcc.h **** #endif
 241:../../Drivers/CMSIS/Include/cmsis_gcc.h **** 
 242:../../Drivers/CMSIS/Include/cmsis_gcc.h **** 
 243:../../Drivers/CMSIS/Include/cmsis_gcc.h **** /**
 244:../../Drivers/CMSIS/Include/cmsis_gcc.h ****   \brief   Set Control Register
 245:../../Drivers/CMSIS/Include/cmsis_gcc.h ****   \details Writes the given value to the Control Register.
 246:../../Drivers/CMSIS/Include/cmsis_gcc.h ****   \param [in]    control  Control Register value to set
 247:../../Drivers/CMSIS/Include/cmsis_gcc.h ****  */
 248:../../Drivers/CMSIS/Include/cmsis_gcc.h **** __STATIC_FORCEINLINE void __set_CONTROL(uint32_t control)
 249:../../Drivers/CMSIS/Include/cmsis_gcc.h **** {
 250:../../Drivers/CMSIS/Include/cmsis_gcc.h ****   __ASM volatile ("MSR control, %0" : : "r" (control) : "memory");
 251:../../Drivers/CMSIS/Include/cmsis_gcc.h **** }
 252:../../Drivers/CMSIS/Include/cmsis_gcc.h **** 
 253:../../Drivers/CMSIS/Include/cmsis_gcc.h **** 
 254:../../Drivers/CMSIS/Include/cmsis_gcc.h **** #if (defined (__ARM_FEATURE_CMSE ) && (__ARM_FEATURE_CMSE == 3))
 255:../../Drivers/CMSIS/Include/cmsis_gcc.h **** /**
 256:../../Drivers/CMSIS/Include/cmsis_gcc.h ****   \brief   Set Control Register (non-secure)
 257:../../Drivers/CMSIS/Include/cmsis_gcc.h ****   \details Writes the given value to the non-secure Control Register when in secure state.
 258:../../Drivers/CMSIS/Include/cmsis_gcc.h ****   \param [in]    control  Control Register value to set
 259:../../Drivers/CMSIS/Include/cmsis_gcc.h ****  */
 260:../../Drivers/CMSIS/Include/cmsis_gcc.h **** __STATIC_FORCEINLINE void __TZ_set_CONTROL_NS(uint32_t control)
 261:../../Drivers/CMSIS/Include/cmsis_gcc.h **** {
 262:../../Drivers/CMSIS/Include/cmsis_gcc.h ****   __ASM volatile ("MSR control_ns, %0" : : "r" (control) : "memory");
 263:../../Drivers/CMSIS/Include/cmsis_gcc.h **** }
 264:../../Drivers/CMSIS/Include/cmsis_gcc.h **** #endif
 265:../../Drivers/CMSIS/Include/cmsis_gcc.h **** 
 266:../../Drivers/CMSIS/Include/cmsis_gcc.h **** 
 267:../../Drivers/CMSIS/Include/cmsis_gcc.h **** /**
 268:../../Drivers/CMSIS/Include/cmsis_gcc.h ****   \brief   Get IPSR Register
 269:../../Drivers/CMSIS/Include/cmsis_gcc.h ****   \details Returns the content of the IPSR Register.
 270:../../Drivers/CMSIS/Include/cmsis_gcc.h ****   \return               IPSR Register value
 271:../../Drivers/CMSIS/Include/cmsis_gcc.h ****  */
 272:../../Drivers/CMSIS/Include/cmsis_gcc.h **** __STATIC_FORCEINLINE uint32_t __get_IPSR(void)
 273:../../Drivers/CMSIS/Include/cmsis_gcc.h **** {
 274:../../Drivers/CMSIS/Include/cmsis_gcc.h ****   uint32_t result;
 275:../../Drivers/CMSIS/Include/cmsis_gcc.h **** 
 276:../../Drivers/CMSIS/Include/cmsis_gcc.h ****   __ASM volatile ("MRS %0, ipsr" : "=r" (result) );
 277:../../Drivers/CMSIS/Include/cmsis_gcc.h ****   return(result);
 278:../../Drivers/CMSIS/Include/cmsis_gcc.h **** }
ARM GAS  C:\Users\minis\AppData\Local\Temp\ccyLswLP.s 			page 46


 279:../../Drivers/CMSIS/Include/cmsis_gcc.h **** 
 280:../../Drivers/CMSIS/Include/cmsis_gcc.h **** 
 281:../../Drivers/CMSIS/Include/cmsis_gcc.h **** /**
 282:../../Drivers/CMSIS/Include/cmsis_gcc.h ****   \brief   Get APSR Register
 283:../../Drivers/CMSIS/Include/cmsis_gcc.h ****   \details Returns the content of the APSR Register.
 284:../../Drivers/CMSIS/Include/cmsis_gcc.h ****   \return               APSR Register value
 285:../../Drivers/CMSIS/Include/cmsis_gcc.h ****  */
 286:../../Drivers/CMSIS/Include/cmsis_gcc.h **** __STATIC_FORCEINLINE uint32_t __get_APSR(void)
 287:../../Drivers/CMSIS/Include/cmsis_gcc.h **** {
 288:../../Drivers/CMSIS/Include/cmsis_gcc.h ****   uint32_t result;
 289:../../Drivers/CMSIS/Include/cmsis_gcc.h **** 
 290:../../Drivers/CMSIS/Include/cmsis_gcc.h ****   __ASM volatile ("MRS %0, apsr" : "=r" (result) );
 291:../../Drivers/CMSIS/Include/cmsis_gcc.h ****   return(result);
 292:../../Drivers/CMSIS/Include/cmsis_gcc.h **** }
 293:../../Drivers/CMSIS/Include/cmsis_gcc.h **** 
 294:../../Drivers/CMSIS/Include/cmsis_gcc.h **** 
 295:../../Drivers/CMSIS/Include/cmsis_gcc.h **** /**
 296:../../Drivers/CMSIS/Include/cmsis_gcc.h ****   \brief   Get xPSR Register
 297:../../Drivers/CMSIS/Include/cmsis_gcc.h ****   \details Returns the content of the xPSR Register.
 298:../../Drivers/CMSIS/Include/cmsis_gcc.h ****   \return               xPSR Register value
 299:../../Drivers/CMSIS/Include/cmsis_gcc.h ****  */
 300:../../Drivers/CMSIS/Include/cmsis_gcc.h **** __STATIC_FORCEINLINE uint32_t __get_xPSR(void)
 301:../../Drivers/CMSIS/Include/cmsis_gcc.h **** {
 302:../../Drivers/CMSIS/Include/cmsis_gcc.h ****   uint32_t result;
 303:../../Drivers/CMSIS/Include/cmsis_gcc.h **** 
 304:../../Drivers/CMSIS/Include/cmsis_gcc.h ****   __ASM volatile ("MRS %0, xpsr" : "=r" (result) );
 305:../../Drivers/CMSIS/Include/cmsis_gcc.h ****   return(result);
 306:../../Drivers/CMSIS/Include/cmsis_gcc.h **** }
 307:../../Drivers/CMSIS/Include/cmsis_gcc.h **** 
 308:../../Drivers/CMSIS/Include/cmsis_gcc.h **** 
 309:../../Drivers/CMSIS/Include/cmsis_gcc.h **** /**
 310:../../Drivers/CMSIS/Include/cmsis_gcc.h ****   \brief   Get Process Stack Pointer
 311:../../Drivers/CMSIS/Include/cmsis_gcc.h ****   \details Returns the current value of the Process Stack Pointer (PSP).
 312:../../Drivers/CMSIS/Include/cmsis_gcc.h ****   \return               PSP Register value
 313:../../Drivers/CMSIS/Include/cmsis_gcc.h ****  */
 314:../../Drivers/CMSIS/Include/cmsis_gcc.h **** __STATIC_FORCEINLINE uint32_t __get_PSP(void)
 315:../../Drivers/CMSIS/Include/cmsis_gcc.h **** {
 316:../../Drivers/CMSIS/Include/cmsis_gcc.h ****   uint32_t result;
 317:../../Drivers/CMSIS/Include/cmsis_gcc.h **** 
 318:../../Drivers/CMSIS/Include/cmsis_gcc.h ****   __ASM volatile ("MRS %0, psp"  : "=r" (result) );
 319:../../Drivers/CMSIS/Include/cmsis_gcc.h ****   return(result);
 320:../../Drivers/CMSIS/Include/cmsis_gcc.h **** }
 321:../../Drivers/CMSIS/Include/cmsis_gcc.h **** 
 322:../../Drivers/CMSIS/Include/cmsis_gcc.h **** 
 323:../../Drivers/CMSIS/Include/cmsis_gcc.h **** #if (defined (__ARM_FEATURE_CMSE ) && (__ARM_FEATURE_CMSE == 3))
 324:../../Drivers/CMSIS/Include/cmsis_gcc.h **** /**
 325:../../Drivers/CMSIS/Include/cmsis_gcc.h ****   \brief   Get Process Stack Pointer (non-secure)
 326:../../Drivers/CMSIS/Include/cmsis_gcc.h ****   \details Returns the current value of the non-secure Process Stack Pointer (PSP) when in secure s
 327:../../Drivers/CMSIS/Include/cmsis_gcc.h ****   \return               PSP Register value
 328:../../Drivers/CMSIS/Include/cmsis_gcc.h ****  */
 329:../../Drivers/CMSIS/Include/cmsis_gcc.h **** __STATIC_FORCEINLINE uint32_t __TZ_get_PSP_NS(void)
 330:../../Drivers/CMSIS/Include/cmsis_gcc.h **** {
 331:../../Drivers/CMSIS/Include/cmsis_gcc.h ****   uint32_t result;
 332:../../Drivers/CMSIS/Include/cmsis_gcc.h **** 
 333:../../Drivers/CMSIS/Include/cmsis_gcc.h ****   __ASM volatile ("MRS %0, psp_ns"  : "=r" (result) );
 334:../../Drivers/CMSIS/Include/cmsis_gcc.h ****   return(result);
 335:../../Drivers/CMSIS/Include/cmsis_gcc.h **** }
ARM GAS  C:\Users\minis\AppData\Local\Temp\ccyLswLP.s 			page 47


 336:../../Drivers/CMSIS/Include/cmsis_gcc.h **** #endif
 337:../../Drivers/CMSIS/Include/cmsis_gcc.h **** 
 338:../../Drivers/CMSIS/Include/cmsis_gcc.h **** 
 339:../../Drivers/CMSIS/Include/cmsis_gcc.h **** /**
 340:../../Drivers/CMSIS/Include/cmsis_gcc.h ****   \brief   Set Process Stack Pointer
 341:../../Drivers/CMSIS/Include/cmsis_gcc.h ****   \details Assigns the given value to the Process Stack Pointer (PSP).
 342:../../Drivers/CMSIS/Include/cmsis_gcc.h ****   \param [in]    topOfProcStack  Process Stack Pointer value to set
 343:../../Drivers/CMSIS/Include/cmsis_gcc.h ****  */
 344:../../Drivers/CMSIS/Include/cmsis_gcc.h **** __STATIC_FORCEINLINE void __set_PSP(uint32_t topOfProcStack)
 345:../../Drivers/CMSIS/Include/cmsis_gcc.h **** {
 346:../../Drivers/CMSIS/Include/cmsis_gcc.h ****   __ASM volatile ("MSR psp, %0" : : "r" (topOfProcStack) : );
 347:../../Drivers/CMSIS/Include/cmsis_gcc.h **** }
 348:../../Drivers/CMSIS/Include/cmsis_gcc.h **** 
 349:../../Drivers/CMSIS/Include/cmsis_gcc.h **** 
 350:../../Drivers/CMSIS/Include/cmsis_gcc.h **** #if (defined (__ARM_FEATURE_CMSE ) && (__ARM_FEATURE_CMSE == 3))
 351:../../Drivers/CMSIS/Include/cmsis_gcc.h **** /**
 352:../../Drivers/CMSIS/Include/cmsis_gcc.h ****   \brief   Set Process Stack Pointer (non-secure)
 353:../../Drivers/CMSIS/Include/cmsis_gcc.h ****   \details Assigns the given value to the non-secure Process Stack Pointer (PSP) when in secure sta
 354:../../Drivers/CMSIS/Include/cmsis_gcc.h ****   \param [in]    topOfProcStack  Process Stack Pointer value to set
 355:../../Drivers/CMSIS/Include/cmsis_gcc.h ****  */
 356:../../Drivers/CMSIS/Include/cmsis_gcc.h **** __STATIC_FORCEINLINE void __TZ_set_PSP_NS(uint32_t topOfProcStack)
 357:../../Drivers/CMSIS/Include/cmsis_gcc.h **** {
 358:../../Drivers/CMSIS/Include/cmsis_gcc.h ****   __ASM volatile ("MSR psp_ns, %0" : : "r" (topOfProcStack) : );
 359:../../Drivers/CMSIS/Include/cmsis_gcc.h **** }
 360:../../Drivers/CMSIS/Include/cmsis_gcc.h **** #endif
 361:../../Drivers/CMSIS/Include/cmsis_gcc.h **** 
 362:../../Drivers/CMSIS/Include/cmsis_gcc.h **** 
 363:../../Drivers/CMSIS/Include/cmsis_gcc.h **** /**
 364:../../Drivers/CMSIS/Include/cmsis_gcc.h ****   \brief   Get Main Stack Pointer
 365:../../Drivers/CMSIS/Include/cmsis_gcc.h ****   \details Returns the current value of the Main Stack Pointer (MSP).
 366:../../Drivers/CMSIS/Include/cmsis_gcc.h ****   \return               MSP Register value
 367:../../Drivers/CMSIS/Include/cmsis_gcc.h ****  */
 368:../../Drivers/CMSIS/Include/cmsis_gcc.h **** __STATIC_FORCEINLINE uint32_t __get_MSP(void)
 369:../../Drivers/CMSIS/Include/cmsis_gcc.h **** {
 370:../../Drivers/CMSIS/Include/cmsis_gcc.h ****   uint32_t result;
 371:../../Drivers/CMSIS/Include/cmsis_gcc.h **** 
 372:../../Drivers/CMSIS/Include/cmsis_gcc.h ****   __ASM volatile ("MRS %0, msp" : "=r" (result) );
 373:../../Drivers/CMSIS/Include/cmsis_gcc.h ****   return(result);
 374:../../Drivers/CMSIS/Include/cmsis_gcc.h **** }
 375:../../Drivers/CMSIS/Include/cmsis_gcc.h **** 
 376:../../Drivers/CMSIS/Include/cmsis_gcc.h **** 
 377:../../Drivers/CMSIS/Include/cmsis_gcc.h **** #if (defined (__ARM_FEATURE_CMSE ) && (__ARM_FEATURE_CMSE == 3))
 378:../../Drivers/CMSIS/Include/cmsis_gcc.h **** /**
 379:../../Drivers/CMSIS/Include/cmsis_gcc.h ****   \brief   Get Main Stack Pointer (non-secure)
 380:../../Drivers/CMSIS/Include/cmsis_gcc.h ****   \details Returns the current value of the non-secure Main Stack Pointer (MSP) when in secure stat
 381:../../Drivers/CMSIS/Include/cmsis_gcc.h ****   \return               MSP Register value
 382:../../Drivers/CMSIS/Include/cmsis_gcc.h ****  */
 383:../../Drivers/CMSIS/Include/cmsis_gcc.h **** __STATIC_FORCEINLINE uint32_t __TZ_get_MSP_NS(void)
 384:../../Drivers/CMSIS/Include/cmsis_gcc.h **** {
 385:../../Drivers/CMSIS/Include/cmsis_gcc.h ****   uint32_t result;
 386:../../Drivers/CMSIS/Include/cmsis_gcc.h **** 
 387:../../Drivers/CMSIS/Include/cmsis_gcc.h ****   __ASM volatile ("MRS %0, msp_ns" : "=r" (result) );
 388:../../Drivers/CMSIS/Include/cmsis_gcc.h ****   return(result);
 389:../../Drivers/CMSIS/Include/cmsis_gcc.h **** }
 390:../../Drivers/CMSIS/Include/cmsis_gcc.h **** #endif
 391:../../Drivers/CMSIS/Include/cmsis_gcc.h **** 
 392:../../Drivers/CMSIS/Include/cmsis_gcc.h **** 
ARM GAS  C:\Users\minis\AppData\Local\Temp\ccyLswLP.s 			page 48


 393:../../Drivers/CMSIS/Include/cmsis_gcc.h **** /**
 394:../../Drivers/CMSIS/Include/cmsis_gcc.h ****   \brief   Set Main Stack Pointer
 395:../../Drivers/CMSIS/Include/cmsis_gcc.h ****   \details Assigns the given value to the Main Stack Pointer (MSP).
 396:../../Drivers/CMSIS/Include/cmsis_gcc.h ****   \param [in]    topOfMainStack  Main Stack Pointer value to set
 397:../../Drivers/CMSIS/Include/cmsis_gcc.h ****  */
 398:../../Drivers/CMSIS/Include/cmsis_gcc.h **** __STATIC_FORCEINLINE void __set_MSP(uint32_t topOfMainStack)
 399:../../Drivers/CMSIS/Include/cmsis_gcc.h **** {
 400:../../Drivers/CMSIS/Include/cmsis_gcc.h ****   __ASM volatile ("MSR msp, %0" : : "r" (topOfMainStack) : );
 401:../../Drivers/CMSIS/Include/cmsis_gcc.h **** }
 402:../../Drivers/CMSIS/Include/cmsis_gcc.h **** 
 403:../../Drivers/CMSIS/Include/cmsis_gcc.h **** 
 404:../../Drivers/CMSIS/Include/cmsis_gcc.h **** #if (defined (__ARM_FEATURE_CMSE ) && (__ARM_FEATURE_CMSE == 3))
 405:../../Drivers/CMSIS/Include/cmsis_gcc.h **** /**
 406:../../Drivers/CMSIS/Include/cmsis_gcc.h ****   \brief   Set Main Stack Pointer (non-secure)
 407:../../Drivers/CMSIS/Include/cmsis_gcc.h ****   \details Assigns the given value to the non-secure Main Stack Pointer (MSP) when in secure state.
 408:../../Drivers/CMSIS/Include/cmsis_gcc.h ****   \param [in]    topOfMainStack  Main Stack Pointer value to set
 409:../../Drivers/CMSIS/Include/cmsis_gcc.h ****  */
 410:../../Drivers/CMSIS/Include/cmsis_gcc.h **** __STATIC_FORCEINLINE void __TZ_set_MSP_NS(uint32_t topOfMainStack)
 411:../../Drivers/CMSIS/Include/cmsis_gcc.h **** {
 412:../../Drivers/CMSIS/Include/cmsis_gcc.h ****   __ASM volatile ("MSR msp_ns, %0" : : "r" (topOfMainStack) : );
 413:../../Drivers/CMSIS/Include/cmsis_gcc.h **** }
 414:../../Drivers/CMSIS/Include/cmsis_gcc.h **** #endif
 415:../../Drivers/CMSIS/Include/cmsis_gcc.h **** 
 416:../../Drivers/CMSIS/Include/cmsis_gcc.h **** 
 417:../../Drivers/CMSIS/Include/cmsis_gcc.h **** #if (defined (__ARM_FEATURE_CMSE ) && (__ARM_FEATURE_CMSE == 3))
 418:../../Drivers/CMSIS/Include/cmsis_gcc.h **** /**
 419:../../Drivers/CMSIS/Include/cmsis_gcc.h ****   \brief   Get Stack Pointer (non-secure)
 420:../../Drivers/CMSIS/Include/cmsis_gcc.h ****   \details Returns the current value of the non-secure Stack Pointer (SP) when in secure state.
 421:../../Drivers/CMSIS/Include/cmsis_gcc.h ****   \return               SP Register value
 422:../../Drivers/CMSIS/Include/cmsis_gcc.h ****  */
 423:../../Drivers/CMSIS/Include/cmsis_gcc.h **** __STATIC_FORCEINLINE uint32_t __TZ_get_SP_NS(void)
 424:../../Drivers/CMSIS/Include/cmsis_gcc.h **** {
 425:../../Drivers/CMSIS/Include/cmsis_gcc.h ****   uint32_t result;
 426:../../Drivers/CMSIS/Include/cmsis_gcc.h **** 
 427:../../Drivers/CMSIS/Include/cmsis_gcc.h ****   __ASM volatile ("MRS %0, sp_ns" : "=r" (result) );
 428:../../Drivers/CMSIS/Include/cmsis_gcc.h ****   return(result);
 429:../../Drivers/CMSIS/Include/cmsis_gcc.h **** }
 430:../../Drivers/CMSIS/Include/cmsis_gcc.h **** 
 431:../../Drivers/CMSIS/Include/cmsis_gcc.h **** 
 432:../../Drivers/CMSIS/Include/cmsis_gcc.h **** /**
 433:../../Drivers/CMSIS/Include/cmsis_gcc.h ****   \brief   Set Stack Pointer (non-secure)
 434:../../Drivers/CMSIS/Include/cmsis_gcc.h ****   \details Assigns the given value to the non-secure Stack Pointer (SP) when in secure state.
 435:../../Drivers/CMSIS/Include/cmsis_gcc.h ****   \param [in]    topOfStack  Stack Pointer value to set
 436:../../Drivers/CMSIS/Include/cmsis_gcc.h ****  */
 437:../../Drivers/CMSIS/Include/cmsis_gcc.h **** __STATIC_FORCEINLINE void __TZ_set_SP_NS(uint32_t topOfStack)
 438:../../Drivers/CMSIS/Include/cmsis_gcc.h **** {
 439:../../Drivers/CMSIS/Include/cmsis_gcc.h ****   __ASM volatile ("MSR sp_ns, %0" : : "r" (topOfStack) : );
 440:../../Drivers/CMSIS/Include/cmsis_gcc.h **** }
 441:../../Drivers/CMSIS/Include/cmsis_gcc.h **** #endif
 442:../../Drivers/CMSIS/Include/cmsis_gcc.h **** 
 443:../../Drivers/CMSIS/Include/cmsis_gcc.h **** 
 444:../../Drivers/CMSIS/Include/cmsis_gcc.h **** /**
 445:../../Drivers/CMSIS/Include/cmsis_gcc.h ****   \brief   Get Priority Mask
 446:../../Drivers/CMSIS/Include/cmsis_gcc.h ****   \details Returns the current state of the priority mask bit from the Priority Mask Register.
 447:../../Drivers/CMSIS/Include/cmsis_gcc.h ****   \return               Priority Mask value
 448:../../Drivers/CMSIS/Include/cmsis_gcc.h ****  */
 449:../../Drivers/CMSIS/Include/cmsis_gcc.h **** __STATIC_FORCEINLINE uint32_t __get_PRIMASK(void)
ARM GAS  C:\Users\minis\AppData\Local\Temp\ccyLswLP.s 			page 49


 450:../../Drivers/CMSIS/Include/cmsis_gcc.h **** {
 451:../../Drivers/CMSIS/Include/cmsis_gcc.h ****   uint32_t result;
 452:../../Drivers/CMSIS/Include/cmsis_gcc.h **** 
 453:../../Drivers/CMSIS/Include/cmsis_gcc.h ****   __ASM volatile ("MRS %0, primask" : "=r" (result) :: "memory");
 454:../../Drivers/CMSIS/Include/cmsis_gcc.h ****   return(result);
 455:../../Drivers/CMSIS/Include/cmsis_gcc.h **** }
 456:../../Drivers/CMSIS/Include/cmsis_gcc.h **** 
 457:../../Drivers/CMSIS/Include/cmsis_gcc.h **** 
 458:../../Drivers/CMSIS/Include/cmsis_gcc.h **** #if (defined (__ARM_FEATURE_CMSE ) && (__ARM_FEATURE_CMSE == 3))
 459:../../Drivers/CMSIS/Include/cmsis_gcc.h **** /**
 460:../../Drivers/CMSIS/Include/cmsis_gcc.h ****   \brief   Get Priority Mask (non-secure)
 461:../../Drivers/CMSIS/Include/cmsis_gcc.h ****   \details Returns the current state of the non-secure priority mask bit from the Priority Mask Reg
 462:../../Drivers/CMSIS/Include/cmsis_gcc.h ****   \return               Priority Mask value
 463:../../Drivers/CMSIS/Include/cmsis_gcc.h ****  */
 464:../../Drivers/CMSIS/Include/cmsis_gcc.h **** __STATIC_FORCEINLINE uint32_t __TZ_get_PRIMASK_NS(void)
 465:../../Drivers/CMSIS/Include/cmsis_gcc.h **** {
 466:../../Drivers/CMSIS/Include/cmsis_gcc.h ****   uint32_t result;
 467:../../Drivers/CMSIS/Include/cmsis_gcc.h **** 
 468:../../Drivers/CMSIS/Include/cmsis_gcc.h ****   __ASM volatile ("MRS %0, primask_ns" : "=r" (result) :: "memory");
 469:../../Drivers/CMSIS/Include/cmsis_gcc.h ****   return(result);
 470:../../Drivers/CMSIS/Include/cmsis_gcc.h **** }
 471:../../Drivers/CMSIS/Include/cmsis_gcc.h **** #endif
 472:../../Drivers/CMSIS/Include/cmsis_gcc.h **** 
 473:../../Drivers/CMSIS/Include/cmsis_gcc.h **** 
 474:../../Drivers/CMSIS/Include/cmsis_gcc.h **** /**
 475:../../Drivers/CMSIS/Include/cmsis_gcc.h ****   \brief   Set Priority Mask
 476:../../Drivers/CMSIS/Include/cmsis_gcc.h ****   \details Assigns the given value to the Priority Mask Register.
 477:../../Drivers/CMSIS/Include/cmsis_gcc.h ****   \param [in]    priMask  Priority Mask
 478:../../Drivers/CMSIS/Include/cmsis_gcc.h ****  */
 479:../../Drivers/CMSIS/Include/cmsis_gcc.h **** __STATIC_FORCEINLINE void __set_PRIMASK(uint32_t priMask)
 480:../../Drivers/CMSIS/Include/cmsis_gcc.h **** {
 481:../../Drivers/CMSIS/Include/cmsis_gcc.h ****   __ASM volatile ("MSR primask, %0" : : "r" (priMask) : "memory");
 482:../../Drivers/CMSIS/Include/cmsis_gcc.h **** }
 483:../../Drivers/CMSIS/Include/cmsis_gcc.h **** 
 484:../../Drivers/CMSIS/Include/cmsis_gcc.h **** 
 485:../../Drivers/CMSIS/Include/cmsis_gcc.h **** #if (defined (__ARM_FEATURE_CMSE ) && (__ARM_FEATURE_CMSE == 3))
 486:../../Drivers/CMSIS/Include/cmsis_gcc.h **** /**
 487:../../Drivers/CMSIS/Include/cmsis_gcc.h ****   \brief   Set Priority Mask (non-secure)
 488:../../Drivers/CMSIS/Include/cmsis_gcc.h ****   \details Assigns the given value to the non-secure Priority Mask Register when in secure state.
 489:../../Drivers/CMSIS/Include/cmsis_gcc.h ****   \param [in]    priMask  Priority Mask
 490:../../Drivers/CMSIS/Include/cmsis_gcc.h ****  */
 491:../../Drivers/CMSIS/Include/cmsis_gcc.h **** __STATIC_FORCEINLINE void __TZ_set_PRIMASK_NS(uint32_t priMask)
 492:../../Drivers/CMSIS/Include/cmsis_gcc.h **** {
 493:../../Drivers/CMSIS/Include/cmsis_gcc.h ****   __ASM volatile ("MSR primask_ns, %0" : : "r" (priMask) : "memory");
 494:../../Drivers/CMSIS/Include/cmsis_gcc.h **** }
 495:../../Drivers/CMSIS/Include/cmsis_gcc.h **** #endif
 496:../../Drivers/CMSIS/Include/cmsis_gcc.h **** 
 497:../../Drivers/CMSIS/Include/cmsis_gcc.h **** 
 498:../../Drivers/CMSIS/Include/cmsis_gcc.h **** #if ((defined (__ARM_ARCH_7M__      ) && (__ARM_ARCH_7M__      == 1)) || \
 499:../../Drivers/CMSIS/Include/cmsis_gcc.h ****      (defined (__ARM_ARCH_7EM__     ) && (__ARM_ARCH_7EM__     == 1)) || \
 500:../../Drivers/CMSIS/Include/cmsis_gcc.h ****      (defined (__ARM_ARCH_8M_MAIN__ ) && (__ARM_ARCH_8M_MAIN__ == 1))    )
 501:../../Drivers/CMSIS/Include/cmsis_gcc.h **** /**
 502:../../Drivers/CMSIS/Include/cmsis_gcc.h ****   \brief   Enable FIQ
 503:../../Drivers/CMSIS/Include/cmsis_gcc.h ****   \details Enables FIQ interrupts by clearing the F-bit in the CPSR.
 504:../../Drivers/CMSIS/Include/cmsis_gcc.h ****            Can only be executed in Privileged modes.
 505:../../Drivers/CMSIS/Include/cmsis_gcc.h ****  */
 506:../../Drivers/CMSIS/Include/cmsis_gcc.h **** __STATIC_FORCEINLINE void __enable_fault_irq(void)
ARM GAS  C:\Users\minis\AppData\Local\Temp\ccyLswLP.s 			page 50


 507:../../Drivers/CMSIS/Include/cmsis_gcc.h **** {
 508:../../Drivers/CMSIS/Include/cmsis_gcc.h ****   __ASM volatile ("cpsie f" : : : "memory");
 509:../../Drivers/CMSIS/Include/cmsis_gcc.h **** }
 510:../../Drivers/CMSIS/Include/cmsis_gcc.h **** 
 511:../../Drivers/CMSIS/Include/cmsis_gcc.h **** 
 512:../../Drivers/CMSIS/Include/cmsis_gcc.h **** /**
 513:../../Drivers/CMSIS/Include/cmsis_gcc.h ****   \brief   Disable FIQ
 514:../../Drivers/CMSIS/Include/cmsis_gcc.h ****   \details Disables FIQ interrupts by setting the F-bit in the CPSR.
 515:../../Drivers/CMSIS/Include/cmsis_gcc.h ****            Can only be executed in Privileged modes.
 516:../../Drivers/CMSIS/Include/cmsis_gcc.h ****  */
 517:../../Drivers/CMSIS/Include/cmsis_gcc.h **** __STATIC_FORCEINLINE void __disable_fault_irq(void)
 518:../../Drivers/CMSIS/Include/cmsis_gcc.h **** {
 519:../../Drivers/CMSIS/Include/cmsis_gcc.h ****   __ASM volatile ("cpsid f" : : : "memory");
 520:../../Drivers/CMSIS/Include/cmsis_gcc.h **** }
 521:../../Drivers/CMSIS/Include/cmsis_gcc.h **** 
 522:../../Drivers/CMSIS/Include/cmsis_gcc.h **** 
 523:../../Drivers/CMSIS/Include/cmsis_gcc.h **** /**
 524:../../Drivers/CMSIS/Include/cmsis_gcc.h ****   \brief   Get Base Priority
 525:../../Drivers/CMSIS/Include/cmsis_gcc.h ****   \details Returns the current value of the Base Priority register.
 526:../../Drivers/CMSIS/Include/cmsis_gcc.h ****   \return               Base Priority register value
 527:../../Drivers/CMSIS/Include/cmsis_gcc.h ****  */
 528:../../Drivers/CMSIS/Include/cmsis_gcc.h **** __STATIC_FORCEINLINE uint32_t __get_BASEPRI(void)
 529:../../Drivers/CMSIS/Include/cmsis_gcc.h **** {
 530:../../Drivers/CMSIS/Include/cmsis_gcc.h ****   uint32_t result;
 531:../../Drivers/CMSIS/Include/cmsis_gcc.h **** 
 532:../../Drivers/CMSIS/Include/cmsis_gcc.h ****   __ASM volatile ("MRS %0, basepri" : "=r" (result) );
 533:../../Drivers/CMSIS/Include/cmsis_gcc.h ****   return(result);
 534:../../Drivers/CMSIS/Include/cmsis_gcc.h **** }
 535:../../Drivers/CMSIS/Include/cmsis_gcc.h **** 
 536:../../Drivers/CMSIS/Include/cmsis_gcc.h **** 
 537:../../Drivers/CMSIS/Include/cmsis_gcc.h **** #if (defined (__ARM_FEATURE_CMSE ) && (__ARM_FEATURE_CMSE == 3))
 538:../../Drivers/CMSIS/Include/cmsis_gcc.h **** /**
 539:../../Drivers/CMSIS/Include/cmsis_gcc.h ****   \brief   Get Base Priority (non-secure)
 540:../../Drivers/CMSIS/Include/cmsis_gcc.h ****   \details Returns the current value of the non-secure Base Priority register when in secure state.
 541:../../Drivers/CMSIS/Include/cmsis_gcc.h ****   \return               Base Priority register value
 542:../../Drivers/CMSIS/Include/cmsis_gcc.h ****  */
 543:../../Drivers/CMSIS/Include/cmsis_gcc.h **** __STATIC_FORCEINLINE uint32_t __TZ_get_BASEPRI_NS(void)
 544:../../Drivers/CMSIS/Include/cmsis_gcc.h **** {
 545:../../Drivers/CMSIS/Include/cmsis_gcc.h ****   uint32_t result;
 546:../../Drivers/CMSIS/Include/cmsis_gcc.h **** 
 547:../../Drivers/CMSIS/Include/cmsis_gcc.h ****   __ASM volatile ("MRS %0, basepri_ns" : "=r" (result) );
 548:../../Drivers/CMSIS/Include/cmsis_gcc.h ****   return(result);
 549:../../Drivers/CMSIS/Include/cmsis_gcc.h **** }
 550:../../Drivers/CMSIS/Include/cmsis_gcc.h **** #endif
 551:../../Drivers/CMSIS/Include/cmsis_gcc.h **** 
 552:../../Drivers/CMSIS/Include/cmsis_gcc.h **** 
 553:../../Drivers/CMSIS/Include/cmsis_gcc.h **** /**
 554:../../Drivers/CMSIS/Include/cmsis_gcc.h ****   \brief   Set Base Priority
 555:../../Drivers/CMSIS/Include/cmsis_gcc.h ****   \details Assigns the given value to the Base Priority register.
 556:../../Drivers/CMSIS/Include/cmsis_gcc.h ****   \param [in]    basePri  Base Priority value to set
 557:../../Drivers/CMSIS/Include/cmsis_gcc.h ****  */
 558:../../Drivers/CMSIS/Include/cmsis_gcc.h **** __STATIC_FORCEINLINE void __set_BASEPRI(uint32_t basePri)
 559:../../Drivers/CMSIS/Include/cmsis_gcc.h **** {
 560:../../Drivers/CMSIS/Include/cmsis_gcc.h ****   __ASM volatile ("MSR basepri, %0" : : "r" (basePri) : "memory");
 561:../../Drivers/CMSIS/Include/cmsis_gcc.h **** }
 562:../../Drivers/CMSIS/Include/cmsis_gcc.h **** 
 563:../../Drivers/CMSIS/Include/cmsis_gcc.h **** 
ARM GAS  C:\Users\minis\AppData\Local\Temp\ccyLswLP.s 			page 51


 564:../../Drivers/CMSIS/Include/cmsis_gcc.h **** #if (defined (__ARM_FEATURE_CMSE ) && (__ARM_FEATURE_CMSE == 3))
 565:../../Drivers/CMSIS/Include/cmsis_gcc.h **** /**
 566:../../Drivers/CMSIS/Include/cmsis_gcc.h ****   \brief   Set Base Priority (non-secure)
 567:../../Drivers/CMSIS/Include/cmsis_gcc.h ****   \details Assigns the given value to the non-secure Base Priority register when in secure state.
 568:../../Drivers/CMSIS/Include/cmsis_gcc.h ****   \param [in]    basePri  Base Priority value to set
 569:../../Drivers/CMSIS/Include/cmsis_gcc.h ****  */
 570:../../Drivers/CMSIS/Include/cmsis_gcc.h **** __STATIC_FORCEINLINE void __TZ_set_BASEPRI_NS(uint32_t basePri)
 571:../../Drivers/CMSIS/Include/cmsis_gcc.h **** {
 572:../../Drivers/CMSIS/Include/cmsis_gcc.h ****   __ASM volatile ("MSR basepri_ns, %0" : : "r" (basePri) : "memory");
 573:../../Drivers/CMSIS/Include/cmsis_gcc.h **** }
 574:../../Drivers/CMSIS/Include/cmsis_gcc.h **** #endif
 575:../../Drivers/CMSIS/Include/cmsis_gcc.h **** 
 576:../../Drivers/CMSIS/Include/cmsis_gcc.h **** 
 577:../../Drivers/CMSIS/Include/cmsis_gcc.h **** /**
 578:../../Drivers/CMSIS/Include/cmsis_gcc.h ****   \brief   Set Base Priority with condition
 579:../../Drivers/CMSIS/Include/cmsis_gcc.h ****   \details Assigns the given value to the Base Priority register only if BASEPRI masking is disable
 580:../../Drivers/CMSIS/Include/cmsis_gcc.h ****            or the new value increases the BASEPRI priority level.
 581:../../Drivers/CMSIS/Include/cmsis_gcc.h ****   \param [in]    basePri  Base Priority value to set
 582:../../Drivers/CMSIS/Include/cmsis_gcc.h ****  */
 583:../../Drivers/CMSIS/Include/cmsis_gcc.h **** __STATIC_FORCEINLINE void __set_BASEPRI_MAX(uint32_t basePri)
 584:../../Drivers/CMSIS/Include/cmsis_gcc.h **** {
 585:../../Drivers/CMSIS/Include/cmsis_gcc.h ****   __ASM volatile ("MSR basepri_max, %0" : : "r" (basePri) : "memory");
 586:../../Drivers/CMSIS/Include/cmsis_gcc.h **** }
 587:../../Drivers/CMSIS/Include/cmsis_gcc.h **** 
 588:../../Drivers/CMSIS/Include/cmsis_gcc.h **** 
 589:../../Drivers/CMSIS/Include/cmsis_gcc.h **** /**
 590:../../Drivers/CMSIS/Include/cmsis_gcc.h ****   \brief   Get Fault Mask
 591:../../Drivers/CMSIS/Include/cmsis_gcc.h ****   \details Returns the current value of the Fault Mask register.
 592:../../Drivers/CMSIS/Include/cmsis_gcc.h ****   \return               Fault Mask register value
 593:../../Drivers/CMSIS/Include/cmsis_gcc.h ****  */
 594:../../Drivers/CMSIS/Include/cmsis_gcc.h **** __STATIC_FORCEINLINE uint32_t __get_FAULTMASK(void)
 595:../../Drivers/CMSIS/Include/cmsis_gcc.h **** {
 596:../../Drivers/CMSIS/Include/cmsis_gcc.h ****   uint32_t result;
 597:../../Drivers/CMSIS/Include/cmsis_gcc.h **** 
 598:../../Drivers/CMSIS/Include/cmsis_gcc.h ****   __ASM volatile ("MRS %0, faultmask" : "=r" (result) );
 599:../../Drivers/CMSIS/Include/cmsis_gcc.h ****   return(result);
 600:../../Drivers/CMSIS/Include/cmsis_gcc.h **** }
 601:../../Drivers/CMSIS/Include/cmsis_gcc.h **** 
 602:../../Drivers/CMSIS/Include/cmsis_gcc.h **** 
 603:../../Drivers/CMSIS/Include/cmsis_gcc.h **** #if (defined (__ARM_FEATURE_CMSE ) && (__ARM_FEATURE_CMSE == 3))
 604:../../Drivers/CMSIS/Include/cmsis_gcc.h **** /**
 605:../../Drivers/CMSIS/Include/cmsis_gcc.h ****   \brief   Get Fault Mask (non-secure)
 606:../../Drivers/CMSIS/Include/cmsis_gcc.h ****   \details Returns the current value of the non-secure Fault Mask register when in secure state.
 607:../../Drivers/CMSIS/Include/cmsis_gcc.h ****   \return               Fault Mask register value
 608:../../Drivers/CMSIS/Include/cmsis_gcc.h ****  */
 609:../../Drivers/CMSIS/Include/cmsis_gcc.h **** __STATIC_FORCEINLINE uint32_t __TZ_get_FAULTMASK_NS(void)
 610:../../Drivers/CMSIS/Include/cmsis_gcc.h **** {
 611:../../Drivers/CMSIS/Include/cmsis_gcc.h ****   uint32_t result;
 612:../../Drivers/CMSIS/Include/cmsis_gcc.h **** 
 613:../../Drivers/CMSIS/Include/cmsis_gcc.h ****   __ASM volatile ("MRS %0, faultmask_ns" : "=r" (result) );
 614:../../Drivers/CMSIS/Include/cmsis_gcc.h ****   return(result);
 615:../../Drivers/CMSIS/Include/cmsis_gcc.h **** }
 616:../../Drivers/CMSIS/Include/cmsis_gcc.h **** #endif
 617:../../Drivers/CMSIS/Include/cmsis_gcc.h **** 
 618:../../Drivers/CMSIS/Include/cmsis_gcc.h **** 
 619:../../Drivers/CMSIS/Include/cmsis_gcc.h **** /**
 620:../../Drivers/CMSIS/Include/cmsis_gcc.h ****   \brief   Set Fault Mask
ARM GAS  C:\Users\minis\AppData\Local\Temp\ccyLswLP.s 			page 52


 621:../../Drivers/CMSIS/Include/cmsis_gcc.h ****   \details Assigns the given value to the Fault Mask register.
 622:../../Drivers/CMSIS/Include/cmsis_gcc.h ****   \param [in]    faultMask  Fault Mask value to set
 623:../../Drivers/CMSIS/Include/cmsis_gcc.h ****  */
 624:../../Drivers/CMSIS/Include/cmsis_gcc.h **** __STATIC_FORCEINLINE void __set_FAULTMASK(uint32_t faultMask)
 625:../../Drivers/CMSIS/Include/cmsis_gcc.h **** {
 626:../../Drivers/CMSIS/Include/cmsis_gcc.h ****   __ASM volatile ("MSR faultmask, %0" : : "r" (faultMask) : "memory");
 627:../../Drivers/CMSIS/Include/cmsis_gcc.h **** }
 628:../../Drivers/CMSIS/Include/cmsis_gcc.h **** 
 629:../../Drivers/CMSIS/Include/cmsis_gcc.h **** 
 630:../../Drivers/CMSIS/Include/cmsis_gcc.h **** #if (defined (__ARM_FEATURE_CMSE ) && (__ARM_FEATURE_CMSE == 3))
 631:../../Drivers/CMSIS/Include/cmsis_gcc.h **** /**
 632:../../Drivers/CMSIS/Include/cmsis_gcc.h ****   \brief   Set Fault Mask (non-secure)
 633:../../Drivers/CMSIS/Include/cmsis_gcc.h ****   \details Assigns the given value to the non-secure Fault Mask register when in secure state.
 634:../../Drivers/CMSIS/Include/cmsis_gcc.h ****   \param [in]    faultMask  Fault Mask value to set
 635:../../Drivers/CMSIS/Include/cmsis_gcc.h ****  */
 636:../../Drivers/CMSIS/Include/cmsis_gcc.h **** __STATIC_FORCEINLINE void __TZ_set_FAULTMASK_NS(uint32_t faultMask)
 637:../../Drivers/CMSIS/Include/cmsis_gcc.h **** {
 638:../../Drivers/CMSIS/Include/cmsis_gcc.h ****   __ASM volatile ("MSR faultmask_ns, %0" : : "r" (faultMask) : "memory");
 639:../../Drivers/CMSIS/Include/cmsis_gcc.h **** }
 640:../../Drivers/CMSIS/Include/cmsis_gcc.h **** #endif
 641:../../Drivers/CMSIS/Include/cmsis_gcc.h **** 
 642:../../Drivers/CMSIS/Include/cmsis_gcc.h **** #endif /* ((defined (__ARM_ARCH_7M__      ) && (__ARM_ARCH_7M__      == 1)) || \
 643:../../Drivers/CMSIS/Include/cmsis_gcc.h ****            (defined (__ARM_ARCH_7EM__     ) && (__ARM_ARCH_7EM__     == 1)) || \
 644:../../Drivers/CMSIS/Include/cmsis_gcc.h ****            (defined (__ARM_ARCH_8M_MAIN__ ) && (__ARM_ARCH_8M_MAIN__ == 1))    ) */
 645:../../Drivers/CMSIS/Include/cmsis_gcc.h **** 
 646:../../Drivers/CMSIS/Include/cmsis_gcc.h **** 
 647:../../Drivers/CMSIS/Include/cmsis_gcc.h **** #if ((defined (__ARM_ARCH_8M_MAIN__ ) && (__ARM_ARCH_8M_MAIN__ == 1)) || \
 648:../../Drivers/CMSIS/Include/cmsis_gcc.h ****      (defined (__ARM_ARCH_8M_BASE__ ) && (__ARM_ARCH_8M_BASE__ == 1))    )
 649:../../Drivers/CMSIS/Include/cmsis_gcc.h **** 
 650:../../Drivers/CMSIS/Include/cmsis_gcc.h **** /**
 651:../../Drivers/CMSIS/Include/cmsis_gcc.h ****   \brief   Get Process Stack Pointer Limit
 652:../../Drivers/CMSIS/Include/cmsis_gcc.h ****   Devices without ARMv8-M Main Extensions (i.e. Cortex-M23) lack the non-secure
 653:../../Drivers/CMSIS/Include/cmsis_gcc.h ****   Stack Pointer Limit register hence zero is returned always in non-secure
 654:../../Drivers/CMSIS/Include/cmsis_gcc.h ****   mode.
 655:../../Drivers/CMSIS/Include/cmsis_gcc.h ****   
 656:../../Drivers/CMSIS/Include/cmsis_gcc.h ****   \details Returns the current value of the Process Stack Pointer Limit (PSPLIM).
 657:../../Drivers/CMSIS/Include/cmsis_gcc.h ****   \return               PSPLIM Register value
 658:../../Drivers/CMSIS/Include/cmsis_gcc.h ****  */
 659:../../Drivers/CMSIS/Include/cmsis_gcc.h **** __STATIC_FORCEINLINE uint32_t __get_PSPLIM(void)
 660:../../Drivers/CMSIS/Include/cmsis_gcc.h **** {
 661:../../Drivers/CMSIS/Include/cmsis_gcc.h **** #if (!(defined (__ARM_ARCH_8M_MAIN__ ) && (__ARM_ARCH_8M_MAIN__ == 1)) && \
 662:../../Drivers/CMSIS/Include/cmsis_gcc.h ****     (!defined (__ARM_FEATURE_CMSE) || (__ARM_FEATURE_CMSE < 3)))
 663:../../Drivers/CMSIS/Include/cmsis_gcc.h ****     // without main extensions, the non-secure PSPLIM is RAZ/WI
 664:../../Drivers/CMSIS/Include/cmsis_gcc.h ****   return 0U;
 665:../../Drivers/CMSIS/Include/cmsis_gcc.h **** #else
 666:../../Drivers/CMSIS/Include/cmsis_gcc.h ****   uint32_t result;
 667:../../Drivers/CMSIS/Include/cmsis_gcc.h ****   __ASM volatile ("MRS %0, psplim"  : "=r" (result) );
 668:../../Drivers/CMSIS/Include/cmsis_gcc.h ****   return result;
 669:../../Drivers/CMSIS/Include/cmsis_gcc.h **** #endif
 670:../../Drivers/CMSIS/Include/cmsis_gcc.h **** }
 671:../../Drivers/CMSIS/Include/cmsis_gcc.h **** 
 672:../../Drivers/CMSIS/Include/cmsis_gcc.h **** #if (defined (__ARM_FEATURE_CMSE) && (__ARM_FEATURE_CMSE == 3))
 673:../../Drivers/CMSIS/Include/cmsis_gcc.h **** /**
 674:../../Drivers/CMSIS/Include/cmsis_gcc.h ****   \brief   Get Process Stack Pointer Limit (non-secure)
 675:../../Drivers/CMSIS/Include/cmsis_gcc.h ****   Devices without ARMv8-M Main Extensions (i.e. Cortex-M23) lack the non-secure
 676:../../Drivers/CMSIS/Include/cmsis_gcc.h ****   Stack Pointer Limit register hence zero is returned always.
 677:../../Drivers/CMSIS/Include/cmsis_gcc.h **** 
ARM GAS  C:\Users\minis\AppData\Local\Temp\ccyLswLP.s 			page 53


 678:../../Drivers/CMSIS/Include/cmsis_gcc.h ****   \details Returns the current value of the non-secure Process Stack Pointer Limit (PSPLIM) when in
 679:../../Drivers/CMSIS/Include/cmsis_gcc.h ****   \return               PSPLIM Register value
 680:../../Drivers/CMSIS/Include/cmsis_gcc.h ****  */
 681:../../Drivers/CMSIS/Include/cmsis_gcc.h **** __STATIC_FORCEINLINE uint32_t __TZ_get_PSPLIM_NS(void)
 682:../../Drivers/CMSIS/Include/cmsis_gcc.h **** {
 683:../../Drivers/CMSIS/Include/cmsis_gcc.h **** #if (!(defined (__ARM_ARCH_8M_MAIN__ ) && (__ARM_ARCH_8M_MAIN__ == 1)))
 684:../../Drivers/CMSIS/Include/cmsis_gcc.h ****   // without main extensions, the non-secure PSPLIM is RAZ/WI
 685:../../Drivers/CMSIS/Include/cmsis_gcc.h ****   return 0U;
 686:../../Drivers/CMSIS/Include/cmsis_gcc.h **** #else
 687:../../Drivers/CMSIS/Include/cmsis_gcc.h ****   uint32_t result;
 688:../../Drivers/CMSIS/Include/cmsis_gcc.h ****   __ASM volatile ("MRS %0, psplim_ns"  : "=r" (result) );
 689:../../Drivers/CMSIS/Include/cmsis_gcc.h ****   return result;
 690:../../Drivers/CMSIS/Include/cmsis_gcc.h **** #endif
 691:../../Drivers/CMSIS/Include/cmsis_gcc.h **** }
 692:../../Drivers/CMSIS/Include/cmsis_gcc.h **** #endif
 693:../../Drivers/CMSIS/Include/cmsis_gcc.h **** 
 694:../../Drivers/CMSIS/Include/cmsis_gcc.h **** 
 695:../../Drivers/CMSIS/Include/cmsis_gcc.h **** /**
 696:../../Drivers/CMSIS/Include/cmsis_gcc.h ****   \brief   Set Process Stack Pointer Limit
 697:../../Drivers/CMSIS/Include/cmsis_gcc.h ****   Devices without ARMv8-M Main Extensions (i.e. Cortex-M23) lack the non-secure
 698:../../Drivers/CMSIS/Include/cmsis_gcc.h ****   Stack Pointer Limit register hence the write is silently ignored in non-secure
 699:../../Drivers/CMSIS/Include/cmsis_gcc.h ****   mode.
 700:../../Drivers/CMSIS/Include/cmsis_gcc.h ****   
 701:../../Drivers/CMSIS/Include/cmsis_gcc.h ****   \details Assigns the given value to the Process Stack Pointer Limit (PSPLIM).
 702:../../Drivers/CMSIS/Include/cmsis_gcc.h ****   \param [in]    ProcStackPtrLimit  Process Stack Pointer Limit value to set
 703:../../Drivers/CMSIS/Include/cmsis_gcc.h ****  */
 704:../../Drivers/CMSIS/Include/cmsis_gcc.h **** __STATIC_FORCEINLINE void __set_PSPLIM(uint32_t ProcStackPtrLimit)
 705:../../Drivers/CMSIS/Include/cmsis_gcc.h **** {
 706:../../Drivers/CMSIS/Include/cmsis_gcc.h **** #if (!(defined (__ARM_ARCH_8M_MAIN__ ) && (__ARM_ARCH_8M_MAIN__ == 1)) && \
 707:../../Drivers/CMSIS/Include/cmsis_gcc.h ****     (!defined (__ARM_FEATURE_CMSE) || (__ARM_FEATURE_CMSE < 3)))
 708:../../Drivers/CMSIS/Include/cmsis_gcc.h ****   // without main extensions, the non-secure PSPLIM is RAZ/WI
 709:../../Drivers/CMSIS/Include/cmsis_gcc.h ****   (void)ProcStackPtrLimit;
 710:../../Drivers/CMSIS/Include/cmsis_gcc.h **** #else
 711:../../Drivers/CMSIS/Include/cmsis_gcc.h ****   __ASM volatile ("MSR psplim, %0" : : "r" (ProcStackPtrLimit));
 712:../../Drivers/CMSIS/Include/cmsis_gcc.h **** #endif
 713:../../Drivers/CMSIS/Include/cmsis_gcc.h **** }
 714:../../Drivers/CMSIS/Include/cmsis_gcc.h **** 
 715:../../Drivers/CMSIS/Include/cmsis_gcc.h **** 
 716:../../Drivers/CMSIS/Include/cmsis_gcc.h **** #if (defined (__ARM_FEATURE_CMSE  ) && (__ARM_FEATURE_CMSE   == 3))
 717:../../Drivers/CMSIS/Include/cmsis_gcc.h **** /**
 718:../../Drivers/CMSIS/Include/cmsis_gcc.h ****   \brief   Set Process Stack Pointer (non-secure)
 719:../../Drivers/CMSIS/Include/cmsis_gcc.h ****   Devices without ARMv8-M Main Extensions (i.e. Cortex-M23) lack the non-secure
 720:../../Drivers/CMSIS/Include/cmsis_gcc.h ****   Stack Pointer Limit register hence the write is silently ignored.
 721:../../Drivers/CMSIS/Include/cmsis_gcc.h **** 
 722:../../Drivers/CMSIS/Include/cmsis_gcc.h ****   \details Assigns the given value to the non-secure Process Stack Pointer Limit (PSPLIM) when in s
 723:../../Drivers/CMSIS/Include/cmsis_gcc.h ****   \param [in]    ProcStackPtrLimit  Process Stack Pointer Limit value to set
 724:../../Drivers/CMSIS/Include/cmsis_gcc.h ****  */
 725:../../Drivers/CMSIS/Include/cmsis_gcc.h **** __STATIC_FORCEINLINE void __TZ_set_PSPLIM_NS(uint32_t ProcStackPtrLimit)
 726:../../Drivers/CMSIS/Include/cmsis_gcc.h **** {
 727:../../Drivers/CMSIS/Include/cmsis_gcc.h **** #if (!(defined (__ARM_ARCH_8M_MAIN__ ) && (__ARM_ARCH_8M_MAIN__ == 1)))
 728:../../Drivers/CMSIS/Include/cmsis_gcc.h ****   // without main extensions, the non-secure PSPLIM is RAZ/WI
 729:../../Drivers/CMSIS/Include/cmsis_gcc.h ****   (void)ProcStackPtrLimit;
 730:../../Drivers/CMSIS/Include/cmsis_gcc.h **** #else
 731:../../Drivers/CMSIS/Include/cmsis_gcc.h ****   __ASM volatile ("MSR psplim_ns, %0\n" : : "r" (ProcStackPtrLimit));
 732:../../Drivers/CMSIS/Include/cmsis_gcc.h **** #endif
 733:../../Drivers/CMSIS/Include/cmsis_gcc.h **** }
 734:../../Drivers/CMSIS/Include/cmsis_gcc.h **** #endif
ARM GAS  C:\Users\minis\AppData\Local\Temp\ccyLswLP.s 			page 54


 735:../../Drivers/CMSIS/Include/cmsis_gcc.h **** 
 736:../../Drivers/CMSIS/Include/cmsis_gcc.h **** 
 737:../../Drivers/CMSIS/Include/cmsis_gcc.h **** /**
 738:../../Drivers/CMSIS/Include/cmsis_gcc.h ****   \brief   Get Main Stack Pointer Limit
 739:../../Drivers/CMSIS/Include/cmsis_gcc.h ****   Devices without ARMv8-M Main Extensions (i.e. Cortex-M23) lack the non-secure
 740:../../Drivers/CMSIS/Include/cmsis_gcc.h ****   Stack Pointer Limit register hence zero is returned always in non-secure
 741:../../Drivers/CMSIS/Include/cmsis_gcc.h ****   mode.
 742:../../Drivers/CMSIS/Include/cmsis_gcc.h **** 
 743:../../Drivers/CMSIS/Include/cmsis_gcc.h ****   \details Returns the current value of the Main Stack Pointer Limit (MSPLIM).
 744:../../Drivers/CMSIS/Include/cmsis_gcc.h ****   \return               MSPLIM Register value
 745:../../Drivers/CMSIS/Include/cmsis_gcc.h ****  */
 746:../../Drivers/CMSIS/Include/cmsis_gcc.h **** __STATIC_FORCEINLINE uint32_t __get_MSPLIM(void)
 747:../../Drivers/CMSIS/Include/cmsis_gcc.h **** {
 748:../../Drivers/CMSIS/Include/cmsis_gcc.h **** #if (!(defined (__ARM_ARCH_8M_MAIN__ ) && (__ARM_ARCH_8M_MAIN__ == 1)) && \
 749:../../Drivers/CMSIS/Include/cmsis_gcc.h ****     (!defined (__ARM_FEATURE_CMSE) || (__ARM_FEATURE_CMSE < 3)))
 750:../../Drivers/CMSIS/Include/cmsis_gcc.h ****   // without main extensions, the non-secure MSPLIM is RAZ/WI
 751:../../Drivers/CMSIS/Include/cmsis_gcc.h ****   return 0U;
 752:../../Drivers/CMSIS/Include/cmsis_gcc.h **** #else
 753:../../Drivers/CMSIS/Include/cmsis_gcc.h ****   uint32_t result;
 754:../../Drivers/CMSIS/Include/cmsis_gcc.h ****   __ASM volatile ("MRS %0, msplim" : "=r" (result) );
 755:../../Drivers/CMSIS/Include/cmsis_gcc.h ****   return result;
 756:../../Drivers/CMSIS/Include/cmsis_gcc.h **** #endif
 757:../../Drivers/CMSIS/Include/cmsis_gcc.h **** }
 758:../../Drivers/CMSIS/Include/cmsis_gcc.h **** 
 759:../../Drivers/CMSIS/Include/cmsis_gcc.h **** 
 760:../../Drivers/CMSIS/Include/cmsis_gcc.h **** #if (defined (__ARM_FEATURE_CMSE  ) && (__ARM_FEATURE_CMSE   == 3))
 761:../../Drivers/CMSIS/Include/cmsis_gcc.h **** /**
 762:../../Drivers/CMSIS/Include/cmsis_gcc.h ****   \brief   Get Main Stack Pointer Limit (non-secure)
 763:../../Drivers/CMSIS/Include/cmsis_gcc.h ****   Devices without ARMv8-M Main Extensions (i.e. Cortex-M23) lack the non-secure
 764:../../Drivers/CMSIS/Include/cmsis_gcc.h ****   Stack Pointer Limit register hence zero is returned always.
 765:../../Drivers/CMSIS/Include/cmsis_gcc.h **** 
 766:../../Drivers/CMSIS/Include/cmsis_gcc.h ****   \details Returns the current value of the non-secure Main Stack Pointer Limit(MSPLIM) when in sec
 767:../../Drivers/CMSIS/Include/cmsis_gcc.h ****   \return               MSPLIM Register value
 768:../../Drivers/CMSIS/Include/cmsis_gcc.h ****  */
 769:../../Drivers/CMSIS/Include/cmsis_gcc.h **** __STATIC_FORCEINLINE uint32_t __TZ_get_MSPLIM_NS(void)
 770:../../Drivers/CMSIS/Include/cmsis_gcc.h **** {
 771:../../Drivers/CMSIS/Include/cmsis_gcc.h **** #if (!(defined (__ARM_ARCH_8M_MAIN__ ) && (__ARM_ARCH_8M_MAIN__ == 1)))
 772:../../Drivers/CMSIS/Include/cmsis_gcc.h ****   // without main extensions, the non-secure MSPLIM is RAZ/WI
 773:../../Drivers/CMSIS/Include/cmsis_gcc.h ****   return 0U;
 774:../../Drivers/CMSIS/Include/cmsis_gcc.h **** #else
 775:../../Drivers/CMSIS/Include/cmsis_gcc.h ****   uint32_t result;
 776:../../Drivers/CMSIS/Include/cmsis_gcc.h ****   __ASM volatile ("MRS %0, msplim_ns" : "=r" (result) );
 777:../../Drivers/CMSIS/Include/cmsis_gcc.h ****   return result;
 778:../../Drivers/CMSIS/Include/cmsis_gcc.h **** #endif
 779:../../Drivers/CMSIS/Include/cmsis_gcc.h **** }
 780:../../Drivers/CMSIS/Include/cmsis_gcc.h **** #endif
 781:../../Drivers/CMSIS/Include/cmsis_gcc.h **** 
 782:../../Drivers/CMSIS/Include/cmsis_gcc.h **** 
 783:../../Drivers/CMSIS/Include/cmsis_gcc.h **** /**
 784:../../Drivers/CMSIS/Include/cmsis_gcc.h ****   \brief   Set Main Stack Pointer Limit
 785:../../Drivers/CMSIS/Include/cmsis_gcc.h ****   Devices without ARMv8-M Main Extensions (i.e. Cortex-M23) lack the non-secure
 786:../../Drivers/CMSIS/Include/cmsis_gcc.h ****   Stack Pointer Limit register hence the write is silently ignored in non-secure
 787:../../Drivers/CMSIS/Include/cmsis_gcc.h ****   mode.
 788:../../Drivers/CMSIS/Include/cmsis_gcc.h **** 
 789:../../Drivers/CMSIS/Include/cmsis_gcc.h ****   \details Assigns the given value to the Main Stack Pointer Limit (MSPLIM).
 790:../../Drivers/CMSIS/Include/cmsis_gcc.h ****   \param [in]    MainStackPtrLimit  Main Stack Pointer Limit value to set
 791:../../Drivers/CMSIS/Include/cmsis_gcc.h ****  */
ARM GAS  C:\Users\minis\AppData\Local\Temp\ccyLswLP.s 			page 55


 792:../../Drivers/CMSIS/Include/cmsis_gcc.h **** __STATIC_FORCEINLINE void __set_MSPLIM(uint32_t MainStackPtrLimit)
 793:../../Drivers/CMSIS/Include/cmsis_gcc.h **** {
 794:../../Drivers/CMSIS/Include/cmsis_gcc.h **** #if (!(defined (__ARM_ARCH_8M_MAIN__ ) && (__ARM_ARCH_8M_MAIN__ == 1)) && \
 795:../../Drivers/CMSIS/Include/cmsis_gcc.h ****     (!defined (__ARM_FEATURE_CMSE) || (__ARM_FEATURE_CMSE < 3)))
 796:../../Drivers/CMSIS/Include/cmsis_gcc.h ****   // without main extensions, the non-secure MSPLIM is RAZ/WI
 797:../../Drivers/CMSIS/Include/cmsis_gcc.h ****   (void)MainStackPtrLimit;
 798:../../Drivers/CMSIS/Include/cmsis_gcc.h **** #else
 799:../../Drivers/CMSIS/Include/cmsis_gcc.h ****   __ASM volatile ("MSR msplim, %0" : : "r" (MainStackPtrLimit));
 800:../../Drivers/CMSIS/Include/cmsis_gcc.h **** #endif
 801:../../Drivers/CMSIS/Include/cmsis_gcc.h **** }
 802:../../Drivers/CMSIS/Include/cmsis_gcc.h **** 
 803:../../Drivers/CMSIS/Include/cmsis_gcc.h **** 
 804:../../Drivers/CMSIS/Include/cmsis_gcc.h **** #if (defined (__ARM_FEATURE_CMSE  ) && (__ARM_FEATURE_CMSE   == 3))
 805:../../Drivers/CMSIS/Include/cmsis_gcc.h **** /**
 806:../../Drivers/CMSIS/Include/cmsis_gcc.h ****   \brief   Set Main Stack Pointer Limit (non-secure)
 807:../../Drivers/CMSIS/Include/cmsis_gcc.h ****   Devices without ARMv8-M Main Extensions (i.e. Cortex-M23) lack the non-secure
 808:../../Drivers/CMSIS/Include/cmsis_gcc.h ****   Stack Pointer Limit register hence the write is silently ignored.
 809:../../Drivers/CMSIS/Include/cmsis_gcc.h **** 
 810:../../Drivers/CMSIS/Include/cmsis_gcc.h ****   \details Assigns the given value to the non-secure Main Stack Pointer Limit (MSPLIM) when in secu
 811:../../Drivers/CMSIS/Include/cmsis_gcc.h ****   \param [in]    MainStackPtrLimit  Main Stack Pointer value to set
 812:../../Drivers/CMSIS/Include/cmsis_gcc.h ****  */
 813:../../Drivers/CMSIS/Include/cmsis_gcc.h **** __STATIC_FORCEINLINE void __TZ_set_MSPLIM_NS(uint32_t MainStackPtrLimit)
 814:../../Drivers/CMSIS/Include/cmsis_gcc.h **** {
 815:../../Drivers/CMSIS/Include/cmsis_gcc.h **** #if (!(defined (__ARM_ARCH_8M_MAIN__ ) && (__ARM_ARCH_8M_MAIN__ == 1)))
 816:../../Drivers/CMSIS/Include/cmsis_gcc.h ****   // without main extensions, the non-secure MSPLIM is RAZ/WI
 817:../../Drivers/CMSIS/Include/cmsis_gcc.h ****   (void)MainStackPtrLimit;
 818:../../Drivers/CMSIS/Include/cmsis_gcc.h **** #else
 819:../../Drivers/CMSIS/Include/cmsis_gcc.h ****   __ASM volatile ("MSR msplim_ns, %0" : : "r" (MainStackPtrLimit));
 820:../../Drivers/CMSIS/Include/cmsis_gcc.h **** #endif
 821:../../Drivers/CMSIS/Include/cmsis_gcc.h **** }
 822:../../Drivers/CMSIS/Include/cmsis_gcc.h **** #endif
 823:../../Drivers/CMSIS/Include/cmsis_gcc.h **** 
 824:../../Drivers/CMSIS/Include/cmsis_gcc.h **** #endif /* ((defined (__ARM_ARCH_8M_MAIN__ ) && (__ARM_ARCH_8M_MAIN__ == 1)) || \
 825:../../Drivers/CMSIS/Include/cmsis_gcc.h ****            (defined (__ARM_ARCH_8M_BASE__ ) && (__ARM_ARCH_8M_BASE__ == 1))    ) */
 826:../../Drivers/CMSIS/Include/cmsis_gcc.h **** 
 827:../../Drivers/CMSIS/Include/cmsis_gcc.h **** 
 828:../../Drivers/CMSIS/Include/cmsis_gcc.h **** /**
 829:../../Drivers/CMSIS/Include/cmsis_gcc.h ****   \brief   Get FPSCR
 830:../../Drivers/CMSIS/Include/cmsis_gcc.h ****   \details Returns the current value of the Floating Point Status/Control register.
 831:../../Drivers/CMSIS/Include/cmsis_gcc.h ****   \return               Floating Point Status/Control register value
 832:../../Drivers/CMSIS/Include/cmsis_gcc.h ****  */
 833:../../Drivers/CMSIS/Include/cmsis_gcc.h **** __STATIC_FORCEINLINE uint32_t __get_FPSCR(void)
 834:../../Drivers/CMSIS/Include/cmsis_gcc.h **** {
 835:../../Drivers/CMSIS/Include/cmsis_gcc.h **** #if ((defined (__FPU_PRESENT) && (__FPU_PRESENT == 1U)) && \
 836:../../Drivers/CMSIS/Include/cmsis_gcc.h ****      (defined (__FPU_USED   ) && (__FPU_USED    == 1U))     )
 837:../../Drivers/CMSIS/Include/cmsis_gcc.h **** #if __has_builtin(__builtin_arm_get_fpscr) 
 838:../../Drivers/CMSIS/Include/cmsis_gcc.h **** // Re-enable using built-in when GCC has been fixed
 839:../../Drivers/CMSIS/Include/cmsis_gcc.h **** // || (__GNUC__ > 7) || (__GNUC__ == 7 && __GNUC_MINOR__ >= 2)
 840:../../Drivers/CMSIS/Include/cmsis_gcc.h ****   /* see https://gcc.gnu.org/ml/gcc-patches/2017-04/msg00443.html */
 841:../../Drivers/CMSIS/Include/cmsis_gcc.h ****   return __builtin_arm_get_fpscr();
 842:../../Drivers/CMSIS/Include/cmsis_gcc.h **** #else
 843:../../Drivers/CMSIS/Include/cmsis_gcc.h ****   uint32_t result;
 844:../../Drivers/CMSIS/Include/cmsis_gcc.h **** 
 845:../../Drivers/CMSIS/Include/cmsis_gcc.h ****   __ASM volatile ("VMRS %0, fpscr" : "=r" (result) );
 846:../../Drivers/CMSIS/Include/cmsis_gcc.h ****   return(result);
 847:../../Drivers/CMSIS/Include/cmsis_gcc.h **** #endif
 848:../../Drivers/CMSIS/Include/cmsis_gcc.h **** #else
ARM GAS  C:\Users\minis\AppData\Local\Temp\ccyLswLP.s 			page 56


 849:../../Drivers/CMSIS/Include/cmsis_gcc.h ****   return(0U);
 850:../../Drivers/CMSIS/Include/cmsis_gcc.h **** #endif
 851:../../Drivers/CMSIS/Include/cmsis_gcc.h **** }
 852:../../Drivers/CMSIS/Include/cmsis_gcc.h **** 
 853:../../Drivers/CMSIS/Include/cmsis_gcc.h **** 
 854:../../Drivers/CMSIS/Include/cmsis_gcc.h **** /**
 855:../../Drivers/CMSIS/Include/cmsis_gcc.h ****   \brief   Set FPSCR
 856:../../Drivers/CMSIS/Include/cmsis_gcc.h ****   \details Assigns the given value to the Floating Point Status/Control register.
 857:../../Drivers/CMSIS/Include/cmsis_gcc.h ****   \param [in]    fpscr  Floating Point Status/Control value to set
 858:../../Drivers/CMSIS/Include/cmsis_gcc.h ****  */
 859:../../Drivers/CMSIS/Include/cmsis_gcc.h **** __STATIC_FORCEINLINE void __set_FPSCR(uint32_t fpscr)
 860:../../Drivers/CMSIS/Include/cmsis_gcc.h **** {
 861:../../Drivers/CMSIS/Include/cmsis_gcc.h **** #if ((defined (__FPU_PRESENT) && (__FPU_PRESENT == 1U)) && \
 862:../../Drivers/CMSIS/Include/cmsis_gcc.h ****      (defined (__FPU_USED   ) && (__FPU_USED    == 1U))     )
 863:../../Drivers/CMSIS/Include/cmsis_gcc.h **** #if __has_builtin(__builtin_arm_set_fpscr)
 864:../../Drivers/CMSIS/Include/cmsis_gcc.h **** // Re-enable using built-in when GCC has been fixed
 865:../../Drivers/CMSIS/Include/cmsis_gcc.h **** // || (__GNUC__ > 7) || (__GNUC__ == 7 && __GNUC_MINOR__ >= 2)
 866:../../Drivers/CMSIS/Include/cmsis_gcc.h ****   /* see https://gcc.gnu.org/ml/gcc-patches/2017-04/msg00443.html */
 867:../../Drivers/CMSIS/Include/cmsis_gcc.h ****   __builtin_arm_set_fpscr(fpscr);
 868:../../Drivers/CMSIS/Include/cmsis_gcc.h **** #else
 869:../../Drivers/CMSIS/Include/cmsis_gcc.h ****   __ASM volatile ("VMSR fpscr, %0" : : "r" (fpscr) : "vfpcc", "memory");
 870:../../Drivers/CMSIS/Include/cmsis_gcc.h **** #endif
 871:../../Drivers/CMSIS/Include/cmsis_gcc.h **** #else
 872:../../Drivers/CMSIS/Include/cmsis_gcc.h ****   (void)fpscr;
 873:../../Drivers/CMSIS/Include/cmsis_gcc.h **** #endif
 874:../../Drivers/CMSIS/Include/cmsis_gcc.h **** }
 875:../../Drivers/CMSIS/Include/cmsis_gcc.h **** 
 876:../../Drivers/CMSIS/Include/cmsis_gcc.h **** 
 877:../../Drivers/CMSIS/Include/cmsis_gcc.h **** /*@} end of CMSIS_Core_RegAccFunctions */
 878:../../Drivers/CMSIS/Include/cmsis_gcc.h **** 
 879:../../Drivers/CMSIS/Include/cmsis_gcc.h **** 
 880:../../Drivers/CMSIS/Include/cmsis_gcc.h **** /* ##########################  Core Instruction Access  ######################### */
 881:../../Drivers/CMSIS/Include/cmsis_gcc.h **** /** \defgroup CMSIS_Core_InstructionInterface CMSIS Core Instruction Interface
 882:../../Drivers/CMSIS/Include/cmsis_gcc.h ****   Access to dedicated instructions
 883:../../Drivers/CMSIS/Include/cmsis_gcc.h ****   @{
 884:../../Drivers/CMSIS/Include/cmsis_gcc.h **** */
 885:../../Drivers/CMSIS/Include/cmsis_gcc.h **** 
 886:../../Drivers/CMSIS/Include/cmsis_gcc.h **** /* Define macros for porting to both thumb1 and thumb2.
 887:../../Drivers/CMSIS/Include/cmsis_gcc.h ****  * For thumb1, use low register (r0-r7), specified by constraint "l"
 888:../../Drivers/CMSIS/Include/cmsis_gcc.h ****  * Otherwise, use general registers, specified by constraint "r" */
 889:../../Drivers/CMSIS/Include/cmsis_gcc.h **** #if defined (__thumb__) && !defined (__thumb2__)
 890:../../Drivers/CMSIS/Include/cmsis_gcc.h **** #define __CMSIS_GCC_OUT_REG(r) "=l" (r)
 891:../../Drivers/CMSIS/Include/cmsis_gcc.h **** #define __CMSIS_GCC_RW_REG(r) "+l" (r)
 892:../../Drivers/CMSIS/Include/cmsis_gcc.h **** #define __CMSIS_GCC_USE_REG(r) "l" (r)
 893:../../Drivers/CMSIS/Include/cmsis_gcc.h **** #else
 894:../../Drivers/CMSIS/Include/cmsis_gcc.h **** #define __CMSIS_GCC_OUT_REG(r) "=r" (r)
 895:../../Drivers/CMSIS/Include/cmsis_gcc.h **** #define __CMSIS_GCC_RW_REG(r) "+r" (r)
 896:../../Drivers/CMSIS/Include/cmsis_gcc.h **** #define __CMSIS_GCC_USE_REG(r) "r" (r)
 897:../../Drivers/CMSIS/Include/cmsis_gcc.h **** #endif
 898:../../Drivers/CMSIS/Include/cmsis_gcc.h **** 
 899:../../Drivers/CMSIS/Include/cmsis_gcc.h **** /**
 900:../../Drivers/CMSIS/Include/cmsis_gcc.h ****   \brief   No Operation
 901:../../Drivers/CMSIS/Include/cmsis_gcc.h ****   \details No Operation does nothing. This instruction can be used for code alignment purposes.
 902:../../Drivers/CMSIS/Include/cmsis_gcc.h ****  */
 903:../../Drivers/CMSIS/Include/cmsis_gcc.h **** #define __NOP()                             __ASM volatile ("nop")
 904:../../Drivers/CMSIS/Include/cmsis_gcc.h **** 
 905:../../Drivers/CMSIS/Include/cmsis_gcc.h **** /**
ARM GAS  C:\Users\minis\AppData\Local\Temp\ccyLswLP.s 			page 57


 906:../../Drivers/CMSIS/Include/cmsis_gcc.h ****   \brief   Wait For Interrupt
 907:../../Drivers/CMSIS/Include/cmsis_gcc.h ****   \details Wait For Interrupt is a hint instruction that suspends execution until one of a number o
 908:../../Drivers/CMSIS/Include/cmsis_gcc.h ****  */
 909:../../Drivers/CMSIS/Include/cmsis_gcc.h **** #define __WFI()                             __ASM volatile ("wfi")
 910:../../Drivers/CMSIS/Include/cmsis_gcc.h **** 
 911:../../Drivers/CMSIS/Include/cmsis_gcc.h **** 
 912:../../Drivers/CMSIS/Include/cmsis_gcc.h **** /**
 913:../../Drivers/CMSIS/Include/cmsis_gcc.h ****   \brief   Wait For Event
 914:../../Drivers/CMSIS/Include/cmsis_gcc.h ****   \details Wait For Event is a hint instruction that permits the processor to enter
 915:../../Drivers/CMSIS/Include/cmsis_gcc.h ****            a low-power state until one of a number of events occurs.
 916:../../Drivers/CMSIS/Include/cmsis_gcc.h ****  */
 917:../../Drivers/CMSIS/Include/cmsis_gcc.h **** #define __WFE()                             __ASM volatile ("wfe")
 918:../../Drivers/CMSIS/Include/cmsis_gcc.h **** 
 919:../../Drivers/CMSIS/Include/cmsis_gcc.h **** 
 920:../../Drivers/CMSIS/Include/cmsis_gcc.h **** /**
 921:../../Drivers/CMSIS/Include/cmsis_gcc.h ****   \brief   Send Event
 922:../../Drivers/CMSIS/Include/cmsis_gcc.h ****   \details Send Event is a hint instruction. It causes an event to be signaled to the CPU.
 923:../../Drivers/CMSIS/Include/cmsis_gcc.h ****  */
 924:../../Drivers/CMSIS/Include/cmsis_gcc.h **** #define __SEV()                             __ASM volatile ("sev")
 925:../../Drivers/CMSIS/Include/cmsis_gcc.h **** 
 926:../../Drivers/CMSIS/Include/cmsis_gcc.h **** 
 927:../../Drivers/CMSIS/Include/cmsis_gcc.h **** /**
 928:../../Drivers/CMSIS/Include/cmsis_gcc.h ****   \brief   Instruction Synchronization Barrier
 929:../../Drivers/CMSIS/Include/cmsis_gcc.h ****   \details Instruction Synchronization Barrier flushes the pipeline in the processor,
 930:../../Drivers/CMSIS/Include/cmsis_gcc.h ****            so that all instructions following the ISB are fetched from cache or memory,
 931:../../Drivers/CMSIS/Include/cmsis_gcc.h ****            after the instruction has been completed.
 932:../../Drivers/CMSIS/Include/cmsis_gcc.h ****  */
 933:../../Drivers/CMSIS/Include/cmsis_gcc.h **** __STATIC_FORCEINLINE void __ISB(void)
 934:../../Drivers/CMSIS/Include/cmsis_gcc.h **** {
 935:../../Drivers/CMSIS/Include/cmsis_gcc.h ****   __ASM volatile ("isb 0xF":::"memory");
 936:../../Drivers/CMSIS/Include/cmsis_gcc.h **** }
 937:../../Drivers/CMSIS/Include/cmsis_gcc.h **** 
 938:../../Drivers/CMSIS/Include/cmsis_gcc.h **** 
 939:../../Drivers/CMSIS/Include/cmsis_gcc.h **** /**
 940:../../Drivers/CMSIS/Include/cmsis_gcc.h ****   \brief   Data Synchronization Barrier
 941:../../Drivers/CMSIS/Include/cmsis_gcc.h ****   \details Acts as a special kind of Data Memory Barrier.
 942:../../Drivers/CMSIS/Include/cmsis_gcc.h ****            It completes when all explicit memory accesses before this instruction complete.
 943:../../Drivers/CMSIS/Include/cmsis_gcc.h ****  */
 944:../../Drivers/CMSIS/Include/cmsis_gcc.h **** __STATIC_FORCEINLINE void __DSB(void)
 1449              		.loc 2 944 27 view .LVU460
 1450              	.LBB50:
 945:../../Drivers/CMSIS/Include/cmsis_gcc.h **** {
 946:../../Drivers/CMSIS/Include/cmsis_gcc.h ****   __ASM volatile ("dsb 0xF":::"memory");
 1451              		.loc 2 946 3 view .LVU461
 1452              		.syntax unified
 1453              	@ 946 "../../Drivers/CMSIS/Include/cmsis_gcc.h" 1
 1454 036e BFF34F8F 		dsb 0xF
 1455              	@ 0 "" 2
 1456              		.thumb
 1457              		.syntax unified
 1458              	.LBE50:
 1459              	.LBE49:
 242:../../CM4/Core/Src/main.c ****   HAL_HSEM_Release(HSEM_ID_SENSOR, 0);
 1460              		.loc 1 242 3 view .LVU462
 1461 0372 2046     		mov	r0, r4
 1462 0374 FFF7FEFF 		bl	HAL_HSEM_FastTake
 1463              	.LVL104:
ARM GAS  C:\Users\minis\AppData\Local\Temp\ccyLswLP.s 			page 58


 243:../../CM4/Core/Src/main.c **** 
 1464              		.loc 1 243 3 view .LVU463
 1465 0378 0021     		movs	r1, #0
 1466 037a 2046     		mov	r0, r4
 1467 037c FFF7FEFF 		bl	HAL_HSEM_Release
 1468              	.LVL105:
 1469 0380 55E0     		b	.L94
 1470              	.LVL106:
 1471              	.L95:
 1472              	.LBB51:
 248:../../CM4/Core/Src/main.c ****     }
 1473              		.loc 1 248 14 is_stmt 0 view .LVU464
 1474 0382 0127     		movs	r7, #1
 1475              	.L82:
 1476              	.LVL107:
 254:../../CM4/Core/Src/main.c ****       LED_GREEN_ON();
 1477              		.loc 1 254 5 is_stmt 1 view .LVU465
 1478              	.LBB52:
 254:../../CM4/Core/Src/main.c ****       LED_GREEN_ON();
 1479              		.loc 1 254 10 view .LVU466
 254:../../CM4/Core/Src/main.c ****       LED_GREEN_ON();
 1480              		.loc 1 254 19 is_stmt 0 view .LVU467
 1481 0384 0024     		movs	r4, #0
 254:../../CM4/Core/Src/main.c ****       LED_GREEN_ON();
 1482              		.loc 1 254 5 view .LVU468
 1483 0386 12E0     		b	.L83
 1484              	.LVL108:
 1485              	.L96:
 254:../../CM4/Core/Src/main.c ****       LED_GREEN_ON();
 1486              		.loc 1 254 5 view .LVU469
 1487              	.LBE52:
 251:../../CM4/Core/Src/main.c ****     }
 1488              		.loc 1 251 14 view .LVU470
 1489 0388 1427     		movs	r7, #20
 1490 038a FBE7     		b	.L82
 1491              	.LVL109:
 1492              	.L84:
 1493              	.LBB53:
 255:../../CM4/Core/Src/main.c ****       HAL_Delay(150U);
 1494              		.loc 1 255 7 is_stmt 1 view .LVU471
 1495 038c 3A4D     		ldr	r5, .L106+8
 1496 038e 0123     		movs	r3, #1
 1497 0390 AB61     		str	r3, [r5, #24]
 256:../../CM4/Core/Src/main.c ****       LED_GREEN_OFF();
 1498              		.loc 1 256 7 view .LVU472
 1499 0392 9620     		movs	r0, #150
 1500 0394 FFF7FEFF 		bl	HAL_Delay
 1501              	.LVL110:
 257:../../CM4/Core/Src/main.c ****       HAL_Delay(150U);
 1502              		.loc 1 257 7 view .LVU473
 1503 0398 4FF48033 		mov	r3, #65536
 1504 039c AB61     		str	r3, [r5, #24]
 258:../../CM4/Core/Src/main.c ****       printf("LED ACCESO %lu\n", dist_cm);
 1505              		.loc 1 258 7 view .LVU474
 1506 039e 9620     		movs	r0, #150
 1507 03a0 FFF7FEFF 		bl	HAL_Delay
 1508              	.LVL111:
ARM GAS  C:\Users\minis\AppData\Local\Temp\ccyLswLP.s 			page 59


 259:../../CM4/Core/Src/main.c ****     }
 1509              		.loc 1 259 7 view .LVU475
 1510 03a4 3146     		mov	r1, r6
 1511 03a6 3548     		ldr	r0, .L106+12
 1512 03a8 FFF7FEFF 		bl	printf
 1513              	.LVL112:
 254:../../CM4/Core/Src/main.c ****       LED_GREEN_ON();
 1514              		.loc 1 254 39 discriminator 3 view .LVU476
 1515 03ac 0134     		adds	r4, r4, #1
 1516              	.LVL113:
 1517              	.L83:
 254:../../CM4/Core/Src/main.c ****       LED_GREEN_ON();
 1518              		.loc 1 254 28 discriminator 1 view .LVU477
 1519 03ae A742     		cmp	r7, r4
 1520 03b0 ECD8     		bhi	.L84
 1521              	.LBE53:
 261:../../CM4/Core/Src/main.c **** 
 1522              		.loc 1 261 5 view .LVU478
 1523 03b2 40F2DC50 		movw	r0, #1500
 1524 03b6 FFF7FEFF 		bl	HAL_Delay
 1525              	.LVL114:
 264:../../CM4/Core/Src/main.c ****     __HAL_TIM_SET_COUNTER(&htim2, 0);
 1526              		.loc 1 264 5 view .LVU479
 1527 03ba 0022     		movs	r2, #0
 1528 03bc 0221     		movs	r1, #2
 1529 03be 2D48     		ldr	r0, .L106+4
 1530 03c0 FFF7FEFF 		bl	HAL_GPIO_WritePin
 1531              	.LVL115:
 265:../../CM4/Core/Src/main.c ****     while (__HAL_TIM_GET_COUNTER(&htim2) < TRIG_RESET_TIME_US)
 1532              		.loc 1 265 5 view .LVU480
 1533 03c4 2A4B     		ldr	r3, .L106
 1534 03c6 1A68     		ldr	r2, [r3]
 1535 03c8 0023     		movs	r3, #0
 1536 03ca 5362     		str	r3, [r2, #36]
 266:../../CM4/Core/Src/main.c ****       ;
 1537              		.loc 1 266 5 view .LVU481
 1538              	.L85:
 266:../../CM4/Core/Src/main.c ****       ;
 1539              		.loc 1 266 42 discriminator 1 view .LVU482
 266:../../CM4/Core/Src/main.c ****       ;
 1540              		.loc 1 266 12 is_stmt 0 discriminator 1 view .LVU483
 1541 03cc 536A     		ldr	r3, [r2, #36]
 266:../../CM4/Core/Src/main.c ****       ;
 1542              		.loc 1 266 42 discriminator 1 view .LVU484
 1543 03ce 012B     		cmp	r3, #1
 1544 03d0 FCD9     		bls	.L85
 268:../../CM4/Core/Src/main.c ****     __HAL_TIM_SET_COUNTER(&htim2, 0);
 1545              		.loc 1 268 5 is_stmt 1 view .LVU485
 1546 03d2 0122     		movs	r2, #1
 1547 03d4 0221     		movs	r1, #2
 1548 03d6 2748     		ldr	r0, .L106+4
 1549 03d8 FFF7FEFF 		bl	HAL_GPIO_WritePin
 1550              	.LVL116:
 269:../../CM4/Core/Src/main.c ****     while (__HAL_TIM_GET_COUNTER(&htim2) < TRIG_PULSE_TIME_US)
 1551              		.loc 1 269 5 view .LVU486
 1552 03dc 244B     		ldr	r3, .L106
 1553 03de 1A68     		ldr	r2, [r3]
ARM GAS  C:\Users\minis\AppData\Local\Temp\ccyLswLP.s 			page 60


 1554 03e0 0023     		movs	r3, #0
 1555 03e2 5362     		str	r3, [r2, #36]
 270:../../CM4/Core/Src/main.c ****       ;
 1556              		.loc 1 270 5 view .LVU487
 1557              	.L86:
 270:../../CM4/Core/Src/main.c ****       ;
 1558              		.loc 1 270 42 discriminator 1 view .LVU488
 270:../../CM4/Core/Src/main.c ****       ;
 1559              		.loc 1 270 12 is_stmt 0 discriminator 1 view .LVU489
 1560 03e4 536A     		ldr	r3, [r2, #36]
 270:../../CM4/Core/Src/main.c ****       ;
 1561              		.loc 1 270 42 discriminator 1 view .LVU490
 1562 03e6 092B     		cmp	r3, #9
 1563 03e8 FCD9     		bls	.L86
 272:../../CM4/Core/Src/main.c **** 
 1564              		.loc 1 272 5 is_stmt 1 view .LVU491
 1565 03ea 0022     		movs	r2, #0
 1566 03ec 0221     		movs	r1, #2
 1567 03ee 2148     		ldr	r0, .L106+4
 1568 03f0 FFF7FEFF 		bl	HAL_GPIO_WritePin
 1569              	.LVL117:
 274:../../CM4/Core/Src/main.c ****     while (HAL_GPIO_ReadPin(GPIOD, GPIO_PIN_0) == GPIO_PIN_RESET) {
 1570              		.loc 1 274 5 view .LVU492
 274:../../CM4/Core/Src/main.c ****     while (HAL_GPIO_ReadPin(GPIOD, GPIO_PIN_0) == GPIO_PIN_RESET) {
 1571              		.loc 1 274 19 is_stmt 0 view .LVU493
 1572 03f4 1E4B     		ldr	r3, .L106
 1573 03f6 1B68     		ldr	r3, [r3]
 274:../../CM4/Core/Src/main.c ****     while (HAL_GPIO_ReadPin(GPIOD, GPIO_PIN_0) == GPIO_PIN_RESET) {
 1574              		.loc 1 274 14 view .LVU494
 1575 03f8 5C6A     		ldr	r4, [r3, #36]
 1576              	.LVL118:
 275:../../CM4/Core/Src/main.c ****       if ((uint32_t)(__HAL_TIM_GET_COUNTER(&htim2) - ws) >
 1577              		.loc 1 275 5 is_stmt 1 view .LVU495
 1578              	.L87:
 275:../../CM4/Core/Src/main.c ****       if ((uint32_t)(__HAL_TIM_GET_COUNTER(&htim2) - ws) >
 1579              		.loc 1 275 48 view .LVU496
 275:../../CM4/Core/Src/main.c ****       if ((uint32_t)(__HAL_TIM_GET_COUNTER(&htim2) - ws) >
 1580              		.loc 1 275 12 is_stmt 0 view .LVU497
 1581 03fa 0121     		movs	r1, #1
 1582 03fc 1D48     		ldr	r0, .L106+4
 1583 03fe FFF7FEFF 		bl	HAL_GPIO_ReadPin
 1584              	.LVL119:
 275:../../CM4/Core/Src/main.c ****       if ((uint32_t)(__HAL_TIM_GET_COUNTER(&htim2) - ws) >
 1585              		.loc 1 275 48 discriminator 1 view .LVU498
 1586 0402 38B9     		cbnz	r0, .L88
 276:../../CM4/Core/Src/main.c ****           ECHO_WAIT_TIMEOUT_US) {
 1587              		.loc 1 276 7 is_stmt 1 view .LVU499
 276:../../CM4/Core/Src/main.c ****           ECHO_WAIT_TIMEOUT_US) {
 1588              		.loc 1 276 22 is_stmt 0 view .LVU500
 1589 0404 1A4B     		ldr	r3, .L106
 1590 0406 1B68     		ldr	r3, [r3]
 1591 0408 5B6A     		ldr	r3, [r3, #36]
 276:../../CM4/Core/Src/main.c ****           ECHO_WAIT_TIMEOUT_US) {
 1592              		.loc 1 276 52 view .LVU501
 1593 040a 1B1B     		subs	r3, r3, r4
 276:../../CM4/Core/Src/main.c ****           ECHO_WAIT_TIMEOUT_US) {
 1594              		.loc 1 276 10 view .LVU502
ARM GAS  C:\Users\minis\AppData\Local\Temp\ccyLswLP.s 			page 61


 1595 040c 47F23052 		movw	r2, #30000
 1596 0410 9342     		cmp	r3, r2
 1597 0412 F2D9     		bls	.L87
 1598              	.L88:
 281:../../CM4/Core/Src/main.c ****       uint32_t es = __HAL_TIM_GET_COUNTER(&htim2);
 1599              		.loc 1 281 5 is_stmt 1 view .LVU503
 281:../../CM4/Core/Src/main.c ****       uint32_t es = __HAL_TIM_GET_COUNTER(&htim2);
 1600              		.loc 1 281 9 is_stmt 0 view .LVU504
 1601 0414 0121     		movs	r1, #1
 1602 0416 1748     		ldr	r0, .L106+4
 1603 0418 FFF7FEFF 		bl	HAL_GPIO_ReadPin
 1604              	.LVL120:
 281:../../CM4/Core/Src/main.c ****       uint32_t es = __HAL_TIM_GET_COUNTER(&htim2);
 1605              		.loc 1 281 8 discriminator 1 view .LVU505
 1606 041c 0128     		cmp	r0, #1
 1607 041e 0CD0     		beq	.L103
 1608              	.LVL121:
 1609              	.L90:
 294:../../CM4/Core/Src/main.c ****     SHARED_DATA->data_ready = 1U;
 1610              		.loc 1 294 5 is_stmt 1 view .LVU506
 294:../../CM4/Core/Src/main.c ****     SHARED_DATA->data_ready = 1U;
 1611              		.loc 1 294 30 is_stmt 0 view .LVU507
 1612 0420 4FF06053 		mov	r3, #939524096
 1613 0424 1E60     		str	r6, [r3]
 295:../../CM4/Core/Src/main.c ****     __DSB(); /* Forza la scrittura a raggiungere SRAM4 */
 1614              		.loc 1 295 5 is_stmt 1 view .LVU508
 295:../../CM4/Core/Src/main.c ****     __DSB(); /* Forza la scrittura a raggiungere SRAM4 */
 1615              		.loc 1 295 29 is_stmt 0 view .LVU509
 1616 0426 0122     		movs	r2, #1
 1617 0428 5A60     		str	r2, [r3, #4]
 296:../../CM4/Core/Src/main.c ****   }
 1618              		.loc 1 296 5 is_stmt 1 view .LVU510
 1619              	.LBB54:
 1620              	.LBI54:
 944:../../Drivers/CMSIS/Include/cmsis_gcc.h **** {
 1621              		.loc 2 944 27 view .LVU511
 1622              	.LBB55:
 1623              		.loc 2 946 3 view .LVU512
 1624              		.syntax unified
 1625              	@ 946 "../../Drivers/CMSIS/Include/cmsis_gcc.h" 1
 1626 042a BFF34F8F 		dsb 0xF
 1627              	@ 0 "" 2
 1628              		.thumb
 1629              		.syntax unified
 1630              	.LBE55:
 1631              	.LBE54:
 1632              	.LBE51:
 245:../../CM4/Core/Src/main.c ****     uint32_t blinks = dist_cm;
 1633              		.loc 1 245 9 view .LVU513
 1634              	.LVL122:
 1635              	.L94:
 245:../../CM4/Core/Src/main.c ****     uint32_t blinks = dist_cm;
 1636              		.loc 1 245 3 view .LVU514
 1637              	.LBB57:
 246:../../CM4/Core/Src/main.c ****     if (blinks == 0U) {
 1638              		.loc 1 246 5 view .LVU515
 247:../../CM4/Core/Src/main.c ****       blinks = 1U;
ARM GAS  C:\Users\minis\AppData\Local\Temp\ccyLswLP.s 			page 62


 1639              		.loc 1 247 5 view .LVU516
 247:../../CM4/Core/Src/main.c ****       blinks = 1U;
 1640              		.loc 1 247 8 is_stmt 0 view .LVU517
 1641 042e 002E     		cmp	r6, #0
 1642 0430 A7D0     		beq	.L95
 250:../../CM4/Core/Src/main.c ****       blinks = 20U;
 1643              		.loc 1 250 5 is_stmt 1 view .LVU518
 250:../../CM4/Core/Src/main.c ****       blinks = 20U;
 1644              		.loc 1 250 8 is_stmt 0 view .LVU519
 1645 0432 142E     		cmp	r6, #20
 1646 0434 A8D8     		bhi	.L96
 1647 0436 3746     		mov	r7, r6
 1648 0438 A4E7     		b	.L82
 1649              	.LVL123:
 1650              	.L103:
 1651              	.LBB56:
 282:../../CM4/Core/Src/main.c ****       while (HAL_GPIO_ReadPin(GPIOD, GPIO_PIN_0) == GPIO_PIN_SET) {
 1652              		.loc 1 282 7 is_stmt 1 view .LVU520
 282:../../CM4/Core/Src/main.c ****       while (HAL_GPIO_ReadPin(GPIOD, GPIO_PIN_0) == GPIO_PIN_SET) {
 1653              		.loc 1 282 21 is_stmt 0 view .LVU521
 1654 043a 0D4B     		ldr	r3, .L106
 1655 043c 1B68     		ldr	r3, [r3]
 282:../../CM4/Core/Src/main.c ****       while (HAL_GPIO_ReadPin(GPIOD, GPIO_PIN_0) == GPIO_PIN_SET) {
 1656              		.loc 1 282 16 view .LVU522
 1657 043e 5C6A     		ldr	r4, [r3, #36]
 1658              	.LVL124:
 283:../../CM4/Core/Src/main.c ****         if ((uint32_t)(__HAL_TIM_GET_COUNTER(&htim2) - es) >
 1659              		.loc 1 283 7 is_stmt 1 view .LVU523
 1660              	.L91:
 283:../../CM4/Core/Src/main.c ****         if ((uint32_t)(__HAL_TIM_GET_COUNTER(&htim2) - es) >
 1661              		.loc 1 283 50 view .LVU524
 283:../../CM4/Core/Src/main.c ****         if ((uint32_t)(__HAL_TIM_GET_COUNTER(&htim2) - es) >
 1662              		.loc 1 283 14 is_stmt 0 view .LVU525
 1663 0440 0121     		movs	r1, #1
 1664 0442 0C48     		ldr	r0, .L106+4
 1665 0444 FFF7FEFF 		bl	HAL_GPIO_ReadPin
 1666              	.LVL125:
 283:../../CM4/Core/Src/main.c ****         if ((uint32_t)(__HAL_TIM_GET_COUNTER(&htim2) - es) >
 1667              		.loc 1 283 50 discriminator 1 view .LVU526
 1668 0448 0128     		cmp	r0, #1
 1669 044a 07D1     		bne	.L92
 284:../../CM4/Core/Src/main.c ****             ECHO_PULSE_TIMEOUT_US) {
 1670              		.loc 1 284 9 is_stmt 1 view .LVU527
 284:../../CM4/Core/Src/main.c ****             ECHO_PULSE_TIMEOUT_US) {
 1671              		.loc 1 284 24 is_stmt 0 view .LVU528
 1672 044c 084B     		ldr	r3, .L106
 1673 044e 1B68     		ldr	r3, [r3]
 1674 0450 5B6A     		ldr	r3, [r3, #36]
 284:../../CM4/Core/Src/main.c ****             ECHO_PULSE_TIMEOUT_US) {
 1675              		.loc 1 284 54 view .LVU529
 1676 0452 1B1B     		subs	r3, r3, r4
 284:../../CM4/Core/Src/main.c ****             ECHO_PULSE_TIMEOUT_US) {
 1677              		.loc 1 284 12 view .LVU530
 1678 0454 46F29052 		movw	r2, #26000
 1679 0458 9342     		cmp	r3, r2
 1680 045a F1D9     		bls	.L91
 1681              	.L92:
ARM GAS  C:\Users\minis\AppData\Local\Temp\ccyLswLP.s 			page 63


 289:../../CM4/Core/Src/main.c ****       dist_cm = echo_time / 58U;
 1682              		.loc 1 289 7 is_stmt 1 view .LVU531
 289:../../CM4/Core/Src/main.c ****       dist_cm = echo_time / 58U;
 1683              		.loc 1 289 30 is_stmt 0 view .LVU532
 1684 045c 044B     		ldr	r3, .L106
 1685 045e 1B68     		ldr	r3, [r3]
 1686 0460 5E6A     		ldr	r6, [r3, #36]
 1687              	.LVL126:
 289:../../CM4/Core/Src/main.c ****       dist_cm = echo_time / 58U;
 1688              		.loc 1 289 17 view .LVU533
 1689 0462 361B     		subs	r6, r6, r4
 1690              	.LVL127:
 290:../../CM4/Core/Src/main.c ****     }
 1691              		.loc 1 290 7 is_stmt 1 view .LVU534
 290:../../CM4/Core/Src/main.c ****     }
 1692              		.loc 1 290 15 is_stmt 0 view .LVU535
 1693 0464 064B     		ldr	r3, .L106+16
 1694 0466 A3FB0636 		umull	r3, r6, r3, r6
 1695              	.LVL128:
 290:../../CM4/Core/Src/main.c ****     }
 1696              		.loc 1 290 15 view .LVU536
 1697 046a 7609     		lsrs	r6, r6, #5
 1698 046c D8E7     		b	.L90
 1699              	.L107:
 1700 046e 00BF     		.align	2
 1701              	.L106:
 1702 0470 00000000 		.word	htim2
 1703 0474 000C0258 		.word	1476529152
 1704 0478 00040258 		.word	1476527104
 1705 047c 00000000 		.word	.LC0
 1706 0480 09CB3D8D 		.word	-1925330167
 1707              	.LBE56:
 1708              	.LBE57:
 1709              		.cfi_endproc
 1710              	.LFE135:
 1712              		.section	.text._write,"ax",%progbits
 1713              		.align	1
 1714              		.global	_write
 1715              		.syntax unified
 1716              		.thumb
 1717              		.thumb_func
 1719              	_write:
 1720              	.LVL129:
 1721              	.LFB141:
 454:../../CM4/Core/Src/main.c ****   }
 455:../../CM4/Core/Src/main.c **** }
 456:../../CM4/Core/Src/main.c **** 
 457:../../CM4/Core/Src/main.c **** int _write(int file, char *ptr, int len) {
 1722              		.loc 1 457 42 is_stmt 1 view -0
 1723              		.cfi_startproc
 1724              		@ args = 0, pretend = 0, frame = 0
 1725              		@ frame_needed = 0, uses_anonymous_args = 0
 1726              		.loc 1 457 42 is_stmt 0 view .LVU538
 1727 0000 10B5     		push	{r4, lr}
 1728              	.LCFI15:
 1729              		.cfi_def_cfa_offset 8
 1730              		.cfi_offset 4, -8
ARM GAS  C:\Users\minis\AppData\Local\Temp\ccyLswLP.s 			page 64


 1731              		.cfi_offset 14, -4
 1732 0002 1446     		mov	r4, r2
 458:../../CM4/Core/Src/main.c ****   /* La funzione HAL_UART_Transmit è un algoritmo bloccante O(n).
 459:../../CM4/Core/Src/main.c ****    * Sospenderà l'esecuzione del core finché l'ultimo bit dell'intero
 460:../../CM4/Core/Src/main.c ****    * buffer non sarà fisicamente uscito dal pin TX.
 461:../../CM4/Core/Src/main.c ****    * Parametri: l'handle della UART, il puntatore ai dati, la lunghezza,
 462:../../CM4/Core/Src/main.c ****    * e un timeout di sicurezza (es. 1000 millisecondi).
 463:../../CM4/Core/Src/main.c ****    */
 464:../../CM4/Core/Src/main.c ****   HAL_UART_Transmit(&huart4, (uint8_t *)ptr, len, 1000);
 1733              		.loc 1 464 3 is_stmt 1 view .LVU539
 1734 0004 4FF47A73 		mov	r3, #1000
 1735 0008 92B2     		uxth	r2, r2
 1736              	.LVL130:
 1737              		.loc 1 464 3 is_stmt 0 view .LVU540
 1738 000a 0248     		ldr	r0, .L110
 1739              	.LVL131:
 1740              		.loc 1 464 3 view .LVU541
 1741 000c FFF7FEFF 		bl	HAL_UART_Transmit
 1742              	.LVL132:
 465:../../CM4/Core/Src/main.c ****   return len;
 1743              		.loc 1 465 3 is_stmt 1 view .LVU542
 466:../../CM4/Core/Src/main.c **** }...
 1744              		.loc 1 466 1 is_stmt 0 view .LVU543
 1745 0010 2046     		mov	r0, r4
 1746 0012 10BD     		pop	{r4, pc}
 1747              	.LVL133:
 1748              	.L111:
 1749              		.loc 1 466 1 view .LVU544
 1750              		.align	2
 1751              	.L110:
 1752 0014 00000000 		.word	huart4
 1753              		.cfi_endproc
 1754              	.LFE141:
 1756              		.global	huart4
 1757              		.section	.bss.huart4,"aw",%nobits
 1758              		.align	2
 1761              	huart4:
 1762 0000 00000000 		.space	148
 1762      00000000 
 1762      00000000 
 1762      00000000 
 1762      00000000 
 1763              		.global	htim2
 1764              		.section	.bss.htim2,"aw",%nobits
 1765              		.align	2
 1768              	htim2:
 1769 0000 00000000 		.space	76
 1769      00000000 
 1769      00000000 
 1769      00000000 
 1769      00000000 
 1770              		.text
 1771              	.Letext0:
 1772              		.file 3 "C:/Program Files (x86)/Arm GNU Toolchain arm-none-eabi/14.3 rel1/arm-none-eabi/include/ma
 1773              		.file 4 "C:/Program Files (x86)/Arm GNU Toolchain arm-none-eabi/14.3 rel1/arm-none-eabi/include/sy
 1774              		.file 5 "../../Drivers/CMSIS/Include/core_cm4.h"
 1775              		.file 6 "../../Drivers/CMSIS/Device/ST/STM32H7xx/Include/stm32h755xx.h"
ARM GAS  C:\Users\minis\AppData\Local\Temp\ccyLswLP.s 			page 65


 1776              		.file 7 "../../Drivers/STM32H7xx_HAL_Driver/Inc/stm32h7xx_hal_def.h"
 1777              		.file 8 "../../Drivers/STM32H7xx_HAL_Driver/Inc/stm32h7xx_hal_rcc.h"
 1778              		.file 9 "../../Drivers/STM32H7xx_HAL_Driver/Inc/stm32h7xx_hal_gpio.h"
 1779              		.file 10 "../../Drivers/STM32H7xx_HAL_Driver/Inc/stm32h7xx_hal_dma.h"
 1780              		.file 11 "../../Drivers/STM32H7xx_HAL_Driver/Inc/stm32h7xx_hal_tim.h"
 1781              		.file 12 "../../Drivers/STM32H7xx_HAL_Driver/Inc/stm32h7xx_hal_uart.h"
 1782              		.file 13 "../../Common/Inc/shared_data.h"
 1783              		.file 14 "../../Drivers/STM32H7xx_HAL_Driver/Inc/stm32h7xx_hal_uart_ex.h"
 1784              		.file 15 "../../Drivers/STM32H7xx_HAL_Driver/Inc/stm32h7xx_hal_tim_ex.h"
 1785              		.file 16 "../../Drivers/STM32H7xx_HAL_Driver/Inc/stm32h7xx_hal_pwr_ex.h"
 1786              		.file 17 "C:/Program Files (x86)/Arm GNU Toolchain arm-none-eabi/14.3 rel1/arm-none-eabi/include/s
 1787              		.file 18 "../../Drivers/STM32H7xx_HAL_Driver/Inc/stm32h7xx_hal_hsem.h"
 1788              		.file 19 "../../Drivers/STM32H7xx_HAL_Driver/Inc/stm32h7xx_hal.h"
 1789              		.file 20 "<built-in>"
ARM GAS  C:\Users\minis\AppData\Local\Temp\ccyLswLP.s 			page 66

